ARM GAS  C:\Users\codyg\AppData\Local\Temp\ccQkQY0S.s 			page 1


   1              		.syntax unified
   2              		.cpu cortex-m4
   3              		.eabi_attribute 27, 1
   4              		.fpu fpv4-sp-d16
   5              		.eabi_attribute 20, 1
   6              		.eabi_attribute 21, 1
   7              		.eabi_attribute 23, 3
   8              		.eabi_attribute 24, 1
   9              		.eabi_attribute 25, 1
  10              		.eabi_attribute 26, 1
  11              		.eabi_attribute 30, 1
  12              		.eabi_attribute 34, 1
  13              		.eabi_attribute 18, 4
  14              		.thumb
  15              		.syntax unified
  16              		.file	"cy_ble_hts.c"
  17              		.text
  18              	.Ltext0:
  19              		.cfi_sections	.debug_frame
  20              		.section	.text.Cy_BLE_HTSS_ConfirmationEventHandler,"ax",%progbits
  21              		.align	2
  22              		.thumb
  23              		.thumb_func
  24              		.type	Cy_BLE_HTSS_ConfirmationEventHandler, %function
  25              	Cy_BLE_HTSS_ConfirmationEventHandler:
  26              	.LFB294:
  27              		.file 1 "Generated_Source\\PSoC6\\pdl\\middleware\\ble\\cy_ble_hts.c"
   1:Generated_Source\PSoC6\pdl\middleware\ble/cy_ble_hts.c **** /***************************************************************************//**
   2:Generated_Source\PSoC6\pdl\middleware\ble/cy_ble_hts.c **** * \file cy_ble_hts.c
   3:Generated_Source\PSoC6\pdl\middleware\ble/cy_ble_hts.c **** * \version 2.0
   4:Generated_Source\PSoC6\pdl\middleware\ble/cy_ble_hts.c **** *
   5:Generated_Source\PSoC6\pdl\middleware\ble/cy_ble_hts.c **** * \brief
   6:Generated_Source\PSoC6\pdl\middleware\ble/cy_ble_hts.c **** *  Contains the source code for Health Thermometer Service.
   7:Generated_Source\PSoC6\pdl\middleware\ble/cy_ble_hts.c **** *
   8:Generated_Source\PSoC6\pdl\middleware\ble/cy_ble_hts.c **** ********************************************************************************
   9:Generated_Source\PSoC6\pdl\middleware\ble/cy_ble_hts.c **** * \copyright
  10:Generated_Source\PSoC6\pdl\middleware\ble/cy_ble_hts.c **** * Copyright 2017-2018, Cypress Semiconductor Corporation.  All rights reserved.
  11:Generated_Source\PSoC6\pdl\middleware\ble/cy_ble_hts.c **** * You may use this file only in accordance with the license, terms, conditions,
  12:Generated_Source\PSoC6\pdl\middleware\ble/cy_ble_hts.c **** * disclaimers, and limitations in the end user license agreement accompanying
  13:Generated_Source\PSoC6\pdl\middleware\ble/cy_ble_hts.c **** * the software package with which this file was provided.
  14:Generated_Source\PSoC6\pdl\middleware\ble/cy_ble_hts.c **** *******************************************************************************/
  15:Generated_Source\PSoC6\pdl\middleware\ble/cy_ble_hts.c **** 
  16:Generated_Source\PSoC6\pdl\middleware\ble/cy_ble_hts.c **** 
  17:Generated_Source\PSoC6\pdl\middleware\ble/cy_ble_hts.c **** #include "cy_ble_event_handler.h"
  18:Generated_Source\PSoC6\pdl\middleware\ble/cy_ble_hts.c **** 
  19:Generated_Source\PSoC6\pdl\middleware\ble/cy_ble_hts.c **** /* C binding of definitions if building with C++ compiler */
  20:Generated_Source\PSoC6\pdl\middleware\ble/cy_ble_hts.c **** #ifdef __cplusplus
  21:Generated_Source\PSoC6\pdl\middleware\ble/cy_ble_hts.c **** extern "C" {
  22:Generated_Source\PSoC6\pdl\middleware\ble/cy_ble_hts.c **** #endif /* __cplusplus */
  23:Generated_Source\PSoC6\pdl\middleware\ble/cy_ble_hts.c **** 
  24:Generated_Source\PSoC6\pdl\middleware\ble/cy_ble_hts.c **** #if (CY_BLE_MODE_PROFILE && defined(CY_BLE_HTS))
  25:Generated_Source\PSoC6\pdl\middleware\ble/cy_ble_hts.c **** 
  26:Generated_Source\PSoC6\pdl\middleware\ble/cy_ble_hts.c **** static cy_ble_callback_t Cy_BLE_HTS_ApplCallback = NULL;
  27:Generated_Source\PSoC6\pdl\middleware\ble/cy_ble_hts.c **** 
  28:Generated_Source\PSoC6\pdl\middleware\ble/cy_ble_hts.c **** #ifdef CY_BLE_HTS_SERVER
  29:Generated_Source\PSoC6\pdl\middleware\ble/cy_ble_hts.c **** /* The internal storage for the last request handle to check response for server */
  30:Generated_Source\PSoC6\pdl\middleware\ble/cy_ble_hts.c **** static cy_ble_gatt_db_attr_handle_t cy_ble_htssReqHandle;
ARM GAS  C:\Users\codyg\AppData\Local\Temp\ccQkQY0S.s 			page 2


  31:Generated_Source\PSoC6\pdl\middleware\ble/cy_ble_hts.c **** #endif /* CY_BLE_HTS_SERVER */
  32:Generated_Source\PSoC6\pdl\middleware\ble/cy_ble_hts.c **** 
  33:Generated_Source\PSoC6\pdl\middleware\ble/cy_ble_hts.c **** #ifdef CY_BLE_HTS_CLIENT
  34:Generated_Source\PSoC6\pdl\middleware\ble/cy_ble_hts.c **** /* HTS Center Service characteristics GATT DB handles structure */
  35:Generated_Source\PSoC6\pdl\middleware\ble/cy_ble_hts.c **** cy_stc_ble_htsc_t cy_ble_htsc[CY_BLE_GATTC_COUNT];
  36:Generated_Source\PSoC6\pdl\middleware\ble/cy_ble_hts.c **** 
  37:Generated_Source\PSoC6\pdl\middleware\ble/cy_ble_hts.c **** /* The internal storage for the last request handle to check response */
  38:Generated_Source\PSoC6\pdl\middleware\ble/cy_ble_hts.c **** static cy_ble_gatt_db_attr_handle_t cy_ble_htscReqHandle[CY_BLE_GATTC_COUNT];
  39:Generated_Source\PSoC6\pdl\middleware\ble/cy_ble_hts.c **** #endif /* (CY_BLE_HTS_CLIENT) */
  40:Generated_Source\PSoC6\pdl\middleware\ble/cy_ble_hts.c **** 
  41:Generated_Source\PSoC6\pdl\middleware\ble/cy_ble_hts.c **** /* The pointer on global BLE HTS Config structure */
  42:Generated_Source\PSoC6\pdl\middleware\ble/cy_ble_hts.c **** cy_stc_ble_hts_config_t *cy_ble_htsConfigPtr = NULL;
  43:Generated_Source\PSoC6\pdl\middleware\ble/cy_ble_hts.c **** 
  44:Generated_Source\PSoC6\pdl\middleware\ble/cy_ble_hts.c **** /***************************************
  45:Generated_Source\PSoC6\pdl\middleware\ble/cy_ble_hts.c **** * Private Function Prototypes
  46:Generated_Source\PSoC6\pdl\middleware\ble/cy_ble_hts.c **** ***************************************/
  47:Generated_Source\PSoC6\pdl\middleware\ble/cy_ble_hts.c **** #ifdef CY_BLE_HTS_SERVER
  48:Generated_Source\PSoC6\pdl\middleware\ble/cy_ble_hts.c **** static void Cy_BLE_HTSS_ConfirmationEventHandler(const cy_stc_ble_conn_handle_t *eventParam);
  49:Generated_Source\PSoC6\pdl\middleware\ble/cy_ble_hts.c **** static cy_en_ble_gatt_err_code_t Cy_BLE_HTSS_WriteEventHandler(cy_stc_ble_gatts_write_cmd_req_param
  50:Generated_Source\PSoC6\pdl\middleware\ble/cy_ble_hts.c **** #endif /* CY_BLE_HTS_SERVER */
  51:Generated_Source\PSoC6\pdl\middleware\ble/cy_ble_hts.c **** 
  52:Generated_Source\PSoC6\pdl\middleware\ble/cy_ble_hts.c **** #ifdef CY_BLE_HTS_CLIENT
  53:Generated_Source\PSoC6\pdl\middleware\ble/cy_ble_hts.c **** static void Cy_BLE_HTSC_DiscoverCharacteristicsEventHandler(cy_stc_ble_disc_char_info_t *discCharIn
  54:Generated_Source\PSoC6\pdl\middleware\ble/cy_ble_hts.c **** static void Cy_BLE_HTSC_DiscoverCharDescriptorsEventHandler(cy_stc_ble_disc_descr_info_t *discDescr
  55:Generated_Source\PSoC6\pdl\middleware\ble/cy_ble_hts.c **** static void Cy_BLE_HTSC_GetCharRange(cy_stc_ble_disc_range_info_t *charRangeInfo);
  56:Generated_Source\PSoC6\pdl\middleware\ble/cy_ble_hts.c **** static void Cy_BLE_HTSC_NotificationEventHandler(cy_stc_ble_gattc_handle_value_ntf_param_t *eventPa
  57:Generated_Source\PSoC6\pdl\middleware\ble/cy_ble_hts.c **** static void Cy_BLE_HTSC_IndicationEventHandler(cy_stc_ble_gattc_handle_value_ind_param_t *eventPara
  58:Generated_Source\PSoC6\pdl\middleware\ble/cy_ble_hts.c **** static void Cy_BLE_HTSC_ReadResponseEventHandler(cy_stc_ble_gattc_read_rsp_param_t *eventParam);
  59:Generated_Source\PSoC6\pdl\middleware\ble/cy_ble_hts.c **** static void Cy_BLE_HTSC_WriteResponseEventHandler(const cy_stc_ble_conn_handle_t *eventParam);
  60:Generated_Source\PSoC6\pdl\middleware\ble/cy_ble_hts.c **** static void Cy_BLE_HTSC_ErrorResponseEventHandler(const cy_stc_ble_gatt_err_param_t *eventParam);
  61:Generated_Source\PSoC6\pdl\middleware\ble/cy_ble_hts.c **** #endif /* (CY_BLE_HTS_CLIENT) */
  62:Generated_Source\PSoC6\pdl\middleware\ble/cy_ble_hts.c **** static cy_en_ble_gatt_err_code_t Cy_BLE_HTS_EventHandler(uint32_t eventCode, void *eventParam);
  63:Generated_Source\PSoC6\pdl\middleware\ble/cy_ble_hts.c **** 
  64:Generated_Source\PSoC6\pdl\middleware\ble/cy_ble_hts.c **** 
  65:Generated_Source\PSoC6\pdl\middleware\ble/cy_ble_hts.c **** /******************************************************************************
  66:Generated_Source\PSoC6\pdl\middleware\ble/cy_ble_hts.c **** * Function Name: Cy_BLE_HTS_Init
  67:Generated_Source\PSoC6\pdl\middleware\ble/cy_ble_hts.c **** ***************************************************************************//**
  68:Generated_Source\PSoC6\pdl\middleware\ble/cy_ble_hts.c **** *
  69:Generated_Source\PSoC6\pdl\middleware\ble/cy_ble_hts.c **** *  This function initializes HTS Service.
  70:Generated_Source\PSoC6\pdl\middleware\ble/cy_ble_hts.c **** *
  71:Generated_Source\PSoC6\pdl\middleware\ble/cy_ble_hts.c **** *  \param config: Configuration structure for HTS Service.
  72:Generated_Source\PSoC6\pdl\middleware\ble/cy_ble_hts.c **** *
  73:Generated_Source\PSoC6\pdl\middleware\ble/cy_ble_hts.c **** *  \return
  74:Generated_Source\PSoC6\pdl\middleware\ble/cy_ble_hts.c **** *  cy_en_ble_api_result_t : Return value indicates if the function succeeded or
  75:Generated_Source\PSoC6\pdl\middleware\ble/cy_ble_hts.c **** *  failed. The following are possible error codes.
  76:Generated_Source\PSoC6\pdl\middleware\ble/cy_ble_hts.c **** *
  77:Generated_Source\PSoC6\pdl\middleware\ble/cy_ble_hts.c **** *   Error Codes                             | Description
  78:Generated_Source\PSoC6\pdl\middleware\ble/cy_ble_hts.c **** *   ------------                            | -----------
  79:Generated_Source\PSoC6\pdl\middleware\ble/cy_ble_hts.c **** *   CY_BLE_SUCCESS                          | The function completed successfully.
  80:Generated_Source\PSoC6\pdl\middleware\ble/cy_ble_hts.c **** *   CY_BLE_ERROR_INVALID_PARAMETER          | On specifying NULL as input parameter
  81:Generated_Source\PSoC6\pdl\middleware\ble/cy_ble_hts.c **** *   CY_BLE_ERROR_MEMORY_ALLOCATION_FAILED   | Buffer overflow in the registration callback.
  82:Generated_Source\PSoC6\pdl\middleware\ble/cy_ble_hts.c **** *
  83:Generated_Source\PSoC6\pdl\middleware\ble/cy_ble_hts.c **** ******************************************************************************/
  84:Generated_Source\PSoC6\pdl\middleware\ble/cy_ble_hts.c **** cy_en_ble_api_result_t Cy_BLE_HTS_Init(cy_stc_ble_hts_config_t *config)
  85:Generated_Source\PSoC6\pdl\middleware\ble/cy_ble_hts.c **** {
  86:Generated_Source\PSoC6\pdl\middleware\ble/cy_ble_hts.c ****     cy_en_ble_api_result_t apiResult;
  87:Generated_Source\PSoC6\pdl\middleware\ble/cy_ble_hts.c **** 
ARM GAS  C:\Users\codyg\AppData\Local\Temp\ccQkQY0S.s 			page 3


  88:Generated_Source\PSoC6\pdl\middleware\ble/cy_ble_hts.c ****     if(config == NULL)
  89:Generated_Source\PSoC6\pdl\middleware\ble/cy_ble_hts.c ****     {
  90:Generated_Source\PSoC6\pdl\middleware\ble/cy_ble_hts.c ****         apiResult = CY_BLE_ERROR_INVALID_PARAMETER;
  91:Generated_Source\PSoC6\pdl\middleware\ble/cy_ble_hts.c ****     }
  92:Generated_Source\PSoC6\pdl\middleware\ble/cy_ble_hts.c ****     else
  93:Generated_Source\PSoC6\pdl\middleware\ble/cy_ble_hts.c ****     {
  94:Generated_Source\PSoC6\pdl\middleware\ble/cy_ble_hts.c ****         /* Registers a pointer to config structure */
  95:Generated_Source\PSoC6\pdl\middleware\ble/cy_ble_hts.c ****         cy_ble_htsConfigPtr = config;
  96:Generated_Source\PSoC6\pdl\middleware\ble/cy_ble_hts.c **** 
  97:Generated_Source\PSoC6\pdl\middleware\ble/cy_ble_hts.c ****         /* Registers Event Handler for the HTS Service */
  98:Generated_Source\PSoC6\pdl\middleware\ble/cy_ble_hts.c ****         apiResult = Cy_BLE_RegisterServiceEventHandler(&Cy_BLE_HTS_EventHandler);
  99:Generated_Source\PSoC6\pdl\middleware\ble/cy_ble_hts.c **** 
 100:Generated_Source\PSoC6\pdl\middleware\ble/cy_ble_hts.c ****         /* Registers a callback function via config structure */
 101:Generated_Source\PSoC6\pdl\middleware\ble/cy_ble_hts.c ****         if(cy_ble_htsConfigPtr->callbackFunc != NULL)
 102:Generated_Source\PSoC6\pdl\middleware\ble/cy_ble_hts.c ****         {
 103:Generated_Source\PSoC6\pdl\middleware\ble/cy_ble_hts.c ****             Cy_BLE_HTS_ApplCallback = cy_ble_htsConfigPtr->callbackFunc;
 104:Generated_Source\PSoC6\pdl\middleware\ble/cy_ble_hts.c ****         }
 105:Generated_Source\PSoC6\pdl\middleware\ble/cy_ble_hts.c **** 
 106:Generated_Source\PSoC6\pdl\middleware\ble/cy_ble_hts.c ****     #ifdef CY_BLE_HTS_SERVER
 107:Generated_Source\PSoC6\pdl\middleware\ble/cy_ble_hts.c ****         cy_ble_htssReqHandle = CY_BLE_GATT_INVALID_ATTR_HANDLE_VALUE;
 108:Generated_Source\PSoC6\pdl\middleware\ble/cy_ble_hts.c ****     #endif /* CY_BLE_HTS_SERVER */
 109:Generated_Source\PSoC6\pdl\middleware\ble/cy_ble_hts.c **** 
 110:Generated_Source\PSoC6\pdl\middleware\ble/cy_ble_hts.c ****     #ifdef CY_BLE_HTS_CLIENT
 111:Generated_Source\PSoC6\pdl\middleware\ble/cy_ble_hts.c ****         {
 112:Generated_Source\PSoC6\pdl\middleware\ble/cy_ble_hts.c ****             uint32_t idx;
 113:Generated_Source\PSoC6\pdl\middleware\ble/cy_ble_hts.c ****             for(idx = 0u; idx < CY_BLE_GATTC_COUNT; idx++)
 114:Generated_Source\PSoC6\pdl\middleware\ble/cy_ble_hts.c ****             {
 115:Generated_Source\PSoC6\pdl\middleware\ble/cy_ble_hts.c ****                 if(cy_ble_serverInfo[idx][CY_BLE_SRVI_HTS].range.startHandle == CY_BLE_GATT_INVALID
 116:Generated_Source\PSoC6\pdl\middleware\ble/cy_ble_hts.c ****                 {
 117:Generated_Source\PSoC6\pdl\middleware\ble/cy_ble_hts.c ****                     (void)memset(&cy_ble_htsc[idx], 0, sizeof(cy_stc_ble_htsc_t));
 118:Generated_Source\PSoC6\pdl\middleware\ble/cy_ble_hts.c **** 
 119:Generated_Source\PSoC6\pdl\middleware\ble/cy_ble_hts.c ****                     /* initialize uuid  */
 120:Generated_Source\PSoC6\pdl\middleware\ble/cy_ble_hts.c ****                     cy_ble_serverInfo[idx][CY_BLE_SRVI_HTS].uuid = CY_BLE_UUID_HEALTH_THERMOMETER_S
 121:Generated_Source\PSoC6\pdl\middleware\ble/cy_ble_hts.c ****                 }
 122:Generated_Source\PSoC6\pdl\middleware\ble/cy_ble_hts.c ****                 cy_ble_htscReqHandle[idx] = CY_BLE_GATT_INVALID_ATTR_HANDLE_VALUE;
 123:Generated_Source\PSoC6\pdl\middleware\ble/cy_ble_hts.c ****             }
 124:Generated_Source\PSoC6\pdl\middleware\ble/cy_ble_hts.c ****         }
 125:Generated_Source\PSoC6\pdl\middleware\ble/cy_ble_hts.c ****         #endif /* CY_BLE_HTS_CLIENT */
 126:Generated_Source\PSoC6\pdl\middleware\ble/cy_ble_hts.c ****     }
 127:Generated_Source\PSoC6\pdl\middleware\ble/cy_ble_hts.c **** 
 128:Generated_Source\PSoC6\pdl\middleware\ble/cy_ble_hts.c ****     return(apiResult);
 129:Generated_Source\PSoC6\pdl\middleware\ble/cy_ble_hts.c **** }
 130:Generated_Source\PSoC6\pdl\middleware\ble/cy_ble_hts.c **** 
 131:Generated_Source\PSoC6\pdl\middleware\ble/cy_ble_hts.c **** 
 132:Generated_Source\PSoC6\pdl\middleware\ble/cy_ble_hts.c **** /******************************************************************************
 133:Generated_Source\PSoC6\pdl\middleware\ble/cy_ble_hts.c **** * Function Name: Cy_BLE_HTS_RegisterAttrCallback
 134:Generated_Source\PSoC6\pdl\middleware\ble/cy_ble_hts.c **** ***************************************************************************//**
 135:Generated_Source\PSoC6\pdl\middleware\ble/cy_ble_hts.c **** *
 136:Generated_Source\PSoC6\pdl\middleware\ble/cy_ble_hts.c **** *  Registers a callback function for service-specific attribute operations.
 137:Generated_Source\PSoC6\pdl\middleware\ble/cy_ble_hts.c **** *  Service specific write requests from peer device will not be handled with
 138:Generated_Source\PSoC6\pdl\middleware\ble/cy_ble_hts.c **** *  unregistered callback function.
 139:Generated_Source\PSoC6\pdl\middleware\ble/cy_ble_hts.c **** *
 140:Generated_Source\PSoC6\pdl\middleware\ble/cy_ble_hts.c **** *  \param callbackFunc: An application layer event callback function to receive
 141:Generated_Source\PSoC6\pdl\middleware\ble/cy_ble_hts.c **** *                     events from the BLE Middleware. The definition of
 142:Generated_Source\PSoC6\pdl\middleware\ble/cy_ble_hts.c **** *                     cy_ble_callback_t for HTS Service is:\n
 143:Generated_Source\PSoC6\pdl\middleware\ble/cy_ble_hts.c **** *                     typedef void (* cy_ble_callback_t) (uint32_t eventCode,
 144:Generated_Source\PSoC6\pdl\middleware\ble/cy_ble_hts.c **** *                                                        void *eventParam)
ARM GAS  C:\Users\codyg\AppData\Local\Temp\ccQkQY0S.s 			page 4


 145:Generated_Source\PSoC6\pdl\middleware\ble/cy_ble_hts.c **** *                     * eventCode indicates the event that triggered this
 146:Generated_Source\PSoC6\pdl\middleware\ble/cy_ble_hts.c **** *                       callback (e.g. CY_BLE_EVT_HTSS_NOTIFICATION_ENABLED).
 147:Generated_Source\PSoC6\pdl\middleware\ble/cy_ble_hts.c **** *                     * eventParam contains the parameters corresponding to the
 148:Generated_Source\PSoC6\pdl\middleware\ble/cy_ble_hts.c **** *                       current event. (e.g. pointer to cy_stc_ble_hts_char_value_t
 149:Generated_Source\PSoC6\pdl\middleware\ble/cy_ble_hts.c **** *                       structure that contains details of the characteristic
 150:Generated_Source\PSoC6\pdl\middleware\ble/cy_ble_hts.c **** *                       for which notification enabled event was triggered).
 151:Generated_Source\PSoC6\pdl\middleware\ble/cy_ble_hts.c **** *
 152:Generated_Source\PSoC6\pdl\middleware\ble/cy_ble_hts.c **** *  \return
 153:Generated_Source\PSoC6\pdl\middleware\ble/cy_ble_hts.c **** *  cy_en_ble_api_result_t : Return value indicates if the function succeeded or
 154:Generated_Source\PSoC6\pdl\middleware\ble/cy_ble_hts.c **** *  failed. The following are possible error codes:
 155:Generated_Source\PSoC6\pdl\middleware\ble/cy_ble_hts.c **** *
 156:Generated_Source\PSoC6\pdl\middleware\ble/cy_ble_hts.c **** *   Error Codes                             | Description
 157:Generated_Source\PSoC6\pdl\middleware\ble/cy_ble_hts.c **** *   ------------                            | -----------
 158:Generated_Source\PSoC6\pdl\middleware\ble/cy_ble_hts.c **** *   CY_BLE_SUCCESS                          | The function completed successfully.
 159:Generated_Source\PSoC6\pdl\middleware\ble/cy_ble_hts.c **** *   CY_BLE_ERROR_INVALID_OPERATION          | This operation is not permitted
 160:Generated_Source\PSoC6\pdl\middleware\ble/cy_ble_hts.c **** *
 161:Generated_Source\PSoC6\pdl\middleware\ble/cy_ble_hts.c **** ******************************************************************************/
 162:Generated_Source\PSoC6\pdl\middleware\ble/cy_ble_hts.c **** cy_en_ble_api_result_t Cy_BLE_HTS_RegisterAttrCallback(cy_ble_callback_t callbackFunc)
 163:Generated_Source\PSoC6\pdl\middleware\ble/cy_ble_hts.c **** {
 164:Generated_Source\PSoC6\pdl\middleware\ble/cy_ble_hts.c ****     cy_en_ble_api_result_t apiResult = CY_BLE_SUCCESS;
 165:Generated_Source\PSoC6\pdl\middleware\ble/cy_ble_hts.c ****     
 166:Generated_Source\PSoC6\pdl\middleware\ble/cy_ble_hts.c ****     Cy_BLE_HTS_ApplCallback = callbackFunc;
 167:Generated_Source\PSoC6\pdl\middleware\ble/cy_ble_hts.c ****     if(cy_ble_htsConfigPtr != NULL)
 168:Generated_Source\PSoC6\pdl\middleware\ble/cy_ble_hts.c ****     {
 169:Generated_Source\PSoC6\pdl\middleware\ble/cy_ble_hts.c ****         cy_ble_htsConfigPtr->callbackFunc = callbackFunc;
 170:Generated_Source\PSoC6\pdl\middleware\ble/cy_ble_hts.c ****     }
 171:Generated_Source\PSoC6\pdl\middleware\ble/cy_ble_hts.c ****     else
 172:Generated_Source\PSoC6\pdl\middleware\ble/cy_ble_hts.c ****     {
 173:Generated_Source\PSoC6\pdl\middleware\ble/cy_ble_hts.c ****         apiResult = CY_BLE_ERROR_INVALID_OPERATION;
 174:Generated_Source\PSoC6\pdl\middleware\ble/cy_ble_hts.c ****     }
 175:Generated_Source\PSoC6\pdl\middleware\ble/cy_ble_hts.c ****     
 176:Generated_Source\PSoC6\pdl\middleware\ble/cy_ble_hts.c ****     return(apiResult);
 177:Generated_Source\PSoC6\pdl\middleware\ble/cy_ble_hts.c **** }
 178:Generated_Source\PSoC6\pdl\middleware\ble/cy_ble_hts.c **** 
 179:Generated_Source\PSoC6\pdl\middleware\ble/cy_ble_hts.c **** 
 180:Generated_Source\PSoC6\pdl\middleware\ble/cy_ble_hts.c **** #ifdef CY_BLE_HTS_SERVER
 181:Generated_Source\PSoC6\pdl\middleware\ble/cy_ble_hts.c **** 
 182:Generated_Source\PSoC6\pdl\middleware\ble/cy_ble_hts.c **** 
 183:Generated_Source\PSoC6\pdl\middleware\ble/cy_ble_hts.c **** /******************************************************************************
 184:Generated_Source\PSoC6\pdl\middleware\ble/cy_ble_hts.c **** * Function Name: Cy_BLE_HTSS_SetCharacteristicValue
 185:Generated_Source\PSoC6\pdl\middleware\ble/cy_ble_hts.c **** ***************************************************************************//**
 186:Generated_Source\PSoC6\pdl\middleware\ble/cy_ble_hts.c **** *
 187:Generated_Source\PSoC6\pdl\middleware\ble/cy_ble_hts.c **** *  Sets the characteristic value of the service in the local database.
 188:Generated_Source\PSoC6\pdl\middleware\ble/cy_ble_hts.c **** *
 189:Generated_Source\PSoC6\pdl\middleware\ble/cy_ble_hts.c **** *  \param charIndex: The index of the service characteristic.
 190:Generated_Source\PSoC6\pdl\middleware\ble/cy_ble_hts.c **** *  \param attrSize: The size (in Bytes) of the characteristic value attribute.
 191:Generated_Source\PSoC6\pdl\middleware\ble/cy_ble_hts.c **** *  \param attrValue: The pointer to the characteristic value data that should be
 192:Generated_Source\PSoC6\pdl\middleware\ble/cy_ble_hts.c **** *               stored in the GATT database.
 193:Generated_Source\PSoC6\pdl\middleware\ble/cy_ble_hts.c **** *
 194:Generated_Source\PSoC6\pdl\middleware\ble/cy_ble_hts.c **** * \return
 195:Generated_Source\PSoC6\pdl\middleware\ble/cy_ble_hts.c **** *  A return value of type cy_en_ble_api_result_t.
 196:Generated_Source\PSoC6\pdl\middleware\ble/cy_ble_hts.c **** *  * CY_BLE_SUCCESS - The request was handled successfully
 197:Generated_Source\PSoC6\pdl\middleware\ble/cy_ble_hts.c **** *  * CY_BLE_ERROR_INVALID_PARAMETER - Validation of the input parameter failed
 198:Generated_Source\PSoC6\pdl\middleware\ble/cy_ble_hts.c **** *
 199:Generated_Source\PSoC6\pdl\middleware\ble/cy_ble_hts.c **** ******************************************************************************/
 200:Generated_Source\PSoC6\pdl\middleware\ble/cy_ble_hts.c **** cy_en_ble_api_result_t Cy_BLE_HTSS_SetCharacteristicValue(cy_en_ble_hts_char_index_t charIndex,
 201:Generated_Source\PSoC6\pdl\middleware\ble/cy_ble_hts.c ****                                                           uint8_t attrSize,
ARM GAS  C:\Users\codyg\AppData\Local\Temp\ccQkQY0S.s 			page 5


 202:Generated_Source\PSoC6\pdl\middleware\ble/cy_ble_hts.c ****                                                           uint8_t *attrValue)
 203:Generated_Source\PSoC6\pdl\middleware\ble/cy_ble_hts.c **** {
 204:Generated_Source\PSoC6\pdl\middleware\ble/cy_ble_hts.c ****     cy_en_ble_api_result_t apiResult = CY_BLE_SUCCESS;
 205:Generated_Source\PSoC6\pdl\middleware\ble/cy_ble_hts.c **** 
 206:Generated_Source\PSoC6\pdl\middleware\ble/cy_ble_hts.c ****     if(charIndex >= CY_BLE_HTS_CHAR_COUNT)
 207:Generated_Source\PSoC6\pdl\middleware\ble/cy_ble_hts.c ****     {
 208:Generated_Source\PSoC6\pdl\middleware\ble/cy_ble_hts.c ****         apiResult = CY_BLE_ERROR_INVALID_PARAMETER;
 209:Generated_Source\PSoC6\pdl\middleware\ble/cy_ble_hts.c ****     }
 210:Generated_Source\PSoC6\pdl\middleware\ble/cy_ble_hts.c ****     else
 211:Generated_Source\PSoC6\pdl\middleware\ble/cy_ble_hts.c ****     {
 212:Generated_Source\PSoC6\pdl\middleware\ble/cy_ble_hts.c ****         /* Store data in database */
 213:Generated_Source\PSoC6\pdl\middleware\ble/cy_ble_hts.c ****         cy_stc_ble_gatts_db_attr_val_info_t dbAttrValInfo =
 214:Generated_Source\PSoC6\pdl\middleware\ble/cy_ble_hts.c ****         {
 215:Generated_Source\PSoC6\pdl\middleware\ble/cy_ble_hts.c ****             .handleValuePair.attrHandle = cy_ble_htsConfigPtr->htss->charInfo[charIndex].charHandle
 216:Generated_Source\PSoC6\pdl\middleware\ble/cy_ble_hts.c ****             .handleValuePair.value.len  = attrSize,
 217:Generated_Source\PSoC6\pdl\middleware\ble/cy_ble_hts.c ****             .handleValuePair.value.val  = attrValue,
 218:Generated_Source\PSoC6\pdl\middleware\ble/cy_ble_hts.c ****             .offset                     = 0u,
 219:Generated_Source\PSoC6\pdl\middleware\ble/cy_ble_hts.c ****             .flags                      = CY_BLE_GATT_DB_LOCALLY_INITIATED
 220:Generated_Source\PSoC6\pdl\middleware\ble/cy_ble_hts.c ****         };
 221:Generated_Source\PSoC6\pdl\middleware\ble/cy_ble_hts.c ****         if(Cy_BLE_GATTS_WriteAttributeValueCCCD(&dbAttrValInfo) != CY_BLE_GATT_ERR_NONE)
 222:Generated_Source\PSoC6\pdl\middleware\ble/cy_ble_hts.c ****         {
 223:Generated_Source\PSoC6\pdl\middleware\ble/cy_ble_hts.c ****             apiResult = CY_BLE_ERROR_INVALID_PARAMETER;
 224:Generated_Source\PSoC6\pdl\middleware\ble/cy_ble_hts.c ****         }
 225:Generated_Source\PSoC6\pdl\middleware\ble/cy_ble_hts.c ****     }
 226:Generated_Source\PSoC6\pdl\middleware\ble/cy_ble_hts.c **** 
 227:Generated_Source\PSoC6\pdl\middleware\ble/cy_ble_hts.c ****     return(apiResult);
 228:Generated_Source\PSoC6\pdl\middleware\ble/cy_ble_hts.c **** }
 229:Generated_Source\PSoC6\pdl\middleware\ble/cy_ble_hts.c **** 
 230:Generated_Source\PSoC6\pdl\middleware\ble/cy_ble_hts.c **** 
 231:Generated_Source\PSoC6\pdl\middleware\ble/cy_ble_hts.c **** /******************************************************************************
 232:Generated_Source\PSoC6\pdl\middleware\ble/cy_ble_hts.c **** * Function Name: Cy_BLE_HTSS_GetCharacteristicValue
 233:Generated_Source\PSoC6\pdl\middleware\ble/cy_ble_hts.c **** ***************************************************************************//**
 234:Generated_Source\PSoC6\pdl\middleware\ble/cy_ble_hts.c **** *
 235:Generated_Source\PSoC6\pdl\middleware\ble/cy_ble_hts.c **** *  Gets the characteristic value of the service, which is a value identified by
 236:Generated_Source\PSoC6\pdl\middleware\ble/cy_ble_hts.c **** *  charIndex.
 237:Generated_Source\PSoC6\pdl\middleware\ble/cy_ble_hts.c **** *
 238:Generated_Source\PSoC6\pdl\middleware\ble/cy_ble_hts.c **** *  \param charIndex: The index of the service characteristic.
 239:Generated_Source\PSoC6\pdl\middleware\ble/cy_ble_hts.c **** *  \param attrSize: The size of the characteristic value attribute.
 240:Generated_Source\PSoC6\pdl\middleware\ble/cy_ble_hts.c **** *  \param attrValue: The pointer to the location where characteristic value data
 241:Generated_Source\PSoC6\pdl\middleware\ble/cy_ble_hts.c **** *               should be stored.
 242:Generated_Source\PSoC6\pdl\middleware\ble/cy_ble_hts.c **** *
 243:Generated_Source\PSoC6\pdl\middleware\ble/cy_ble_hts.c **** * \return
 244:Generated_Source\PSoC6\pdl\middleware\ble/cy_ble_hts.c **** *  A return value of type cy_en_ble_api_result_t.
 245:Generated_Source\PSoC6\pdl\middleware\ble/cy_ble_hts.c **** *  * CY_BLE_SUCCESS - The request was handled successfully
 246:Generated_Source\PSoC6\pdl\middleware\ble/cy_ble_hts.c **** *  * CY_BLE_ERROR_INVALID_PARAMETER - Validation of the input parameter failed
 247:Generated_Source\PSoC6\pdl\middleware\ble/cy_ble_hts.c **** *
 248:Generated_Source\PSoC6\pdl\middleware\ble/cy_ble_hts.c **** ******************************************************************************/
 249:Generated_Source\PSoC6\pdl\middleware\ble/cy_ble_hts.c **** cy_en_ble_api_result_t Cy_BLE_HTSS_GetCharacteristicValue(cy_en_ble_hts_char_index_t charIndex,
 250:Generated_Source\PSoC6\pdl\middleware\ble/cy_ble_hts.c ****                                                           uint8_t attrSize,
 251:Generated_Source\PSoC6\pdl\middleware\ble/cy_ble_hts.c ****                                                           uint8_t *attrValue)
 252:Generated_Source\PSoC6\pdl\middleware\ble/cy_ble_hts.c **** {
 253:Generated_Source\PSoC6\pdl\middleware\ble/cy_ble_hts.c ****     cy_en_ble_api_result_t apiResult = CY_BLE_SUCCESS;
 254:Generated_Source\PSoC6\pdl\middleware\ble/cy_ble_hts.c **** 
 255:Generated_Source\PSoC6\pdl\middleware\ble/cy_ble_hts.c ****     if(charIndex >= CY_BLE_HTS_CHAR_COUNT)
 256:Generated_Source\PSoC6\pdl\middleware\ble/cy_ble_hts.c ****     {
 257:Generated_Source\PSoC6\pdl\middleware\ble/cy_ble_hts.c ****         apiResult = CY_BLE_ERROR_INVALID_PARAMETER;
 258:Generated_Source\PSoC6\pdl\middleware\ble/cy_ble_hts.c ****     }
ARM GAS  C:\Users\codyg\AppData\Local\Temp\ccQkQY0S.s 			page 6


 259:Generated_Source\PSoC6\pdl\middleware\ble/cy_ble_hts.c ****     else
 260:Generated_Source\PSoC6\pdl\middleware\ble/cy_ble_hts.c ****     {
 261:Generated_Source\PSoC6\pdl\middleware\ble/cy_ble_hts.c ****         /* Read characteristic value from database */
 262:Generated_Source\PSoC6\pdl\middleware\ble/cy_ble_hts.c ****         cy_stc_ble_gatts_db_attr_val_info_t dbAttrValInfo =
 263:Generated_Source\PSoC6\pdl\middleware\ble/cy_ble_hts.c ****         {
 264:Generated_Source\PSoC6\pdl\middleware\ble/cy_ble_hts.c ****             .handleValuePair.attrHandle = cy_ble_htsConfigPtr->htss->charInfo[charIndex].charHandle
 265:Generated_Source\PSoC6\pdl\middleware\ble/cy_ble_hts.c ****             .handleValuePair.value.len  = attrSize,
 266:Generated_Source\PSoC6\pdl\middleware\ble/cy_ble_hts.c ****             .handleValuePair.value.val  = attrValue,
 267:Generated_Source\PSoC6\pdl\middleware\ble/cy_ble_hts.c ****             .offset                     = 0u,
 268:Generated_Source\PSoC6\pdl\middleware\ble/cy_ble_hts.c ****             .flags                      = CY_BLE_GATT_DB_LOCALLY_INITIATED,
 269:Generated_Source\PSoC6\pdl\middleware\ble/cy_ble_hts.c ****         };
 270:Generated_Source\PSoC6\pdl\middleware\ble/cy_ble_hts.c ****         if(Cy_BLE_GATTS_ReadAttributeValueCCCD(&dbAttrValInfo) != CY_BLE_GATT_ERR_NONE)
 271:Generated_Source\PSoC6\pdl\middleware\ble/cy_ble_hts.c ****         {
 272:Generated_Source\PSoC6\pdl\middleware\ble/cy_ble_hts.c ****             apiResult = CY_BLE_ERROR_INVALID_PARAMETER;
 273:Generated_Source\PSoC6\pdl\middleware\ble/cy_ble_hts.c ****         }
 274:Generated_Source\PSoC6\pdl\middleware\ble/cy_ble_hts.c ****     }
 275:Generated_Source\PSoC6\pdl\middleware\ble/cy_ble_hts.c **** 
 276:Generated_Source\PSoC6\pdl\middleware\ble/cy_ble_hts.c ****     return(apiResult);
 277:Generated_Source\PSoC6\pdl\middleware\ble/cy_ble_hts.c **** }
 278:Generated_Source\PSoC6\pdl\middleware\ble/cy_ble_hts.c **** 
 279:Generated_Source\PSoC6\pdl\middleware\ble/cy_ble_hts.c **** 
 280:Generated_Source\PSoC6\pdl\middleware\ble/cy_ble_hts.c **** /******************************************************************************
 281:Generated_Source\PSoC6\pdl\middleware\ble/cy_ble_hts.c **** * Function Name: Cy_BLE_HTSS_SetCharacteristicDescriptor
 282:Generated_Source\PSoC6\pdl\middleware\ble/cy_ble_hts.c **** ***************************************************************************//**
 283:Generated_Source\PSoC6\pdl\middleware\ble/cy_ble_hts.c **** *
 284:Generated_Source\PSoC6\pdl\middleware\ble/cy_ble_hts.c **** *  Sets the characteristic descriptor of the specified characteristic.
 285:Generated_Source\PSoC6\pdl\middleware\ble/cy_ble_hts.c **** *
 286:Generated_Source\PSoC6\pdl\middleware\ble/cy_ble_hts.c **** *  \param connHandle: The connection handle.
 287:Generated_Source\PSoC6\pdl\middleware\ble/cy_ble_hts.c **** *  \param charIndex:  The index of the service characteristic.
 288:Generated_Source\PSoC6\pdl\middleware\ble/cy_ble_hts.c **** *  \param descrIndex: The index of the service characteristic descriptor.
 289:Generated_Source\PSoC6\pdl\middleware\ble/cy_ble_hts.c **** *  \param attrSize:   The size of the characteristic descriptor attribute.
 290:Generated_Source\PSoC6\pdl\middleware\ble/cy_ble_hts.c **** *  \param attrValue: The pointer to the descriptor value data that should
 291:Generated_Source\PSoC6\pdl\middleware\ble/cy_ble_hts.c **** *              be stored in the GATT database.
 292:Generated_Source\PSoC6\pdl\middleware\ble/cy_ble_hts.c **** *
 293:Generated_Source\PSoC6\pdl\middleware\ble/cy_ble_hts.c **** * \return
 294:Generated_Source\PSoC6\pdl\middleware\ble/cy_ble_hts.c **** *  A return value of type cy_en_ble_api_result_t.
 295:Generated_Source\PSoC6\pdl\middleware\ble/cy_ble_hts.c **** *  * CY_BLE_SUCCESS - The request was handled successfully
 296:Generated_Source\PSoC6\pdl\middleware\ble/cy_ble_hts.c **** *  * CY_BLE_ERROR_INVALID_PARAMETER - Validation of the input parameter failed
 297:Generated_Source\PSoC6\pdl\middleware\ble/cy_ble_hts.c **** *
 298:Generated_Source\PSoC6\pdl\middleware\ble/cy_ble_hts.c **** ******************************************************************************/
 299:Generated_Source\PSoC6\pdl\middleware\ble/cy_ble_hts.c **** cy_en_ble_api_result_t Cy_BLE_HTSS_SetCharacteristicDescriptor(cy_stc_ble_conn_handle_t connHandle,
 300:Generated_Source\PSoC6\pdl\middleware\ble/cy_ble_hts.c ****                                                                cy_en_ble_hts_char_index_t charIndex
 301:Generated_Source\PSoC6\pdl\middleware\ble/cy_ble_hts.c ****                                                                cy_en_ble_hts_descr_index_t descrInd
 302:Generated_Source\PSoC6\pdl\middleware\ble/cy_ble_hts.c ****                                                                uint8_t attrSize,
 303:Generated_Source\PSoC6\pdl\middleware\ble/cy_ble_hts.c ****                                                                uint8_t *attrValue)
 304:Generated_Source\PSoC6\pdl\middleware\ble/cy_ble_hts.c **** {
 305:Generated_Source\PSoC6\pdl\middleware\ble/cy_ble_hts.c ****     cy_en_ble_api_result_t apiResult = CY_BLE_SUCCESS;
 306:Generated_Source\PSoC6\pdl\middleware\ble/cy_ble_hts.c **** 
 307:Generated_Source\PSoC6\pdl\middleware\ble/cy_ble_hts.c ****     if((charIndex >= CY_BLE_HTS_CHAR_COUNT) || (descrIndex >= CY_BLE_HTS_DESCR_COUNT))
 308:Generated_Source\PSoC6\pdl\middleware\ble/cy_ble_hts.c ****     {
 309:Generated_Source\PSoC6\pdl\middleware\ble/cy_ble_hts.c ****         apiResult = CY_BLE_ERROR_INVALID_PARAMETER;
 310:Generated_Source\PSoC6\pdl\middleware\ble/cy_ble_hts.c ****     }
 311:Generated_Source\PSoC6\pdl\middleware\ble/cy_ble_hts.c ****     else
 312:Generated_Source\PSoC6\pdl\middleware\ble/cy_ble_hts.c ****     {
 313:Generated_Source\PSoC6\pdl\middleware\ble/cy_ble_hts.c ****         if(cy_ble_htsConfigPtr->htss->charInfo[charIndex].descrHandle[descrIndex] != CY_BLE_GATT_IN
 314:Generated_Source\PSoC6\pdl\middleware\ble/cy_ble_hts.c ****         {
 315:Generated_Source\PSoC6\pdl\middleware\ble/cy_ble_hts.c ****             cy_stc_ble_gatts_db_attr_val_info_t dbAttrValInfo =
ARM GAS  C:\Users\codyg\AppData\Local\Temp\ccQkQY0S.s 			page 7


 316:Generated_Source\PSoC6\pdl\middleware\ble/cy_ble_hts.c ****             {
 317:Generated_Source\PSoC6\pdl\middleware\ble/cy_ble_hts.c ****                 .handleValuePair.attrHandle = cy_ble_htsConfigPtr->htss->charInfo[charIndex].descrH
 318:Generated_Source\PSoC6\pdl\middleware\ble/cy_ble_hts.c ****                 .handleValuePair.value.len  = attrSize,
 319:Generated_Source\PSoC6\pdl\middleware\ble/cy_ble_hts.c ****                 .handleValuePair.value.val  = attrValue,
 320:Generated_Source\PSoC6\pdl\middleware\ble/cy_ble_hts.c ****                 .connHandle                 = connHandle,
 321:Generated_Source\PSoC6\pdl\middleware\ble/cy_ble_hts.c ****                 .offset                     = 0u,
 322:Generated_Source\PSoC6\pdl\middleware\ble/cy_ble_hts.c ****                 .flags                      = CY_BLE_GATT_DB_LOCALLY_INITIATED,
 323:Generated_Source\PSoC6\pdl\middleware\ble/cy_ble_hts.c ****             };
 324:Generated_Source\PSoC6\pdl\middleware\ble/cy_ble_hts.c ****             if(Cy_BLE_GATTS_WriteAttributeValueCCCD(&dbAttrValInfo) != CY_BLE_GATT_ERR_NONE)
 325:Generated_Source\PSoC6\pdl\middleware\ble/cy_ble_hts.c ****             {
 326:Generated_Source\PSoC6\pdl\middleware\ble/cy_ble_hts.c ****                 apiResult = CY_BLE_ERROR_INVALID_PARAMETER;
 327:Generated_Source\PSoC6\pdl\middleware\ble/cy_ble_hts.c ****             }
 328:Generated_Source\PSoC6\pdl\middleware\ble/cy_ble_hts.c ****         }
 329:Generated_Source\PSoC6\pdl\middleware\ble/cy_ble_hts.c ****         else
 330:Generated_Source\PSoC6\pdl\middleware\ble/cy_ble_hts.c ****         {
 331:Generated_Source\PSoC6\pdl\middleware\ble/cy_ble_hts.c ****             apiResult = CY_BLE_ERROR_INVALID_PARAMETER;
 332:Generated_Source\PSoC6\pdl\middleware\ble/cy_ble_hts.c ****         }
 333:Generated_Source\PSoC6\pdl\middleware\ble/cy_ble_hts.c ****     }
 334:Generated_Source\PSoC6\pdl\middleware\ble/cy_ble_hts.c **** 
 335:Generated_Source\PSoC6\pdl\middleware\ble/cy_ble_hts.c ****     return(apiResult);
 336:Generated_Source\PSoC6\pdl\middleware\ble/cy_ble_hts.c **** }
 337:Generated_Source\PSoC6\pdl\middleware\ble/cy_ble_hts.c **** 
 338:Generated_Source\PSoC6\pdl\middleware\ble/cy_ble_hts.c **** 
 339:Generated_Source\PSoC6\pdl\middleware\ble/cy_ble_hts.c **** /******************************************************************************
 340:Generated_Source\PSoC6\pdl\middleware\ble/cy_ble_hts.c **** * Function Name: Cy_BLE_HTSS_GetCharacteristicDescriptor
 341:Generated_Source\PSoC6\pdl\middleware\ble/cy_ble_hts.c **** ***************************************************************************//**
 342:Generated_Source\PSoC6\pdl\middleware\ble/cy_ble_hts.c **** *
 343:Generated_Source\PSoC6\pdl\middleware\ble/cy_ble_hts.c **** *  Gets the characteristic descriptor of the specified characteristic.
 344:Generated_Source\PSoC6\pdl\middleware\ble/cy_ble_hts.c **** *
 345:Generated_Source\PSoC6\pdl\middleware\ble/cy_ble_hts.c **** *  \param connHandle: The connection handle
 346:Generated_Source\PSoC6\pdl\middleware\ble/cy_ble_hts.c **** *  \param charIndex: The index of the service characteristic.
 347:Generated_Source\PSoC6\pdl\middleware\ble/cy_ble_hts.c **** *  \param descrIndex: The index of the service characteristic descriptor.
 348:Generated_Source\PSoC6\pdl\middleware\ble/cy_ble_hts.c **** *  \param attrSize: The size of the characteristic descriptor attribute.
 349:Generated_Source\PSoC6\pdl\middleware\ble/cy_ble_hts.c **** *  \param attrValue: The pointer to the location where characteristic descriptor
 350:Generated_Source\PSoC6\pdl\middleware\ble/cy_ble_hts.c **** *               value data should be stored.
 351:Generated_Source\PSoC6\pdl\middleware\ble/cy_ble_hts.c **** *
 352:Generated_Source\PSoC6\pdl\middleware\ble/cy_ble_hts.c **** * \return
 353:Generated_Source\PSoC6\pdl\middleware\ble/cy_ble_hts.c **** *  A return value of type cy_en_ble_api_result_t.
 354:Generated_Source\PSoC6\pdl\middleware\ble/cy_ble_hts.c **** *  * CY_BLE_SUCCESS - The request was handled successfully
 355:Generated_Source\PSoC6\pdl\middleware\ble/cy_ble_hts.c **** *  * CY_BLE_ERROR_INVALID_PARAMETER - Validation of the input parameter failed
 356:Generated_Source\PSoC6\pdl\middleware\ble/cy_ble_hts.c **** *
 357:Generated_Source\PSoC6\pdl\middleware\ble/cy_ble_hts.c **** ******************************************************************************/
 358:Generated_Source\PSoC6\pdl\middleware\ble/cy_ble_hts.c **** cy_en_ble_api_result_t Cy_BLE_HTSS_GetCharacteristicDescriptor(cy_stc_ble_conn_handle_t connHandle,
 359:Generated_Source\PSoC6\pdl\middleware\ble/cy_ble_hts.c ****                                                                cy_en_ble_hts_char_index_t charIndex
 360:Generated_Source\PSoC6\pdl\middleware\ble/cy_ble_hts.c ****                                                                cy_en_ble_hts_descr_index_t descrInd
 361:Generated_Source\PSoC6\pdl\middleware\ble/cy_ble_hts.c ****                                                                uint8_t attrSize,
 362:Generated_Source\PSoC6\pdl\middleware\ble/cy_ble_hts.c ****                                                                uint8_t *attrValue)
 363:Generated_Source\PSoC6\pdl\middleware\ble/cy_ble_hts.c **** {
 364:Generated_Source\PSoC6\pdl\middleware\ble/cy_ble_hts.c ****     cy_en_ble_api_result_t apiResult = CY_BLE_SUCCESS;
 365:Generated_Source\PSoC6\pdl\middleware\ble/cy_ble_hts.c **** 
 366:Generated_Source\PSoC6\pdl\middleware\ble/cy_ble_hts.c ****     if((charIndex >= CY_BLE_HTS_CHAR_COUNT) || (descrIndex >= CY_BLE_HTS_DESCR_COUNT))
 367:Generated_Source\PSoC6\pdl\middleware\ble/cy_ble_hts.c ****     {
 368:Generated_Source\PSoC6\pdl\middleware\ble/cy_ble_hts.c ****         apiResult = CY_BLE_ERROR_INVALID_PARAMETER;
 369:Generated_Source\PSoC6\pdl\middleware\ble/cy_ble_hts.c ****     }
 370:Generated_Source\PSoC6\pdl\middleware\ble/cy_ble_hts.c ****     else
 371:Generated_Source\PSoC6\pdl\middleware\ble/cy_ble_hts.c ****     {
 372:Generated_Source\PSoC6\pdl\middleware\ble/cy_ble_hts.c ****         if(cy_ble_htsConfigPtr->htss->charInfo[charIndex].descrHandle[descrIndex] != CY_BLE_GATT_IN
ARM GAS  C:\Users\codyg\AppData\Local\Temp\ccQkQY0S.s 			page 8


 373:Generated_Source\PSoC6\pdl\middleware\ble/cy_ble_hts.c ****         {
 374:Generated_Source\PSoC6\pdl\middleware\ble/cy_ble_hts.c ****             cy_stc_ble_gatts_db_attr_val_info_t dbAttrValInfo =
 375:Generated_Source\PSoC6\pdl\middleware\ble/cy_ble_hts.c ****             {
 376:Generated_Source\PSoC6\pdl\middleware\ble/cy_ble_hts.c ****                 .handleValuePair.attrHandle = cy_ble_htsConfigPtr->htss->charInfo[charIndex].descrH
 377:Generated_Source\PSoC6\pdl\middleware\ble/cy_ble_hts.c ****                 .handleValuePair.value.len  = attrSize,
 378:Generated_Source\PSoC6\pdl\middleware\ble/cy_ble_hts.c ****                 .handleValuePair.value.val  = attrValue,
 379:Generated_Source\PSoC6\pdl\middleware\ble/cy_ble_hts.c ****                 .connHandle                 = connHandle,
 380:Generated_Source\PSoC6\pdl\middleware\ble/cy_ble_hts.c ****                 .flags                      = CY_BLE_GATT_DB_LOCALLY_INITIATED
 381:Generated_Source\PSoC6\pdl\middleware\ble/cy_ble_hts.c ****             };
 382:Generated_Source\PSoC6\pdl\middleware\ble/cy_ble_hts.c ****             if(Cy_BLE_GATTS_ReadAttributeValueCCCD(&dbAttrValInfo) != CY_BLE_GATT_ERR_NONE)
 383:Generated_Source\PSoC6\pdl\middleware\ble/cy_ble_hts.c ****             {
 384:Generated_Source\PSoC6\pdl\middleware\ble/cy_ble_hts.c ****                 apiResult = CY_BLE_ERROR_INVALID_PARAMETER;
 385:Generated_Source\PSoC6\pdl\middleware\ble/cy_ble_hts.c ****             }
 386:Generated_Source\PSoC6\pdl\middleware\ble/cy_ble_hts.c ****         }
 387:Generated_Source\PSoC6\pdl\middleware\ble/cy_ble_hts.c ****         else
 388:Generated_Source\PSoC6\pdl\middleware\ble/cy_ble_hts.c ****         {
 389:Generated_Source\PSoC6\pdl\middleware\ble/cy_ble_hts.c ****             apiResult = CY_BLE_ERROR_INVALID_PARAMETER;
 390:Generated_Source\PSoC6\pdl\middleware\ble/cy_ble_hts.c ****         }
 391:Generated_Source\PSoC6\pdl\middleware\ble/cy_ble_hts.c ****     }
 392:Generated_Source\PSoC6\pdl\middleware\ble/cy_ble_hts.c **** 
 393:Generated_Source\PSoC6\pdl\middleware\ble/cy_ble_hts.c ****     return(apiResult);
 394:Generated_Source\PSoC6\pdl\middleware\ble/cy_ble_hts.c **** }
 395:Generated_Source\PSoC6\pdl\middleware\ble/cy_ble_hts.c **** 
 396:Generated_Source\PSoC6\pdl\middleware\ble/cy_ble_hts.c **** 
 397:Generated_Source\PSoC6\pdl\middleware\ble/cy_ble_hts.c **** /******************************************************************************
 398:Generated_Source\PSoC6\pdl\middleware\ble/cy_ble_hts.c **** * Function Name: Cy_BLE_HTSS_WriteEventHandler
 399:Generated_Source\PSoC6\pdl\middleware\ble/cy_ble_hts.c **** ***************************************************************************//**
 400:Generated_Source\PSoC6\pdl\middleware\ble/cy_ble_hts.c **** *
 401:Generated_Source\PSoC6\pdl\middleware\ble/cy_ble_hts.c **** *  Handles Write Request Event for HTS service.
 402:Generated_Source\PSoC6\pdl\middleware\ble/cy_ble_hts.c **** *
 403:Generated_Source\PSoC6\pdl\middleware\ble/cy_ble_hts.c **** *  \param void *eventParam: The pointer to the data structure specified by the event.
 404:Generated_Source\PSoC6\pdl\middleware\ble/cy_ble_hts.c **** *
 405:Generated_Source\PSoC6\pdl\middleware\ble/cy_ble_hts.c **** ******************************************************************************/
 406:Generated_Source\PSoC6\pdl\middleware\ble/cy_ble_hts.c **** static cy_en_ble_gatt_err_code_t Cy_BLE_HTSS_WriteEventHandler(cy_stc_ble_gatts_write_cmd_req_param
 407:Generated_Source\PSoC6\pdl\middleware\ble/cy_ble_hts.c **** {
 408:Generated_Source\PSoC6\pdl\middleware\ble/cy_ble_hts.c ****     cy_en_ble_hts_char_index_t locCharIndex;
 409:Generated_Source\PSoC6\pdl\middleware\ble/cy_ble_hts.c ****     cy_stc_ble_hts_char_value_t locCharValue = { .connHandle = eventParam->connHandle };
 410:Generated_Source\PSoC6\pdl\middleware\ble/cy_ble_hts.c ****     cy_en_ble_gatt_err_code_t gattErr = CY_BLE_GATT_ERR_NONE;
 411:Generated_Source\PSoC6\pdl\middleware\ble/cy_ble_hts.c ****     uint8_t locReqHandle = 0u;
 412:Generated_Source\PSoC6\pdl\middleware\ble/cy_ble_hts.c **** 
 413:Generated_Source\PSoC6\pdl\middleware\ble/cy_ble_hts.c **** 
 414:Generated_Source\PSoC6\pdl\middleware\ble/cy_ble_hts.c ****     if(Cy_BLE_HTS_ApplCallback != NULL)
 415:Generated_Source\PSoC6\pdl\middleware\ble/cy_ble_hts.c ****     {
 416:Generated_Source\PSoC6\pdl\middleware\ble/cy_ble_hts.c ****         for(locCharIndex = CY_BLE_HTS_TEMP_MEASURE; (locCharIndex < CY_BLE_HTS_CHAR_COUNT) && (locR
 417:Generated_Source\PSoC6\pdl\middleware\ble/cy_ble_hts.c ****             locCharIndex++)
 418:Generated_Source\PSoC6\pdl\middleware\ble/cy_ble_hts.c ****         {
 419:Generated_Source\PSoC6\pdl\middleware\ble/cy_ble_hts.c ****             if((eventParam->handleValPair.attrHandle ==
 420:Generated_Source\PSoC6\pdl\middleware\ble/cy_ble_hts.c ****                 cy_ble_htsConfigPtr->htss->charInfo[locCharIndex].descrHandle[CY_BLE_HTS_CCCD]) ||
 421:Generated_Source\PSoC6\pdl\middleware\ble/cy_ble_hts.c ****                (eventParam->handleValPair.attrHandle ==
 422:Generated_Source\PSoC6\pdl\middleware\ble/cy_ble_hts.c ****                 cy_ble_htsConfigPtr->htss->charInfo[locCharIndex].charHandle))
 423:Generated_Source\PSoC6\pdl\middleware\ble/cy_ble_hts.c ****             {
 424:Generated_Source\PSoC6\pdl\middleware\ble/cy_ble_hts.c ****                 locCharValue.charIndex = locCharIndex;
 425:Generated_Source\PSoC6\pdl\middleware\ble/cy_ble_hts.c ****                 locCharValue.value = &eventParam->handleValPair.value;
 426:Generated_Source\PSoC6\pdl\middleware\ble/cy_ble_hts.c ****                 /* Characteristic value write request */
 427:Generated_Source\PSoC6\pdl\middleware\ble/cy_ble_hts.c ****                 if(eventParam->handleValPair.attrHandle == cy_ble_htsConfigPtr->htss->charInfo[locC
 428:Generated_Source\PSoC6\pdl\middleware\ble/cy_ble_hts.c ****                 {
 429:Generated_Source\PSoC6\pdl\middleware\ble/cy_ble_hts.c ****                     /* Validate Measure Interval value */
ARM GAS  C:\Users\codyg\AppData\Local\Temp\ccQkQY0S.s 			page 9


 430:Generated_Source\PSoC6\pdl\middleware\ble/cy_ble_hts.c ****                     if(locCharIndex == CY_BLE_HTS_MEASURE_INTERVAL)
 431:Generated_Source\PSoC6\pdl\middleware\ble/cy_ble_hts.c ****                     {
 432:Generated_Source\PSoC6\pdl\middleware\ble/cy_ble_hts.c ****                         uint8_t locAttrValue[CY_BLE_HTS_VRD_LEN];
 433:Generated_Source\PSoC6\pdl\middleware\ble/cy_ble_hts.c ****                         uint16_t requestValue;
 434:Generated_Source\PSoC6\pdl\middleware\ble/cy_ble_hts.c **** 
 435:Generated_Source\PSoC6\pdl\middleware\ble/cy_ble_hts.c ****                         requestValue = Cy_BLE_Get16ByPtr(eventParam->handleValPair.value.val);
 436:Generated_Source\PSoC6\pdl\middleware\ble/cy_ble_hts.c **** 
 437:Generated_Source\PSoC6\pdl\middleware\ble/cy_ble_hts.c ****                         if(requestValue != 0u) /* 0 is valid interval value for no periodic measure
 438:Generated_Source\PSoC6\pdl\middleware\ble/cy_ble_hts.c ****                         {
 439:Generated_Source\PSoC6\pdl\middleware\ble/cy_ble_hts.c ****                             /* Check Valid range for Measure Interval characteristic value */
 440:Generated_Source\PSoC6\pdl\middleware\ble/cy_ble_hts.c ****                             if(Cy_BLE_HTSS_GetCharacteristicDescriptor(eventParam->connHandle, locC
 441:Generated_Source\PSoC6\pdl\middleware\ble/cy_ble_hts.c ****                                                                        CY_BLE_HTS_VRD, CY_BLE_HTS_V
 442:Generated_Source\PSoC6\pdl\middleware\ble/cy_ble_hts.c ****                                CY_BLE_SUCCESS)
 443:Generated_Source\PSoC6\pdl\middleware\ble/cy_ble_hts.c ****                             {
 444:Generated_Source\PSoC6\pdl\middleware\ble/cy_ble_hts.c ****                                 uint16_t lowerValue;
 445:Generated_Source\PSoC6\pdl\middleware\ble/cy_ble_hts.c ****                                 uint16_t upperValue;
 446:Generated_Source\PSoC6\pdl\middleware\ble/cy_ble_hts.c **** 
 447:Generated_Source\PSoC6\pdl\middleware\ble/cy_ble_hts.c ****                                 lowerValue = Cy_BLE_Get16ByPtr(locAttrValue);
 448:Generated_Source\PSoC6\pdl\middleware\ble/cy_ble_hts.c ****                                 upperValue = Cy_BLE_Get16ByPtr(locAttrValue + sizeof(lowerValue));
 449:Generated_Source\PSoC6\pdl\middleware\ble/cy_ble_hts.c ****                                 requestValue = Cy_BLE_Get16ByPtr(eventParam->handleValPair.value.va
 450:Generated_Source\PSoC6\pdl\middleware\ble/cy_ble_hts.c ****                                 if((requestValue != 0u) && ((requestValue < lowerValue) || (request
 451:Generated_Source\PSoC6\pdl\middleware\ble/cy_ble_hts.c ****                                 {
 452:Generated_Source\PSoC6\pdl\middleware\ble/cy_ble_hts.c ****                                     gattErr = CY_BLE_GATT_ERR_HTS_OUT_OF_RANGE;
 453:Generated_Source\PSoC6\pdl\middleware\ble/cy_ble_hts.c ****                                 }
 454:Generated_Source\PSoC6\pdl\middleware\ble/cy_ble_hts.c ****                             }
 455:Generated_Source\PSoC6\pdl\middleware\ble/cy_ble_hts.c ****                         }
 456:Generated_Source\PSoC6\pdl\middleware\ble/cy_ble_hts.c ****                     }
 457:Generated_Source\PSoC6\pdl\middleware\ble/cy_ble_hts.c ****                     if(gattErr == CY_BLE_GATT_ERR_NONE)
 458:Generated_Source\PSoC6\pdl\middleware\ble/cy_ble_hts.c ****                     {   /* Store value to database */
 459:Generated_Source\PSoC6\pdl\middleware\ble/cy_ble_hts.c ****                         cy_stc_ble_gatts_db_attr_val_info_t dbAttrValInfo =
 460:Generated_Source\PSoC6\pdl\middleware\ble/cy_ble_hts.c ****                         {
 461:Generated_Source\PSoC6\pdl\middleware\ble/cy_ble_hts.c ****                             .handleValuePair = eventParam->handleValPair,
 462:Generated_Source\PSoC6\pdl\middleware\ble/cy_ble_hts.c ****                             .connHandle      = eventParam->connHandle,
 463:Generated_Source\PSoC6\pdl\middleware\ble/cy_ble_hts.c ****                             .offset          = 0u,
 464:Generated_Source\PSoC6\pdl\middleware\ble/cy_ble_hts.c ****                             .flags           = CY_BLE_GATT_DB_PEER_INITIATED,
 465:Generated_Source\PSoC6\pdl\middleware\ble/cy_ble_hts.c ****                         };
 466:Generated_Source\PSoC6\pdl\middleware\ble/cy_ble_hts.c ****                         gattErr = Cy_BLE_GATTS_WriteAttributeValueCCCD(&dbAttrValInfo);
 467:Generated_Source\PSoC6\pdl\middleware\ble/cy_ble_hts.c ****                         if(gattErr == CY_BLE_GATT_ERR_NONE)
 468:Generated_Source\PSoC6\pdl\middleware\ble/cy_ble_hts.c ****                         {
 469:Generated_Source\PSoC6\pdl\middleware\ble/cy_ble_hts.c ****                             Cy_BLE_HTS_ApplCallback((uint32_t)CY_BLE_EVT_HTSS_WRITE_CHAR, &locCharV
 470:Generated_Source\PSoC6\pdl\middleware\ble/cy_ble_hts.c ****                         }
 471:Generated_Source\PSoC6\pdl\middleware\ble/cy_ble_hts.c ****                     }
 472:Generated_Source\PSoC6\pdl\middleware\ble/cy_ble_hts.c ****                 }
 473:Generated_Source\PSoC6\pdl\middleware\ble/cy_ble_hts.c ****                 else /* Client Characteristic Configuration descriptor write request */
 474:Generated_Source\PSoC6\pdl\middleware\ble/cy_ble_hts.c ****                 {
 475:Generated_Source\PSoC6\pdl\middleware\ble/cy_ble_hts.c ****                     /* Store value to database */
 476:Generated_Source\PSoC6\pdl\middleware\ble/cy_ble_hts.c ****                     cy_stc_ble_gatts_db_attr_val_info_t dbAttrValInfo =
 477:Generated_Source\PSoC6\pdl\middleware\ble/cy_ble_hts.c ****                     {
 478:Generated_Source\PSoC6\pdl\middleware\ble/cy_ble_hts.c ****                         .handleValuePair = eventParam->handleValPair,
 479:Generated_Source\PSoC6\pdl\middleware\ble/cy_ble_hts.c ****                         .connHandle      = eventParam->connHandle,
 480:Generated_Source\PSoC6\pdl\middleware\ble/cy_ble_hts.c ****                         .offset          = 0u,
 481:Generated_Source\PSoC6\pdl\middleware\ble/cy_ble_hts.c ****                         .flags           = CY_BLE_GATT_DB_PEER_INITIATED
 482:Generated_Source\PSoC6\pdl\middleware\ble/cy_ble_hts.c ****                     };
 483:Generated_Source\PSoC6\pdl\middleware\ble/cy_ble_hts.c ****                     gattErr = Cy_BLE_GATTS_WriteAttributeValueCCCD(&dbAttrValInfo);
 484:Generated_Source\PSoC6\pdl\middleware\ble/cy_ble_hts.c ****                     if(gattErr == CY_BLE_GATT_ERR_NONE)
 485:Generated_Source\PSoC6\pdl\middleware\ble/cy_ble_hts.c ****                     {
 486:Generated_Source\PSoC6\pdl\middleware\ble/cy_ble_hts.c ****                         /* Check characteristic properties for Notification */
ARM GAS  C:\Users\codyg\AppData\Local\Temp\ccQkQY0S.s 			page 10


 487:Generated_Source\PSoC6\pdl\middleware\ble/cy_ble_hts.c ****                         if(CY_BLE_IS_NOTIFICATION_SUPPORTED(cy_ble_htsConfigPtr->htss->charInfo[loc
 488:Generated_Source\PSoC6\pdl\middleware\ble/cy_ble_hts.c ****                         {
 489:Generated_Source\PSoC6\pdl\middleware\ble/cy_ble_hts.c ****                             if(CY_BLE_IS_NOTIFICATION_ENABLED_IN_PTR(eventParam->handleValPair.valu
 490:Generated_Source\PSoC6\pdl\middleware\ble/cy_ble_hts.c ****                             {
 491:Generated_Source\PSoC6\pdl\middleware\ble/cy_ble_hts.c ****                                 Cy_BLE_HTS_ApplCallback((uint32_t)CY_BLE_EVT_HTSS_NOTIFICATION_ENAB
 492:Generated_Source\PSoC6\pdl\middleware\ble/cy_ble_hts.c ****                             }
 493:Generated_Source\PSoC6\pdl\middleware\ble/cy_ble_hts.c ****                             else
 494:Generated_Source\PSoC6\pdl\middleware\ble/cy_ble_hts.c ****                             {
 495:Generated_Source\PSoC6\pdl\middleware\ble/cy_ble_hts.c ****                                 Cy_BLE_HTS_ApplCallback((uint32_t)CY_BLE_EVT_HTSS_NOTIFICATION_DISA
 496:Generated_Source\PSoC6\pdl\middleware\ble/cy_ble_hts.c ****                             }
 497:Generated_Source\PSoC6\pdl\middleware\ble/cy_ble_hts.c ****                         }
 498:Generated_Source\PSoC6\pdl\middleware\ble/cy_ble_hts.c ****                         /* Check characteristic properties for Indication */
 499:Generated_Source\PSoC6\pdl\middleware\ble/cy_ble_hts.c ****                         if(CY_BLE_IS_INDICATION_SUPPORTED(cy_ble_htsConfigPtr->htss->charInfo[locCh
 500:Generated_Source\PSoC6\pdl\middleware\ble/cy_ble_hts.c ****                         {
 501:Generated_Source\PSoC6\pdl\middleware\ble/cy_ble_hts.c ****                             if(CY_BLE_IS_INDICATION_ENABLED_IN_PTR(eventParam->handleValPair.value.
 502:Generated_Source\PSoC6\pdl\middleware\ble/cy_ble_hts.c ****                             {
 503:Generated_Source\PSoC6\pdl\middleware\ble/cy_ble_hts.c ****                                 Cy_BLE_HTS_ApplCallback((uint32_t)CY_BLE_EVT_HTSS_INDICATION_ENABLE
 504:Generated_Source\PSoC6\pdl\middleware\ble/cy_ble_hts.c ****                             }
 505:Generated_Source\PSoC6\pdl\middleware\ble/cy_ble_hts.c ****                             else
 506:Generated_Source\PSoC6\pdl\middleware\ble/cy_ble_hts.c ****                             {
 507:Generated_Source\PSoC6\pdl\middleware\ble/cy_ble_hts.c ****                                 Cy_BLE_HTS_ApplCallback((uint32_t)CY_BLE_EVT_HTSS_INDICATION_DISABL
 508:Generated_Source\PSoC6\pdl\middleware\ble/cy_ble_hts.c ****                             }
 509:Generated_Source\PSoC6\pdl\middleware\ble/cy_ble_hts.c ****                         }
 510:Generated_Source\PSoC6\pdl\middleware\ble/cy_ble_hts.c ****                     }
 511:Generated_Source\PSoC6\pdl\middleware\ble/cy_ble_hts.c ****                 }
 512:Generated_Source\PSoC6\pdl\middleware\ble/cy_ble_hts.c ****                 cy_ble_eventHandlerFlag &= (uint8_t) ~CY_BLE_CALLBACK;
 513:Generated_Source\PSoC6\pdl\middleware\ble/cy_ble_hts.c ****                 locReqHandle = 1u;
 514:Generated_Source\PSoC6\pdl\middleware\ble/cy_ble_hts.c ****             }
 515:Generated_Source\PSoC6\pdl\middleware\ble/cy_ble_hts.c ****         }
 516:Generated_Source\PSoC6\pdl\middleware\ble/cy_ble_hts.c ****     }
 517:Generated_Source\PSoC6\pdl\middleware\ble/cy_ble_hts.c **** 
 518:Generated_Source\PSoC6\pdl\middleware\ble/cy_ble_hts.c ****     return(gattErr);
 519:Generated_Source\PSoC6\pdl\middleware\ble/cy_ble_hts.c **** }
 520:Generated_Source\PSoC6\pdl\middleware\ble/cy_ble_hts.c **** 
 521:Generated_Source\PSoC6\pdl\middleware\ble/cy_ble_hts.c **** 
 522:Generated_Source\PSoC6\pdl\middleware\ble/cy_ble_hts.c **** /******************************************************************************
 523:Generated_Source\PSoC6\pdl\middleware\ble/cy_ble_hts.c **** * Function Name: Cy_BLE_HTSS_SendNotification
 524:Generated_Source\PSoC6\pdl\middleware\ble/cy_ble_hts.c **** ***************************************************************************//**
 525:Generated_Source\PSoC6\pdl\middleware\ble/cy_ble_hts.c **** *
 526:Generated_Source\PSoC6\pdl\middleware\ble/cy_ble_hts.c **** *  Sends notification with a characteristic value of the Health Thermometer
 527:Generated_Source\PSoC6\pdl\middleware\ble/cy_ble_hts.c **** *  Service, which is a value specified by charIndex, to the Client device.
 528:Generated_Source\PSoC6\pdl\middleware\ble/cy_ble_hts.c **** *
 529:Generated_Source\PSoC6\pdl\middleware\ble/cy_ble_hts.c **** *  On enabling notification successfully for a service characteristic it sends out a
 530:Generated_Source\PSoC6\pdl\middleware\ble/cy_ble_hts.c **** *  'Handle Value Notification' which results in CY_BLE_EVT_HTSC_NOTIFICATION event
 531:Generated_Source\PSoC6\pdl\middleware\ble/cy_ble_hts.c **** *  at the GATT Client's end.
 532:Generated_Source\PSoC6\pdl\middleware\ble/cy_ble_hts.c **** *
 533:Generated_Source\PSoC6\pdl\middleware\ble/cy_ble_hts.c **** *  \param connHandle: The connection handle.
 534:Generated_Source\PSoC6\pdl\middleware\ble/cy_ble_hts.c **** *  \param charIndex: The index of the service characteristic.
 535:Generated_Source\PSoC6\pdl\middleware\ble/cy_ble_hts.c **** *  \param attrSize: The size of the characteristic value attribute.
 536:Generated_Source\PSoC6\pdl\middleware\ble/cy_ble_hts.c **** *  \param attrValue: The pointer to the characteristic value data that should be
 537:Generated_Source\PSoC6\pdl\middleware\ble/cy_ble_hts.c **** *               sent to the client's device.
 538:Generated_Source\PSoC6\pdl\middleware\ble/cy_ble_hts.c **** *
 539:Generated_Source\PSoC6\pdl\middleware\ble/cy_ble_hts.c **** * \return
 540:Generated_Source\PSoC6\pdl\middleware\ble/cy_ble_hts.c **** *  A return value of type cy_en_ble_api_result_t.
 541:Generated_Source\PSoC6\pdl\middleware\ble/cy_ble_hts.c **** *   * CY_BLE_SUCCESS - The request was handled successfully
 542:Generated_Source\PSoC6\pdl\middleware\ble/cy_ble_hts.c **** *   * CY_BLE_ERROR_INVALID_PARAMETER - Validation of the input parameter failed
 543:Generated_Source\PSoC6\pdl\middleware\ble/cy_ble_hts.c **** *   * CY_BLE_ERROR_INVALID_OPERATION - This operation is not permitted
ARM GAS  C:\Users\codyg\AppData\Local\Temp\ccQkQY0S.s 			page 11


 544:Generated_Source\PSoC6\pdl\middleware\ble/cy_ble_hts.c **** *   * CY_BLE_ERROR_INVALID_STATE - Connection with the client is not established
 545:Generated_Source\PSoC6\pdl\middleware\ble/cy_ble_hts.c **** *   * CY_BLE_ERROR_MEMORY_ALLOCATION_FAILED - Memory allocation failed.
 546:Generated_Source\PSoC6\pdl\middleware\ble/cy_ble_hts.c **** *   * CY_BLE_ERROR_NTF_DISABLED - Notification is not enabled by the client.
 547:Generated_Source\PSoC6\pdl\middleware\ble/cy_ble_hts.c **** *
 548:Generated_Source\PSoC6\pdl\middleware\ble/cy_ble_hts.c **** ******************************************************************************/
 549:Generated_Source\PSoC6\pdl\middleware\ble/cy_ble_hts.c **** cy_en_ble_api_result_t Cy_BLE_HTSS_SendNotification(cy_stc_ble_conn_handle_t connHandle,
 550:Generated_Source\PSoC6\pdl\middleware\ble/cy_ble_hts.c ****                                                     cy_en_ble_hts_char_index_t charIndex,
 551:Generated_Source\PSoC6\pdl\middleware\ble/cy_ble_hts.c ****                                                     uint8_t attrSize,
 552:Generated_Source\PSoC6\pdl\middleware\ble/cy_ble_hts.c ****                                                     uint8_t *attrValue)
 553:Generated_Source\PSoC6\pdl\middleware\ble/cy_ble_hts.c **** {
 554:Generated_Source\PSoC6\pdl\middleware\ble/cy_ble_hts.c ****     cy_en_ble_api_result_t apiResult;
 555:Generated_Source\PSoC6\pdl\middleware\ble/cy_ble_hts.c **** 
 556:Generated_Source\PSoC6\pdl\middleware\ble/cy_ble_hts.c ****     /* Send Notification if it is enabled and connected */
 557:Generated_Source\PSoC6\pdl\middleware\ble/cy_ble_hts.c ****     if(Cy_BLE_GetConnectionState(connHandle) < CY_BLE_CONN_STATE_CONNECTED)
 558:Generated_Source\PSoC6\pdl\middleware\ble/cy_ble_hts.c ****     {
 559:Generated_Source\PSoC6\pdl\middleware\ble/cy_ble_hts.c ****         apiResult = CY_BLE_ERROR_INVALID_STATE;
 560:Generated_Source\PSoC6\pdl\middleware\ble/cy_ble_hts.c ****     }
 561:Generated_Source\PSoC6\pdl\middleware\ble/cy_ble_hts.c ****     else if(!CY_BLE_IS_NOTIFICATION_ENABLED(connHandle.attId, cy_ble_htsConfigPtr->htss->charInfo[c
 562:Generated_Source\PSoC6\pdl\middleware\ble/cy_ble_hts.c ****                                              descrHandle[CY_BLE_HTS_CCCD]))
 563:Generated_Source\PSoC6\pdl\middleware\ble/cy_ble_hts.c ****     {
 564:Generated_Source\PSoC6\pdl\middleware\ble/cy_ble_hts.c ****         apiResult = CY_BLE_ERROR_NTF_DISABLED;
 565:Generated_Source\PSoC6\pdl\middleware\ble/cy_ble_hts.c ****     }
 566:Generated_Source\PSoC6\pdl\middleware\ble/cy_ble_hts.c ****     else
 567:Generated_Source\PSoC6\pdl\middleware\ble/cy_ble_hts.c ****     {
 568:Generated_Source\PSoC6\pdl\middleware\ble/cy_ble_hts.c ****         /* Fill all fields of write request structure ... */
 569:Generated_Source\PSoC6\pdl\middleware\ble/cy_ble_hts.c ****         cy_stc_ble_gatts_handle_value_ntf_t ntfReqParam =
 570:Generated_Source\PSoC6\pdl\middleware\ble/cy_ble_hts.c ****         {
 571:Generated_Source\PSoC6\pdl\middleware\ble/cy_ble_hts.c ****             .handleValPair.attrHandle = cy_ble_htsConfigPtr->htss->charInfo[charIndex].charHandle,
 572:Generated_Source\PSoC6\pdl\middleware\ble/cy_ble_hts.c ****             .handleValPair.value.val  = attrValue,
 573:Generated_Source\PSoC6\pdl\middleware\ble/cy_ble_hts.c ****             .handleValPair.value.len  = attrSize,
 574:Generated_Source\PSoC6\pdl\middleware\ble/cy_ble_hts.c ****             .connHandle               = connHandle
 575:Generated_Source\PSoC6\pdl\middleware\ble/cy_ble_hts.c ****         };
 576:Generated_Source\PSoC6\pdl\middleware\ble/cy_ble_hts.c ****         /* Send notification to client using previously filled structure */
 577:Generated_Source\PSoC6\pdl\middleware\ble/cy_ble_hts.c ****         apiResult = Cy_BLE_GATTS_Notification(&ntfReqParam);
 578:Generated_Source\PSoC6\pdl\middleware\ble/cy_ble_hts.c ****     }
 579:Generated_Source\PSoC6\pdl\middleware\ble/cy_ble_hts.c **** 
 580:Generated_Source\PSoC6\pdl\middleware\ble/cy_ble_hts.c ****     return(apiResult);
 581:Generated_Source\PSoC6\pdl\middleware\ble/cy_ble_hts.c **** }
 582:Generated_Source\PSoC6\pdl\middleware\ble/cy_ble_hts.c **** 
 583:Generated_Source\PSoC6\pdl\middleware\ble/cy_ble_hts.c **** 
 584:Generated_Source\PSoC6\pdl\middleware\ble/cy_ble_hts.c **** /******************************************************************************
 585:Generated_Source\PSoC6\pdl\middleware\ble/cy_ble_hts.c **** * Function Name: Cy_BLE_HTSS_SendIndication
 586:Generated_Source\PSoC6\pdl\middleware\ble/cy_ble_hts.c **** ***************************************************************************//**
 587:Generated_Source\PSoC6\pdl\middleware\ble/cy_ble_hts.c **** *
 588:Generated_Source\PSoC6\pdl\middleware\ble/cy_ble_hts.c **** *  Sends indication with a characteristic value of the Health Thermometer
 589:Generated_Source\PSoC6\pdl\middleware\ble/cy_ble_hts.c **** *  Service, which is a value specified by charIndex, to the Client device.
 590:Generated_Source\PSoC6\pdl\middleware\ble/cy_ble_hts.c **** *
 591:Generated_Source\PSoC6\pdl\middleware\ble/cy_ble_hts.c **** *  On enabling indication successfully it sends out a 'Handle Value Indication' which
 592:Generated_Source\PSoC6\pdl\middleware\ble/cy_ble_hts.c **** *  results in CY_BLE_EVT_HTSC_INDICATION or CY_BLE_EVT_GATTC_HANDLE_VALUE_IND (if
 593:Generated_Source\PSoC6\pdl\middleware\ble/cy_ble_hts.c **** *  service-specific callback function is not registered) event at the GATT Client's end.
 594:Generated_Source\PSoC6\pdl\middleware\ble/cy_ble_hts.c **** *
 595:Generated_Source\PSoC6\pdl\middleware\ble/cy_ble_hts.c **** *  \param connHandle: The connection handle.
 596:Generated_Source\PSoC6\pdl\middleware\ble/cy_ble_hts.c **** *  \param charIndex:  The index of the service characteristic.
 597:Generated_Source\PSoC6\pdl\middleware\ble/cy_ble_hts.c **** *  \param attrSize: The size of the characteristic value attribute.
 598:Generated_Source\PSoC6\pdl\middleware\ble/cy_ble_hts.c **** *  \param attrValue: The pointer to the characteristic value data that should be
 599:Generated_Source\PSoC6\pdl\middleware\ble/cy_ble_hts.c **** *               sent to the Client device.
 600:Generated_Source\PSoC6\pdl\middleware\ble/cy_ble_hts.c **** *
ARM GAS  C:\Users\codyg\AppData\Local\Temp\ccQkQY0S.s 			page 12


 601:Generated_Source\PSoC6\pdl\middleware\ble/cy_ble_hts.c **** * \return
 602:Generated_Source\PSoC6\pdl\middleware\ble/cy_ble_hts.c **** *  A return value of type cy_en_ble_api_result_t.
 603:Generated_Source\PSoC6\pdl\middleware\ble/cy_ble_hts.c **** *   * CY_BLE_SUCCESS - The request was handled successfully
 604:Generated_Source\PSoC6\pdl\middleware\ble/cy_ble_hts.c **** *   * CY_BLE_ERROR_INVALID_PARAMETER - Validation of the input parameter failed
 605:Generated_Source\PSoC6\pdl\middleware\ble/cy_ble_hts.c **** *   * CY_BLE_ERROR_INVALID_OPERATION - This operation is not permitted
 606:Generated_Source\PSoC6\pdl\middleware\ble/cy_ble_hts.c **** *   * CY_BLE_ERROR_INVALID_STATE - Connection with the client is not established
 607:Generated_Source\PSoC6\pdl\middleware\ble/cy_ble_hts.c **** *   * CY_BLE_ERROR_MEMORY_ALLOCATION_FAILED - Memory allocation failed
 608:Generated_Source\PSoC6\pdl\middleware\ble/cy_ble_hts.c **** *   * CY_BLE_ERROR_IND_DISABLED - Indication is not enabled by the client
 609:Generated_Source\PSoC6\pdl\middleware\ble/cy_ble_hts.c **** *
 610:Generated_Source\PSoC6\pdl\middleware\ble/cy_ble_hts.c **** * \events
 611:Generated_Source\PSoC6\pdl\middleware\ble/cy_ble_hts.c **** *  In case of successful execution (return value = CY_BLE_SUCCESS)
 612:Generated_Source\PSoC6\pdl\middleware\ble/cy_ble_hts.c **** *  the following events can appear: \n
 613:Generated_Source\PSoC6\pdl\middleware\ble/cy_ble_hts.c **** *   If the HTS service-specific callback is registered
 614:Generated_Source\PSoC6\pdl\middleware\ble/cy_ble_hts.c **** *      (with Cy_BLE_HTS_RegisterAttrCallback):
 615:Generated_Source\PSoC6\pdl\middleware\ble/cy_ble_hts.c **** *  * CY_BLE_EVT_HTSS_INDICATION_CONFIRMED - In case if the indication is
 616:Generated_Source\PSoC6\pdl\middleware\ble/cy_ble_hts.c **** *                                successfully delivered to the peer device.
 617:Generated_Source\PSoC6\pdl\middleware\ble/cy_ble_hts.c **** *  .
 618:Generated_Source\PSoC6\pdl\middleware\ble/cy_ble_hts.c **** *   Otherwise (if the HTS service-specific callback is not registered):
 619:Generated_Source\PSoC6\pdl\middleware\ble/cy_ble_hts.c **** *  * CY_BLE_EVT_GATTS_HANDLE_VALUE_CNF - In case if the indication is
 620:Generated_Source\PSoC6\pdl\middleware\ble/cy_ble_hts.c **** *                                successfully delivered to the peer device.
 621:Generated_Source\PSoC6\pdl\middleware\ble/cy_ble_hts.c **** *
 622:Generated_Source\PSoC6\pdl\middleware\ble/cy_ble_hts.c **** ******************************************************************************/
 623:Generated_Source\PSoC6\pdl\middleware\ble/cy_ble_hts.c **** cy_en_ble_api_result_t Cy_BLE_HTSS_SendIndication(cy_stc_ble_conn_handle_t connHandle,
 624:Generated_Source\PSoC6\pdl\middleware\ble/cy_ble_hts.c ****                                                   cy_en_ble_hts_char_index_t charIndex,
 625:Generated_Source\PSoC6\pdl\middleware\ble/cy_ble_hts.c ****                                                   uint8_t attrSize,
 626:Generated_Source\PSoC6\pdl\middleware\ble/cy_ble_hts.c ****                                                   uint8_t *attrValue)
 627:Generated_Source\PSoC6\pdl\middleware\ble/cy_ble_hts.c **** {
 628:Generated_Source\PSoC6\pdl\middleware\ble/cy_ble_hts.c ****     cy_en_ble_api_result_t apiResult;
 629:Generated_Source\PSoC6\pdl\middleware\ble/cy_ble_hts.c **** 
 630:Generated_Source\PSoC6\pdl\middleware\ble/cy_ble_hts.c ****     /* Send Notification if it is enabled and connected */
 631:Generated_Source\PSoC6\pdl\middleware\ble/cy_ble_hts.c ****     if(Cy_BLE_GetConnectionState(connHandle) < CY_BLE_CONN_STATE_CONNECTED)
 632:Generated_Source\PSoC6\pdl\middleware\ble/cy_ble_hts.c ****     {
 633:Generated_Source\PSoC6\pdl\middleware\ble/cy_ble_hts.c ****         apiResult = CY_BLE_ERROR_INVALID_STATE;
 634:Generated_Source\PSoC6\pdl\middleware\ble/cy_ble_hts.c ****     }
 635:Generated_Source\PSoC6\pdl\middleware\ble/cy_ble_hts.c ****     else if(!CY_BLE_IS_INDICATION_ENABLED(connHandle.attId, cy_ble_htsConfigPtr->htss->charInfo[cha
 636:Generated_Source\PSoC6\pdl\middleware\ble/cy_ble_hts.c ****                                            descrHandle[CY_BLE_HTS_CCCD]))
 637:Generated_Source\PSoC6\pdl\middleware\ble/cy_ble_hts.c ****     {
 638:Generated_Source\PSoC6\pdl\middleware\ble/cy_ble_hts.c ****         apiResult = CY_BLE_ERROR_IND_DISABLED;
 639:Generated_Source\PSoC6\pdl\middleware\ble/cy_ble_hts.c ****     }
 640:Generated_Source\PSoC6\pdl\middleware\ble/cy_ble_hts.c ****     else
 641:Generated_Source\PSoC6\pdl\middleware\ble/cy_ble_hts.c ****     {
 642:Generated_Source\PSoC6\pdl\middleware\ble/cy_ble_hts.c ****         /* Fill all fields of write request structure ... */
 643:Generated_Source\PSoC6\pdl\middleware\ble/cy_ble_hts.c ****         cy_stc_ble_gatts_handle_value_ntf_t ntfReqParam =
 644:Generated_Source\PSoC6\pdl\middleware\ble/cy_ble_hts.c ****         {
 645:Generated_Source\PSoC6\pdl\middleware\ble/cy_ble_hts.c ****             .handleValPair.attrHandle = cy_ble_htsConfigPtr->htss->charInfo[charIndex].charHandle,
 646:Generated_Source\PSoC6\pdl\middleware\ble/cy_ble_hts.c ****             .handleValPair.value.val  = attrValue,
 647:Generated_Source\PSoC6\pdl\middleware\ble/cy_ble_hts.c ****             .handleValPair.value.len  = attrSize,
 648:Generated_Source\PSoC6\pdl\middleware\ble/cy_ble_hts.c ****             .connHandle               = connHandle
 649:Generated_Source\PSoC6\pdl\middleware\ble/cy_ble_hts.c ****         };
 650:Generated_Source\PSoC6\pdl\middleware\ble/cy_ble_hts.c ****         /* Send indication to client using previously filled structure */
 651:Generated_Source\PSoC6\pdl\middleware\ble/cy_ble_hts.c ****         apiResult = Cy_BLE_GATTS_Indication(&ntfReqParam);
 652:Generated_Source\PSoC6\pdl\middleware\ble/cy_ble_hts.c ****         /* Save handle to support service-specific value confirmation response from client */
 653:Generated_Source\PSoC6\pdl\middleware\ble/cy_ble_hts.c ****         if(apiResult == CY_BLE_SUCCESS)
 654:Generated_Source\PSoC6\pdl\middleware\ble/cy_ble_hts.c ****         {
 655:Generated_Source\PSoC6\pdl\middleware\ble/cy_ble_hts.c ****             cy_ble_htssReqHandle = ntfReqParam.handleValPair.attrHandle;
 656:Generated_Source\PSoC6\pdl\middleware\ble/cy_ble_hts.c ****         }
 657:Generated_Source\PSoC6\pdl\middleware\ble/cy_ble_hts.c ****     }
ARM GAS  C:\Users\codyg\AppData\Local\Temp\ccQkQY0S.s 			page 13


 658:Generated_Source\PSoC6\pdl\middleware\ble/cy_ble_hts.c **** 
 659:Generated_Source\PSoC6\pdl\middleware\ble/cy_ble_hts.c ****     return(apiResult);
 660:Generated_Source\PSoC6\pdl\middleware\ble/cy_ble_hts.c **** }
 661:Generated_Source\PSoC6\pdl\middleware\ble/cy_ble_hts.c **** 
 662:Generated_Source\PSoC6\pdl\middleware\ble/cy_ble_hts.c **** 
 663:Generated_Source\PSoC6\pdl\middleware\ble/cy_ble_hts.c **** /******************************************************************************
 664:Generated_Source\PSoC6\pdl\middleware\ble/cy_ble_hts.c **** * Function Name: Cy_BLE_HTSS_ConfirmationEventHandler
 665:Generated_Source\PSoC6\pdl\middleware\ble/cy_ble_hts.c **** ***************************************************************************//**
 666:Generated_Source\PSoC6\pdl\middleware\ble/cy_ble_hts.c **** *
 667:Generated_Source\PSoC6\pdl\middleware\ble/cy_ble_hts.c **** *  Handles a Value Confirmation request event from the BLE Stack.
 668:Generated_Source\PSoC6\pdl\middleware\ble/cy_ble_hts.c **** *
 669:Generated_Source\PSoC6\pdl\middleware\ble/cy_ble_hts.c **** *  *eventParam - The pointer to a structure of type cy_stc_ble_conn_handle_t.
 670:Generated_Source\PSoC6\pdl\middleware\ble/cy_ble_hts.c **** *
 671:Generated_Source\PSoC6\pdl\middleware\ble/cy_ble_hts.c **** ******************************************************************************/
 672:Generated_Source\PSoC6\pdl\middleware\ble/cy_ble_hts.c **** static void Cy_BLE_HTSS_ConfirmationEventHandler(const cy_stc_ble_conn_handle_t *eventParam)
 673:Generated_Source\PSoC6\pdl\middleware\ble/cy_ble_hts.c **** {
  28              		.loc 1 673 0
  29              		.cfi_startproc
  30              		@ args = 0, pretend = 0, frame = 8
  31              		@ frame_needed = 0, uses_anonymous_args = 0
  32              	.LVL0:
  33 0000 30B5     		push	{r4, r5, lr}
  34              		.cfi_def_cfa_offset 12
  35              		.cfi_offset 4, -12
  36              		.cfi_offset 5, -8
  37              		.cfi_offset 14, -4
  38 0002 83B0     		sub	sp, sp, #12
  39              		.cfi_def_cfa_offset 24
 674:Generated_Source\PSoC6\pdl\middleware\ble/cy_ble_hts.c ****     cy_stc_ble_hts_char_value_t locCharValue = { .connHandle = *eventParam };
  40              		.loc 1 674 0
  41 0004 0023     		movs	r3, #0
  42 0006 0093     		str	r3, [sp]
  43 0008 0193     		str	r3, [sp, #4]
  44 000a 0388     		ldrh	r3, [r0]	@ unaligned
  45 000c ADF80030 		strh	r3, [sp]	@ unaligned
  46              	.LVL1:
 675:Generated_Source\PSoC6\pdl\middleware\ble/cy_ble_hts.c ****     cy_en_ble_hts_char_index_t locCharIndex;
 676:Generated_Source\PSoC6\pdl\middleware\ble/cy_ble_hts.c ****     uint32_t locReqHandle = 0u;
 677:Generated_Source\PSoC6\pdl\middleware\ble/cy_ble_hts.c **** 
 678:Generated_Source\PSoC6\pdl\middleware\ble/cy_ble_hts.c ****     if((Cy_BLE_HTS_ApplCallback != NULL) && (cy_ble_htssReqHandle != CY_BLE_GATT_INVALID_ATTR_HANDL
  47              		.loc 1 678 0
  48 0010 164B     		ldr	r3, .L8
  49 0012 1B68     		ldr	r3, [r3]
  50 0014 3BB3     		cbz	r3, .L1
  51              		.loc 1 678 0 is_stmt 0 discriminator 1
  52 0016 154B     		ldr	r3, .L8
  53 0018 9B88     		ldrh	r3, [r3, #4]
  54 001a F3B9     		cbnz	r3, .L6
  55 001c 23E0     		b	.L1
  56              	.LVL2:
  57              	.L5:
 679:Generated_Source\PSoC6\pdl\middleware\ble/cy_ble_hts.c ****     {
 680:Generated_Source\PSoC6\pdl\middleware\ble/cy_ble_hts.c ****         for(locCharIndex = CY_BLE_HTS_TEMP_MEASURE; (locCharIndex < CY_BLE_HTS_CHAR_COUNT) && (locR
 681:Generated_Source\PSoC6\pdl\middleware\ble/cy_ble_hts.c ****             locCharIndex++)
 682:Generated_Source\PSoC6\pdl\middleware\ble/cy_ble_hts.c ****         {
 683:Generated_Source\PSoC6\pdl\middleware\ble/cy_ble_hts.c ****             if(cy_ble_htssReqHandle == cy_ble_htsConfigPtr->htss->charInfo[locCharIndex].charHandle
  58              		.loc 1 683 0 is_stmt 1
ARM GAS  C:\Users\codyg\AppData\Local\Temp\ccQkQY0S.s 			page 14


  59 001e 134A     		ldr	r2, .L8
  60 0020 9368     		ldr	r3, [r2, #8]
  61 0022 1868     		ldr	r0, [r3]
  62 0024 04EB4401 		add	r1, r4, r4, lsl #1
  63 0028 4B00     		lsls	r3, r1, #1
  64 002a 0344     		add	r3, r3, r0
  65 002c 5988     		ldrh	r1, [r3, #2]
  66 002e 9388     		ldrh	r3, [r2, #4]
  67 0030 9942     		cmp	r1, r3
  68 0032 0FD1     		bne	.L4
 684:Generated_Source\PSoC6\pdl\middleware\ble/cy_ble_hts.c ****             {
 685:Generated_Source\PSoC6\pdl\middleware\ble/cy_ble_hts.c ****                 locCharValue.charIndex = locCharIndex;
  69              		.loc 1 685 0
  70 0034 8DF80240 		strb	r4, [sp, #2]
 686:Generated_Source\PSoC6\pdl\middleware\ble/cy_ble_hts.c ****                 locCharValue.value = NULL;
  71              		.loc 1 686 0
  72 0038 0022     		movs	r2, #0
  73 003a 0192     		str	r2, [sp, #4]
 687:Generated_Source\PSoC6\pdl\middleware\ble/cy_ble_hts.c ****                 cy_ble_eventHandlerFlag &= (uint8_t) ~CY_BLE_CALLBACK;
  74              		.loc 1 687 0
  75 003c 0C49     		ldr	r1, .L8+4
  76 003e 0B78     		ldrb	r3, [r1]	@ zero_extendqisi2
  77 0040 03F0FE03 		and	r3, r3, #254
  78 0044 0B70     		strb	r3, [r1]
 688:Generated_Source\PSoC6\pdl\middleware\ble/cy_ble_hts.c ****                 cy_ble_htssReqHandle = CY_BLE_GATT_INVALID_ATTR_HANDLE_VALUE;
  79              		.loc 1 688 0
  80 0046 094B     		ldr	r3, .L8
  81 0048 9A80     		strh	r2, [r3, #4]	@ movhi
 689:Generated_Source\PSoC6\pdl\middleware\ble/cy_ble_hts.c ****                 Cy_BLE_HTS_ApplCallback((uint32_t)CY_BLE_EVT_HTSS_INDICATION_CONFIRMED, &locCharVal
  82              		.loc 1 689 0
  83 004a 1B68     		ldr	r3, [r3]
  84 004c 6946     		mov	r1, sp
  85 004e 0948     		ldr	r0, .L8+8
  86 0050 9847     		blx	r3
  87              	.LVL3:
 690:Generated_Source\PSoC6\pdl\middleware\ble/cy_ble_hts.c ****                 locReqHandle = 1u;
  88              		.loc 1 690 0
  89 0052 0125     		movs	r5, #1
  90              	.LVL4:
  91              	.L4:
 681:Generated_Source\PSoC6\pdl\middleware\ble/cy_ble_hts.c ****         {
  92              		.loc 1 681 0
  93 0054 0134     		adds	r4, r4, #1
  94              	.LVL5:
  95 0056 E4B2     		uxtb	r4, r4
  96              	.LVL6:
  97 0058 01E0     		b	.L3
  98              	.LVL7:
  99              	.L6:
 100 005a 0025     		movs	r5, #0
 101 005c 2C46     		mov	r4, r5
 102              	.LVL8:
 103              	.L3:
 680:Generated_Source\PSoC6\pdl\middleware\ble/cy_ble_hts.c ****             locCharIndex++)
 104              		.loc 1 680 0 discriminator 1
 105 005e 032C     		cmp	r4, #3
 106 0060 01D8     		bhi	.L1
ARM GAS  C:\Users\codyg\AppData\Local\Temp\ccQkQY0S.s 			page 15


 680:Generated_Source\PSoC6\pdl\middleware\ble/cy_ble_hts.c ****             locCharIndex++)
 107              		.loc 1 680 0 is_stmt 0 discriminator 2
 108 0062 002D     		cmp	r5, #0
 109 0064 DBD0     		beq	.L5
 110              	.LVL9:
 111              	.L1:
 691:Generated_Source\PSoC6\pdl\middleware\ble/cy_ble_hts.c ****             }
 692:Generated_Source\PSoC6\pdl\middleware\ble/cy_ble_hts.c ****         }
 693:Generated_Source\PSoC6\pdl\middleware\ble/cy_ble_hts.c ****     }
 694:Generated_Source\PSoC6\pdl\middleware\ble/cy_ble_hts.c **** }
 112              		.loc 1 694 0 is_stmt 1
 113 0066 03B0     		add	sp, sp, #12
 114              		.cfi_def_cfa_offset 12
 115              		@ sp needed
 116 0068 30BD     		pop	{r4, r5, pc}
 117              	.L9:
 118 006a 00BF     		.align	2
 119              	.L8:
 120 006c 00000000 		.word	.LANCHOR0
 121 0070 00000000 		.word	cy_ble_eventHandlerFlag
 122 0074 B7000100 		.word	65719
 123              		.cfi_endproc
 124              	.LFE294:
 125              		.size	Cy_BLE_HTSS_ConfirmationEventHandler, .-Cy_BLE_HTSS_ConfirmationEventHandler
 126              		.section	.text.Cy_BLE_HTS_Init,"ax",%progbits
 127              		.align	2
 128              		.global	Cy_BLE_HTS_Init
 129              		.thumb
 130              		.thumb_func
 131              		.type	Cy_BLE_HTS_Init, %function
 132              	Cy_BLE_HTS_Init:
 133              	.LFB285:
  85:Generated_Source\PSoC6\pdl\middleware\ble/cy_ble_hts.c ****     cy_en_ble_api_result_t apiResult;
 134              		.loc 1 85 0
 135              		.cfi_startproc
 136              		@ args = 0, pretend = 0, frame = 0
 137              		@ frame_needed = 0, uses_anonymous_args = 0
 138              	.LVL10:
  88:Generated_Source\PSoC6\pdl\middleware\ble/cy_ble_hts.c ****     {
 139              		.loc 1 88 0
 140 0000 68B1     		cbz	r0, .L13
  85:Generated_Source\PSoC6\pdl\middleware\ble/cy_ble_hts.c ****     cy_en_ble_api_result_t apiResult;
 141              		.loc 1 85 0
 142 0002 10B5     		push	{r4, lr}
 143              		.cfi_def_cfa_offset 8
 144              		.cfi_offset 4, -8
 145              		.cfi_offset 14, -4
  95:Generated_Source\PSoC6\pdl\middleware\ble/cy_ble_hts.c **** 
 146              		.loc 1 95 0
 147 0004 074C     		ldr	r4, .L16
 148 0006 A060     		str	r0, [r4, #8]
  98:Generated_Source\PSoC6\pdl\middleware\ble/cy_ble_hts.c **** 
 149              		.loc 1 98 0
 150 0008 0748     		ldr	r0, .L16+4
 151              	.LVL11:
 152 000a FFF7FEFF 		bl	Cy_BLE_RegisterServiceEventHandler
 153              	.LVL12:
ARM GAS  C:\Users\codyg\AppData\Local\Temp\ccQkQY0S.s 			page 16


 101:Generated_Source\PSoC6\pdl\middleware\ble/cy_ble_hts.c ****         {
 154              		.loc 1 101 0
 155 000e A368     		ldr	r3, [r4, #8]
 156 0010 5B68     		ldr	r3, [r3, #4]
 157 0012 03B1     		cbz	r3, .L12
 103:Generated_Source\PSoC6\pdl\middleware\ble/cy_ble_hts.c ****         }
 158              		.loc 1 103 0
 159 0014 2360     		str	r3, [r4]
 160              	.L12:
 107:Generated_Source\PSoC6\pdl\middleware\ble/cy_ble_hts.c ****     #endif /* CY_BLE_HTS_SERVER */
 161              		.loc 1 107 0
 162 0016 0022     		movs	r2, #0
 163 0018 024B     		ldr	r3, .L16
 164 001a 9A80     		strh	r2, [r3, #4]	@ movhi
 165 001c 10BD     		pop	{r4, pc}
 166              	.LVL13:
 167              	.L13:
 168              		.cfi_def_cfa_offset 0
 169              		.cfi_restore 4
 170              		.cfi_restore 14
  90:Generated_Source\PSoC6\pdl\middleware\ble/cy_ble_hts.c ****     }
 171              		.loc 1 90 0
 172 001e 0348     		ldr	r0, .L16+8
 173              	.LVL14:
 174 0020 7047     		bx	lr
 175              	.L17:
 176 0022 00BF     		.align	2
 177              	.L16:
 178 0024 00000000 		.word	.LANCHOR0
 179 0028 00000000 		.word	Cy_BLE_HTS_EventHandler
 180 002c 01001600 		.word	1441793
 181              		.cfi_endproc
 182              	.LFE285:
 183              		.size	Cy_BLE_HTS_Init, .-Cy_BLE_HTS_Init
 184              		.section	.text.Cy_BLE_HTS_RegisterAttrCallback,"ax",%progbits
 185              		.align	2
 186              		.global	Cy_BLE_HTS_RegisterAttrCallback
 187              		.thumb
 188              		.thumb_func
 189              		.type	Cy_BLE_HTS_RegisterAttrCallback, %function
 190              	Cy_BLE_HTS_RegisterAttrCallback:
 191              	.LFB286:
 163:Generated_Source\PSoC6\pdl\middleware\ble/cy_ble_hts.c ****     cy_en_ble_api_result_t apiResult = CY_BLE_SUCCESS;
 192              		.loc 1 163 0
 193              		.cfi_startproc
 194              		@ args = 0, pretend = 0, frame = 0
 195              		@ frame_needed = 0, uses_anonymous_args = 0
 196              		@ link register save eliminated.
 197              	.LVL15:
 166:Generated_Source\PSoC6\pdl\middleware\ble/cy_ble_hts.c ****     if(cy_ble_htsConfigPtr != NULL)
 198              		.loc 1 166 0
 199 0000 044B     		ldr	r3, .L21
 200 0002 1860     		str	r0, [r3]
 167:Generated_Source\PSoC6\pdl\middleware\ble/cy_ble_hts.c ****     {
 201              		.loc 1 167 0
 202 0004 9B68     		ldr	r3, [r3, #8]
 203 0006 13B1     		cbz	r3, .L20
ARM GAS  C:\Users\codyg\AppData\Local\Temp\ccQkQY0S.s 			page 17


 169:Generated_Source\PSoC6\pdl\middleware\ble/cy_ble_hts.c ****     }
 204              		.loc 1 169 0
 205 0008 5860     		str	r0, [r3, #4]
 164:Generated_Source\PSoC6\pdl\middleware\ble/cy_ble_hts.c ****     
 206              		.loc 1 164 0
 207 000a 0020     		movs	r0, #0
 208              	.LVL16:
 209 000c 7047     		bx	lr
 210              	.LVL17:
 211              	.L20:
 173:Generated_Source\PSoC6\pdl\middleware\ble/cy_ble_hts.c ****     }
 212              		.loc 1 173 0
 213 000e 0248     		ldr	r0, .L21+4
 214              	.LVL18:
 177:Generated_Source\PSoC6\pdl\middleware\ble/cy_ble_hts.c **** 
 215              		.loc 1 177 0
 216 0010 7047     		bx	lr
 217              	.L22:
 218 0012 00BF     		.align	2
 219              	.L21:
 220 0014 00000000 		.word	.LANCHOR0
 221 0018 02001600 		.word	1441794
 222              		.cfi_endproc
 223              	.LFE286:
 224              		.size	Cy_BLE_HTS_RegisterAttrCallback, .-Cy_BLE_HTS_RegisterAttrCallback
 225              		.section	.text.Cy_BLE_HTSS_SetCharacteristicValue,"ax",%progbits
 226              		.align	2
 227              		.global	Cy_BLE_HTSS_SetCharacteristicValue
 228              		.thumb
 229              		.thumb_func
 230              		.type	Cy_BLE_HTSS_SetCharacteristicValue, %function
 231              	Cy_BLE_HTSS_SetCharacteristicValue:
 232              	.LFB287:
 203:Generated_Source\PSoC6\pdl\middleware\ble/cy_ble_hts.c ****     cy_en_ble_api_result_t apiResult = CY_BLE_SUCCESS;
 233              		.loc 1 203 0
 234              		.cfi_startproc
 235              		@ args = 0, pretend = 0, frame = 24
 236              		@ frame_needed = 0, uses_anonymous_args = 0
 237              	.LVL19:
 206:Generated_Source\PSoC6\pdl\middleware\ble/cy_ble_hts.c ****     {
 238              		.loc 1 206 0
 239 0000 0328     		cmp	r0, #3
 240 0002 19D8     		bhi	.L26
 203:Generated_Source\PSoC6\pdl\middleware\ble/cy_ble_hts.c ****     cy_en_ble_api_result_t apiResult = CY_BLE_SUCCESS;
 241              		.loc 1 203 0
 242 0004 00B5     		push	{lr}
 243              		.cfi_def_cfa_offset 4
 244              		.cfi_offset 14, -4
 245 0006 87B0     		sub	sp, sp, #28
 246              		.cfi_def_cfa_offset 32
 247              	.LBB28:
 213:Generated_Source\PSoC6\pdl\middleware\ble/cy_ble_hts.c ****         {
 248              		.loc 1 213 0
 249 0008 0023     		movs	r3, #0
 250 000a 0293     		str	r3, [sp, #8]
 251 000c 0393     		str	r3, [sp, #12]
 252 000e 0493     		str	r3, [sp, #16]
ARM GAS  C:\Users\codyg\AppData\Local\Temp\ccQkQY0S.s 			page 18


 253 0010 0593     		str	r3, [sp, #20]
 254 0012 0192     		str	r2, [sp, #4]
 255 0014 ADF80810 		strh	r1, [sp, #8]	@ movhi
 215:Generated_Source\PSoC6\pdl\middleware\ble/cy_ble_hts.c ****             .handleValuePair.value.len  = attrSize,
 256              		.loc 1 215 0
 257 0018 0A4B     		ldr	r3, .L30
 258 001a 9B68     		ldr	r3, [r3, #8]
 259 001c 1B68     		ldr	r3, [r3]
 260 001e 00EB4000 		add	r0, r0, r0, lsl #1
 261              	.LVL20:
 262 0022 03EB4000 		add	r0, r3, r0, lsl #1
 263 0026 4388     		ldrh	r3, [r0, #2]
 213:Generated_Source\PSoC6\pdl\middleware\ble/cy_ble_hts.c ****         {
 264              		.loc 1 213 0
 265 0028 ADF80C30 		strh	r3, [sp, #12]	@ movhi
 221:Generated_Source\PSoC6\pdl\middleware\ble/cy_ble_hts.c ****         {
 266              		.loc 1 221 0
 267 002c 01A8     		add	r0, sp, #4
 268 002e FFF7FEFF 		bl	Cy_BLE_GATTS_WriteAttributeValueCCCD
 269              	.LVL21:
 270 0032 18B1     		cbz	r0, .L24
 223:Generated_Source\PSoC6\pdl\middleware\ble/cy_ble_hts.c ****         }
 271              		.loc 1 223 0
 272 0034 0448     		ldr	r0, .L30+4
 273              	.LVL22:
 274 0036 01E0     		b	.L24
 275              	.LVL23:
 276              	.L26:
 277              		.cfi_def_cfa_offset 0
 278              		.cfi_restore 14
 279              	.LBE28:
 208:Generated_Source\PSoC6\pdl\middleware\ble/cy_ble_hts.c ****     }
 280              		.loc 1 208 0
 281 0038 0348     		ldr	r0, .L30+4
 282              	.LVL24:
 283 003a 7047     		bx	lr
 284              	.LVL25:
 285              	.L24:
 286              		.cfi_def_cfa_offset 32
 287              		.cfi_offset 14, -4
 228:Generated_Source\PSoC6\pdl\middleware\ble/cy_ble_hts.c **** 
 288              		.loc 1 228 0
 289 003c 07B0     		add	sp, sp, #28
 290              		.cfi_def_cfa_offset 4
 291              		@ sp needed
 292 003e 5DF804FB 		ldr	pc, [sp], #4
 293              	.L31:
 294 0042 00BF     		.align	2
 295              	.L30:
 296 0044 00000000 		.word	.LANCHOR0
 297 0048 01001600 		.word	1441793
 298              		.cfi_endproc
 299              	.LFE287:
 300              		.size	Cy_BLE_HTSS_SetCharacteristicValue, .-Cy_BLE_HTSS_SetCharacteristicValue
 301              		.section	.text.Cy_BLE_HTSS_GetCharacteristicValue,"ax",%progbits
 302              		.align	2
 303              		.global	Cy_BLE_HTSS_GetCharacteristicValue
ARM GAS  C:\Users\codyg\AppData\Local\Temp\ccQkQY0S.s 			page 19


 304              		.thumb
 305              		.thumb_func
 306              		.type	Cy_BLE_HTSS_GetCharacteristicValue, %function
 307              	Cy_BLE_HTSS_GetCharacteristicValue:
 308              	.LFB288:
 252:Generated_Source\PSoC6\pdl\middleware\ble/cy_ble_hts.c ****     cy_en_ble_api_result_t apiResult = CY_BLE_SUCCESS;
 309              		.loc 1 252 0
 310              		.cfi_startproc
 311              		@ args = 0, pretend = 0, frame = 24
 312              		@ frame_needed = 0, uses_anonymous_args = 0
 313              	.LVL26:
 255:Generated_Source\PSoC6\pdl\middleware\ble/cy_ble_hts.c ****     {
 314              		.loc 1 255 0
 315 0000 0328     		cmp	r0, #3
 316 0002 19D8     		bhi	.L35
 252:Generated_Source\PSoC6\pdl\middleware\ble/cy_ble_hts.c ****     cy_en_ble_api_result_t apiResult = CY_BLE_SUCCESS;
 317              		.loc 1 252 0
 318 0004 00B5     		push	{lr}
 319              		.cfi_def_cfa_offset 4
 320              		.cfi_offset 14, -4
 321 0006 87B0     		sub	sp, sp, #28
 322              		.cfi_def_cfa_offset 32
 323              	.LBB29:
 262:Generated_Source\PSoC6\pdl\middleware\ble/cy_ble_hts.c ****         {
 324              		.loc 1 262 0
 325 0008 0023     		movs	r3, #0
 326 000a 0293     		str	r3, [sp, #8]
 327 000c 0393     		str	r3, [sp, #12]
 328 000e 0493     		str	r3, [sp, #16]
 329 0010 0593     		str	r3, [sp, #20]
 330 0012 0192     		str	r2, [sp, #4]
 331 0014 ADF80810 		strh	r1, [sp, #8]	@ movhi
 264:Generated_Source\PSoC6\pdl\middleware\ble/cy_ble_hts.c ****             .handleValuePair.value.len  = attrSize,
 332              		.loc 1 264 0
 333 0018 0A4B     		ldr	r3, .L39
 334 001a 9B68     		ldr	r3, [r3, #8]
 335 001c 1B68     		ldr	r3, [r3]
 336 001e 00EB4000 		add	r0, r0, r0, lsl #1
 337              	.LVL27:
 338 0022 03EB4000 		add	r0, r3, r0, lsl #1
 339 0026 4388     		ldrh	r3, [r0, #2]
 262:Generated_Source\PSoC6\pdl\middleware\ble/cy_ble_hts.c ****         {
 340              		.loc 1 262 0
 341 0028 ADF80C30 		strh	r3, [sp, #12]	@ movhi
 270:Generated_Source\PSoC6\pdl\middleware\ble/cy_ble_hts.c ****         {
 342              		.loc 1 270 0
 343 002c 01A8     		add	r0, sp, #4
 344 002e FFF7FEFF 		bl	Cy_BLE_GATTS_ReadAttributeValueCCCD
 345              	.LVL28:
 346 0032 18B1     		cbz	r0, .L33
 272:Generated_Source\PSoC6\pdl\middleware\ble/cy_ble_hts.c ****         }
 347              		.loc 1 272 0
 348 0034 0448     		ldr	r0, .L39+4
 349              	.LVL29:
 350 0036 01E0     		b	.L33
 351              	.LVL30:
 352              	.L35:
ARM GAS  C:\Users\codyg\AppData\Local\Temp\ccQkQY0S.s 			page 20


 353              		.cfi_def_cfa_offset 0
 354              		.cfi_restore 14
 355              	.LBE29:
 257:Generated_Source\PSoC6\pdl\middleware\ble/cy_ble_hts.c ****     }
 356              		.loc 1 257 0
 357 0038 0348     		ldr	r0, .L39+4
 358              	.LVL31:
 359 003a 7047     		bx	lr
 360              	.LVL32:
 361              	.L33:
 362              		.cfi_def_cfa_offset 32
 363              		.cfi_offset 14, -4
 277:Generated_Source\PSoC6\pdl\middleware\ble/cy_ble_hts.c **** 
 364              		.loc 1 277 0
 365 003c 07B0     		add	sp, sp, #28
 366              		.cfi_def_cfa_offset 4
 367              		@ sp needed
 368 003e 5DF804FB 		ldr	pc, [sp], #4
 369              	.L40:
 370 0042 00BF     		.align	2
 371              	.L39:
 372 0044 00000000 		.word	.LANCHOR0
 373 0048 01001600 		.word	1441793
 374              		.cfi_endproc
 375              	.LFE288:
 376              		.size	Cy_BLE_HTSS_GetCharacteristicValue, .-Cy_BLE_HTSS_GetCharacteristicValue
 377              		.section	.text.Cy_BLE_HTSS_SetCharacteristicDescriptor,"ax",%progbits
 378              		.align	2
 379              		.global	Cy_BLE_HTSS_SetCharacteristicDescriptor
 380              		.thumb
 381              		.thumb_func
 382              		.type	Cy_BLE_HTSS_SetCharacteristicDescriptor, %function
 383              	Cy_BLE_HTSS_SetCharacteristicDescriptor:
 384              	.LFB289:
 304:Generated_Source\PSoC6\pdl\middleware\ble/cy_ble_hts.c ****     cy_en_ble_api_result_t apiResult = CY_BLE_SUCCESS;
 385              		.loc 1 304 0
 386              		.cfi_startproc
 387              		@ args = 4, pretend = 0, frame = 32
 388              		@ frame_needed = 0, uses_anonymous_args = 0
 389              	.LVL33:
 390 0000 30B5     		push	{r4, r5, lr}
 391              		.cfi_def_cfa_offset 12
 392              		.cfi_offset 4, -12
 393              		.cfi_offset 5, -8
 394              		.cfi_offset 14, -4
 395 0002 89B0     		sub	sp, sp, #36
 396              		.cfi_def_cfa_offset 48
 397 0004 ADF80400 		strh	r0, [sp, #4]	@ movhi
 398              	.LVL34:
 307:Generated_Source\PSoC6\pdl\middleware\ble/cy_ble_hts.c ****     {
 399              		.loc 1 307 0
 400 0008 0329     		cmp	r1, #3
 401 000a 24D8     		bhi	.L44
 307:Generated_Source\PSoC6\pdl\middleware\ble/cy_ble_hts.c ****     {
 402              		.loc 1 307 0 is_stmt 0 discriminator 1
 403 000c 012A     		cmp	r2, #1
 404 000e 24D8     		bhi	.L45
ARM GAS  C:\Users\codyg\AppData\Local\Temp\ccQkQY0S.s 			page 21


 313:Generated_Source\PSoC6\pdl\middleware\ble/cy_ble_hts.c ****         {
 405              		.loc 1 313 0 is_stmt 1
 406 0010 1448     		ldr	r0, .L49
 407 0012 8568     		ldr	r5, [r0, #8]
 408 0014 2868     		ldr	r0, [r5]
 409 0016 01EB4104 		add	r4, r1, r1, lsl #1
 410 001a 1444     		add	r4, r4, r2
 411 001c 00EB4400 		add	r0, r0, r4, lsl #1
 412 0020 8088     		ldrh	r0, [r0, #4]
 413 0022 E0B1     		cbz	r0, .L46
 414              	.LBB30:
 315:Generated_Source\PSoC6\pdl\middleware\ble/cy_ble_hts.c ****             {
 415              		.loc 1 315 0
 416 0024 0020     		movs	r0, #0
 417 0026 0490     		str	r0, [sp, #16]
 418 0028 0590     		str	r0, [sp, #20]
 419 002a 0690     		str	r0, [sp, #24]
 420 002c 0790     		str	r0, [sp, #28]
 421 002e 0C98     		ldr	r0, [sp, #48]
 422 0030 0390     		str	r0, [sp, #12]
 423 0032 ADF81030 		strh	r3, [sp, #16]	@ movhi
 317:Generated_Source\PSoC6\pdl\middleware\ble/cy_ble_hts.c ****                 .handleValuePair.value.len  = attrSize,
 424              		.loc 1 317 0
 425 0036 2B68     		ldr	r3, [r5]
 426              	.LVL35:
 427 0038 03EB4401 		add	r1, r3, r4, lsl #1
 428              	.LVL36:
 429 003c 8B88     		ldrh	r3, [r1, #4]
 315:Generated_Source\PSoC6\pdl\middleware\ble/cy_ble_hts.c ****             {
 430              		.loc 1 315 0
 431 003e ADF81430 		strh	r3, [sp, #20]	@ movhi
 432 0042 BDF80430 		ldrh	r3, [sp, #4]
 433 0046 ADF81A30 		strh	r3, [sp, #26]	@ movhi
 324:Generated_Source\PSoC6\pdl\middleware\ble/cy_ble_hts.c ****             {
 434              		.loc 1 324 0
 435 004a 03A8     		add	r0, sp, #12
 436 004c FFF7FEFF 		bl	Cy_BLE_GATTS_WriteAttributeValueCCCD
 437              	.LVL37:
 438 0050 30B1     		cbz	r0, .L42
 326:Generated_Source\PSoC6\pdl\middleware\ble/cy_ble_hts.c ****             }
 439              		.loc 1 326 0
 440 0052 0548     		ldr	r0, .L49+4
 441              	.LVL38:
 442 0054 04E0     		b	.L42
 443              	.LVL39:
 444              	.L44:
 445              	.LBE30:
 309:Generated_Source\PSoC6\pdl\middleware\ble/cy_ble_hts.c ****     }
 446              		.loc 1 309 0
 447 0056 0448     		ldr	r0, .L49+4
 448 0058 02E0     		b	.L42
 449              	.L45:
 450 005a 0348     		ldr	r0, .L49+4
 451 005c 00E0     		b	.L42
 452              	.L46:
 331:Generated_Source\PSoC6\pdl\middleware\ble/cy_ble_hts.c ****         }
 453              		.loc 1 331 0
ARM GAS  C:\Users\codyg\AppData\Local\Temp\ccQkQY0S.s 			page 22


 454 005e 0248     		ldr	r0, .L49+4
 455              	.LVL40:
 456              	.L42:
 336:Generated_Source\PSoC6\pdl\middleware\ble/cy_ble_hts.c **** 
 457              		.loc 1 336 0
 458 0060 09B0     		add	sp, sp, #36
 459              		.cfi_def_cfa_offset 12
 460              		@ sp needed
 461 0062 30BD     		pop	{r4, r5, pc}
 462              	.LVL41:
 463              	.L50:
 464              		.align	2
 465              	.L49:
 466 0064 00000000 		.word	.LANCHOR0
 467 0068 01001600 		.word	1441793
 468              		.cfi_endproc
 469              	.LFE289:
 470              		.size	Cy_BLE_HTSS_SetCharacteristicDescriptor, .-Cy_BLE_HTSS_SetCharacteristicDescriptor
 471              		.section	.text.Cy_BLE_HTSS_GetCharacteristicDescriptor,"ax",%progbits
 472              		.align	2
 473              		.global	Cy_BLE_HTSS_GetCharacteristicDescriptor
 474              		.thumb
 475              		.thumb_func
 476              		.type	Cy_BLE_HTSS_GetCharacteristicDescriptor, %function
 477              	Cy_BLE_HTSS_GetCharacteristicDescriptor:
 478              	.LFB290:
 363:Generated_Source\PSoC6\pdl\middleware\ble/cy_ble_hts.c ****     cy_en_ble_api_result_t apiResult = CY_BLE_SUCCESS;
 479              		.loc 1 363 0
 480              		.cfi_startproc
 481              		@ args = 4, pretend = 0, frame = 32
 482              		@ frame_needed = 0, uses_anonymous_args = 0
 483              	.LVL42:
 484 0000 30B5     		push	{r4, r5, lr}
 485              		.cfi_def_cfa_offset 12
 486              		.cfi_offset 4, -12
 487              		.cfi_offset 5, -8
 488              		.cfi_offset 14, -4
 489 0002 89B0     		sub	sp, sp, #36
 490              		.cfi_def_cfa_offset 48
 491 0004 ADF80400 		strh	r0, [sp, #4]	@ movhi
 492              	.LVL43:
 366:Generated_Source\PSoC6\pdl\middleware\ble/cy_ble_hts.c ****     {
 493              		.loc 1 366 0
 494 0008 0329     		cmp	r1, #3
 495 000a 24D8     		bhi	.L54
 366:Generated_Source\PSoC6\pdl\middleware\ble/cy_ble_hts.c ****     {
 496              		.loc 1 366 0 is_stmt 0 discriminator 1
 497 000c 012A     		cmp	r2, #1
 498 000e 24D8     		bhi	.L55
 372:Generated_Source\PSoC6\pdl\middleware\ble/cy_ble_hts.c ****         {
 499              		.loc 1 372 0 is_stmt 1
 500 0010 1448     		ldr	r0, .L59
 501 0012 8568     		ldr	r5, [r0, #8]
 502 0014 2868     		ldr	r0, [r5]
 503 0016 01EB4104 		add	r4, r1, r1, lsl #1
 504 001a 1444     		add	r4, r4, r2
 505 001c 00EB4400 		add	r0, r0, r4, lsl #1
ARM GAS  C:\Users\codyg\AppData\Local\Temp\ccQkQY0S.s 			page 23


 506 0020 8088     		ldrh	r0, [r0, #4]
 507 0022 E0B1     		cbz	r0, .L56
 508              	.LBB31:
 374:Generated_Source\PSoC6\pdl\middleware\ble/cy_ble_hts.c ****             {
 509              		.loc 1 374 0
 510 0024 0020     		movs	r0, #0
 511 0026 0490     		str	r0, [sp, #16]
 512 0028 0590     		str	r0, [sp, #20]
 513 002a 0690     		str	r0, [sp, #24]
 514 002c 0790     		str	r0, [sp, #28]
 515 002e 0C98     		ldr	r0, [sp, #48]
 516 0030 0390     		str	r0, [sp, #12]
 517 0032 ADF81030 		strh	r3, [sp, #16]	@ movhi
 376:Generated_Source\PSoC6\pdl\middleware\ble/cy_ble_hts.c ****                 .handleValuePair.value.len  = attrSize,
 518              		.loc 1 376 0
 519 0036 2B68     		ldr	r3, [r5]
 520              	.LVL44:
 521 0038 03EB4401 		add	r1, r3, r4, lsl #1
 522              	.LVL45:
 523 003c 8B88     		ldrh	r3, [r1, #4]
 374:Generated_Source\PSoC6\pdl\middleware\ble/cy_ble_hts.c ****             {
 524              		.loc 1 374 0
 525 003e ADF81430 		strh	r3, [sp, #20]	@ movhi
 526 0042 BDF80430 		ldrh	r3, [sp, #4]
 527 0046 ADF81A30 		strh	r3, [sp, #26]	@ movhi
 382:Generated_Source\PSoC6\pdl\middleware\ble/cy_ble_hts.c ****             {
 528              		.loc 1 382 0
 529 004a 03A8     		add	r0, sp, #12
 530 004c FFF7FEFF 		bl	Cy_BLE_GATTS_ReadAttributeValueCCCD
 531              	.LVL46:
 532 0050 30B1     		cbz	r0, .L52
 384:Generated_Source\PSoC6\pdl\middleware\ble/cy_ble_hts.c ****             }
 533              		.loc 1 384 0
 534 0052 0548     		ldr	r0, .L59+4
 535              	.LVL47:
 536 0054 04E0     		b	.L52
 537              	.LVL48:
 538              	.L54:
 539              	.LBE31:
 368:Generated_Source\PSoC6\pdl\middleware\ble/cy_ble_hts.c ****     }
 540              		.loc 1 368 0
 541 0056 0448     		ldr	r0, .L59+4
 542 0058 02E0     		b	.L52
 543              	.L55:
 544 005a 0348     		ldr	r0, .L59+4
 545 005c 00E0     		b	.L52
 546              	.L56:
 389:Generated_Source\PSoC6\pdl\middleware\ble/cy_ble_hts.c ****         }
 547              		.loc 1 389 0
 548 005e 0248     		ldr	r0, .L59+4
 549              	.LVL49:
 550              	.L52:
 394:Generated_Source\PSoC6\pdl\middleware\ble/cy_ble_hts.c **** 
 551              		.loc 1 394 0
 552 0060 09B0     		add	sp, sp, #36
 553              		.cfi_def_cfa_offset 12
 554              		@ sp needed
ARM GAS  C:\Users\codyg\AppData\Local\Temp\ccQkQY0S.s 			page 24


 555 0062 30BD     		pop	{r4, r5, pc}
 556              	.LVL50:
 557              	.L60:
 558              		.align	2
 559              	.L59:
 560 0064 00000000 		.word	.LANCHOR0
 561 0068 01001600 		.word	1441793
 562              		.cfi_endproc
 563              	.LFE290:
 564              		.size	Cy_BLE_HTSS_GetCharacteristicDescriptor, .-Cy_BLE_HTSS_GetCharacteristicDescriptor
 565              		.section	.text.Cy_BLE_HTSS_WriteEventHandler,"ax",%progbits
 566              		.align	2
 567              		.thumb
 568              		.thumb_func
 569              		.type	Cy_BLE_HTSS_WriteEventHandler, %function
 570              	Cy_BLE_HTSS_WriteEventHandler:
 571              	.LFB291:
 407:Generated_Source\PSoC6\pdl\middleware\ble/cy_ble_hts.c ****     cy_en_ble_hts_char_index_t locCharIndex;
 572              		.loc 1 407 0
 573              		.cfi_startproc
 574              		@ args = 0, pretend = 0, frame = 32
 575              		@ frame_needed = 0, uses_anonymous_args = 0
 576              	.LVL51:
 577 0000 F0B5     		push	{r4, r5, r6, r7, lr}
 578              		.cfi_def_cfa_offset 20
 579              		.cfi_offset 4, -20
 580              		.cfi_offset 5, -16
 581              		.cfi_offset 6, -12
 582              		.cfi_offset 7, -8
 583              		.cfi_offset 14, -4
 584 0002 8BB0     		sub	sp, sp, #44
 585              		.cfi_def_cfa_offset 64
 409:Generated_Source\PSoC6\pdl\middleware\ble/cy_ble_hts.c ****     cy_en_ble_gatt_err_code_t gattErr = CY_BLE_GATT_ERR_NONE;
 586              		.loc 1 409 0
 587 0004 0023     		movs	r3, #0
 588 0006 0893     		str	r3, [sp, #32]
 589 0008 0993     		str	r3, [sp, #36]
 590 000a 8389     		ldrh	r3, [r0, #12]
 591 000c ADF82030 		strh	r3, [sp, #32]	@ movhi
 592              	.LVL52:
 414:Generated_Source\PSoC6\pdl\middleware\ble/cy_ble_hts.c ****     {
 593              		.loc 1 414 0
 594 0010 724B     		ldr	r3, .L80
 595 0012 1B68     		ldr	r3, [r3]
 596 0014 002B     		cmp	r3, #0
 597 0016 40F0D280 		bne	.L76
 410:Generated_Source\PSoC6\pdl\middleware\ble/cy_ble_hts.c ****     uint8_t locReqHandle = 0u;
 598              		.loc 1 410 0
 599 001a 0027     		movs	r7, #0
 600 001c DAE0     		b	.L63
 601              	.LVL53:
 602              	.L75:
 419:Generated_Source\PSoC6\pdl\middleware\ble/cy_ble_hts.c ****                 cy_ble_htsConfigPtr->htss->charInfo[locCharIndex].descrHandle[CY_BLE_HTS_CCCD]) ||
 603              		.loc 1 419 0
 604 001e 2A89     		ldrh	r2, [r5, #8]
 420:Generated_Source\PSoC6\pdl\middleware\ble/cy_ble_hts.c ****                (eventParam->handleValPair.attrHandle ==
 605              		.loc 1 420 0
ARM GAS  C:\Users\codyg\AppData\Local\Temp\ccQkQY0S.s 			page 25


 606 0020 6E4B     		ldr	r3, .L80
 607 0022 D3F808E0 		ldr	lr, [r3, #8]
 608 0026 DEF80000 		ldr	r0, [lr]
 609 002a 2646     		mov	r6, r4
 610 002c 04EB4401 		add	r1, r4, r4, lsl #1
 611 0030 4B00     		lsls	r3, r1, #1
 612 0032 0344     		add	r3, r3, r0
 613 0034 9B88     		ldrh	r3, [r3, #4]
 419:Generated_Source\PSoC6\pdl\middleware\ble/cy_ble_hts.c ****                 cy_ble_htsConfigPtr->htss->charInfo[locCharIndex].descrHandle[CY_BLE_HTS_CCCD]) ||
 614              		.loc 1 419 0
 615 0036 9A42     		cmp	r2, r3
 616 0038 07D0     		beq	.L64
 422:Generated_Source\PSoC6\pdl\middleware\ble/cy_ble_hts.c ****             {
 617              		.loc 1 422 0
 618 003a 04EB4401 		add	r1, r4, r4, lsl #1
 619 003e 4B00     		lsls	r3, r1, #1
 620 0040 0344     		add	r3, r3, r0
 621 0042 5B88     		ldrh	r3, [r3, #2]
 420:Generated_Source\PSoC6\pdl\middleware\ble/cy_ble_hts.c ****                (eventParam->handleValPair.attrHandle ==
 622              		.loc 1 420 0
 623 0044 9A42     		cmp	r2, r3
 624 0046 40F0B780 		bne	.L65
 625              	.L64:
 424:Generated_Source\PSoC6\pdl\middleware\ble/cy_ble_hts.c ****                 locCharValue.value = &eventParam->handleValPair.value;
 626              		.loc 1 424 0
 627 004a 8DF82240 		strb	r4, [sp, #34]
 425:Generated_Source\PSoC6\pdl\middleware\ble/cy_ble_hts.c ****                 /* Characteristic value write request */
 628              		.loc 1 425 0
 629 004e 0995     		str	r5, [sp, #36]
 427:Generated_Source\PSoC6\pdl\middleware\ble/cy_ble_hts.c ****                 {
 630              		.loc 1 427 0
 631 0050 DEF80000 		ldr	r0, [lr]
 632 0054 06EB4601 		add	r1, r6, r6, lsl #1
 633 0058 4B00     		lsls	r3, r1, #1
 634 005a 0344     		add	r3, r3, r0
 635 005c 5B88     		ldrh	r3, [r3, #2]
 636 005e 9A42     		cmp	r2, r3
 637 0060 46D1     		bne	.L66
 430:Generated_Source\PSoC6\pdl\middleware\ble/cy_ble_hts.c ****                     {
 638              		.loc 1 430 0
 639 0062 032C     		cmp	r4, #3
 640 0064 28D1     		bne	.L67
 641              	.LBB32:
 435:Generated_Source\PSoC6\pdl\middleware\ble/cy_ble_hts.c **** 
 642              		.loc 1 435 0
 643 0066 2B68     		ldr	r3, [r5]
 644              	.LVL54:
 645              	.LBB33:
 646              	.LBB34:
 647              		.file 2 "Generated_Source\\PSoC6\\pdl\\middleware\\ble\\cy_ble_event_handler.h"
   1:Generated_Source\PSoC6\pdl\middleware\ble/cy_ble_event_handler.h **** /***************************************************************************//**
   2:Generated_Source\PSoC6\pdl\middleware\ble/cy_ble_event_handler.h **** * \file cy_ble_event_handler.h
   3:Generated_Source\PSoC6\pdl\middleware\ble/cy_ble_event_handler.h **** * \version 2.0
   4:Generated_Source\PSoC6\pdl\middleware\ble/cy_ble_event_handler.h **** *
   5:Generated_Source\PSoC6\pdl\middleware\ble/cy_ble_event_handler.h **** * \brief
   6:Generated_Source\PSoC6\pdl\middleware\ble/cy_ble_event_handler.h **** *  Contains the prototypes and constants used in the Event Handler State Machine
   7:Generated_Source\PSoC6\pdl\middleware\ble/cy_ble_event_handler.h **** *  of the BLE Middleware.
ARM GAS  C:\Users\codyg\AppData\Local\Temp\ccQkQY0S.s 			page 26


   8:Generated_Source\PSoC6\pdl\middleware\ble/cy_ble_event_handler.h **** *
   9:Generated_Source\PSoC6\pdl\middleware\ble/cy_ble_event_handler.h **** ********************************************************************************
  10:Generated_Source\PSoC6\pdl\middleware\ble/cy_ble_event_handler.h **** * \copyright
  11:Generated_Source\PSoC6\pdl\middleware\ble/cy_ble_event_handler.h **** * Copyright 2017-2018, Cypress Semiconductor Corporation.  All rights reserved.
  12:Generated_Source\PSoC6\pdl\middleware\ble/cy_ble_event_handler.h **** * You may use this file only in accordance with the license, terms, conditions,
  13:Generated_Source\PSoC6\pdl\middleware\ble/cy_ble_event_handler.h **** * disclaimers, and limitations in the end user license agreement accompanying
  14:Generated_Source\PSoC6\pdl\middleware\ble/cy_ble_event_handler.h **** * the software package with which this file was provided.
  15:Generated_Source\PSoC6\pdl\middleware\ble/cy_ble_event_handler.h **** *******************************************************************************/
  16:Generated_Source\PSoC6\pdl\middleware\ble/cy_ble_event_handler.h **** 
  17:Generated_Source\PSoC6\pdl\middleware\ble/cy_ble_event_handler.h **** 
  18:Generated_Source\PSoC6\pdl\middleware\ble/cy_ble_event_handler.h **** #ifndef CY_BLE_EVENT_HANDLER_H
  19:Generated_Source\PSoC6\pdl\middleware\ble/cy_ble_event_handler.h **** #define CY_BLE_EVENT_HANDLER_H
  20:Generated_Source\PSoC6\pdl\middleware\ble/cy_ble_event_handler.h **** 
  21:Generated_Source\PSoC6\pdl\middleware\ble/cy_ble_event_handler.h **** #include "cy_ble.h"
  22:Generated_Source\PSoC6\pdl\middleware\ble/cy_ble_event_handler.h **** #include "cy_ble_hal_pvt.h"
  23:Generated_Source\PSoC6\pdl\middleware\ble/cy_ble_event_handler.h **** #include "flash/cy_flash.h"
  24:Generated_Source\PSoC6\pdl\middleware\ble/cy_ble_event_handler.h **** 
  25:Generated_Source\PSoC6\pdl\middleware\ble/cy_ble_event_handler.h **** #if (CY_BLE_MODE_PROFILE)
  26:Generated_Source\PSoC6\pdl\middleware\ble/cy_ble_event_handler.h **** 
  27:Generated_Source\PSoC6\pdl\middleware\ble/cy_ble_event_handler.h **** /* C binding of definitions if building with C++ compiler */
  28:Generated_Source\PSoC6\pdl\middleware\ble/cy_ble_event_handler.h **** #ifdef __cplusplus
  29:Generated_Source\PSoC6\pdl\middleware\ble/cy_ble_event_handler.h **** extern "C" {
  30:Generated_Source\PSoC6\pdl\middleware\ble/cy_ble_event_handler.h **** #endif /* __cplusplus */
  31:Generated_Source\PSoC6\pdl\middleware\ble/cy_ble_event_handler.h **** 
  32:Generated_Source\PSoC6\pdl\middleware\ble/cy_ble_event_handler.h **** /***************************************
  33:Generated_Source\PSoC6\pdl\middleware\ble/cy_ble_event_handler.h **** * Service specific includes
  34:Generated_Source\PSoC6\pdl\middleware\ble/cy_ble_event_handler.h **** ***************************************/
  35:Generated_Source\PSoC6\pdl\middleware\ble/cy_ble_event_handler.h **** 
  36:Generated_Source\PSoC6\pdl\middleware\ble/cy_ble_event_handler.h **** #ifdef CY_BLE_ANCS
  37:Generated_Source\PSoC6\pdl\middleware\ble/cy_ble_event_handler.h ****     #include "cy_ble_ancs.h"
  38:Generated_Source\PSoC6\pdl\middleware\ble/cy_ble_event_handler.h **** #endif /* CY_BLE_ANCS */
  39:Generated_Source\PSoC6\pdl\middleware\ble/cy_ble_event_handler.h **** #ifdef CY_BLE_ANS
  40:Generated_Source\PSoC6\pdl\middleware\ble/cy_ble_event_handler.h ****     #include "cy_ble_ans.h"
  41:Generated_Source\PSoC6\pdl\middleware\ble/cy_ble_event_handler.h **** #endif /* CY_BLE_ANS */
  42:Generated_Source\PSoC6\pdl\middleware\ble/cy_ble_event_handler.h **** #ifdef CY_BLE_AIOS
  43:Generated_Source\PSoC6\pdl\middleware\ble/cy_ble_event_handler.h ****     #include "cy_ble_aios.h"
  44:Generated_Source\PSoC6\pdl\middleware\ble/cy_ble_event_handler.h **** #endif /* CY_BLE_AIOS */
  45:Generated_Source\PSoC6\pdl\middleware\ble/cy_ble_event_handler.h **** #ifdef CY_BLE_BAS
  46:Generated_Source\PSoC6\pdl\middleware\ble/cy_ble_event_handler.h ****     #include "cy_ble_bas.h"
  47:Generated_Source\PSoC6\pdl\middleware\ble/cy_ble_event_handler.h **** #endif /* CY_BLE_BAS */
  48:Generated_Source\PSoC6\pdl\middleware\ble/cy_ble_event_handler.h **** #ifdef CY_BLE_BLS
  49:Generated_Source\PSoC6\pdl\middleware\ble/cy_ble_event_handler.h ****     #include "cy_ble_bls.h"
  50:Generated_Source\PSoC6\pdl\middleware\ble/cy_ble_event_handler.h **** #endif /* CY_BLE_BLS */
  51:Generated_Source\PSoC6\pdl\middleware\ble/cy_ble_event_handler.h **** #ifdef CY_BLE_BCS
  52:Generated_Source\PSoC6\pdl\middleware\ble/cy_ble_event_handler.h ****     #include "cy_ble_bcs.h"
  53:Generated_Source\PSoC6\pdl\middleware\ble/cy_ble_event_handler.h **** #endif /* CY_BLE_BCS */
  54:Generated_Source\PSoC6\pdl\middleware\ble/cy_ble_event_handler.h **** #ifdef CY_BLE_BMS
  55:Generated_Source\PSoC6\pdl\middleware\ble/cy_ble_event_handler.h ****     #include "cy_ble_bms.h"
  56:Generated_Source\PSoC6\pdl\middleware\ble/cy_ble_event_handler.h **** #endif /* CY_BLE_BMS */
  57:Generated_Source\PSoC6\pdl\middleware\ble/cy_ble_event_handler.h **** #ifdef CY_BLE_BTS
  58:Generated_Source\PSoC6\pdl\middleware\ble/cy_ble_event_handler.h ****     #include "cy_ble_bts.h"
  59:Generated_Source\PSoC6\pdl\middleware\ble/cy_ble_event_handler.h **** #endif /* CY_BLE_BTS */
  60:Generated_Source\PSoC6\pdl\middleware\ble/cy_ble_event_handler.h **** #ifdef CY_BLE_CGMS
  61:Generated_Source\PSoC6\pdl\middleware\ble/cy_ble_event_handler.h ****     #include "cy_ble_cgms.h"
  62:Generated_Source\PSoC6\pdl\middleware\ble/cy_ble_event_handler.h **** #endif /* CY_BLE_CGMS */
  63:Generated_Source\PSoC6\pdl\middleware\ble/cy_ble_event_handler.h **** #ifdef CY_BLE_CPS
  64:Generated_Source\PSoC6\pdl\middleware\ble/cy_ble_event_handler.h ****     #include "cy_ble_cps.h"
ARM GAS  C:\Users\codyg\AppData\Local\Temp\ccQkQY0S.s 			page 27


  65:Generated_Source\PSoC6\pdl\middleware\ble/cy_ble_event_handler.h **** #endif /* CY_BLE_CPS */
  66:Generated_Source\PSoC6\pdl\middleware\ble/cy_ble_event_handler.h **** #ifdef CY_BLE_CSCS
  67:Generated_Source\PSoC6\pdl\middleware\ble/cy_ble_event_handler.h ****     #include "cy_ble_cscs.h"
  68:Generated_Source\PSoC6\pdl\middleware\ble/cy_ble_event_handler.h **** #endif /* CY_BLE_CSCS */
  69:Generated_Source\PSoC6\pdl\middleware\ble/cy_ble_event_handler.h **** #ifdef CY_BLE_CTS
  70:Generated_Source\PSoC6\pdl\middleware\ble/cy_ble_event_handler.h ****     #include "cy_ble_cts.h"
  71:Generated_Source\PSoC6\pdl\middleware\ble/cy_ble_event_handler.h **** #endif /* CY_BLE_CTS */
  72:Generated_Source\PSoC6\pdl\middleware\ble/cy_ble_event_handler.h **** #ifdef CY_BLE_CUSTOM
  73:Generated_Source\PSoC6\pdl\middleware\ble/cy_ble_event_handler.h ****     #include "cy_ble_custom.h"
  74:Generated_Source\PSoC6\pdl\middleware\ble/cy_ble_event_handler.h **** #endif /* CY_BLE_CUSTOM */
  75:Generated_Source\PSoC6\pdl\middleware\ble/cy_ble_event_handler.h **** #ifdef CY_BLE_DIS
  76:Generated_Source\PSoC6\pdl\middleware\ble/cy_ble_event_handler.h ****     #include "cy_ble_dis.h"
  77:Generated_Source\PSoC6\pdl\middleware\ble/cy_ble_event_handler.h **** #endif /* CY_BLE_DIS */
  78:Generated_Source\PSoC6\pdl\middleware\ble/cy_ble_event_handler.h **** #ifdef CY_BLE_ESS
  79:Generated_Source\PSoC6\pdl\middleware\ble/cy_ble_event_handler.h ****     #include "cy_ble_ess.h"
  80:Generated_Source\PSoC6\pdl\middleware\ble/cy_ble_event_handler.h **** #endif /* CY_BLE_ESS */
  81:Generated_Source\PSoC6\pdl\middleware\ble/cy_ble_event_handler.h **** #ifdef CY_BLE_GLS
  82:Generated_Source\PSoC6\pdl\middleware\ble/cy_ble_event_handler.h ****     #include "cy_ble_gls.h"
  83:Generated_Source\PSoC6\pdl\middleware\ble/cy_ble_event_handler.h **** #endif /* CY_BLE_GLS */
  84:Generated_Source\PSoC6\pdl\middleware\ble/cy_ble_event_handler.h **** #ifdef CY_BLE_HIDS
  85:Generated_Source\PSoC6\pdl\middleware\ble/cy_ble_event_handler.h ****     #include "cy_ble_hids.h"
  86:Generated_Source\PSoC6\pdl\middleware\ble/cy_ble_event_handler.h **** #endif /* CY_BLE_HIDS */
  87:Generated_Source\PSoC6\pdl\middleware\ble/cy_ble_event_handler.h **** #ifdef CY_BLE_HPS
  88:Generated_Source\PSoC6\pdl\middleware\ble/cy_ble_event_handler.h ****     #include "cy_ble_hps.h"
  89:Generated_Source\PSoC6\pdl\middleware\ble/cy_ble_event_handler.h **** #endif /* CY_BLE_HPS */
  90:Generated_Source\PSoC6\pdl\middleware\ble/cy_ble_event_handler.h **** #ifdef CY_BLE_HRS
  91:Generated_Source\PSoC6\pdl\middleware\ble/cy_ble_event_handler.h ****     #include "cy_ble_hrs.h"
  92:Generated_Source\PSoC6\pdl\middleware\ble/cy_ble_event_handler.h **** #endif /* CY_BLE_HRS */
  93:Generated_Source\PSoC6\pdl\middleware\ble/cy_ble_event_handler.h **** #ifdef CY_BLE_HTS
  94:Generated_Source\PSoC6\pdl\middleware\ble/cy_ble_event_handler.h ****     #include "cy_ble_hts.h"
  95:Generated_Source\PSoC6\pdl\middleware\ble/cy_ble_event_handler.h **** #endif /* CY_BLE_HTS */
  96:Generated_Source\PSoC6\pdl\middleware\ble/cy_ble_event_handler.h **** #ifdef CY_BLE_IAS
  97:Generated_Source\PSoC6\pdl\middleware\ble/cy_ble_event_handler.h ****     #include "cy_ble_ias.h"
  98:Generated_Source\PSoC6\pdl\middleware\ble/cy_ble_event_handler.h **** #endif /* CY_BLE_IAS */
  99:Generated_Source\PSoC6\pdl\middleware\ble/cy_ble_event_handler.h **** #ifdef CY_BLE_IPS
 100:Generated_Source\PSoC6\pdl\middleware\ble/cy_ble_event_handler.h ****     #include "cy_ble_ips.h"
 101:Generated_Source\PSoC6\pdl\middleware\ble/cy_ble_event_handler.h **** #endif /* CY_BLE_IPS */
 102:Generated_Source\PSoC6\pdl\middleware\ble/cy_ble_event_handler.h **** #ifdef CY_BLE_LLS
 103:Generated_Source\PSoC6\pdl\middleware\ble/cy_ble_event_handler.h ****     #include "cy_ble_lls.h"
 104:Generated_Source\PSoC6\pdl\middleware\ble/cy_ble_event_handler.h **** #endif /* CY_BLE_LLS */
 105:Generated_Source\PSoC6\pdl\middleware\ble/cy_ble_event_handler.h **** #ifdef CY_BLE_LNS
 106:Generated_Source\PSoC6\pdl\middleware\ble/cy_ble_event_handler.h ****     #include "cy_ble_lns.h"
 107:Generated_Source\PSoC6\pdl\middleware\ble/cy_ble_event_handler.h **** #endif /* CY_BLE_LNS */
 108:Generated_Source\PSoC6\pdl\middleware\ble/cy_ble_event_handler.h **** #ifdef CY_BLE_NDCS
 109:Generated_Source\PSoC6\pdl\middleware\ble/cy_ble_event_handler.h ****     #include "cy_ble_ndcs.h"
 110:Generated_Source\PSoC6\pdl\middleware\ble/cy_ble_event_handler.h **** #endif /* CY_BLE_NDCS */
 111:Generated_Source\PSoC6\pdl\middleware\ble/cy_ble_event_handler.h **** #ifdef CY_BLE_PASS
 112:Generated_Source\PSoC6\pdl\middleware\ble/cy_ble_event_handler.h ****     #include "cy_ble_pass.h"
 113:Generated_Source\PSoC6\pdl\middleware\ble/cy_ble_event_handler.h **** #endif /* CY_BLE_PASS */
 114:Generated_Source\PSoC6\pdl\middleware\ble/cy_ble_event_handler.h **** #ifdef CY_BLE_PLXS
 115:Generated_Source\PSoC6\pdl\middleware\ble/cy_ble_event_handler.h ****     #include "cy_ble_plxs.h"
 116:Generated_Source\PSoC6\pdl\middleware\ble/cy_ble_event_handler.h **** #endif /* CY_BLE_PLXS */
 117:Generated_Source\PSoC6\pdl\middleware\ble/cy_ble_event_handler.h **** #ifdef CY_BLE_RSCS
 118:Generated_Source\PSoC6\pdl\middleware\ble/cy_ble_event_handler.h ****     #include "cy_ble_rscs.h"
 119:Generated_Source\PSoC6\pdl\middleware\ble/cy_ble_event_handler.h **** #endif /* CY_BLE_RSCS */
 120:Generated_Source\PSoC6\pdl\middleware\ble/cy_ble_event_handler.h **** #ifdef CY_BLE_RTUS
 121:Generated_Source\PSoC6\pdl\middleware\ble/cy_ble_event_handler.h ****     #include "cy_ble_rtus.h"
ARM GAS  C:\Users\codyg\AppData\Local\Temp\ccQkQY0S.s 			page 28


 122:Generated_Source\PSoC6\pdl\middleware\ble/cy_ble_event_handler.h **** #endif /* CY_BLE_RTUS */
 123:Generated_Source\PSoC6\pdl\middleware\ble/cy_ble_event_handler.h **** #ifdef CY_BLE_SCPS
 124:Generated_Source\PSoC6\pdl\middleware\ble/cy_ble_event_handler.h ****     #include "cy_ble_scps.h"
 125:Generated_Source\PSoC6\pdl\middleware\ble/cy_ble_event_handler.h **** #endif /* CY_BLE_SCPS */
 126:Generated_Source\PSoC6\pdl\middleware\ble/cy_ble_event_handler.h **** #ifdef CY_BLE_TPS
 127:Generated_Source\PSoC6\pdl\middleware\ble/cy_ble_event_handler.h ****     #include "cy_ble_tps.h"
 128:Generated_Source\PSoC6\pdl\middleware\ble/cy_ble_event_handler.h **** #endif /* CY_BLE_TPS */
 129:Generated_Source\PSoC6\pdl\middleware\ble/cy_ble_event_handler.h **** #ifdef CY_BLE_UDS
 130:Generated_Source\PSoC6\pdl\middleware\ble/cy_ble_event_handler.h ****     #include "cy_ble_uds.h"
 131:Generated_Source\PSoC6\pdl\middleware\ble/cy_ble_event_handler.h **** #endif /* CY_BLE_UDS */
 132:Generated_Source\PSoC6\pdl\middleware\ble/cy_ble_event_handler.h **** #ifdef CY_BLE_WPTS
 133:Generated_Source\PSoC6\pdl\middleware\ble/cy_ble_event_handler.h ****     #include "cy_ble_wpts.h"
 134:Generated_Source\PSoC6\pdl\middleware\ble/cy_ble_event_handler.h **** #endif /* CY_BLE_WPTS */
 135:Generated_Source\PSoC6\pdl\middleware\ble/cy_ble_event_handler.h **** #ifdef CY_BLE_WSS
 136:Generated_Source\PSoC6\pdl\middleware\ble/cy_ble_event_handler.h ****     #include "cy_ble_wss.h"
 137:Generated_Source\PSoC6\pdl\middleware\ble/cy_ble_event_handler.h **** #endif /* CY_BLE_WSS */
 138:Generated_Source\PSoC6\pdl\middleware\ble/cy_ble_event_handler.h **** 
 139:Generated_Source\PSoC6\pdl\middleware\ble/cy_ble_event_handler.h **** 
 140:Generated_Source\PSoC6\pdl\middleware\ble/cy_ble_event_handler.h **** 
 141:Generated_Source\PSoC6\pdl\middleware\ble/cy_ble_event_handler.h **** /***************************************
 142:Generated_Source\PSoC6\pdl\middleware\ble/cy_ble_event_handler.h **** * Definitions
 143:Generated_Source\PSoC6\pdl\middleware\ble/cy_ble_event_handler.h **** ***************************************/
 144:Generated_Source\PSoC6\pdl\middleware\ble/cy_ble_event_handler.h **** /* cy_ble_eventHandlerFlag defines */
 145:Generated_Source\PSoC6\pdl\middleware\ble/cy_ble_event_handler.h **** #define CY_BLE_CALLBACK                   (0x01u)
 146:Generated_Source\PSoC6\pdl\middleware\ble/cy_ble_event_handler.h **** #define CY_BLE_AUTO_DISCOVERY             (0x02u)
 147:Generated_Source\PSoC6\pdl\middleware\ble/cy_ble_event_handler.h **** #define CY_BLE_START_FLAG                 (0x04u)
 148:Generated_Source\PSoC6\pdl\middleware\ble/cy_ble_event_handler.h **** #define CY_BLE_STOP_FLAG                  (0x08u)
 149:Generated_Source\PSoC6\pdl\middleware\ble/cy_ble_event_handler.h **** #define CY_BLE_ENABLE_ALL_EVENTS          (0x10u)
 150:Generated_Source\PSoC6\pdl\middleware\ble/cy_ble_event_handler.h **** #define CY_BLE_DISABLE_AUTOMATIC_AUTH     (0x20u)
 151:Generated_Source\PSoC6\pdl\middleware\ble/cy_ble_event_handler.h **** 
 152:Generated_Source\PSoC6\pdl\middleware\ble/cy_ble_event_handler.h **** #if (CY_BLE_GATT_ROLE_CLIENT)
 153:Generated_Source\PSoC6\pdl\middleware\ble/cy_ble_event_handler.h **** #define CY_BLE_DISC_SRVC_INFO_LEN         (4u + CY_BLE_GATT_16_BIT_UUID_SIZE)
 154:Generated_Source\PSoC6\pdl\middleware\ble/cy_ble_event_handler.h **** #define CY_BLE_DISC_SRVC_INFO_128_LEN     (4u + CY_BLE_GATT_128_BIT_UUID_SIZE)
 155:Generated_Source\PSoC6\pdl\middleware\ble/cy_ble_event_handler.h **** #define CY_BLE_DISC_INCL_INFO_LEN         (6u + CY_BLE_GATT_16_BIT_UUID_SIZE)
 156:Generated_Source\PSoC6\pdl\middleware\ble/cy_ble_event_handler.h **** #define CY_BLE_DISC_INCL_INFO_128_LEN     (6u)
 157:Generated_Source\PSoC6\pdl\middleware\ble/cy_ble_event_handler.h **** #define CY_BLE_DISC_CHAR_INFO_LEN         (5u + CY_BLE_GATT_16_BIT_UUID_SIZE)
 158:Generated_Source\PSoC6\pdl\middleware\ble/cy_ble_event_handler.h **** #define CY_BLE_DISC_CHAR_INFO_128_LEN     (5u + CY_BLE_GATT_128_BIT_UUID_SIZE)
 159:Generated_Source\PSoC6\pdl\middleware\ble/cy_ble_event_handler.h **** #define CY_BLE_DISC_DESCR_INFO_LEN        (2u + CY_BLE_GATT_16_BIT_UUID_SIZE)
 160:Generated_Source\PSoC6\pdl\middleware\ble/cy_ble_event_handler.h **** #define CY_BLE_DISC_DESCR_INFO_128_LEN    (2u + CY_BLE_GATT_128_BIT_UUID_SIZE)
 161:Generated_Source\PSoC6\pdl\middleware\ble/cy_ble_event_handler.h **** #endif /* CY_BLE_GATT_ROLE_CLIENT */
 162:Generated_Source\PSoC6\pdl\middleware\ble/cy_ble_event_handler.h **** 
 163:Generated_Source\PSoC6\pdl\middleware\ble/cy_ble_event_handler.h **** #define CY_BLE_LE_MASK_LENGTH             (0x8u)
 164:Generated_Source\PSoC6\pdl\middleware\ble/cy_ble_event_handler.h **** #define CY_BLE_LE_MASK_DEFAULT            (0x003Fu)
 165:Generated_Source\PSoC6\pdl\middleware\ble/cy_ble_event_handler.h **** #define CY_BLE_LE_MASK_DLE                ((CY_BLE_DLE_FEATURE_ENABLED) ?          (0x0040u) : (0u)
 166:Generated_Source\PSoC6\pdl\middleware\ble/cy_ble_event_handler.h **** #define CY_BLE_LE_MASK_SECURE_CONN        ((CY_BLE_SECURE_CONN_FEATURE_ENABLED) ?  (0x0180u) : (0u)
 167:Generated_Source\PSoC6\pdl\middleware\ble/cy_ble_event_handler.h **** #define CY_BLE_LE_MASK_LL_PRIVACY         ((CY_BLE_LL_PRIVACY_FEATURE_ENABLED) ?   (0x0600u) : (0u)
 168:Generated_Source\PSoC6\pdl\middleware\ble/cy_ble_event_handler.h **** #define CY_BLE_LE_MASK_PHY                ((CY_BLE_PHY_UPDATE_FEATURE_ENABLED) ?   (0x0800u) : (0u)
 169:Generated_Source\PSoC6\pdl\middleware\ble/cy_ble_event_handler.h **** #define CY_BLE_LE_MASK                    (CY_BLE_LE_MASK_DEFAULT | CY_BLE_LE_MASK_DLE | CY_BLE_LE_
 170:Generated_Source\PSoC6\pdl\middleware\ble/cy_ble_event_handler.h ****                                            | CY_BLE_LE_MASK_SECURE_CONN | CY_BLE_LE_MASK_PHY)
 171:Generated_Source\PSoC6\pdl\middleware\ble/cy_ble_event_handler.h **** /* Internal command run status defines */
 172:Generated_Source\PSoC6\pdl\middleware\ble/cy_ble_event_handler.h **** #define CY_BLE_STATUS_SET_TX_PWR_LVL      (uint32_t)(1ul << 0u)
 173:Generated_Source\PSoC6\pdl\middleware\ble/cy_ble_event_handler.h **** 
 174:Generated_Source\PSoC6\pdl\middleware\ble/cy_ble_event_handler.h **** /***************************************
 175:Generated_Source\PSoC6\pdl\middleware\ble/cy_ble_event_handler.h **** * Type Definitions
 176:Generated_Source\PSoC6\pdl\middleware\ble/cy_ble_event_handler.h **** ***************************************/
 177:Generated_Source\PSoC6\pdl\middleware\ble/cy_ble_event_handler.h **** 
 178:Generated_Source\PSoC6\pdl\middleware\ble/cy_ble_event_handler.h **** /**
ARM GAS  C:\Users\codyg\AppData\Local\Temp\ccQkQY0S.s 			page 29


 179:Generated_Source\PSoC6\pdl\middleware\ble/cy_ble_event_handler.h ****  * \addtogroup group_ble_service_api_events
 180:Generated_Source\PSoC6\pdl\middleware\ble/cy_ble_event_handler.h ****  * @{
 181:Generated_Source\PSoC6\pdl\middleware\ble/cy_ble_event_handler.h ****  */
 182:Generated_Source\PSoC6\pdl\middleware\ble/cy_ble_event_handler.h **** 
 183:Generated_Source\PSoC6\pdl\middleware\ble/cy_ble_event_handler.h **** 
 184:Generated_Source\PSoC6\pdl\middleware\ble/cy_ble_event_handler.h **** /** Service specific events  */
 185:Generated_Source\PSoC6\pdl\middleware\ble/cy_ble_event_handler.h **** typedef enum
 186:Generated_Source\PSoC6\pdl\middleware\ble/cy_ble_event_handler.h **** {
 187:Generated_Source\PSoC6\pdl\middleware\ble/cy_ble_event_handler.h ****     /****************************************
 188:Generated_Source\PSoC6\pdl\middleware\ble/cy_ble_event_handler.h ****      * Security Events
 189:Generated_Source\PSoC6\pdl\middleware\ble/cy_ble_event_handler.h ****      ***************************************/
 190:Generated_Source\PSoC6\pdl\middleware\ble/cy_ble_event_handler.h ****     /* \cond IGNORE */
 191:Generated_Source\PSoC6\pdl\middleware\ble/cy_ble_event_handler.h **** 
 192:Generated_Source\PSoC6\pdl\middleware\ble/cy_ble_event_handler.h ****     CY_BLE_AUTHENTICATION_REQUEST_REPLY = CY_BLE_EVT_MAX + 1, /* 0x10000 */
 193:Generated_Source\PSoC6\pdl\middleware\ble/cy_ble_event_handler.h ****     CY_BLE_PASSKEY_ENTRY_REQUEST_REPLY,
 194:Generated_Source\PSoC6\pdl\middleware\ble/cy_ble_event_handler.h ****     CY_BLE_LONG_TERM_KEY_REQUEST_REPLY,
 195:Generated_Source\PSoC6\pdl\middleware\ble/cy_ble_event_handler.h ****     CY_BLE_KEY_EXCHANGE_INFO_REQUEST_REPLY,
 196:Generated_Source\PSoC6\pdl\middleware\ble/cy_ble_event_handler.h ****     /* \endcond */
 197:Generated_Source\PSoC6\pdl\middleware\ble/cy_ble_event_handler.h **** 
 198:Generated_Source\PSoC6\pdl\middleware\ble/cy_ble_event_handler.h ****     /****************************************
 199:Generated_Source\PSoC6\pdl\middleware\ble/cy_ble_event_handler.h ****      * GATT Service Events
 200:Generated_Source\PSoC6\pdl\middleware\ble/cy_ble_event_handler.h ****      ***************************************/
 201:Generated_Source\PSoC6\pdl\middleware\ble/cy_ble_event_handler.h **** 
 202:Generated_Source\PSoC6\pdl\middleware\ble/cy_ble_event_handler.h ****     /** GATT Server - This event indicates that the CCCD data CRC is wrong.
 203:Generated_Source\PSoC6\pdl\middleware\ble/cy_ble_event_handler.h ****      *  If this event occurs, removing the bonding information of all devices
 204:Generated_Source\PSoC6\pdl\middleware\ble/cy_ble_event_handler.h ****      *  by using the Cy_BLE_GAP_RemoveBondedDevice() API is recommended.
 205:Generated_Source\PSoC6\pdl\middleware\ble/cy_ble_event_handler.h ****      *  The CCCD buffer in the RAM for the current connection is cleaned (set to zero) 
 206:Generated_Source\PSoC6\pdl\middleware\ble/cy_ble_event_handler.h ****      *  The event parameter is NULL.
 207:Generated_Source\PSoC6\pdl\middleware\ble/cy_ble_event_handler.h ****      */
 208:Generated_Source\PSoC6\pdl\middleware\ble/cy_ble_event_handler.h ****     CY_BLE_EVT_GATTS_EVT_CCCD_CORRUPT,
 209:Generated_Source\PSoC6\pdl\middleware\ble/cy_ble_event_handler.h **** 
 210:Generated_Source\PSoC6\pdl\middleware\ble/cy_ble_event_handler.h ****     /** GATT Server - Indication for GATT Service's "Service Changed"
 211:Generated_Source\PSoC6\pdl\middleware\ble/cy_ble_event_handler.h ****      *  Characteristic was enabled. The parameter of this event is a structure of
 212:Generated_Source\PSoC6\pdl\middleware\ble/cy_ble_event_handler.h ****      *  \ref cy_stc_ble_gatts_write_cmd_req_param_t type.
 213:Generated_Source\PSoC6\pdl\middleware\ble/cy_ble_event_handler.h ****      */
 214:Generated_Source\PSoC6\pdl\middleware\ble/cy_ble_event_handler.h ****     CY_BLE_EVT_GATTS_INDICATION_ENABLED,
 215:Generated_Source\PSoC6\pdl\middleware\ble/cy_ble_event_handler.h **** 
 216:Generated_Source\PSoC6\pdl\middleware\ble/cy_ble_event_handler.h ****     /** GATT Server - Indication for GATT Service's "Service Changed"
 217:Generated_Source\PSoC6\pdl\middleware\ble/cy_ble_event_handler.h ****      *  Characteristic was disabled. The parameter of this event is a structure of
 218:Generated_Source\PSoC6\pdl\middleware\ble/cy_ble_event_handler.h ****      *  \ref cy_stc_ble_gatts_write_cmd_req_param_t type.
 219:Generated_Source\PSoC6\pdl\middleware\ble/cy_ble_event_handler.h ****      */
 220:Generated_Source\PSoC6\pdl\middleware\ble/cy_ble_event_handler.h ****     CY_BLE_EVT_GATTS_INDICATION_DISABLED,
 221:Generated_Source\PSoC6\pdl\middleware\ble/cy_ble_event_handler.h **** 
 222:Generated_Source\PSoC6\pdl\middleware\ble/cy_ble_event_handler.h ****     /** GATT Client - GATT Service's "Service Changed" Characteristic Indication
 223:Generated_Source\PSoC6\pdl\middleware\ble/cy_ble_event_handler.h ****      *  was received. The parameter of this event is a structure
 224:Generated_Source\PSoC6\pdl\middleware\ble/cy_ble_event_handler.h ****      *  of the \ref cy_stc_ble_gattc_handle_value_ind_param_t type.
 225:Generated_Source\PSoC6\pdl\middleware\ble/cy_ble_event_handler.h ****      */
 226:Generated_Source\PSoC6\pdl\middleware\ble/cy_ble_event_handler.h ****     CY_BLE_EVT_GATTC_INDICATION,
 227:Generated_Source\PSoC6\pdl\middleware\ble/cy_ble_event_handler.h **** 
 228:Generated_Source\PSoC6\pdl\middleware\ble/cy_ble_event_handler.h **** 
 229:Generated_Source\PSoC6\pdl\middleware\ble/cy_ble_event_handler.h ****     /****************************************
 230:Generated_Source\PSoC6\pdl\middleware\ble/cy_ble_event_handler.h ****      * Service Discovery Events
 231:Generated_Source\PSoC6\pdl\middleware\ble/cy_ble_event_handler.h ****      ***************************************/
 232:Generated_Source\PSoC6\pdl\middleware\ble/cy_ble_event_handler.h **** 
 233:Generated_Source\PSoC6\pdl\middleware\ble/cy_ble_event_handler.h ****     /** GATT Client - The Service discovery procedure failed. This event may
 234:Generated_Source\PSoC6\pdl\middleware\ble/cy_ble_event_handler.h ****      *  be generated on calling Cy_BLE_GATTC_DiscoverPrimaryServices().
 235:Generated_Source\PSoC6\pdl\middleware\ble/cy_ble_event_handler.h ****      *  The parameter of this event is a structure of the cy_stc_ble_conn_handle_t type.
ARM GAS  C:\Users\codyg\AppData\Local\Temp\ccQkQY0S.s 			page 30


 236:Generated_Source\PSoC6\pdl\middleware\ble/cy_ble_event_handler.h ****      */
 237:Generated_Source\PSoC6\pdl\middleware\ble/cy_ble_event_handler.h ****     CY_BLE_EVT_GATTC_SRVC_DISCOVERY_FAILED,
 238:Generated_Source\PSoC6\pdl\middleware\ble/cy_ble_event_handler.h **** 
 239:Generated_Source\PSoC6\pdl\middleware\ble/cy_ble_event_handler.h ****     /** GATT Client - The discovery of included services failed. This event may
 240:Generated_Source\PSoC6\pdl\middleware\ble/cy_ble_event_handler.h ****      *  be generated on calling Cy_BLE_GATTC_FindIncludedServices().
 241:Generated_Source\PSoC6\pdl\middleware\ble/cy_ble_event_handler.h ****      *  The parameter of this event is a structure of the cy_stc_ble_conn_handle_t type.
 242:Generated_Source\PSoC6\pdl\middleware\ble/cy_ble_event_handler.h ****      */
 243:Generated_Source\PSoC6\pdl\middleware\ble/cy_ble_event_handler.h ****     CY_BLE_EVT_GATTC_INCL_DISCOVERY_FAILED,
 244:Generated_Source\PSoC6\pdl\middleware\ble/cy_ble_event_handler.h **** 
 245:Generated_Source\PSoC6\pdl\middleware\ble/cy_ble_event_handler.h ****     /** GATT Client - The discovery of the service's characteristics failed. This event may
 246:Generated_Source\PSoC6\pdl\middleware\ble/cy_ble_event_handler.h ****      *  be generated on calling Cy_BLE_GATTC_DiscoverCharacteristics() or
 247:Generated_Source\PSoC6\pdl\middleware\ble/cy_ble_event_handler.h ****      *  Cy_BLE_GATTC_ReadUsingCharacteristicUuid().
 248:Generated_Source\PSoC6\pdl\middleware\ble/cy_ble_event_handler.h ****      *  The parameter of this event is a structure of the cy_stc_ble_conn_handle_t type.
 249:Generated_Source\PSoC6\pdl\middleware\ble/cy_ble_event_handler.h ****      */
 250:Generated_Source\PSoC6\pdl\middleware\ble/cy_ble_event_handler.h ****     CY_BLE_EVT_GATTC_CHAR_DISCOVERY_FAILED,
 251:Generated_Source\PSoC6\pdl\middleware\ble/cy_ble_event_handler.h **** 
 252:Generated_Source\PSoC6\pdl\middleware\ble/cy_ble_event_handler.h ****     /** GATT Client - The discovery of the service's characteristics failed. This event may
 253:Generated_Source\PSoC6\pdl\middleware\ble/cy_ble_event_handler.h ****      *  be generated on calling Cy_BLE_GATTC_DiscoverCharacteristicDescriptors().
 254:Generated_Source\PSoC6\pdl\middleware\ble/cy_ble_event_handler.h ****      *  The parameter of this event is a structure of the cy_stc_ble_conn_handle_t type.
 255:Generated_Source\PSoC6\pdl\middleware\ble/cy_ble_event_handler.h ****      */
 256:Generated_Source\PSoC6\pdl\middleware\ble/cy_ble_event_handler.h ****     CY_BLE_EVT_GATTC_DESCR_DISCOVERY_FAILED,
 257:Generated_Source\PSoC6\pdl\middleware\ble/cy_ble_event_handler.h **** 
 258:Generated_Source\PSoC6\pdl\middleware\ble/cy_ble_event_handler.h ****     /** GATT Client - A duplicate service record was found during the server device
 259:Generated_Source\PSoC6\pdl\middleware\ble/cy_ble_event_handler.h ****      *  discovery. The parameter of this event is a structure of cy_stc_ble_disc_srv_info_t
 260:Generated_Source\PSoC6\pdl\middleware\ble/cy_ble_event_handler.h ****      *  type.
 261:Generated_Source\PSoC6\pdl\middleware\ble/cy_ble_event_handler.h ****      */
 262:Generated_Source\PSoC6\pdl\middleware\ble/cy_ble_event_handler.h ****     CY_BLE_EVT_GATTC_SRVC_DUPLICATION,
 263:Generated_Source\PSoC6\pdl\middleware\ble/cy_ble_event_handler.h **** 
 264:Generated_Source\PSoC6\pdl\middleware\ble/cy_ble_event_handler.h ****     /** GATT Client - Duplicate service's characteristic record was found during
 265:Generated_Source\PSoC6\pdl\middleware\ble/cy_ble_event_handler.h ****      *  server device discovery. The parameter of this event is a structure
 266:Generated_Source\PSoC6\pdl\middleware\ble/cy_ble_event_handler.h ****      *  of cy_stc_ble_disc_char_info_t type.
 267:Generated_Source\PSoC6\pdl\middleware\ble/cy_ble_event_handler.h ****      */
 268:Generated_Source\PSoC6\pdl\middleware\ble/cy_ble_event_handler.h ****     CY_BLE_EVT_GATTC_CHAR_DUPLICATION,
 269:Generated_Source\PSoC6\pdl\middleware\ble/cy_ble_event_handler.h **** 
 270:Generated_Source\PSoC6\pdl\middleware\ble/cy_ble_event_handler.h ****     /** GATT Client - A duplicate service's characteristic descriptor record was found
 271:Generated_Source\PSoC6\pdl\middleware\ble/cy_ble_event_handler.h ****      *  during server device discovery. The parameter of this event is a structure
 272:Generated_Source\PSoC6\pdl\middleware\ble/cy_ble_event_handler.h ****      *  of cy_stc_ble_disc_descr_info_t type.
 273:Generated_Source\PSoC6\pdl\middleware\ble/cy_ble_event_handler.h ****      */
 274:Generated_Source\PSoC6\pdl\middleware\ble/cy_ble_event_handler.h ****     CY_BLE_EVT_GATTC_DESCR_DUPLICATION,
 275:Generated_Source\PSoC6\pdl\middleware\ble/cy_ble_event_handler.h **** 
 276:Generated_Source\PSoC6\pdl\middleware\ble/cy_ble_event_handler.h ****     /** GATT Client - The Service discovery procedure completed successfully. This
 277:Generated_Source\PSoC6\pdl\middleware\ble/cy_ble_event_handler.h ****      *  event may be generated on calling Cy_BLE_GATTC_DiscoverPrimaryServices().
 278:Generated_Source\PSoC6\pdl\middleware\ble/cy_ble_event_handler.h ****      *  The parameter of this event is a structure of the cy_stc_ble_conn_handle_t type.
 279:Generated_Source\PSoC6\pdl\middleware\ble/cy_ble_event_handler.h ****      */
 280:Generated_Source\PSoC6\pdl\middleware\ble/cy_ble_event_handler.h ****     CY_BLE_EVT_GATTC_SRVC_DISCOVERY_COMPLETE,
 281:Generated_Source\PSoC6\pdl\middleware\ble/cy_ble_event_handler.h **** 
 282:Generated_Source\PSoC6\pdl\middleware\ble/cy_ble_event_handler.h ****     /** GATT Client - The included services discovery is completed
 283:Generated_Source\PSoC6\pdl\middleware\ble/cy_ble_event_handler.h ****      *  successfully. This event may be generated on calling
 284:Generated_Source\PSoC6\pdl\middleware\ble/cy_ble_event_handler.h ****      *  Cy_BLE_GATTC_FindIncludedServices().
 285:Generated_Source\PSoC6\pdl\middleware\ble/cy_ble_event_handler.h ****      *  The parameter of this event is a structure of the cy_stc_ble_conn_handle_t type.
 286:Generated_Source\PSoC6\pdl\middleware\ble/cy_ble_event_handler.h ****      */
 287:Generated_Source\PSoC6\pdl\middleware\ble/cy_ble_event_handler.h ****     CY_BLE_EVT_GATTC_INCL_DISCOVERY_COMPLETE,
 288:Generated_Source\PSoC6\pdl\middleware\ble/cy_ble_event_handler.h **** 
 289:Generated_Source\PSoC6\pdl\middleware\ble/cy_ble_event_handler.h ****     /** GATT Client - The discovery of service's characteristics discovery is completed
 290:Generated_Source\PSoC6\pdl\middleware\ble/cy_ble_event_handler.h ****      *  successfully. This event may be generated on calling
 291:Generated_Source\PSoC6\pdl\middleware\ble/cy_ble_event_handler.h ****      *  Cy_BLE_GATTC_DiscoverCharacteristics() or
 292:Generated_Source\PSoC6\pdl\middleware\ble/cy_ble_event_handler.h ****      *  Cy_BLE_GATTC_ReadUsingCharacteristicUuid().
ARM GAS  C:\Users\codyg\AppData\Local\Temp\ccQkQY0S.s 			page 31


 293:Generated_Source\PSoC6\pdl\middleware\ble/cy_ble_event_handler.h ****      *  The parameter of this event is a structure of the cy_stc_ble_conn_handle_t type.
 294:Generated_Source\PSoC6\pdl\middleware\ble/cy_ble_event_handler.h ****      */
 295:Generated_Source\PSoC6\pdl\middleware\ble/cy_ble_event_handler.h ****     CY_BLE_EVT_GATTC_CHAR_DISCOVERY_COMPLETE,
 296:Generated_Source\PSoC6\pdl\middleware\ble/cy_ble_event_handler.h ****     
 297:Generated_Source\PSoC6\pdl\middleware\ble/cy_ble_event_handler.h ****     /** GATT Client - The service (not defined in the GATT database) was found during
 298:Generated_Source\PSoC6\pdl\middleware\ble/cy_ble_event_handler.h ****     *  the server device discovery. The discovery procedure skips this service.
 299:Generated_Source\PSoC6\pdl\middleware\ble/cy_ble_event_handler.h ****     *  This event parameter is a structure of the cy_stc_ble_disc_srv_info_t type.
 300:Generated_Source\PSoC6\pdl\middleware\ble/cy_ble_event_handler.h ****     */
 301:Generated_Source\PSoC6\pdl\middleware\ble/cy_ble_event_handler.h ****     CY_BLE_EVT_GATTC_DISC_SKIPPED_SERVICE,
 302:Generated_Source\PSoC6\pdl\middleware\ble/cy_ble_event_handler.h ****                     
 303:Generated_Source\PSoC6\pdl\middleware\ble/cy_ble_event_handler.h ****     /** GATT Client - The discovery of a remote device completed successfully.
 304:Generated_Source\PSoC6\pdl\middleware\ble/cy_ble_event_handler.h ****      *  The parameter of this event is a structure of the cy_stc_ble_conn_handle_t type.
 305:Generated_Source\PSoC6\pdl\middleware\ble/cy_ble_event_handler.h ****      */
 306:Generated_Source\PSoC6\pdl\middleware\ble/cy_ble_event_handler.h ****     CY_BLE_EVT_GATTC_DISCOVERY_COMPLETE,
 307:Generated_Source\PSoC6\pdl\middleware\ble/cy_ble_event_handler.h **** 
 308:Generated_Source\PSoC6\pdl\middleware\ble/cy_ble_event_handler.h ****     /****************************************
 309:Generated_Source\PSoC6\pdl\middleware\ble/cy_ble_event_handler.h ****      * AIOS Service Events
 310:Generated_Source\PSoC6\pdl\middleware\ble/cy_ble_event_handler.h ****      ***************************************/
 311:Generated_Source\PSoC6\pdl\middleware\ble/cy_ble_event_handler.h **** 
 312:Generated_Source\PSoC6\pdl\middleware\ble/cy_ble_event_handler.h ****     /** AIOS Server - Notification for Automation Input Output Service Characteristic
 313:Generated_Source\PSoC6\pdl\middleware\ble/cy_ble_event_handler.h ****      *  was enabled. The parameter of this event is a structure of
 314:Generated_Source\PSoC6\pdl\middleware\ble/cy_ble_event_handler.h ****      *  cy_stc_ble_aios_char_value_t type.
 315:Generated_Source\PSoC6\pdl\middleware\ble/cy_ble_event_handler.h ****      */
 316:Generated_Source\PSoC6\pdl\middleware\ble/cy_ble_event_handler.h ****     CY_BLE_EVT_AIOSS_NOTIFICATION_ENABLED,
 317:Generated_Source\PSoC6\pdl\middleware\ble/cy_ble_event_handler.h **** 
 318:Generated_Source\PSoC6\pdl\middleware\ble/cy_ble_event_handler.h ****     /** AIOS Server - Notification for Automation Input Output Service Characteristic
 319:Generated_Source\PSoC6\pdl\middleware\ble/cy_ble_event_handler.h ****      *  was disabled. The parameter of this event is a structure of
 320:Generated_Source\PSoC6\pdl\middleware\ble/cy_ble_event_handler.h ****      *  cy_stc_ble_aios_char_value_t type.
 321:Generated_Source\PSoC6\pdl\middleware\ble/cy_ble_event_handler.h ****      */
 322:Generated_Source\PSoC6\pdl\middleware\ble/cy_ble_event_handler.h ****     CY_BLE_EVT_AIOSS_NOTIFICATION_DISABLED,
 323:Generated_Source\PSoC6\pdl\middleware\ble/cy_ble_event_handler.h **** 
 324:Generated_Source\PSoC6\pdl\middleware\ble/cy_ble_event_handler.h ****     /** AIOS Server - Indication for Automation Input Output Service Characteristic
 325:Generated_Source\PSoC6\pdl\middleware\ble/cy_ble_event_handler.h ****      *  was enabled. The parameter of this event is a structure
 326:Generated_Source\PSoC6\pdl\middleware\ble/cy_ble_event_handler.h ****      *  of cy_stc_ble_aios_char_value_t type.
 327:Generated_Source\PSoC6\pdl\middleware\ble/cy_ble_event_handler.h ****      */
 328:Generated_Source\PSoC6\pdl\middleware\ble/cy_ble_event_handler.h ****     CY_BLE_EVT_AIOSS_INDICATION_ENABLED,
 329:Generated_Source\PSoC6\pdl\middleware\ble/cy_ble_event_handler.h **** 
 330:Generated_Source\PSoC6\pdl\middleware\ble/cy_ble_event_handler.h ****     /** AIOSS Server - Indication for Automation Input Output Service Characteristic
 331:Generated_Source\PSoC6\pdl\middleware\ble/cy_ble_event_handler.h ****      *  was disabled. The parameter of this event is a structure
 332:Generated_Source\PSoC6\pdl\middleware\ble/cy_ble_event_handler.h ****      *  of cy_stc_ble_aios_char_value_t type.
 333:Generated_Source\PSoC6\pdl\middleware\ble/cy_ble_event_handler.h ****      */
 334:Generated_Source\PSoC6\pdl\middleware\ble/cy_ble_event_handler.h ****     CY_BLE_EVT_AIOSS_INDICATION_DISABLED,
 335:Generated_Source\PSoC6\pdl\middleware\ble/cy_ble_event_handler.h **** 
 336:Generated_Source\PSoC6\pdl\middleware\ble/cy_ble_event_handler.h ****     /** AIOS Server - Automation Input Output Service Characteristic
 337:Generated_Source\PSoC6\pdl\middleware\ble/cy_ble_event_handler.h ****      *  Indication was confirmed. The parameter of this event
 338:Generated_Source\PSoC6\pdl\middleware\ble/cy_ble_event_handler.h ****      *  is a structure of cy_stc_ble_aios_char_value_t type.
 339:Generated_Source\PSoC6\pdl\middleware\ble/cy_ble_event_handler.h ****      */
 340:Generated_Source\PSoC6\pdl\middleware\ble/cy_ble_event_handler.h ****     CY_BLE_EVT_AIOSS_INDICATION_CONFIRMED,
 341:Generated_Source\PSoC6\pdl\middleware\ble/cy_ble_event_handler.h **** 
 342:Generated_Source\PSoC6\pdl\middleware\ble/cy_ble_event_handler.h ****     /** AIOS Server - Write Request for Automation Input Output Service Characteristic
 343:Generated_Source\PSoC6\pdl\middleware\ble/cy_ble_event_handler.h ****      *  was received. The parameter of this event is a structure
 344:Generated_Source\PSoC6\pdl\middleware\ble/cy_ble_event_handler.h ****      *  of cy_stc_ble_aios_char_value_t type.
 345:Generated_Source\PSoC6\pdl\middleware\ble/cy_ble_event_handler.h ****      */
 346:Generated_Source\PSoC6\pdl\middleware\ble/cy_ble_event_handler.h ****     CY_BLE_EVT_AIOSS_WRITE_CHAR,
 347:Generated_Source\PSoC6\pdl\middleware\ble/cy_ble_event_handler.h **** 
 348:Generated_Source\PSoC6\pdl\middleware\ble/cy_ble_event_handler.h ****     /** AIOSS Server - Write Request for Automation Input Output Service
 349:Generated_Source\PSoC6\pdl\middleware\ble/cy_ble_event_handler.h ****      *  Characteristic Descriptor was received. The parameter of this event is a structure of
ARM GAS  C:\Users\codyg\AppData\Local\Temp\ccQkQY0S.s 			page 32


 350:Generated_Source\PSoC6\pdl\middleware\ble/cy_ble_event_handler.h ****      *  cy_stc_ble_aios_char_value_t type.
 351:Generated_Source\PSoC6\pdl\middleware\ble/cy_ble_event_handler.h ****      */
 352:Generated_Source\PSoC6\pdl\middleware\ble/cy_ble_event_handler.h ****     CY_BLE_EVT_AIOSS_DESCR_WRITE,
 353:Generated_Source\PSoC6\pdl\middleware\ble/cy_ble_event_handler.h **** 
 354:Generated_Source\PSoC6\pdl\middleware\ble/cy_ble_event_handler.h ****     /** AIOS Client - Automation Input Output Characteristic Service Notification
 355:Generated_Source\PSoC6\pdl\middleware\ble/cy_ble_event_handler.h ****      *  was received. The parameter of this event is a structure
 356:Generated_Source\PSoC6\pdl\middleware\ble/cy_ble_event_handler.h ****      *  of cy_stc_ble_aios_char_value_t type.
 357:Generated_Source\PSoC6\pdl\middleware\ble/cy_ble_event_handler.h ****      */
 358:Generated_Source\PSoC6\pdl\middleware\ble/cy_ble_event_handler.h ****     CY_BLE_EVT_AIOSC_NOTIFICATION,
 359:Generated_Source\PSoC6\pdl\middleware\ble/cy_ble_event_handler.h **** 
 360:Generated_Source\PSoC6\pdl\middleware\ble/cy_ble_event_handler.h ****     /** AIOS Client - Automation Input Output Service Characteristic
 361:Generated_Source\PSoC6\pdl\middleware\ble/cy_ble_event_handler.h ****      *  Indication was received. The parameter of this event
 362:Generated_Source\PSoC6\pdl\middleware\ble/cy_ble_event_handler.h ****      *  is a structure of cy_stc_ble_aios_char_value_t type.
 363:Generated_Source\PSoC6\pdl\middleware\ble/cy_ble_event_handler.h ****      */
 364:Generated_Source\PSoC6\pdl\middleware\ble/cy_ble_event_handler.h ****     CY_BLE_EVT_AIOSC_INDICATION,
 365:Generated_Source\PSoC6\pdl\middleware\ble/cy_ble_event_handler.h **** 
 366:Generated_Source\PSoC6\pdl\middleware\ble/cy_ble_event_handler.h ****     /** AIOS Client - Read Response for Read Request for Automation Input Output Service Characteri
 367:Generated_Source\PSoC6\pdl\middleware\ble/cy_ble_event_handler.h ****      *  Value. The parameter of this event is a structure of
 368:Generated_Source\PSoC6\pdl\middleware\ble/cy_ble_event_handler.h ****      *  cy_stc_ble_aios_char_value_t type.
 369:Generated_Source\PSoC6\pdl\middleware\ble/cy_ble_event_handler.h ****      */
 370:Generated_Source\PSoC6\pdl\middleware\ble/cy_ble_event_handler.h ****     CY_BLE_EVT_AIOSC_READ_CHAR_RESPONSE,
 371:Generated_Source\PSoC6\pdl\middleware\ble/cy_ble_event_handler.h **** 
 372:Generated_Source\PSoC6\pdl\middleware\ble/cy_ble_event_handler.h ****     /** AIOS Client - Write Response for Write Request for Automation Input Output Service
 373:Generated_Source\PSoC6\pdl\middleware\ble/cy_ble_event_handler.h ****      *  Characteristic Value. The parameter of this event is a structure of
 374:Generated_Source\PSoC6\pdl\middleware\ble/cy_ble_event_handler.h ****      *  cy_stc_ble_aios_char_value_t type.
 375:Generated_Source\PSoC6\pdl\middleware\ble/cy_ble_event_handler.h ****      */
 376:Generated_Source\PSoC6\pdl\middleware\ble/cy_ble_event_handler.h ****     CY_BLE_EVT_AIOSC_WRITE_CHAR_RESPONSE,
 377:Generated_Source\PSoC6\pdl\middleware\ble/cy_ble_event_handler.h **** 
 378:Generated_Source\PSoC6\pdl\middleware\ble/cy_ble_event_handler.h ****     /** AIOS Client - Read Response for Read Request for Automation Input Output Service
 379:Generated_Source\PSoC6\pdl\middleware\ble/cy_ble_event_handler.h ****      *  Characteristic Descriptor Read Request. The parameter of this event is a
 380:Generated_Source\PSoC6\pdl\middleware\ble/cy_ble_event_handler.h ****      *  structure of cy_stc_ble_aios_descr_value_t type.
 381:Generated_Source\PSoC6\pdl\middleware\ble/cy_ble_event_handler.h ****      */
 382:Generated_Source\PSoC6\pdl\middleware\ble/cy_ble_event_handler.h ****     CY_BLE_EVT_AIOSC_READ_DESCR_RESPONSE,
 383:Generated_Source\PSoC6\pdl\middleware\ble/cy_ble_event_handler.h **** 
 384:Generated_Source\PSoC6\pdl\middleware\ble/cy_ble_event_handler.h ****     /** AIOS Client - Write Response for Write Request for Automation Input Output Service
 385:Generated_Source\PSoC6\pdl\middleware\ble/cy_ble_event_handler.h ****      *  Client Characteristic Configuration Descriptor Value. The parameter of
 386:Generated_Source\PSoC6\pdl\middleware\ble/cy_ble_event_handler.h ****      *  this event is a structure of cy_stc_ble_aios_descr_value_t type.
 387:Generated_Source\PSoC6\pdl\middleware\ble/cy_ble_event_handler.h ****      */
 388:Generated_Source\PSoC6\pdl\middleware\ble/cy_ble_event_handler.h ****     CY_BLE_EVT_AIOSC_WRITE_DESCR_RESPONSE,
 389:Generated_Source\PSoC6\pdl\middleware\ble/cy_ble_event_handler.h **** 
 390:Generated_Source\PSoC6\pdl\middleware\ble/cy_ble_event_handler.h ****     /** AIOS Client - Error Response for Write Request for Automation Input Output Service
 391:Generated_Source\PSoC6\pdl\middleware\ble/cy_ble_event_handler.h ****      *  Characteristic Value. The parameter of this event is a structure of
 392:Generated_Source\PSoC6\pdl\middleware\ble/cy_ble_event_handler.h ****      *  cy_stc_ble_ancs_char_value_t type.
 393:Generated_Source\PSoC6\pdl\middleware\ble/cy_ble_event_handler.h ****      */
 394:Generated_Source\PSoC6\pdl\middleware\ble/cy_ble_event_handler.h ****     CY_BLE_EVT_AIOSC_ERROR_RESPONSE,
 395:Generated_Source\PSoC6\pdl\middleware\ble/cy_ble_event_handler.h **** 
 396:Generated_Source\PSoC6\pdl\middleware\ble/cy_ble_event_handler.h ****     /****************************************
 397:Generated_Source\PSoC6\pdl\middleware\ble/cy_ble_event_handler.h ****      * ANCS Service Events
 398:Generated_Source\PSoC6\pdl\middleware\ble/cy_ble_event_handler.h ****      ***************************************/
 399:Generated_Source\PSoC6\pdl\middleware\ble/cy_ble_event_handler.h **** 
 400:Generated_Source\PSoC6\pdl\middleware\ble/cy_ble_event_handler.h ****     /** ANCS Server - Notification for Apple Notification Center Service Characteristic
 401:Generated_Source\PSoC6\pdl\middleware\ble/cy_ble_event_handler.h ****      *  was enabled. The parameter of this event is a structure of
 402:Generated_Source\PSoC6\pdl\middleware\ble/cy_ble_event_handler.h ****      *  the cy_stc_ble_ancs_char_value_t type.
 403:Generated_Source\PSoC6\pdl\middleware\ble/cy_ble_event_handler.h ****      */
 404:Generated_Source\PSoC6\pdl\middleware\ble/cy_ble_event_handler.h ****     CY_BLE_EVT_ANCSS_NOTIFICATION_ENABLED,
 405:Generated_Source\PSoC6\pdl\middleware\ble/cy_ble_event_handler.h **** 
 406:Generated_Source\PSoC6\pdl\middleware\ble/cy_ble_event_handler.h ****     /** ANCS Server - Notification for Apple Notification Center Service Characteristic
ARM GAS  C:\Users\codyg\AppData\Local\Temp\ccQkQY0S.s 			page 33


 407:Generated_Source\PSoC6\pdl\middleware\ble/cy_ble_event_handler.h ****      *  was disabled. The parameter of this event is a structure of
 408:Generated_Source\PSoC6\pdl\middleware\ble/cy_ble_event_handler.h ****      *  the cy_stc_ble_ancs_char_value_t type.
 409:Generated_Source\PSoC6\pdl\middleware\ble/cy_ble_event_handler.h ****      */
 410:Generated_Source\PSoC6\pdl\middleware\ble/cy_ble_event_handler.h ****     CY_BLE_EVT_ANCSS_NOTIFICATION_DISABLED,
 411:Generated_Source\PSoC6\pdl\middleware\ble/cy_ble_event_handler.h **** 
 412:Generated_Source\PSoC6\pdl\middleware\ble/cy_ble_event_handler.h ****     /** ANCS Server - Write Request for Apple Notification Center Service Characteristic
 413:Generated_Source\PSoC6\pdl\middleware\ble/cy_ble_event_handler.h ****      *  was received. The parameter of this event is a structure
 414:Generated_Source\PSoC6\pdl\middleware\ble/cy_ble_event_handler.h ****      *  of the cy_stc_ble_ancs_char_value_t type.
 415:Generated_Source\PSoC6\pdl\middleware\ble/cy_ble_event_handler.h ****      */
 416:Generated_Source\PSoC6\pdl\middleware\ble/cy_ble_event_handler.h ****     CY_BLE_EVT_ANCSS_WRITE_CHAR,
 417:Generated_Source\PSoC6\pdl\middleware\ble/cy_ble_event_handler.h **** 
 418:Generated_Source\PSoC6\pdl\middleware\ble/cy_ble_event_handler.h ****     /** ANCS Client - Apple Notification Center Characteristic Service Notification
 419:Generated_Source\PSoC6\pdl\middleware\ble/cy_ble_event_handler.h ****      *  was received. The parameter of this event is a structure
 420:Generated_Source\PSoC6\pdl\middleware\ble/cy_ble_event_handler.h ****      *  of the cy_stc_ble_ancs_char_value_t type.
 421:Generated_Source\PSoC6\pdl\middleware\ble/cy_ble_event_handler.h ****      */
 422:Generated_Source\PSoC6\pdl\middleware\ble/cy_ble_event_handler.h ****     CY_BLE_EVT_ANCSC_NOTIFICATION,
 423:Generated_Source\PSoC6\pdl\middleware\ble/cy_ble_event_handler.h **** 
 424:Generated_Source\PSoC6\pdl\middleware\ble/cy_ble_event_handler.h ****     /** ANCS Client - Write Response for Write Request for Apple Notification Center Service
 425:Generated_Source\PSoC6\pdl\middleware\ble/cy_ble_event_handler.h ****      *  Characteristic Value. The parameter of this event is a structure of
 426:Generated_Source\PSoC6\pdl\middleware\ble/cy_ble_event_handler.h ****      *  cy_stc_ble_ancs_char_value_t type.
 427:Generated_Source\PSoC6\pdl\middleware\ble/cy_ble_event_handler.h ****      */
 428:Generated_Source\PSoC6\pdl\middleware\ble/cy_ble_event_handler.h ****     CY_BLE_EVT_ANCSC_WRITE_CHAR_RESPONSE,
 429:Generated_Source\PSoC6\pdl\middleware\ble/cy_ble_event_handler.h **** 
 430:Generated_Source\PSoC6\pdl\middleware\ble/cy_ble_event_handler.h ****     /** ANCS Client - Read Response for Read Request for Apple Notification Center Service
 431:Generated_Source\PSoC6\pdl\middleware\ble/cy_ble_event_handler.h ****      *  Characteristic Descriptor Read Request. The parameter of this event is a
 432:Generated_Source\PSoC6\pdl\middleware\ble/cy_ble_event_handler.h ****      *  structure of the cy_stc_ble_ancs_descr_value_t type.
 433:Generated_Source\PSoC6\pdl\middleware\ble/cy_ble_event_handler.h ****      */
 434:Generated_Source\PSoC6\pdl\middleware\ble/cy_ble_event_handler.h ****     CY_BLE_EVT_ANCSC_READ_DESCR_RESPONSE,
 435:Generated_Source\PSoC6\pdl\middleware\ble/cy_ble_event_handler.h **** 
 436:Generated_Source\PSoC6\pdl\middleware\ble/cy_ble_event_handler.h ****     /** ANCS Client - Write Response for Write Request for Apple Notification Center Service
 437:Generated_Source\PSoC6\pdl\middleware\ble/cy_ble_event_handler.h ****      *  Client Characteristic Configuration Descriptor Value. The parameter of
 438:Generated_Source\PSoC6\pdl\middleware\ble/cy_ble_event_handler.h ****      *  this event is a structure of the cy_stc_ble_ancs_descr_value_t type.
 439:Generated_Source\PSoC6\pdl\middleware\ble/cy_ble_event_handler.h ****      */
 440:Generated_Source\PSoC6\pdl\middleware\ble/cy_ble_event_handler.h ****     CY_BLE_EVT_ANCSC_WRITE_DESCR_RESPONSE,
 441:Generated_Source\PSoC6\pdl\middleware\ble/cy_ble_event_handler.h **** 
 442:Generated_Source\PSoC6\pdl\middleware\ble/cy_ble_event_handler.h ****     /** ANCS Client - Error Response for Write Request for Apple Notification Center Service
 443:Generated_Source\PSoC6\pdl\middleware\ble/cy_ble_event_handler.h ****      *  Characteristic Value. The parameter of this event is a structure of
 444:Generated_Source\PSoC6\pdl\middleware\ble/cy_ble_event_handler.h ****      *  the cy_stc_ble_ancs_char_value_t type.
 445:Generated_Source\PSoC6\pdl\middleware\ble/cy_ble_event_handler.h ****      */
 446:Generated_Source\PSoC6\pdl\middleware\ble/cy_ble_event_handler.h ****     CY_BLE_EVT_ANCSC_ERROR_RESPONSE,
 447:Generated_Source\PSoC6\pdl\middleware\ble/cy_ble_event_handler.h **** 
 448:Generated_Source\PSoC6\pdl\middleware\ble/cy_ble_event_handler.h **** 
 449:Generated_Source\PSoC6\pdl\middleware\ble/cy_ble_event_handler.h ****     /****************************************
 450:Generated_Source\PSoC6\pdl\middleware\ble/cy_ble_event_handler.h ****      * ANS Service Events
 451:Generated_Source\PSoC6\pdl\middleware\ble/cy_ble_event_handler.h ****      ***************************************/
 452:Generated_Source\PSoC6\pdl\middleware\ble/cy_ble_event_handler.h **** 
 453:Generated_Source\PSoC6\pdl\middleware\ble/cy_ble_event_handler.h ****     /** ANS Server - Notification for Alert Notification Service Characteristic
 454:Generated_Source\PSoC6\pdl\middleware\ble/cy_ble_event_handler.h ****      *  was enabled. The parameter of this event is a structure of
 455:Generated_Source\PSoC6\pdl\middleware\ble/cy_ble_event_handler.h ****      *  the cy_stc_ble_ans_char_value_t type.
 456:Generated_Source\PSoC6\pdl\middleware\ble/cy_ble_event_handler.h ****      */
 457:Generated_Source\PSoC6\pdl\middleware\ble/cy_ble_event_handler.h ****     CY_BLE_EVT_ANSS_NOTIFICATION_ENABLED,
 458:Generated_Source\PSoC6\pdl\middleware\ble/cy_ble_event_handler.h **** 
 459:Generated_Source\PSoC6\pdl\middleware\ble/cy_ble_event_handler.h ****     /** ANS Server - Notification for Alert Notification Service Characteristic
 460:Generated_Source\PSoC6\pdl\middleware\ble/cy_ble_event_handler.h ****      *  was disabled. The parameter of this event is a structure of
 461:Generated_Source\PSoC6\pdl\middleware\ble/cy_ble_event_handler.h ****      *  the cy_stc_ble_ans_char_value_t type.
 462:Generated_Source\PSoC6\pdl\middleware\ble/cy_ble_event_handler.h ****      */
 463:Generated_Source\PSoC6\pdl\middleware\ble/cy_ble_event_handler.h ****     CY_BLE_EVT_ANSS_NOTIFICATION_DISABLED,
ARM GAS  C:\Users\codyg\AppData\Local\Temp\ccQkQY0S.s 			page 34


 464:Generated_Source\PSoC6\pdl\middleware\ble/cy_ble_event_handler.h **** 
 465:Generated_Source\PSoC6\pdl\middleware\ble/cy_ble_event_handler.h ****     /** ANS Server - Write Request for Alert Notification Service Characteristic
 466:Generated_Source\PSoC6\pdl\middleware\ble/cy_ble_event_handler.h ****      *  was received. The parameter of this event is a structure
 467:Generated_Source\PSoC6\pdl\middleware\ble/cy_ble_event_handler.h ****      *  of the cy_stc_ble_ans_char_value_t type.
 468:Generated_Source\PSoC6\pdl\middleware\ble/cy_ble_event_handler.h ****      */
 469:Generated_Source\PSoC6\pdl\middleware\ble/cy_ble_event_handler.h ****     CY_BLE_EVT_ANSS_WRITE_CHAR,
 470:Generated_Source\PSoC6\pdl\middleware\ble/cy_ble_event_handler.h **** 
 471:Generated_Source\PSoC6\pdl\middleware\ble/cy_ble_event_handler.h ****     /** ANS Client - Alert Notification Characteristic Service Notification
 472:Generated_Source\PSoC6\pdl\middleware\ble/cy_ble_event_handler.h ****      *  was received. The parameter of this event is a structure
 473:Generated_Source\PSoC6\pdl\middleware\ble/cy_ble_event_handler.h ****      *  of the cy_stc_ble_ans_char_value_t type.
 474:Generated_Source\PSoC6\pdl\middleware\ble/cy_ble_event_handler.h ****      */
 475:Generated_Source\PSoC6\pdl\middleware\ble/cy_ble_event_handler.h ****     CY_BLE_EVT_ANSC_NOTIFICATION,
 476:Generated_Source\PSoC6\pdl\middleware\ble/cy_ble_event_handler.h **** 
 477:Generated_Source\PSoC6\pdl\middleware\ble/cy_ble_event_handler.h ****     /** ANS Client - Read Response for Alert Notification Service Characteristic
 478:Generated_Source\PSoC6\pdl\middleware\ble/cy_ble_event_handler.h ****      *  Value. The parameter of this event is a structure of
 479:Generated_Source\PSoC6\pdl\middleware\ble/cy_ble_event_handler.h ****      *  the cy_stc_ble_ans_char_value_t type.
 480:Generated_Source\PSoC6\pdl\middleware\ble/cy_ble_event_handler.h ****      */
 481:Generated_Source\PSoC6\pdl\middleware\ble/cy_ble_event_handler.h ****     CY_BLE_EVT_ANSC_READ_CHAR_RESPONSE,
 482:Generated_Source\PSoC6\pdl\middleware\ble/cy_ble_event_handler.h **** 
 483:Generated_Source\PSoC6\pdl\middleware\ble/cy_ble_event_handler.h ****     /** ANS Client - Write Response for Write Request for Alert Notification Service
 484:Generated_Source\PSoC6\pdl\middleware\ble/cy_ble_event_handler.h ****      *  Characteristic Value. The parameter of this event is a structure of
 485:Generated_Source\PSoC6\pdl\middleware\ble/cy_ble_event_handler.h ****      *  the cy_stc_ble_ans_char_value_t type.
 486:Generated_Source\PSoC6\pdl\middleware\ble/cy_ble_event_handler.h ****      */
 487:Generated_Source\PSoC6\pdl\middleware\ble/cy_ble_event_handler.h ****     CY_BLE_EVT_ANSC_WRITE_CHAR_RESPONSE,
 488:Generated_Source\PSoC6\pdl\middleware\ble/cy_ble_event_handler.h **** 
 489:Generated_Source\PSoC6\pdl\middleware\ble/cy_ble_event_handler.h ****     /** ANS Client - Read Response for Read Request for Alert Notification Service
 490:Generated_Source\PSoC6\pdl\middleware\ble/cy_ble_event_handler.h ****      *  Characteristic Descriptor Read Request. The parameter of this event is a
 491:Generated_Source\PSoC6\pdl\middleware\ble/cy_ble_event_handler.h ****      *  structure of the cy_stc_ble_ans_descr_value_t type.
 492:Generated_Source\PSoC6\pdl\middleware\ble/cy_ble_event_handler.h ****      */
 493:Generated_Source\PSoC6\pdl\middleware\ble/cy_ble_event_handler.h ****     CY_BLE_EVT_ANSC_READ_DESCR_RESPONSE,
 494:Generated_Source\PSoC6\pdl\middleware\ble/cy_ble_event_handler.h **** 
 495:Generated_Source\PSoC6\pdl\middleware\ble/cy_ble_event_handler.h ****     /** ANS Client - Write Response for Write Request for Alert Notification Service
 496:Generated_Source\PSoC6\pdl\middleware\ble/cy_ble_event_handler.h ****      *  Client Characteristic Configuration Descriptor Value. The parameter of
 497:Generated_Source\PSoC6\pdl\middleware\ble/cy_ble_event_handler.h ****      *  this event is a structure of the cy_stc_ble_ans_descr_value_t type.
 498:Generated_Source\PSoC6\pdl\middleware\ble/cy_ble_event_handler.h ****      */
 499:Generated_Source\PSoC6\pdl\middleware\ble/cy_ble_event_handler.h ****     CY_BLE_EVT_ANSC_WRITE_DESCR_RESPONSE,
 500:Generated_Source\PSoC6\pdl\middleware\ble/cy_ble_event_handler.h **** 
 501:Generated_Source\PSoC6\pdl\middleware\ble/cy_ble_event_handler.h **** 
 502:Generated_Source\PSoC6\pdl\middleware\ble/cy_ble_event_handler.h ****     /****************************************
 503:Generated_Source\PSoC6\pdl\middleware\ble/cy_ble_event_handler.h ****      * BAS Service Events
 504:Generated_Source\PSoC6\pdl\middleware\ble/cy_ble_event_handler.h ****      ***************************************/
 505:Generated_Source\PSoC6\pdl\middleware\ble/cy_ble_event_handler.h **** 
 506:Generated_Source\PSoC6\pdl\middleware\ble/cy_ble_event_handler.h ****     /** BAS Server - Notification for Battery Level Characteristic was enabled. The
 507:Generated_Source\PSoC6\pdl\middleware\ble/cy_ble_event_handler.h ****      *  parameter of this event is a structure of the cy_stc_ble_bas_char_value_t type.
 508:Generated_Source\PSoC6\pdl\middleware\ble/cy_ble_event_handler.h ****      */
 509:Generated_Source\PSoC6\pdl\middleware\ble/cy_ble_event_handler.h ****     CY_BLE_EVT_BASS_NOTIFICATION_ENABLED,
 510:Generated_Source\PSoC6\pdl\middleware\ble/cy_ble_event_handler.h **** 
 511:Generated_Source\PSoC6\pdl\middleware\ble/cy_ble_event_handler.h ****     /** BAS Server - Notification for Battery Level Characteristic was disabled. The
 512:Generated_Source\PSoC6\pdl\middleware\ble/cy_ble_event_handler.h ****      *  parameter of this event is a structure of the cy_stc_ble_bas_char_value_t type.
 513:Generated_Source\PSoC6\pdl\middleware\ble/cy_ble_event_handler.h ****      */
 514:Generated_Source\PSoC6\pdl\middleware\ble/cy_ble_event_handler.h ****     CY_BLE_EVT_BASS_NOTIFICATION_DISABLED,
 515:Generated_Source\PSoC6\pdl\middleware\ble/cy_ble_event_handler.h **** 
 516:Generated_Source\PSoC6\pdl\middleware\ble/cy_ble_event_handler.h ****     /** BAS Client - Battery Level Characteristic Notification was received. The
 517:Generated_Source\PSoC6\pdl\middleware\ble/cy_ble_event_handler.h ****      *  parameter of this event is a structure of the cy_stc_ble_bas_char_value_t type.
 518:Generated_Source\PSoC6\pdl\middleware\ble/cy_ble_event_handler.h ****      */
 519:Generated_Source\PSoC6\pdl\middleware\ble/cy_ble_event_handler.h ****     CY_BLE_EVT_BASC_NOTIFICATION,
 520:Generated_Source\PSoC6\pdl\middleware\ble/cy_ble_event_handler.h **** 
ARM GAS  C:\Users\codyg\AppData\Local\Temp\ccQkQY0S.s 			page 35


 521:Generated_Source\PSoC6\pdl\middleware\ble/cy_ble_event_handler.h ****     /** BAS Client - Read Response for Battery Level Characteristic Value. The
 522:Generated_Source\PSoC6\pdl\middleware\ble/cy_ble_event_handler.h ****      *  parameter of this event is a structure of the cy_stc_ble_bas_char_value_t type.
 523:Generated_Source\PSoC6\pdl\middleware\ble/cy_ble_event_handler.h ****      */
 524:Generated_Source\PSoC6\pdl\middleware\ble/cy_ble_event_handler.h ****     CY_BLE_EVT_BASC_READ_CHAR_RESPONSE,
 525:Generated_Source\PSoC6\pdl\middleware\ble/cy_ble_event_handler.h **** 
 526:Generated_Source\PSoC6\pdl\middleware\ble/cy_ble_event_handler.h ****     /** BAS Client - Read Response for Battery Level Characteristic Descriptor Read
 527:Generated_Source\PSoC6\pdl\middleware\ble/cy_ble_event_handler.h ****      *  Request. The parameter of this event is a structure of
 528:Generated_Source\PSoC6\pdl\middleware\ble/cy_ble_event_handler.h ****      *  the cy_stc_ble_bas_descr_value_t type.
 529:Generated_Source\PSoC6\pdl\middleware\ble/cy_ble_event_handler.h ****      */
 530:Generated_Source\PSoC6\pdl\middleware\ble/cy_ble_event_handler.h ****     CY_BLE_EVT_BASC_READ_DESCR_RESPONSE,
 531:Generated_Source\PSoC6\pdl\middleware\ble/cy_ble_event_handler.h **** 
 532:Generated_Source\PSoC6\pdl\middleware\ble/cy_ble_event_handler.h ****     /** BAS Client - Write Response for Battery Level Client Characteristic
 533:Generated_Source\PSoC6\pdl\middleware\ble/cy_ble_event_handler.h ****      *  Configuration Descriptor Value. The parameter of this event is a structure of
 534:Generated_Source\PSoC6\pdl\middleware\ble/cy_ble_event_handler.h ****      *  the cy_stc_ble_bas_descr_value_t type.
 535:Generated_Source\PSoC6\pdl\middleware\ble/cy_ble_event_handler.h ****      */
 536:Generated_Source\PSoC6\pdl\middleware\ble/cy_ble_event_handler.h ****     CY_BLE_EVT_BASC_WRITE_DESCR_RESPONSE,
 537:Generated_Source\PSoC6\pdl\middleware\ble/cy_ble_event_handler.h **** 
 538:Generated_Source\PSoC6\pdl\middleware\ble/cy_ble_event_handler.h **** 
 539:Generated_Source\PSoC6\pdl\middleware\ble/cy_ble_event_handler.h ****     /****************************************
 540:Generated_Source\PSoC6\pdl\middleware\ble/cy_ble_event_handler.h ****      * Body Composition Service Events
 541:Generated_Source\PSoC6\pdl\middleware\ble/cy_ble_event_handler.h ****      ***************************************/
 542:Generated_Source\PSoC6\pdl\middleware\ble/cy_ble_event_handler.h **** 
 543:Generated_Source\PSoC6\pdl\middleware\ble/cy_ble_event_handler.h ****     /** BCS Server - Indication for Body Composition Service Characteristic
 544:Generated_Source\PSoC6\pdl\middleware\ble/cy_ble_event_handler.h ****      *  was enabled. The parameter of this event is a structure
 545:Generated_Source\PSoC6\pdl\middleware\ble/cy_ble_event_handler.h ****      *  of the cy_stc_ble_bcs_char_value_t type.
 546:Generated_Source\PSoC6\pdl\middleware\ble/cy_ble_event_handler.h ****      */
 547:Generated_Source\PSoC6\pdl\middleware\ble/cy_ble_event_handler.h ****     CY_BLE_EVT_BCSS_INDICATION_ENABLED,
 548:Generated_Source\PSoC6\pdl\middleware\ble/cy_ble_event_handler.h **** 
 549:Generated_Source\PSoC6\pdl\middleware\ble/cy_ble_event_handler.h ****     /** BCS Server - Indication for Body Composition Service Characteristic
 550:Generated_Source\PSoC6\pdl\middleware\ble/cy_ble_event_handler.h ****      *  was disabled. The parameter of this event is a structure
 551:Generated_Source\PSoC6\pdl\middleware\ble/cy_ble_event_handler.h ****      *  of the cy_stc_ble_bcs_char_value_t type.
 552:Generated_Source\PSoC6\pdl\middleware\ble/cy_ble_event_handler.h ****      */
 553:Generated_Source\PSoC6\pdl\middleware\ble/cy_ble_event_handler.h ****     CY_BLE_EVT_BCSS_INDICATION_DISABLED,
 554:Generated_Source\PSoC6\pdl\middleware\ble/cy_ble_event_handler.h **** 
 555:Generated_Source\PSoC6\pdl\middleware\ble/cy_ble_event_handler.h ****     /** BCS Server - Body Composition Service Characteristic
 556:Generated_Source\PSoC6\pdl\middleware\ble/cy_ble_event_handler.h ****      *  Indication was confirmed. The parameter of this event
 557:Generated_Source\PSoC6\pdl\middleware\ble/cy_ble_event_handler.h ****      *  is a structure of the cy_stc_ble_bcs_char_value_t type.
 558:Generated_Source\PSoC6\pdl\middleware\ble/cy_ble_event_handler.h ****      */
 559:Generated_Source\PSoC6\pdl\middleware\ble/cy_ble_event_handler.h ****     CY_BLE_EVT_BCSS_INDICATION_CONFIRMED,
 560:Generated_Source\PSoC6\pdl\middleware\ble/cy_ble_event_handler.h **** 
 561:Generated_Source\PSoC6\pdl\middleware\ble/cy_ble_event_handler.h ****     /** BCS Client - Body Composition Service Characteristic
 562:Generated_Source\PSoC6\pdl\middleware\ble/cy_ble_event_handler.h ****      *  Indication was received. The parameter of this event
 563:Generated_Source\PSoC6\pdl\middleware\ble/cy_ble_event_handler.h ****      *  is a structure of the cy_stc_ble_bcs_char_value_t type.
 564:Generated_Source\PSoC6\pdl\middleware\ble/cy_ble_event_handler.h ****      */
 565:Generated_Source\PSoC6\pdl\middleware\ble/cy_ble_event_handler.h ****     CY_BLE_EVT_BCSC_INDICATION,
 566:Generated_Source\PSoC6\pdl\middleware\ble/cy_ble_event_handler.h **** 
 567:Generated_Source\PSoC6\pdl\middleware\ble/cy_ble_event_handler.h ****     /** BCS Client - Read Response for Read Request of Body Composition
 568:Generated_Source\PSoC6\pdl\middleware\ble/cy_ble_event_handler.h ****      *  Service Characteristic value. The parameter of this event
 569:Generated_Source\PSoC6\pdl\middleware\ble/cy_ble_event_handler.h ****      *  is a structure of the cy_stc_ble_bcs_char_value_t type.
 570:Generated_Source\PSoC6\pdl\middleware\ble/cy_ble_event_handler.h ****      */
 571:Generated_Source\PSoC6\pdl\middleware\ble/cy_ble_event_handler.h ****     CY_BLE_EVT_BCSC_READ_CHAR_RESPONSE,
 572:Generated_Source\PSoC6\pdl\middleware\ble/cy_ble_event_handler.h **** 
 573:Generated_Source\PSoC6\pdl\middleware\ble/cy_ble_event_handler.h ****     /** BCS Client - Read Response for Read Request of Body Composition
 574:Generated_Source\PSoC6\pdl\middleware\ble/cy_ble_event_handler.h ****      *  Service Characteristic Descriptor Read request. The
 575:Generated_Source\PSoC6\pdl\middleware\ble/cy_ble_event_handler.h ****      *  parameter of this event is a structure of
 576:Generated_Source\PSoC6\pdl\middleware\ble/cy_ble_event_handler.h ****      *  the cy_stc_ble_bcs_descr_value_t type.
 577:Generated_Source\PSoC6\pdl\middleware\ble/cy_ble_event_handler.h ****      */
ARM GAS  C:\Users\codyg\AppData\Local\Temp\ccQkQY0S.s 			page 36


 578:Generated_Source\PSoC6\pdl\middleware\ble/cy_ble_event_handler.h ****     CY_BLE_EVT_BCSC_READ_DESCR_RESPONSE,
 579:Generated_Source\PSoC6\pdl\middleware\ble/cy_ble_event_handler.h **** 
 580:Generated_Source\PSoC6\pdl\middleware\ble/cy_ble_event_handler.h ****     /** BCS Client - Write Response for Write Request of Body Composition
 581:Generated_Source\PSoC6\pdl\middleware\ble/cy_ble_event_handler.h ****      *  Service Characteristic Configuration Descriptor value.
 582:Generated_Source\PSoC6\pdl\middleware\ble/cy_ble_event_handler.h ****      *  The parameter of this event is a structure of
 583:Generated_Source\PSoC6\pdl\middleware\ble/cy_ble_event_handler.h ****      *  the cy_stc_ble_bcs_descr_value_t type.
 584:Generated_Source\PSoC6\pdl\middleware\ble/cy_ble_event_handler.h ****      */
 585:Generated_Source\PSoC6\pdl\middleware\ble/cy_ble_event_handler.h ****     CY_BLE_EVT_BCSC_WRITE_DESCR_RESPONSE,
 586:Generated_Source\PSoC6\pdl\middleware\ble/cy_ble_event_handler.h **** 
 587:Generated_Source\PSoC6\pdl\middleware\ble/cy_ble_event_handler.h ****     /****************************************
 588:Generated_Source\PSoC6\pdl\middleware\ble/cy_ble_event_handler.h ****      * Blood Pressure Service Events
 589:Generated_Source\PSoC6\pdl\middleware\ble/cy_ble_event_handler.h ****      ***************************************/
 590:Generated_Source\PSoC6\pdl\middleware\ble/cy_ble_event_handler.h **** 
 591:Generated_Source\PSoC6\pdl\middleware\ble/cy_ble_event_handler.h ****     /** BLS Server - Indication for Blood Pressure Service Characteristic was enabled.
 592:Generated_Source\PSoC6\pdl\middleware\ble/cy_ble_event_handler.h ****      *  The parameter of this event is a structure of the cy_stc_ble_bls_char_value_t type.
 593:Generated_Source\PSoC6\pdl\middleware\ble/cy_ble_event_handler.h ****      */
 594:Generated_Source\PSoC6\pdl\middleware\ble/cy_ble_event_handler.h ****     CY_BLE_EVT_BLSS_INDICATION_ENABLED,
 595:Generated_Source\PSoC6\pdl\middleware\ble/cy_ble_event_handler.h **** 
 596:Generated_Source\PSoC6\pdl\middleware\ble/cy_ble_event_handler.h ****     /** BLS Server - Indication for Blood Pressure Service Characteristic was
 597:Generated_Source\PSoC6\pdl\middleware\ble/cy_ble_event_handler.h ****      *  disabled. The parameter of this event is a structure of
 598:Generated_Source\PSoC6\pdl\middleware\ble/cy_ble_event_handler.h ****      *  the cy_stc_ble_bls_char_value_t type.
 599:Generated_Source\PSoC6\pdl\middleware\ble/cy_ble_event_handler.h ****      */
 600:Generated_Source\PSoC6\pdl\middleware\ble/cy_ble_event_handler.h ****     CY_BLE_EVT_BLSS_INDICATION_DISABLED,
 601:Generated_Source\PSoC6\pdl\middleware\ble/cy_ble_event_handler.h **** 
 602:Generated_Source\PSoC6\pdl\middleware\ble/cy_ble_event_handler.h ****     /** BLS Server - Blood Pressure Service Characteristic Indication was confirmed.
 603:Generated_Source\PSoC6\pdl\middleware\ble/cy_ble_event_handler.h ****      *  The parameter of this event is a structure of cy_stc_ble_bls_char_value_t type
 604:Generated_Source\PSoC6\pdl\middleware\ble/cy_ble_event_handler.h ****      */
 605:Generated_Source\PSoC6\pdl\middleware\ble/cy_ble_event_handler.h ****     CY_BLE_EVT_BLSS_INDICATION_CONFIRMED,
 606:Generated_Source\PSoC6\pdl\middleware\ble/cy_ble_event_handler.h **** 
 607:Generated_Source\PSoC6\pdl\middleware\ble/cy_ble_event_handler.h ****     /** BLS Server - Notification for Blood Pressure Service Characteristic
 608:Generated_Source\PSoC6\pdl\middleware\ble/cy_ble_event_handler.h ****      *  was enabled. The parameter of this event is a structure of
 609:Generated_Source\PSoC6\pdl\middleware\ble/cy_ble_event_handler.h ****      *  the cy_stc_ble_bls_char_value_t type.
 610:Generated_Source\PSoC6\pdl\middleware\ble/cy_ble_event_handler.h ****      */
 611:Generated_Source\PSoC6\pdl\middleware\ble/cy_ble_event_handler.h ****     CY_BLE_EVT_BLSS_NOTIFICATION_ENABLED,
 612:Generated_Source\PSoC6\pdl\middleware\ble/cy_ble_event_handler.h **** 
 613:Generated_Source\PSoC6\pdl\middleware\ble/cy_ble_event_handler.h ****     /** BLS Server - Notification for Blood Pressure Service Characteristic
 614:Generated_Source\PSoC6\pdl\middleware\ble/cy_ble_event_handler.h ****      *  was disabled. The parameter of this event is a structure of
 615:Generated_Source\PSoC6\pdl\middleware\ble/cy_ble_event_handler.h ****      *  the cy_stc_ble_bls_char_value_t type.
 616:Generated_Source\PSoC6\pdl\middleware\ble/cy_ble_event_handler.h ****      */
 617:Generated_Source\PSoC6\pdl\middleware\ble/cy_ble_event_handler.h ****     CY_BLE_EVT_BLSS_NOTIFICATION_DISABLED,
 618:Generated_Source\PSoC6\pdl\middleware\ble/cy_ble_event_handler.h **** 
 619:Generated_Source\PSoC6\pdl\middleware\ble/cy_ble_event_handler.h ****     /** BLS Client - Blood Pressure Service Characteristic Indication was received.
 620:Generated_Source\PSoC6\pdl\middleware\ble/cy_ble_event_handler.h ****      *  The parameter of this event is a structure of the cy_stc_ble_bls_char_value_t type.
 621:Generated_Source\PSoC6\pdl\middleware\ble/cy_ble_event_handler.h ****      */
 622:Generated_Source\PSoC6\pdl\middleware\ble/cy_ble_event_handler.h ****     CY_BLE_EVT_BLSC_INDICATION,
 623:Generated_Source\PSoC6\pdl\middleware\ble/cy_ble_event_handler.h **** 
 624:Generated_Source\PSoC6\pdl\middleware\ble/cy_ble_event_handler.h ****     /** BLS Client - Blood Pressure Service Characteristic Notification was received.
 625:Generated_Source\PSoC6\pdl\middleware\ble/cy_ble_event_handler.h ****      *  The parameter of this event is a structure of the cy_stc_ble_bls_char_value_t type.
 626:Generated_Source\PSoC6\pdl\middleware\ble/cy_ble_event_handler.h ****      */
 627:Generated_Source\PSoC6\pdl\middleware\ble/cy_ble_event_handler.h ****     CY_BLE_EVT_BLSC_NOTIFICATION,
 628:Generated_Source\PSoC6\pdl\middleware\ble/cy_ble_event_handler.h **** 
 629:Generated_Source\PSoC6\pdl\middleware\ble/cy_ble_event_handler.h ****     /** BLS Client - Read Response for Read Request of Blood Pressure Service
 630:Generated_Source\PSoC6\pdl\middleware\ble/cy_ble_event_handler.h ****      *  Characteristic value. The parameter of this event is a structure of
 631:Generated_Source\PSoC6\pdl\middleware\ble/cy_ble_event_handler.h ****      *  the cy_stc_ble_bls_char_value_t type.
 632:Generated_Source\PSoC6\pdl\middleware\ble/cy_ble_event_handler.h ****      */
 633:Generated_Source\PSoC6\pdl\middleware\ble/cy_ble_event_handler.h ****     CY_BLE_EVT_BLSC_READ_CHAR_RESPONSE,
 634:Generated_Source\PSoC6\pdl\middleware\ble/cy_ble_event_handler.h **** 
ARM GAS  C:\Users\codyg\AppData\Local\Temp\ccQkQY0S.s 			page 37


 635:Generated_Source\PSoC6\pdl\middleware\ble/cy_ble_event_handler.h ****     /** BLS Client - Read Response for Read Request of Blood Pressure Service
 636:Generated_Source\PSoC6\pdl\middleware\ble/cy_ble_event_handler.h ****      *  Characteristic Descriptor Read request. The parameter of this event is a
 637:Generated_Source\PSoC6\pdl\middleware\ble/cy_ble_event_handler.h ****      *  structure of the cy_stc_ble_bls_descr_value_t type.
 638:Generated_Source\PSoC6\pdl\middleware\ble/cy_ble_event_handler.h ****      */
 639:Generated_Source\PSoC6\pdl\middleware\ble/cy_ble_event_handler.h ****     CY_BLE_EVT_BLSC_READ_DESCR_RESPONSE,
 640:Generated_Source\PSoC6\pdl\middleware\ble/cy_ble_event_handler.h **** 
 641:Generated_Source\PSoC6\pdl\middleware\ble/cy_ble_event_handler.h ****     /** BLS Client - Write Response for Write Request of Blood Pressure Service
 642:Generated_Source\PSoC6\pdl\middleware\ble/cy_ble_event_handler.h ****      *  Characteristic Configuration Descriptor value. The parameter of this event
 643:Generated_Source\PSoC6\pdl\middleware\ble/cy_ble_event_handler.h ****      *  is a structure of the cy_stc_ble_bls_descr_value_t type.
 644:Generated_Source\PSoC6\pdl\middleware\ble/cy_ble_event_handler.h ****      */
 645:Generated_Source\PSoC6\pdl\middleware\ble/cy_ble_event_handler.h ****     CY_BLE_EVT_BLSC_WRITE_DESCR_RESPONSE,
 646:Generated_Source\PSoC6\pdl\middleware\ble/cy_ble_event_handler.h **** 
 647:Generated_Source\PSoC6\pdl\middleware\ble/cy_ble_event_handler.h **** 
 648:Generated_Source\PSoC6\pdl\middleware\ble/cy_ble_event_handler.h ****     /****************************************
 649:Generated_Source\PSoC6\pdl\middleware\ble/cy_ble_event_handler.h ****      * Bond Management Service Events
 650:Generated_Source\PSoC6\pdl\middleware\ble/cy_ble_event_handler.h ****      ***************************************/
 651:Generated_Source\PSoC6\pdl\middleware\ble/cy_ble_event_handler.h **** 
 652:Generated_Source\PSoC6\pdl\middleware\ble/cy_ble_event_handler.h ****     /** BMS Server - Write Request for Bond Management
 653:Generated_Source\PSoC6\pdl\middleware\ble/cy_ble_event_handler.h ****      *  was received. The parameter of this event is a structure
 654:Generated_Source\PSoC6\pdl\middleware\ble/cy_ble_event_handler.h ****      *  of the cy_stc_ble_bms_char_value_t type.
 655:Generated_Source\PSoC6\pdl\middleware\ble/cy_ble_event_handler.h ****      */
 656:Generated_Source\PSoC6\pdl\middleware\ble/cy_ble_event_handler.h ****     CY_BLE_EVT_BMSS_WRITE_CHAR,
 657:Generated_Source\PSoC6\pdl\middleware\ble/cy_ble_event_handler.h **** 
 658:Generated_Source\PSoC6\pdl\middleware\ble/cy_ble_event_handler.h ****     /** BMS Client - Read Response for Read Request of Bond Management Service
 659:Generated_Source\PSoC6\pdl\middleware\ble/cy_ble_event_handler.h ****      *  Characteristic value. The parameter of this event is a structure of
 660:Generated_Source\PSoC6\pdl\middleware\ble/cy_ble_event_handler.h ****      *  the cy_stc_ble_bms_char_value_t type.
 661:Generated_Source\PSoC6\pdl\middleware\ble/cy_ble_event_handler.h ****      */
 662:Generated_Source\PSoC6\pdl\middleware\ble/cy_ble_event_handler.h ****     CY_BLE_EVT_BMSC_READ_CHAR_RESPONSE,
 663:Generated_Source\PSoC6\pdl\middleware\ble/cy_ble_event_handler.h **** 
 664:Generated_Source\PSoC6\pdl\middleware\ble/cy_ble_event_handler.h ****     /** BMS Client - Write Response for Write Request of Bond Management
 665:Generated_Source\PSoC6\pdl\middleware\ble/cy_ble_event_handler.h ****      *  Service Characteristic value. The
 666:Generated_Source\PSoC6\pdl\middleware\ble/cy_ble_event_handler.h ****      *  parameter of this event is a structure of
 667:Generated_Source\PSoC6\pdl\middleware\ble/cy_ble_event_handler.h ****      *  the cy_stc_ble_bms_char_value_t type.
 668:Generated_Source\PSoC6\pdl\middleware\ble/cy_ble_event_handler.h ****      */
 669:Generated_Source\PSoC6\pdl\middleware\ble/cy_ble_event_handler.h ****     CY_BLE_EVT_BMSC_WRITE_CHAR_RESPONSE,
 670:Generated_Source\PSoC6\pdl\middleware\ble/cy_ble_event_handler.h **** 
 671:Generated_Source\PSoC6\pdl\middleware\ble/cy_ble_event_handler.h ****     /** BMS Client - Read Response for Read Request of Bond Management Service
 672:Generated_Source\PSoC6\pdl\middleware\ble/cy_ble_event_handler.h ****      *  Characteristic Descriptor Read request. The parameter of this event is a
 673:Generated_Source\PSoC6\pdl\middleware\ble/cy_ble_event_handler.h ****      *  structure of cy_stc_ble_bms_descr_value_t type.
 674:Generated_Source\PSoC6\pdl\middleware\ble/cy_ble_event_handler.h ****      */
 675:Generated_Source\PSoC6\pdl\middleware\ble/cy_ble_event_handler.h ****     CY_BLE_EVT_BMSC_READ_DESCR_RESPONSE,
 676:Generated_Source\PSoC6\pdl\middleware\ble/cy_ble_event_handler.h **** 
 677:Generated_Source\PSoC6\pdl\middleware\ble/cy_ble_event_handler.h **** 
 678:Generated_Source\PSoC6\pdl\middleware\ble/cy_ble_event_handler.h ****     /****************************************
 679:Generated_Source\PSoC6\pdl\middleware\ble/cy_ble_event_handler.h ****      * CGM Service Events
 680:Generated_Source\PSoC6\pdl\middleware\ble/cy_ble_event_handler.h ****      ***************************************/
 681:Generated_Source\PSoC6\pdl\middleware\ble/cy_ble_event_handler.h **** 
 682:Generated_Source\PSoC6\pdl\middleware\ble/cy_ble_event_handler.h ****     /** CGMS Server - Indication for Continuous Glucose Monitoring Service Characteristic
 683:Generated_Source\PSoC6\pdl\middleware\ble/cy_ble_event_handler.h ****      *  was enabled. The parameter of this event is a structure
 684:Generated_Source\PSoC6\pdl\middleware\ble/cy_ble_event_handler.h ****      *  of the cy_stc_ble_cgms_char_value_t type.
 685:Generated_Source\PSoC6\pdl\middleware\ble/cy_ble_event_handler.h ****      */
 686:Generated_Source\PSoC6\pdl\middleware\ble/cy_ble_event_handler.h ****     CY_BLE_EVT_CGMSS_INDICATION_ENABLED,
 687:Generated_Source\PSoC6\pdl\middleware\ble/cy_ble_event_handler.h **** 
 688:Generated_Source\PSoC6\pdl\middleware\ble/cy_ble_event_handler.h ****     /** CGMS Server - Indication for Continuous Glucose Monitoring Service Characteristic
 689:Generated_Source\PSoC6\pdl\middleware\ble/cy_ble_event_handler.h ****      *  was disabled. The parameter of this event is a structure
 690:Generated_Source\PSoC6\pdl\middleware\ble/cy_ble_event_handler.h ****      *  of the cy_stc_ble_cgms_char_value_t type.
 691:Generated_Source\PSoC6\pdl\middleware\ble/cy_ble_event_handler.h ****      */
ARM GAS  C:\Users\codyg\AppData\Local\Temp\ccQkQY0S.s 			page 38


 692:Generated_Source\PSoC6\pdl\middleware\ble/cy_ble_event_handler.h ****     CY_BLE_EVT_CGMSS_INDICATION_DISABLED,
 693:Generated_Source\PSoC6\pdl\middleware\ble/cy_ble_event_handler.h **** 
 694:Generated_Source\PSoC6\pdl\middleware\ble/cy_ble_event_handler.h ****     /** CGMS Server - Continuous Glucose Monitoring Service Characteristic
 695:Generated_Source\PSoC6\pdl\middleware\ble/cy_ble_event_handler.h ****      *  Indication was confirmed. The parameter of this event
 696:Generated_Source\PSoC6\pdl\middleware\ble/cy_ble_event_handler.h ****      *  is a structure of the cy_stc_ble_cgms_char_value_t type.
 697:Generated_Source\PSoC6\pdl\middleware\ble/cy_ble_event_handler.h ****      */
 698:Generated_Source\PSoC6\pdl\middleware\ble/cy_ble_event_handler.h ****     CY_BLE_EVT_CGMSS_INDICATION_CONFIRMED,
 699:Generated_Source\PSoC6\pdl\middleware\ble/cy_ble_event_handler.h **** 
 700:Generated_Source\PSoC6\pdl\middleware\ble/cy_ble_event_handler.h ****     /** CGMS Server - Notification for Continuous Glucose Monitoring Service Characteristic
 701:Generated_Source\PSoC6\pdl\middleware\ble/cy_ble_event_handler.h ****      *  was enabled. The parameter of this event is a structure of
 702:Generated_Source\PSoC6\pdl\middleware\ble/cy_ble_event_handler.h ****      *  the cy_stc_ble_cgms_char_value_t type.
 703:Generated_Source\PSoC6\pdl\middleware\ble/cy_ble_event_handler.h ****      */
 704:Generated_Source\PSoC6\pdl\middleware\ble/cy_ble_event_handler.h ****     CY_BLE_EVT_CGMSS_NOTIFICATION_ENABLED,
 705:Generated_Source\PSoC6\pdl\middleware\ble/cy_ble_event_handler.h **** 
 706:Generated_Source\PSoC6\pdl\middleware\ble/cy_ble_event_handler.h ****     /** CGMS Server - Notification for Continuous Glucose Monitoring Service Characteristic
 707:Generated_Source\PSoC6\pdl\middleware\ble/cy_ble_event_handler.h ****      *  was disabled. The parameter of this event is a structure
 708:Generated_Source\PSoC6\pdl\middleware\ble/cy_ble_event_handler.h ****      *  of the cy_stc_ble_cgms_char_value_t type.
 709:Generated_Source\PSoC6\pdl\middleware\ble/cy_ble_event_handler.h ****      */
 710:Generated_Source\PSoC6\pdl\middleware\ble/cy_ble_event_handler.h ****     CY_BLE_EVT_CGMSS_NOTIFICATION_DISABLED,
 711:Generated_Source\PSoC6\pdl\middleware\ble/cy_ble_event_handler.h **** 
 712:Generated_Source\PSoC6\pdl\middleware\ble/cy_ble_event_handler.h ****     /** CGMS Server - Write Request for Continuous Glucose Monitoring Service
 713:Generated_Source\PSoC6\pdl\middleware\ble/cy_ble_event_handler.h ****      *  was received. The parameter of this event is a structure
 714:Generated_Source\PSoC6\pdl\middleware\ble/cy_ble_event_handler.h ****      *  of the cy_stc_ble_cgms_char_value_t type.
 715:Generated_Source\PSoC6\pdl\middleware\ble/cy_ble_event_handler.h ****      */
 716:Generated_Source\PSoC6\pdl\middleware\ble/cy_ble_event_handler.h ****     CY_BLE_EVT_CGMSS_WRITE_CHAR,
 717:Generated_Source\PSoC6\pdl\middleware\ble/cy_ble_event_handler.h **** 
 718:Generated_Source\PSoC6\pdl\middleware\ble/cy_ble_event_handler.h ****     /** CGMS Client - Continuous Glucose Monitoring Service Characteristic
 719:Generated_Source\PSoC6\pdl\middleware\ble/cy_ble_event_handler.h ****      *  Indication was received. The parameter of this event
 720:Generated_Source\PSoC6\pdl\middleware\ble/cy_ble_event_handler.h ****      *  is a structure of the cy_stc_ble_cgms_char_value_t type.
 721:Generated_Source\PSoC6\pdl\middleware\ble/cy_ble_event_handler.h ****      */
 722:Generated_Source\PSoC6\pdl\middleware\ble/cy_ble_event_handler.h ****     CY_BLE_EVT_CGMSC_INDICATION,
 723:Generated_Source\PSoC6\pdl\middleware\ble/cy_ble_event_handler.h **** 
 724:Generated_Source\PSoC6\pdl\middleware\ble/cy_ble_event_handler.h ****     /** CGMS Client - Continuous Glucose Monitoring Service Characteristic
 725:Generated_Source\PSoC6\pdl\middleware\ble/cy_ble_event_handler.h ****      *  Notification was received. The parameter of this event
 726:Generated_Source\PSoC6\pdl\middleware\ble/cy_ble_event_handler.h ****      *  is a structure of the cy_stc_ble_cgms_char_value_t type.
 727:Generated_Source\PSoC6\pdl\middleware\ble/cy_ble_event_handler.h ****      */
 728:Generated_Source\PSoC6\pdl\middleware\ble/cy_ble_event_handler.h ****     CY_BLE_EVT_CGMSC_NOTIFICATION,
 729:Generated_Source\PSoC6\pdl\middleware\ble/cy_ble_event_handler.h **** 
 730:Generated_Source\PSoC6\pdl\middleware\ble/cy_ble_event_handler.h ****     /** CGMS Client - Read Response for Read Request of Continuous Glucose Monitoring
 731:Generated_Source\PSoC6\pdl\middleware\ble/cy_ble_event_handler.h ****      *  Service Characteristic value. The parameter of this event
 732:Generated_Source\PSoC6\pdl\middleware\ble/cy_ble_event_handler.h ****      *  is a structure of the cy_stc_ble_cgms_char_value_t type.
 733:Generated_Source\PSoC6\pdl\middleware\ble/cy_ble_event_handler.h ****      */
 734:Generated_Source\PSoC6\pdl\middleware\ble/cy_ble_event_handler.h ****     CY_BLE_EVT_CGMSC_READ_CHAR_RESPONSE,
 735:Generated_Source\PSoC6\pdl\middleware\ble/cy_ble_event_handler.h **** 
 736:Generated_Source\PSoC6\pdl\middleware\ble/cy_ble_event_handler.h ****     /** CGMS Client - Write Response for Write Request of Continuous Glucose Monitoring
 737:Generated_Source\PSoC6\pdl\middleware\ble/cy_ble_event_handler.h ****      *  Service Characteristic value. The
 738:Generated_Source\PSoC6\pdl\middleware\ble/cy_ble_event_handler.h ****      *  parameter of this event is a structure of
 739:Generated_Source\PSoC6\pdl\middleware\ble/cy_ble_event_handler.h ****      *  the cy_stc_ble_cgms_char_value_t type.
 740:Generated_Source\PSoC6\pdl\middleware\ble/cy_ble_event_handler.h ****      */
 741:Generated_Source\PSoC6\pdl\middleware\ble/cy_ble_event_handler.h ****     CY_BLE_EVT_CGMSC_WRITE_CHAR_RESPONSE,
 742:Generated_Source\PSoC6\pdl\middleware\ble/cy_ble_event_handler.h **** 
 743:Generated_Source\PSoC6\pdl\middleware\ble/cy_ble_event_handler.h ****     /** CGMS Client - Read Response for Read Request of Continuous Glucose Monitoring
 744:Generated_Source\PSoC6\pdl\middleware\ble/cy_ble_event_handler.h ****      *  Service Characteristic Descriptor Read request. The
 745:Generated_Source\PSoC6\pdl\middleware\ble/cy_ble_event_handler.h ****      *  parameter of this event is a structure of
 746:Generated_Source\PSoC6\pdl\middleware\ble/cy_ble_event_handler.h ****      *  the cy_stc_ble_cgms_descr_value_t type.
 747:Generated_Source\PSoC6\pdl\middleware\ble/cy_ble_event_handler.h ****      */
 748:Generated_Source\PSoC6\pdl\middleware\ble/cy_ble_event_handler.h ****     CY_BLE_EVT_CGMSC_READ_DESCR_RESPONSE,
ARM GAS  C:\Users\codyg\AppData\Local\Temp\ccQkQY0S.s 			page 39


 749:Generated_Source\PSoC6\pdl\middleware\ble/cy_ble_event_handler.h **** 
 750:Generated_Source\PSoC6\pdl\middleware\ble/cy_ble_event_handler.h ****     /** CGMS Client - Write Response for Write Request of Continuous Glucose Monitoring
 751:Generated_Source\PSoC6\pdl\middleware\ble/cy_ble_event_handler.h ****      *  Service Characteristic Configuration Descriptor value.
 752:Generated_Source\PSoC6\pdl\middleware\ble/cy_ble_event_handler.h ****      *  The parameter of this event is a structure of
 753:Generated_Source\PSoC6\pdl\middleware\ble/cy_ble_event_handler.h ****      *  the cy_stc_ble_cgms_descr_value_t type.
 754:Generated_Source\PSoC6\pdl\middleware\ble/cy_ble_event_handler.h ****      */
 755:Generated_Source\PSoC6\pdl\middleware\ble/cy_ble_event_handler.h ****     CY_BLE_EVT_CGMSC_WRITE_DESCR_RESPONSE,
 756:Generated_Source\PSoC6\pdl\middleware\ble/cy_ble_event_handler.h **** 
 757:Generated_Source\PSoC6\pdl\middleware\ble/cy_ble_event_handler.h **** 
 758:Generated_Source\PSoC6\pdl\middleware\ble/cy_ble_event_handler.h ****     /****************************************
 759:Generated_Source\PSoC6\pdl\middleware\ble/cy_ble_event_handler.h ****      * CPS Service Events
 760:Generated_Source\PSoC6\pdl\middleware\ble/cy_ble_event_handler.h ****      ***************************************/
 761:Generated_Source\PSoC6\pdl\middleware\ble/cy_ble_event_handler.h **** 
 762:Generated_Source\PSoC6\pdl\middleware\ble/cy_ble_event_handler.h ****     /** CPS Server - Notification for Cycling Power Service Characteristic
 763:Generated_Source\PSoC6\pdl\middleware\ble/cy_ble_event_handler.h ****      *  was enabled. The parameter of this event is a structure of
 764:Generated_Source\PSoC6\pdl\middleware\ble/cy_ble_event_handler.h ****      *  the cy_stc_ble_cps_char_value_t type.
 765:Generated_Source\PSoC6\pdl\middleware\ble/cy_ble_event_handler.h ****      */
 766:Generated_Source\PSoC6\pdl\middleware\ble/cy_ble_event_handler.h ****     CY_BLE_EVT_CPSS_NOTIFICATION_ENABLED,
 767:Generated_Source\PSoC6\pdl\middleware\ble/cy_ble_event_handler.h **** 
 768:Generated_Source\PSoC6\pdl\middleware\ble/cy_ble_event_handler.h ****     /** CPS Server - Notification for Cycling Power Service Characteristic
 769:Generated_Source\PSoC6\pdl\middleware\ble/cy_ble_event_handler.h ****      *  was disabled. The parameter of this event is a structure
 770:Generated_Source\PSoC6\pdl\middleware\ble/cy_ble_event_handler.h ****      *  of the cy_stc_ble_cps_char_value_t type.
 771:Generated_Source\PSoC6\pdl\middleware\ble/cy_ble_event_handler.h ****      */
 772:Generated_Source\PSoC6\pdl\middleware\ble/cy_ble_event_handler.h ****     CY_BLE_EVT_CPSS_NOTIFICATION_DISABLED,
 773:Generated_Source\PSoC6\pdl\middleware\ble/cy_ble_event_handler.h **** 
 774:Generated_Source\PSoC6\pdl\middleware\ble/cy_ble_event_handler.h ****     /** CPS Server - Indication for Cycling Power Service Characteristic
 775:Generated_Source\PSoC6\pdl\middleware\ble/cy_ble_event_handler.h ****      *  was enabled. The parameter of this event is a structure
 776:Generated_Source\PSoC6\pdl\middleware\ble/cy_ble_event_handler.h ****      *  of the cy_stc_ble_cps_char_value_t type.
 777:Generated_Source\PSoC6\pdl\middleware\ble/cy_ble_event_handler.h ****      */
 778:Generated_Source\PSoC6\pdl\middleware\ble/cy_ble_event_handler.h ****     CY_BLE_EVT_CPSS_INDICATION_ENABLED,
 779:Generated_Source\PSoC6\pdl\middleware\ble/cy_ble_event_handler.h **** 
 780:Generated_Source\PSoC6\pdl\middleware\ble/cy_ble_event_handler.h ****     /** CPS Server - Indication for Cycling Power Service Characteristic
 781:Generated_Source\PSoC6\pdl\middleware\ble/cy_ble_event_handler.h ****      *  was disabled. The parameter of this event is a structure
 782:Generated_Source\PSoC6\pdl\middleware\ble/cy_ble_event_handler.h ****      *  of the cy_stc_ble_cps_char_value_t type.
 783:Generated_Source\PSoC6\pdl\middleware\ble/cy_ble_event_handler.h ****      */
 784:Generated_Source\PSoC6\pdl\middleware\ble/cy_ble_event_handler.h ****     CY_BLE_EVT_CPSS_INDICATION_DISABLED,
 785:Generated_Source\PSoC6\pdl\middleware\ble/cy_ble_event_handler.h **** 
 786:Generated_Source\PSoC6\pdl\middleware\ble/cy_ble_event_handler.h ****     /** CPS Server - Cycling Power Service Characteristic
 787:Generated_Source\PSoC6\pdl\middleware\ble/cy_ble_event_handler.h ****      *  Indication was confirmed. The parameter of this event
 788:Generated_Source\PSoC6\pdl\middleware\ble/cy_ble_event_handler.h ****      *  is a structure of the cy_stc_ble_cps_char_value_t type.
 789:Generated_Source\PSoC6\pdl\middleware\ble/cy_ble_event_handler.h ****      */
 790:Generated_Source\PSoC6\pdl\middleware\ble/cy_ble_event_handler.h ****     CY_BLE_EVT_CPSS_INDICATION_CONFIRMED,
 791:Generated_Source\PSoC6\pdl\middleware\ble/cy_ble_event_handler.h **** 
 792:Generated_Source\PSoC6\pdl\middleware\ble/cy_ble_event_handler.h ****     /** CPS Server - Broadcast for Cycling Power Service Characteristic
 793:Generated_Source\PSoC6\pdl\middleware\ble/cy_ble_event_handler.h ****      *  was enabled. The parameter of this event
 794:Generated_Source\PSoC6\pdl\middleware\ble/cy_ble_event_handler.h ****      *  is a structure of the cy_stc_ble_cps_char_value_t type.
 795:Generated_Source\PSoC6\pdl\middleware\ble/cy_ble_event_handler.h ****      */
 796:Generated_Source\PSoC6\pdl\middleware\ble/cy_ble_event_handler.h ****     CY_BLE_EVT_CPSS_BROADCAST_ENABLED,
 797:Generated_Source\PSoC6\pdl\middleware\ble/cy_ble_event_handler.h **** 
 798:Generated_Source\PSoC6\pdl\middleware\ble/cy_ble_event_handler.h ****     /** CPS Server - Broadcast for Cycling Power Service Characteristic
 799:Generated_Source\PSoC6\pdl\middleware\ble/cy_ble_event_handler.h ****      *  was disabled. The parameter of this event
 800:Generated_Source\PSoC6\pdl\middleware\ble/cy_ble_event_handler.h ****      *  is a structure of the cy_stc_ble_cps_char_value_t type.
 801:Generated_Source\PSoC6\pdl\middleware\ble/cy_ble_event_handler.h ****      */
 802:Generated_Source\PSoC6\pdl\middleware\ble/cy_ble_event_handler.h ****     CY_BLE_EVT_CPSS_BROADCAST_DISABLED,
 803:Generated_Source\PSoC6\pdl\middleware\ble/cy_ble_event_handler.h **** 
 804:Generated_Source\PSoC6\pdl\middleware\ble/cy_ble_event_handler.h ****     /** CPS Server - Write Request for Cycling Power Service Characteristic
 805:Generated_Source\PSoC6\pdl\middleware\ble/cy_ble_event_handler.h ****      *  was received. The parameter of this event is a structure
ARM GAS  C:\Users\codyg\AppData\Local\Temp\ccQkQY0S.s 			page 40


 806:Generated_Source\PSoC6\pdl\middleware\ble/cy_ble_event_handler.h ****      *  of the cy_stc_ble_cps_char_value_t type.
 807:Generated_Source\PSoC6\pdl\middleware\ble/cy_ble_event_handler.h ****      */
 808:Generated_Source\PSoC6\pdl\middleware\ble/cy_ble_event_handler.h ****     CY_BLE_EVT_CPSS_WRITE_CHAR,
 809:Generated_Source\PSoC6\pdl\middleware\ble/cy_ble_event_handler.h **** 
 810:Generated_Source\PSoC6\pdl\middleware\ble/cy_ble_event_handler.h ****     /** CPS Client - Cycling Power Service Characteristic
 811:Generated_Source\PSoC6\pdl\middleware\ble/cy_ble_event_handler.h ****      *  Notification was received. The parameter of this event
 812:Generated_Source\PSoC6\pdl\middleware\ble/cy_ble_event_handler.h ****      *  is a structure of the cy_stc_ble_cps_char_value_t type.
 813:Generated_Source\PSoC6\pdl\middleware\ble/cy_ble_event_handler.h ****      */
 814:Generated_Source\PSoC6\pdl\middleware\ble/cy_ble_event_handler.h ****     CY_BLE_EVT_CPSC_NOTIFICATION,
 815:Generated_Source\PSoC6\pdl\middleware\ble/cy_ble_event_handler.h **** 
 816:Generated_Source\PSoC6\pdl\middleware\ble/cy_ble_event_handler.h ****     /** CPS Client - Cycling Power Service Characteristic
 817:Generated_Source\PSoC6\pdl\middleware\ble/cy_ble_event_handler.h ****      *  Indication was received. The parameter of this event
 818:Generated_Source\PSoC6\pdl\middleware\ble/cy_ble_event_handler.h ****      *  is a structure of the cy_stc_ble_cps_char_value_t type.
 819:Generated_Source\PSoC6\pdl\middleware\ble/cy_ble_event_handler.h ****      */
 820:Generated_Source\PSoC6\pdl\middleware\ble/cy_ble_event_handler.h ****     CY_BLE_EVT_CPSC_INDICATION,
 821:Generated_Source\PSoC6\pdl\middleware\ble/cy_ble_event_handler.h **** 
 822:Generated_Source\PSoC6\pdl\middleware\ble/cy_ble_event_handler.h ****     /** CPS Client - Read Response for Read Request of Cycling Power Service
 823:Generated_Source\PSoC6\pdl\middleware\ble/cy_ble_event_handler.h ****      *  Characteristic value. The parameter of this event
 824:Generated_Source\PSoC6\pdl\middleware\ble/cy_ble_event_handler.h ****      *  is a structure of the cy_stc_ble_cps_char_value_t type.
 825:Generated_Source\PSoC6\pdl\middleware\ble/cy_ble_event_handler.h ****      */
 826:Generated_Source\PSoC6\pdl\middleware\ble/cy_ble_event_handler.h ****     CY_BLE_EVT_CPSC_READ_CHAR_RESPONSE,
 827:Generated_Source\PSoC6\pdl\middleware\ble/cy_ble_event_handler.h **** 
 828:Generated_Source\PSoC6\pdl\middleware\ble/cy_ble_event_handler.h ****     /** CPS Client - Write Response for Write Request of Cycling Power Service
 829:Generated_Source\PSoC6\pdl\middleware\ble/cy_ble_event_handler.h ****      *  Characteristic value. The parameter of this event
 830:Generated_Source\PSoC6\pdl\middleware\ble/cy_ble_event_handler.h ****      *  is a structure of the cy_stc_ble_cps_char_value_t type.
 831:Generated_Source\PSoC6\pdl\middleware\ble/cy_ble_event_handler.h ****      */
 832:Generated_Source\PSoC6\pdl\middleware\ble/cy_ble_event_handler.h ****     CY_BLE_EVT_CPSC_WRITE_CHAR_RESPONSE,
 833:Generated_Source\PSoC6\pdl\middleware\ble/cy_ble_event_handler.h **** 
 834:Generated_Source\PSoC6\pdl\middleware\ble/cy_ble_event_handler.h ****     /** CPS Client - Read Response for Read Request of Cycling Power
 835:Generated_Source\PSoC6\pdl\middleware\ble/cy_ble_event_handler.h ****      *  Service Characteristic Descriptor Read request. The
 836:Generated_Source\PSoC6\pdl\middleware\ble/cy_ble_event_handler.h ****      *  parameter of this event is a structure of
 837:Generated_Source\PSoC6\pdl\middleware\ble/cy_ble_event_handler.h ****      *  the cy_stc_ble_cps_descr_value_t type.
 838:Generated_Source\PSoC6\pdl\middleware\ble/cy_ble_event_handler.h ****      */
 839:Generated_Source\PSoC6\pdl\middleware\ble/cy_ble_event_handler.h ****     CY_BLE_EVT_CPSC_READ_DESCR_RESPONSE,
 840:Generated_Source\PSoC6\pdl\middleware\ble/cy_ble_event_handler.h **** 
 841:Generated_Source\PSoC6\pdl\middleware\ble/cy_ble_event_handler.h ****     /** CPS Client - Write Response for Write Request of Cycling Power
 842:Generated_Source\PSoC6\pdl\middleware\ble/cy_ble_event_handler.h ****      *  Service Characteristic Configuration Descriptor value.
 843:Generated_Source\PSoC6\pdl\middleware\ble/cy_ble_event_handler.h ****      *  The parameter of this event is a structure of
 844:Generated_Source\PSoC6\pdl\middleware\ble/cy_ble_event_handler.h ****      *  the cy_stc_ble_cps_descr_value_t type.
 845:Generated_Source\PSoC6\pdl\middleware\ble/cy_ble_event_handler.h ****      */
 846:Generated_Source\PSoC6\pdl\middleware\ble/cy_ble_event_handler.h ****     CY_BLE_EVT_CPSC_WRITE_DESCR_RESPONSE,
 847:Generated_Source\PSoC6\pdl\middleware\ble/cy_ble_event_handler.h **** 
 848:Generated_Source\PSoC6\pdl\middleware\ble/cy_ble_event_handler.h ****     /** CPS Client - This event is triggered every time a device receive
 849:Generated_Source\PSoC6\pdl\middleware\ble/cy_ble_event_handler.h ****      *  non-connectable undirected advertising event.
 850:Generated_Source\PSoC6\pdl\middleware\ble/cy_ble_event_handler.h ****      *  The parameter of this event is a structure of
 851:Generated_Source\PSoC6\pdl\middleware\ble/cy_ble_event_handler.h ****      *  the cy_stc_ble_cps_char_value_t type.
 852:Generated_Source\PSoC6\pdl\middleware\ble/cy_ble_event_handler.h ****      */
 853:Generated_Source\PSoC6\pdl\middleware\ble/cy_ble_event_handler.h ****     CY_BLE_EVT_CPSC_SCAN_PROGRESS_RESULT,
 854:Generated_Source\PSoC6\pdl\middleware\ble/cy_ble_event_handler.h **** 
 855:Generated_Source\PSoC6\pdl\middleware\ble/cy_ble_event_handler.h ****     /** CPS Client - Cycling Power CP procedure timeout was received. The parameter
 856:Generated_Source\PSoC6\pdl\middleware\ble/cy_ble_event_handler.h ****      *  of this event is a structure of the cy_stc_ble_cps_char_value_t type.
 857:Generated_Source\PSoC6\pdl\middleware\ble/cy_ble_event_handler.h ****      */
 858:Generated_Source\PSoC6\pdl\middleware\ble/cy_ble_event_handler.h ****     CY_BLE_EVT_CPSC_TIMEOUT,
 859:Generated_Source\PSoC6\pdl\middleware\ble/cy_ble_event_handler.h **** 
 860:Generated_Source\PSoC6\pdl\middleware\ble/cy_ble_event_handler.h ****     /****************************************
 861:Generated_Source\PSoC6\pdl\middleware\ble/cy_ble_event_handler.h ****      * Cycling Speed and Cadence Service Events
 862:Generated_Source\PSoC6\pdl\middleware\ble/cy_ble_event_handler.h ****      ***************************************/
ARM GAS  C:\Users\codyg\AppData\Local\Temp\ccQkQY0S.s 			page 41


 863:Generated_Source\PSoC6\pdl\middleware\ble/cy_ble_event_handler.h **** 
 864:Generated_Source\PSoC6\pdl\middleware\ble/cy_ble_event_handler.h ****     /** CSCS Server - Notification for Cycling Speed and Cadence Service
 865:Generated_Source\PSoC6\pdl\middleware\ble/cy_ble_event_handler.h ****      *  Characteristic was enabled. The parameter of this event is a structure of
 866:Generated_Source\PSoC6\pdl\middleware\ble/cy_ble_event_handler.h ****      *  the cy_stc_ble_cscs_char_value_t type.
 867:Generated_Source\PSoC6\pdl\middleware\ble/cy_ble_event_handler.h ****      */
 868:Generated_Source\PSoC6\pdl\middleware\ble/cy_ble_event_handler.h ****     CY_BLE_EVT_CSCSS_NOTIFICATION_ENABLED,
 869:Generated_Source\PSoC6\pdl\middleware\ble/cy_ble_event_handler.h **** 
 870:Generated_Source\PSoC6\pdl\middleware\ble/cy_ble_event_handler.h ****     /** CSCS Server - Notification for Cycling Speed and Cadence Service
 871:Generated_Source\PSoC6\pdl\middleware\ble/cy_ble_event_handler.h ****      *  Characteristic was disabled. The parameter of this event is a structure of
 872:Generated_Source\PSoC6\pdl\middleware\ble/cy_ble_event_handler.h ****      *  the cy_stc_ble_cscs_char_value_t type.
 873:Generated_Source\PSoC6\pdl\middleware\ble/cy_ble_event_handler.h ****      */
 874:Generated_Source\PSoC6\pdl\middleware\ble/cy_ble_event_handler.h ****     CY_BLE_EVT_CSCSS_NOTIFICATION_DISABLED,
 875:Generated_Source\PSoC6\pdl\middleware\ble/cy_ble_event_handler.h **** 
 876:Generated_Source\PSoC6\pdl\middleware\ble/cy_ble_event_handler.h ****     /** CSCS Server - Indication for Cycling Speed and Cadence Service Characteristic
 877:Generated_Source\PSoC6\pdl\middleware\ble/cy_ble_event_handler.h ****      *  was enabled. The parameter of this event is a structure of
 878:Generated_Source\PSoC6\pdl\middleware\ble/cy_ble_event_handler.h ****      *  the cy_stc_ble_cscs_char_value_t type.
 879:Generated_Source\PSoC6\pdl\middleware\ble/cy_ble_event_handler.h ****      */
 880:Generated_Source\PSoC6\pdl\middleware\ble/cy_ble_event_handler.h ****     CY_BLE_EVT_CSCSS_INDICATION_ENABLED,
 881:Generated_Source\PSoC6\pdl\middleware\ble/cy_ble_event_handler.h **** 
 882:Generated_Source\PSoC6\pdl\middleware\ble/cy_ble_event_handler.h ****     /** CSCS Server - Indication for Cycling Speed and Cadence Service Characteristic
 883:Generated_Source\PSoC6\pdl\middleware\ble/cy_ble_event_handler.h ****      *  was disabled. The parameter of this event is a structure of
 884:Generated_Source\PSoC6\pdl\middleware\ble/cy_ble_event_handler.h ****      *  the cy_stc_ble_cscs_char_value_t type.
 885:Generated_Source\PSoC6\pdl\middleware\ble/cy_ble_event_handler.h ****      */
 886:Generated_Source\PSoC6\pdl\middleware\ble/cy_ble_event_handler.h ****     CY_BLE_EVT_CSCSS_INDICATION_DISABLED,
 887:Generated_Source\PSoC6\pdl\middleware\ble/cy_ble_event_handler.h **** 
 888:Generated_Source\PSoC6\pdl\middleware\ble/cy_ble_event_handler.h ****     /** CSCS Server - Cycling Speed and Cadence Service Characteristic
 889:Generated_Source\PSoC6\pdl\middleware\ble/cy_ble_event_handler.h ****      *  Indication was confirmed. The parameter of this event is a structure of
 890:Generated_Source\PSoC6\pdl\middleware\ble/cy_ble_event_handler.h ****      *  the cy_stc_ble_cscs_char_value_t type.
 891:Generated_Source\PSoC6\pdl\middleware\ble/cy_ble_event_handler.h ****      */
 892:Generated_Source\PSoC6\pdl\middleware\ble/cy_ble_event_handler.h ****     CY_BLE_EVT_CSCSS_INDICATION_CONFIRMATION,
 893:Generated_Source\PSoC6\pdl\middleware\ble/cy_ble_event_handler.h **** 
 894:Generated_Source\PSoC6\pdl\middleware\ble/cy_ble_event_handler.h ****     /** CSCS Server - Write Request for Cycling Speed and Cadence Service
 895:Generated_Source\PSoC6\pdl\middleware\ble/cy_ble_event_handler.h ****      *  Characteristic was received. The parameter of this event is a structure of
 896:Generated_Source\PSoC6\pdl\middleware\ble/cy_ble_event_handler.h ****      *  the cy_stc_ble_cscs_char_value_t type.
 897:Generated_Source\PSoC6\pdl\middleware\ble/cy_ble_event_handler.h ****      */
 898:Generated_Source\PSoC6\pdl\middleware\ble/cy_ble_event_handler.h ****     CY_BLE_EVT_CSCSS_WRITE_CHAR,
 899:Generated_Source\PSoC6\pdl\middleware\ble/cy_ble_event_handler.h **** 
 900:Generated_Source\PSoC6\pdl\middleware\ble/cy_ble_event_handler.h ****     /** CSCS Client - Cycling Speed and Cadence Service Characteristic
 901:Generated_Source\PSoC6\pdl\middleware\ble/cy_ble_event_handler.h ****      *  Notification was received. The parameter of this event is a structure of
 902:Generated_Source\PSoC6\pdl\middleware\ble/cy_ble_event_handler.h ****      *  the cy_stc_ble_cscs_char_value_t type.
 903:Generated_Source\PSoC6\pdl\middleware\ble/cy_ble_event_handler.h ****      */
 904:Generated_Source\PSoC6\pdl\middleware\ble/cy_ble_event_handler.h ****     CY_BLE_EVT_CSCSC_NOTIFICATION,
 905:Generated_Source\PSoC6\pdl\middleware\ble/cy_ble_event_handler.h **** 
 906:Generated_Source\PSoC6\pdl\middleware\ble/cy_ble_event_handler.h ****     /** CSCS Client - Cycling Speed and Cadence Service Characteristic
 907:Generated_Source\PSoC6\pdl\middleware\ble/cy_ble_event_handler.h ****      *  Indication was received. The parameter of this event is a structure of
 908:Generated_Source\PSoC6\pdl\middleware\ble/cy_ble_event_handler.h ****      *  the cy_stc_ble_cscs_char_value_t type.
 909:Generated_Source\PSoC6\pdl\middleware\ble/cy_ble_event_handler.h ****      */
 910:Generated_Source\PSoC6\pdl\middleware\ble/cy_ble_event_handler.h ****     CY_BLE_EVT_CSCSC_INDICATION,
 911:Generated_Source\PSoC6\pdl\middleware\ble/cy_ble_event_handler.h **** 
 912:Generated_Source\PSoC6\pdl\middleware\ble/cy_ble_event_handler.h ****     /** CSCS Client - Read Response for Read Request of Cycling Speed and Cadence
 913:Generated_Source\PSoC6\pdl\middleware\ble/cy_ble_event_handler.h ****      *  Service Characteristic value. The parameter of this event is a structure of
 914:Generated_Source\PSoC6\pdl\middleware\ble/cy_ble_event_handler.h ****      *  the cy_stc_ble_cscs_char_value_t type.
 915:Generated_Source\PSoC6\pdl\middleware\ble/cy_ble_event_handler.h ****      */
 916:Generated_Source\PSoC6\pdl\middleware\ble/cy_ble_event_handler.h ****     CY_BLE_EVT_CSCSC_READ_CHAR_RESPONSE,
 917:Generated_Source\PSoC6\pdl\middleware\ble/cy_ble_event_handler.h **** 
 918:Generated_Source\PSoC6\pdl\middleware\ble/cy_ble_event_handler.h ****     /** CSCS Client - Write Response for Write Request of Cycling Speed and Cadence
 919:Generated_Source\PSoC6\pdl\middleware\ble/cy_ble_event_handler.h ****      *  Service Characteristic value. The parameter of this event is a structure of
ARM GAS  C:\Users\codyg\AppData\Local\Temp\ccQkQY0S.s 			page 42


 920:Generated_Source\PSoC6\pdl\middleware\ble/cy_ble_event_handler.h ****      *  the cy_stc_ble_cscs_char_value_t type.
 921:Generated_Source\PSoC6\pdl\middleware\ble/cy_ble_event_handler.h ****      */
 922:Generated_Source\PSoC6\pdl\middleware\ble/cy_ble_event_handler.h ****     CY_BLE_EVT_CSCSC_WRITE_CHAR_RESPONSE,
 923:Generated_Source\PSoC6\pdl\middleware\ble/cy_ble_event_handler.h **** 
 924:Generated_Source\PSoC6\pdl\middleware\ble/cy_ble_event_handler.h ****     /** CSCS Client - Read Response for Read Request of Cycling Speed and Cadence
 925:Generated_Source\PSoC6\pdl\middleware\ble/cy_ble_event_handler.h ****      *  Service Characteristic Descriptor Read request. The parameter of this event
 926:Generated_Source\PSoC6\pdl\middleware\ble/cy_ble_event_handler.h ****      *  is a structure of the cy_stc_ble_cscs_descr_value_t type.
 927:Generated_Source\PSoC6\pdl\middleware\ble/cy_ble_event_handler.h ****      */
 928:Generated_Source\PSoC6\pdl\middleware\ble/cy_ble_event_handler.h ****     CY_BLE_EVT_CSCSC_READ_DESCR_RESPONSE,
 929:Generated_Source\PSoC6\pdl\middleware\ble/cy_ble_event_handler.h **** 
 930:Generated_Source\PSoC6\pdl\middleware\ble/cy_ble_event_handler.h ****     /** CSCS Client - Write Response for Write Request of Cycling Speed and Cadence
 931:Generated_Source\PSoC6\pdl\middleware\ble/cy_ble_event_handler.h ****      *  Service Characteristic Configuration Descriptor value. The parameter of
 932:Generated_Source\PSoC6\pdl\middleware\ble/cy_ble_event_handler.h ****      *  this event is a structure of  the cy_stc_ble_cscs_descr_value_t type.
 933:Generated_Source\PSoC6\pdl\middleware\ble/cy_ble_event_handler.h ****      */
 934:Generated_Source\PSoC6\pdl\middleware\ble/cy_ble_event_handler.h ****     CY_BLE_EVT_CSCSC_WRITE_DESCR_RESPONSE,
 935:Generated_Source\PSoC6\pdl\middleware\ble/cy_ble_event_handler.h **** 
 936:Generated_Source\PSoC6\pdl\middleware\ble/cy_ble_event_handler.h **** 
 937:Generated_Source\PSoC6\pdl\middleware\ble/cy_ble_event_handler.h ****     /****************************************
 938:Generated_Source\PSoC6\pdl\middleware\ble/cy_ble_event_handler.h ****      * Current Time Service Events
 939:Generated_Source\PSoC6\pdl\middleware\ble/cy_ble_event_handler.h ****      ***************************************/
 940:Generated_Source\PSoC6\pdl\middleware\ble/cy_ble_event_handler.h **** 
 941:Generated_Source\PSoC6\pdl\middleware\ble/cy_ble_event_handler.h ****     /** CTS Server - Notification for Current Time Characteristic was enabled. The
 942:Generated_Source\PSoC6\pdl\middleware\ble/cy_ble_event_handler.h ****      *  parameter of this event is a structure of the cy_stc_ble_cts_char_value_t type.
 943:Generated_Source\PSoC6\pdl\middleware\ble/cy_ble_event_handler.h ****      */
 944:Generated_Source\PSoC6\pdl\middleware\ble/cy_ble_event_handler.h ****     CY_BLE_EVT_CTSS_NOTIFICATION_ENABLED,
 945:Generated_Source\PSoC6\pdl\middleware\ble/cy_ble_event_handler.h **** 
 946:Generated_Source\PSoC6\pdl\middleware\ble/cy_ble_event_handler.h ****     /** CTS Server - Notification for Current Time Characteristic was disabled. The
 947:Generated_Source\PSoC6\pdl\middleware\ble/cy_ble_event_handler.h ****      *  parameter of this event is a structure of the cy_stc_ble_cts_char_value_t type.
 948:Generated_Source\PSoC6\pdl\middleware\ble/cy_ble_event_handler.h ****      */
 949:Generated_Source\PSoC6\pdl\middleware\ble/cy_ble_event_handler.h ****     CY_BLE_EVT_CTSS_NOTIFICATION_DISABLED,
 950:Generated_Source\PSoC6\pdl\middleware\ble/cy_ble_event_handler.h **** 
 951:Generated_Source\PSoC6\pdl\middleware\ble/cy_ble_event_handler.h ****     /** CTS Server - Write Request for Current Time Service
 952:Generated_Source\PSoC6\pdl\middleware\ble/cy_ble_event_handler.h ****      *  Characteristic was received. The parameter of this event is a structure of
 953:Generated_Source\PSoC6\pdl\middleware\ble/cy_ble_event_handler.h ****      *  the cy_stc_ble_cts_char_value_t type. When this event is received, the user is
 954:Generated_Source\PSoC6\pdl\middleware\ble/cy_ble_event_handler.h ****      *  responsible for performing any kind of data verification and writing the
 955:Generated_Source\PSoC6\pdl\middleware\ble/cy_ble_event_handler.h ****      *  data to the GATT database in case of successful verification or setting
 956:Generated_Source\PSoC6\pdl\middleware\ble/cy_ble_event_handler.h ****      *  the error if data verification fails.
 957:Generated_Source\PSoC6\pdl\middleware\ble/cy_ble_event_handler.h ****      */
 958:Generated_Source\PSoC6\pdl\middleware\ble/cy_ble_event_handler.h ****     CY_BLE_EVT_CTSS_WRITE_CHAR,
 959:Generated_Source\PSoC6\pdl\middleware\ble/cy_ble_event_handler.h **** 
 960:Generated_Source\PSoC6\pdl\middleware\ble/cy_ble_event_handler.h ****     /** CTS Client - Current Time Characteristic Notification was received. The
 961:Generated_Source\PSoC6\pdl\middleware\ble/cy_ble_event_handler.h ****      *  parameter of this event is a structure of the cy_stc_ble_cts_char_value_t type.
 962:Generated_Source\PSoC6\pdl\middleware\ble/cy_ble_event_handler.h ****      */
 963:Generated_Source\PSoC6\pdl\middleware\ble/cy_ble_event_handler.h ****     CY_BLE_EVT_CTSC_NOTIFICATION,
 964:Generated_Source\PSoC6\pdl\middleware\ble/cy_ble_event_handler.h **** 
 965:Generated_Source\PSoC6\pdl\middleware\ble/cy_ble_event_handler.h ****     /** CTS Client - Read Response for Current Time Characteristic
 966:Generated_Source\PSoC6\pdl\middleware\ble/cy_ble_event_handler.h ****      *  Value Read Request. The parameter of this event is a
 967:Generated_Source\PSoC6\pdl\middleware\ble/cy_ble_event_handler.h ****      *  structure of the cy_stc_ble_cts_char_value_t type.
 968:Generated_Source\PSoC6\pdl\middleware\ble/cy_ble_event_handler.h ****      */
 969:Generated_Source\PSoC6\pdl\middleware\ble/cy_ble_event_handler.h ****     CY_BLE_EVT_CTSC_READ_CHAR_RESPONSE,
 970:Generated_Source\PSoC6\pdl\middleware\ble/cy_ble_event_handler.h **** 
 971:Generated_Source\PSoC6\pdl\middleware\ble/cy_ble_event_handler.h ****     /** CTS Client - Read Response for Current Time Client
 972:Generated_Source\PSoC6\pdl\middleware\ble/cy_ble_event_handler.h ****      *  Characteristic Configuration Descriptor Value Read
 973:Generated_Source\PSoC6\pdl\middleware\ble/cy_ble_event_handler.h ****      *  Request. The parameter of this event is a
 974:Generated_Source\PSoC6\pdl\middleware\ble/cy_ble_event_handler.h ****      *  structure of the cy_stc_ble_cts_descr_value_t type.
 975:Generated_Source\PSoC6\pdl\middleware\ble/cy_ble_event_handler.h ****      */
 976:Generated_Source\PSoC6\pdl\middleware\ble/cy_ble_event_handler.h ****     CY_BLE_EVT_CTSC_READ_DESCR_RESPONSE,
ARM GAS  C:\Users\codyg\AppData\Local\Temp\ccQkQY0S.s 			page 43


 977:Generated_Source\PSoC6\pdl\middleware\ble/cy_ble_event_handler.h **** 
 978:Generated_Source\PSoC6\pdl\middleware\ble/cy_ble_event_handler.h ****     /** CTS Client - Write Response for Current Time Characteristic
 979:Generated_Source\PSoC6\pdl\middleware\ble/cy_ble_event_handler.h ****      *  Configuration Descriptor Value. The parameter of this
 980:Generated_Source\PSoC6\pdl\middleware\ble/cy_ble_event_handler.h ****      *  event is a structure of the cy_stc_ble_cts_descr_value_t type.
 981:Generated_Source\PSoC6\pdl\middleware\ble/cy_ble_event_handler.h ****      */
 982:Generated_Source\PSoC6\pdl\middleware\ble/cy_ble_event_handler.h ****     CY_BLE_EVT_CTSC_WRITE_DESCR_RESPONSE,
 983:Generated_Source\PSoC6\pdl\middleware\ble/cy_ble_event_handler.h **** 
 984:Generated_Source\PSoC6\pdl\middleware\ble/cy_ble_event_handler.h ****     /** CTS Client - Write Response for Current Time or Local
 985:Generated_Source\PSoC6\pdl\middleware\ble/cy_ble_event_handler.h ****      *  Time Information Characteristic Value. The parameter of this
 986:Generated_Source\PSoC6\pdl\middleware\ble/cy_ble_event_handler.h ****      *  event is a structure of the cy_stc_ble_cts_descr_value_t type.
 987:Generated_Source\PSoC6\pdl\middleware\ble/cy_ble_event_handler.h ****      */
 988:Generated_Source\PSoC6\pdl\middleware\ble/cy_ble_event_handler.h ****     CY_BLE_EVT_CTSC_WRITE_CHAR_RESPONSE,
 989:Generated_Source\PSoC6\pdl\middleware\ble/cy_ble_event_handler.h **** 
 990:Generated_Source\PSoC6\pdl\middleware\ble/cy_ble_event_handler.h ****     /****************************************
 991:Generated_Source\PSoC6\pdl\middleware\ble/cy_ble_event_handler.h ****      * DIS Service Events
 992:Generated_Source\PSoC6\pdl\middleware\ble/cy_ble_event_handler.h ****      ***************************************/
 993:Generated_Source\PSoC6\pdl\middleware\ble/cy_ble_event_handler.h **** 
 994:Generated_Source\PSoC6\pdl\middleware\ble/cy_ble_event_handler.h ****     /** DIS Client - Read Response for a Read Request for a
 995:Generated_Source\PSoC6\pdl\middleware\ble/cy_ble_event_handler.h ****      *  Device Information Service Characteristic. The parameter of this
 996:Generated_Source\PSoC6\pdl\middleware\ble/cy_ble_event_handler.h ****      *  event is a structure of the cy_stc_ble_dis_char_value_t type.
 997:Generated_Source\PSoC6\pdl\middleware\ble/cy_ble_event_handler.h ****      */
 998:Generated_Source\PSoC6\pdl\middleware\ble/cy_ble_event_handler.h ****     CY_BLE_EVT_DISC_READ_CHAR_RESPONSE,
 999:Generated_Source\PSoC6\pdl\middleware\ble/cy_ble_event_handler.h **** 
1000:Generated_Source\PSoC6\pdl\middleware\ble/cy_ble_event_handler.h **** 
1001:Generated_Source\PSoC6\pdl\middleware\ble/cy_ble_event_handler.h ****     /****************************************
1002:Generated_Source\PSoC6\pdl\middleware\ble/cy_ble_event_handler.h ****      * Environmental Sensing Service Events
1003:Generated_Source\PSoC6\pdl\middleware\ble/cy_ble_event_handler.h ****      ***************************************/
1004:Generated_Source\PSoC6\pdl\middleware\ble/cy_ble_event_handler.h **** 
1005:Generated_Source\PSoC6\pdl\middleware\ble/cy_ble_event_handler.h ****     /** ESS Server - Notification for Environmental Sensing Service
1006:Generated_Source\PSoC6\pdl\middleware\ble/cy_ble_event_handler.h ****      *  Characteristic was enabled. The parameter of this event is a structure of
1007:Generated_Source\PSoC6\pdl\middleware\ble/cy_ble_event_handler.h ****      *  cy_stc_ble_ess_char_value_t type.
1008:Generated_Source\PSoC6\pdl\middleware\ble/cy_ble_event_handler.h ****      */
1009:Generated_Source\PSoC6\pdl\middleware\ble/cy_ble_event_handler.h ****     CY_BLE_EVT_ESSS_NOTIFICATION_ENABLED,
1010:Generated_Source\PSoC6\pdl\middleware\ble/cy_ble_event_handler.h **** 
1011:Generated_Source\PSoC6\pdl\middleware\ble/cy_ble_event_handler.h ****     /** ESS Server - Notification for Environmental Sensing Service
1012:Generated_Source\PSoC6\pdl\middleware\ble/cy_ble_event_handler.h ****      *  Characteristic was disabled. The parameter of this event is a structure of
1013:Generated_Source\PSoC6\pdl\middleware\ble/cy_ble_event_handler.h ****      *  cy_stc_ble_ess_char_value_t type.
1014:Generated_Source\PSoC6\pdl\middleware\ble/cy_ble_event_handler.h ****      */
1015:Generated_Source\PSoC6\pdl\middleware\ble/cy_ble_event_handler.h ****     CY_BLE_EVT_ESSS_NOTIFICATION_DISABLED,
1016:Generated_Source\PSoC6\pdl\middleware\ble/cy_ble_event_handler.h **** 
1017:Generated_Source\PSoC6\pdl\middleware\ble/cy_ble_event_handler.h ****     /** ESS Server - Indication for Environmental Sensing Service Characteristic
1018:Generated_Source\PSoC6\pdl\middleware\ble/cy_ble_event_handler.h ****      *  was enabled. The parameter of this event is a structure of
1019:Generated_Source\PSoC6\pdl\middleware\ble/cy_ble_event_handler.h ****      *  the cy_stc_ble_ess_char_value_t type.
1020:Generated_Source\PSoC6\pdl\middleware\ble/cy_ble_event_handler.h ****      */
1021:Generated_Source\PSoC6\pdl\middleware\ble/cy_ble_event_handler.h ****     CY_BLE_EVT_ESSS_INDICATION_ENABLED,
1022:Generated_Source\PSoC6\pdl\middleware\ble/cy_ble_event_handler.h **** 
1023:Generated_Source\PSoC6\pdl\middleware\ble/cy_ble_event_handler.h ****     /** ESS Server - Indication for Environmental Sensing Service Characteristic
1024:Generated_Source\PSoC6\pdl\middleware\ble/cy_ble_event_handler.h ****      *  was disabled. The parameter of this event is a structure of
1025:Generated_Source\PSoC6\pdl\middleware\ble/cy_ble_event_handler.h ****      *  cy_stc_ble_ess_char_value_t type.
1026:Generated_Source\PSoC6\pdl\middleware\ble/cy_ble_event_handler.h ****      */
1027:Generated_Source\PSoC6\pdl\middleware\ble/cy_ble_event_handler.h ****     CY_BLE_EVT_ESSS_INDICATION_DISABLED,
1028:Generated_Source\PSoC6\pdl\middleware\ble/cy_ble_event_handler.h **** 
1029:Generated_Source\PSoC6\pdl\middleware\ble/cy_ble_event_handler.h ****     /** ESS Server - Environmental Sensing Service Characteristic
1030:Generated_Source\PSoC6\pdl\middleware\ble/cy_ble_event_handler.h ****      *  Indication was confirmed. The parameter of this event is a structure of
1031:Generated_Source\PSoC6\pdl\middleware\ble/cy_ble_event_handler.h ****      *  cy_stc_ble_ess_char_value_t type.
1032:Generated_Source\PSoC6\pdl\middleware\ble/cy_ble_event_handler.h ****      */
1033:Generated_Source\PSoC6\pdl\middleware\ble/cy_ble_event_handler.h ****     CY_BLE_EVT_ESSS_INDICATION_CONFIRMATION,
ARM GAS  C:\Users\codyg\AppData\Local\Temp\ccQkQY0S.s 			page 44


1034:Generated_Source\PSoC6\pdl\middleware\ble/cy_ble_event_handler.h **** 
1035:Generated_Source\PSoC6\pdl\middleware\ble/cy_ble_event_handler.h ****     /** ESS Server - Write Request for Environmental Sensing Service
1036:Generated_Source\PSoC6\pdl\middleware\ble/cy_ble_event_handler.h ****      *  Characteristic was received. The parameter of this event is a structure of
1037:Generated_Source\PSoC6\pdl\middleware\ble/cy_ble_event_handler.h ****      *  the cy_stc_ble_ess_char_value_t type.
1038:Generated_Source\PSoC6\pdl\middleware\ble/cy_ble_event_handler.h ****      */
1039:Generated_Source\PSoC6\pdl\middleware\ble/cy_ble_event_handler.h ****     CY_BLE_EVT_ESSS_WRITE_CHAR,
1040:Generated_Source\PSoC6\pdl\middleware\ble/cy_ble_event_handler.h **** 
1041:Generated_Source\PSoC6\pdl\middleware\ble/cy_ble_event_handler.h ****     /** ESS Server - Write Request for Environmental Sensing Service
1042:Generated_Source\PSoC6\pdl\middleware\ble/cy_ble_event_handler.h ****      *  Characteristic Descriptor was received. The parameter of this event is a structure of
1043:Generated_Source\PSoC6\pdl\middleware\ble/cy_ble_event_handler.h ****      *  the cy_stc_ble_ess_descr_value_t type. This event is generated only when write for
1044:Generated_Source\PSoC6\pdl\middleware\ble/cy_ble_event_handler.h ****      *  #CY_BLE_ESS_ES_TRIGGER_SETTINGS_DESCR1, #CY_BLE_ESS_ES_TRIGGER_SETTINGS_DESCR2, 
1045:Generated_Source\PSoC6\pdl\middleware\ble/cy_ble_event_handler.h ****      *  #CY_BLE_ESS_ES_TRIGGER_SETTINGS_DESCR3 or CY_BLE_ESS_ES_CONFIG_DESCR occurs.
1046:Generated_Source\PSoC6\pdl\middleware\ble/cy_ble_event_handler.h ****      */
1047:Generated_Source\PSoC6\pdl\middleware\ble/cy_ble_event_handler.h ****     CY_BLE_EVT_ESSS_DESCR_WRITE,
1048:Generated_Source\PSoC6\pdl\middleware\ble/cy_ble_event_handler.h **** 
1049:Generated_Source\PSoC6\pdl\middleware\ble/cy_ble_event_handler.h ****     /** ESS Client - Environmental Sensing Service Characteristic
1050:Generated_Source\PSoC6\pdl\middleware\ble/cy_ble_event_handler.h ****      *  Notification was received. The parameter of this event is a structure of
1051:Generated_Source\PSoC6\pdl\middleware\ble/cy_ble_event_handler.h ****      *  the cy_stc_ble_ess_char_value_t type.
1052:Generated_Source\PSoC6\pdl\middleware\ble/cy_ble_event_handler.h ****      */
1053:Generated_Source\PSoC6\pdl\middleware\ble/cy_ble_event_handler.h ****     CY_BLE_EVT_ESSC_NOTIFICATION,
1054:Generated_Source\PSoC6\pdl\middleware\ble/cy_ble_event_handler.h **** 
1055:Generated_Source\PSoC6\pdl\middleware\ble/cy_ble_event_handler.h ****     /** ESS Client - Environmental Sensing Service Characteristic
1056:Generated_Source\PSoC6\pdl\middleware\ble/cy_ble_event_handler.h ****      *  Indication was received. The parameter of this event is a structure of
1057:Generated_Source\PSoC6\pdl\middleware\ble/cy_ble_event_handler.h ****      *  cy_stc_ble_ess_char_value_t type.
1058:Generated_Source\PSoC6\pdl\middleware\ble/cy_ble_event_handler.h ****      */
1059:Generated_Source\PSoC6\pdl\middleware\ble/cy_ble_event_handler.h ****     CY_BLE_EVT_ESSC_INDICATION,
1060:Generated_Source\PSoC6\pdl\middleware\ble/cy_ble_event_handler.h **** 
1061:Generated_Source\PSoC6\pdl\middleware\ble/cy_ble_event_handler.h ****     /** ESS Client - Read Response for Read Request of Environmental Sensing
1062:Generated_Source\PSoC6\pdl\middleware\ble/cy_ble_event_handler.h ****      *  Service Characteristic value. The parameter of this event is a structure of
1063:Generated_Source\PSoC6\pdl\middleware\ble/cy_ble_event_handler.h ****      *  the cy_stc_ble_ess_char_value_t type.
1064:Generated_Source\PSoC6\pdl\middleware\ble/cy_ble_event_handler.h ****      */
1065:Generated_Source\PSoC6\pdl\middleware\ble/cy_ble_event_handler.h ****     CY_BLE_EVT_ESSC_READ_CHAR_RESPONSE,
1066:Generated_Source\PSoC6\pdl\middleware\ble/cy_ble_event_handler.h **** 
1067:Generated_Source\PSoC6\pdl\middleware\ble/cy_ble_event_handler.h ****     /** ESS Client - Write Response for Write Request of Environmental Sensing
1068:Generated_Source\PSoC6\pdl\middleware\ble/cy_ble_event_handler.h ****      *  Service Characteristic value. The parameter of this event is a structure of
1069:Generated_Source\PSoC6\pdl\middleware\ble/cy_ble_event_handler.h ****      *  the cy_stc_ble_ess_char_value_t type.
1070:Generated_Source\PSoC6\pdl\middleware\ble/cy_ble_event_handler.h ****      */
1071:Generated_Source\PSoC6\pdl\middleware\ble/cy_ble_event_handler.h ****     CY_BLE_EVT_ESSC_WRITE_CHAR_RESPONSE,
1072:Generated_Source\PSoC6\pdl\middleware\ble/cy_ble_event_handler.h **** 
1073:Generated_Source\PSoC6\pdl\middleware\ble/cy_ble_event_handler.h ****     /** ESS Client - Read Response for Read Request of Environmental Sensing
1074:Generated_Source\PSoC6\pdl\middleware\ble/cy_ble_event_handler.h ****      *  Service Characteristic Descriptor Read request. The parameter of this event
1075:Generated_Source\PSoC6\pdl\middleware\ble/cy_ble_event_handler.h ****      *  is a structure of the cy_stc_ble_ess_descr_value_t type.
1076:Generated_Source\PSoC6\pdl\middleware\ble/cy_ble_event_handler.h ****      */
1077:Generated_Source\PSoC6\pdl\middleware\ble/cy_ble_event_handler.h ****     CY_BLE_EVT_ESSC_READ_DESCR_RESPONSE,
1078:Generated_Source\PSoC6\pdl\middleware\ble/cy_ble_event_handler.h **** 
1079:Generated_Source\PSoC6\pdl\middleware\ble/cy_ble_event_handler.h ****     /** ESS Client - Write Response for Write Request of Environmental Sensing
1080:Generated_Source\PSoC6\pdl\middleware\ble/cy_ble_event_handler.h ****      *  Service Characteristic Configuration Descriptor value. The parameter of
1081:Generated_Source\PSoC6\pdl\middleware\ble/cy_ble_event_handler.h ****      *  this event is a structure of the cy_stc_ble_ess_descr_value_t type.
1082:Generated_Source\PSoC6\pdl\middleware\ble/cy_ble_event_handler.h ****      */
1083:Generated_Source\PSoC6\pdl\middleware\ble/cy_ble_event_handler.h ****     CY_BLE_EVT_ESSC_WRITE_DESCR_RESPONSE,
1084:Generated_Source\PSoC6\pdl\middleware\ble/cy_ble_event_handler.h **** 
1085:Generated_Source\PSoC6\pdl\middleware\ble/cy_ble_event_handler.h **** 
1086:Generated_Source\PSoC6\pdl\middleware\ble/cy_ble_event_handler.h ****     /****************************************
1087:Generated_Source\PSoC6\pdl\middleware\ble/cy_ble_event_handler.h ****      * Glucose Service Events
1088:Generated_Source\PSoC6\pdl\middleware\ble/cy_ble_event_handler.h ****      ***************************************/
1089:Generated_Source\PSoC6\pdl\middleware\ble/cy_ble_event_handler.h **** 
1090:Generated_Source\PSoC6\pdl\middleware\ble/cy_ble_event_handler.h ****     /** GLS Server - Indication for Glucose Service Characteristic
ARM GAS  C:\Users\codyg\AppData\Local\Temp\ccQkQY0S.s 			page 45


1091:Generated_Source\PSoC6\pdl\middleware\ble/cy_ble_event_handler.h ****      *  was enabled. The parameter of this event is a structure
1092:Generated_Source\PSoC6\pdl\middleware\ble/cy_ble_event_handler.h ****      *  of cy_stc_ble_gls_char_value_t type.
1093:Generated_Source\PSoC6\pdl\middleware\ble/cy_ble_event_handler.h ****      */
1094:Generated_Source\PSoC6\pdl\middleware\ble/cy_ble_event_handler.h ****     CY_BLE_EVT_GLSS_INDICATION_ENABLED,
1095:Generated_Source\PSoC6\pdl\middleware\ble/cy_ble_event_handler.h **** 
1096:Generated_Source\PSoC6\pdl\middleware\ble/cy_ble_event_handler.h ****     /** GLS Server - Indication for Glucose Service Characteristic
1097:Generated_Source\PSoC6\pdl\middleware\ble/cy_ble_event_handler.h ****      *  was disabled. The parameter of this event is a structure
1098:Generated_Source\PSoC6\pdl\middleware\ble/cy_ble_event_handler.h ****      *  of the cy_stc_ble_gls_char_value_t type.
1099:Generated_Source\PSoC6\pdl\middleware\ble/cy_ble_event_handler.h ****      */
1100:Generated_Source\PSoC6\pdl\middleware\ble/cy_ble_event_handler.h ****     CY_BLE_EVT_GLSS_INDICATION_DISABLED,
1101:Generated_Source\PSoC6\pdl\middleware\ble/cy_ble_event_handler.h **** 
1102:Generated_Source\PSoC6\pdl\middleware\ble/cy_ble_event_handler.h ****     /** GLS Server - Glucose Service Characteristic
1103:Generated_Source\PSoC6\pdl\middleware\ble/cy_ble_event_handler.h ****      *  Indication was confirmed. The parameter of this event
1104:Generated_Source\PSoC6\pdl\middleware\ble/cy_ble_event_handler.h ****      *  is a structure of the cy_stc_ble_gls_char_value_t type.
1105:Generated_Source\PSoC6\pdl\middleware\ble/cy_ble_event_handler.h ****      */
1106:Generated_Source\PSoC6\pdl\middleware\ble/cy_ble_event_handler.h ****     CY_BLE_EVT_GLSS_INDICATION_CONFIRMED,
1107:Generated_Source\PSoC6\pdl\middleware\ble/cy_ble_event_handler.h **** 
1108:Generated_Source\PSoC6\pdl\middleware\ble/cy_ble_event_handler.h ****     /** GLS Server - Notification for Glucose Service Characteristic
1109:Generated_Source\PSoC6\pdl\middleware\ble/cy_ble_event_handler.h ****      *  was enabled. The parameter of this event is a structure of
1110:Generated_Source\PSoC6\pdl\middleware\ble/cy_ble_event_handler.h ****      *  the cy_stc_ble_gls_char_value_t type.
1111:Generated_Source\PSoC6\pdl\middleware\ble/cy_ble_event_handler.h ****      */
1112:Generated_Source\PSoC6\pdl\middleware\ble/cy_ble_event_handler.h ****     CY_BLE_EVT_GLSS_NOTIFICATION_ENABLED,
1113:Generated_Source\PSoC6\pdl\middleware\ble/cy_ble_event_handler.h **** 
1114:Generated_Source\PSoC6\pdl\middleware\ble/cy_ble_event_handler.h ****     /** GLS Server - Notification for Glucose Service Characteristic
1115:Generated_Source\PSoC6\pdl\middleware\ble/cy_ble_event_handler.h ****      *  was disabled. The parameter of this event is a structure
1116:Generated_Source\PSoC6\pdl\middleware\ble/cy_ble_event_handler.h ****      *  of the cy_stc_ble_gls_char_value_t type.
1117:Generated_Source\PSoC6\pdl\middleware\ble/cy_ble_event_handler.h ****      */
1118:Generated_Source\PSoC6\pdl\middleware\ble/cy_ble_event_handler.h ****     CY_BLE_EVT_GLSS_NOTIFICATION_DISABLED,
1119:Generated_Source\PSoC6\pdl\middleware\ble/cy_ble_event_handler.h **** 
1120:Generated_Source\PSoC6\pdl\middleware\ble/cy_ble_event_handler.h ****     /** GLS Server - Write Request for Glucose Service
1121:Generated_Source\PSoC6\pdl\middleware\ble/cy_ble_event_handler.h ****      *  was received. The parameter of this event is a structure
1122:Generated_Source\PSoC6\pdl\middleware\ble/cy_ble_event_handler.h ****      *  of cy_stc_ble_gls_char_value_t type.
1123:Generated_Source\PSoC6\pdl\middleware\ble/cy_ble_event_handler.h ****      */
1124:Generated_Source\PSoC6\pdl\middleware\ble/cy_ble_event_handler.h ****     CY_BLE_EVT_GLSS_WRITE_CHAR,
1125:Generated_Source\PSoC6\pdl\middleware\ble/cy_ble_event_handler.h **** 
1126:Generated_Source\PSoC6\pdl\middleware\ble/cy_ble_event_handler.h ****     /** GLS Client - Glucose Service Characteristic
1127:Generated_Source\PSoC6\pdl\middleware\ble/cy_ble_event_handler.h ****      *  Indication was received. The parameter of this event
1128:Generated_Source\PSoC6\pdl\middleware\ble/cy_ble_event_handler.h ****      *  is a structure of the cy_stc_ble_gls_char_value_t type.
1129:Generated_Source\PSoC6\pdl\middleware\ble/cy_ble_event_handler.h ****      */
1130:Generated_Source\PSoC6\pdl\middleware\ble/cy_ble_event_handler.h ****     CY_BLE_EVT_GLSC_INDICATION,
1131:Generated_Source\PSoC6\pdl\middleware\ble/cy_ble_event_handler.h **** 
1132:Generated_Source\PSoC6\pdl\middleware\ble/cy_ble_event_handler.h ****     /** GLS Client - Glucose Service Characteristic
1133:Generated_Source\PSoC6\pdl\middleware\ble/cy_ble_event_handler.h ****      *  Notification was received. The parameter of this event
1134:Generated_Source\PSoC6\pdl\middleware\ble/cy_ble_event_handler.h ****      *  is a structure of the cy_stc_ble_gls_char_value_t type.
1135:Generated_Source\PSoC6\pdl\middleware\ble/cy_ble_event_handler.h ****      */
1136:Generated_Source\PSoC6\pdl\middleware\ble/cy_ble_event_handler.h ****     CY_BLE_EVT_GLSC_NOTIFICATION,
1137:Generated_Source\PSoC6\pdl\middleware\ble/cy_ble_event_handler.h **** 
1138:Generated_Source\PSoC6\pdl\middleware\ble/cy_ble_event_handler.h ****     /** GLS Client - Read Response for Read Request of Glucose
1139:Generated_Source\PSoC6\pdl\middleware\ble/cy_ble_event_handler.h ****      *  Service Characteristic value. The parameter of this event
1140:Generated_Source\PSoC6\pdl\middleware\ble/cy_ble_event_handler.h ****      *  is a structure of the cy_stc_ble_gls_char_value_t type.
1141:Generated_Source\PSoC6\pdl\middleware\ble/cy_ble_event_handler.h ****      */
1142:Generated_Source\PSoC6\pdl\middleware\ble/cy_ble_event_handler.h ****     CY_BLE_EVT_GLSC_READ_CHAR_RESPONSE,
1143:Generated_Source\PSoC6\pdl\middleware\ble/cy_ble_event_handler.h **** 
1144:Generated_Source\PSoC6\pdl\middleware\ble/cy_ble_event_handler.h ****     /** GLS Client - Write Response for Write Request of Glucose
1145:Generated_Source\PSoC6\pdl\middleware\ble/cy_ble_event_handler.h ****      *  Service Characteristic value. The
1146:Generated_Source\PSoC6\pdl\middleware\ble/cy_ble_event_handler.h ****      *  parameter of this event is a structure of
1147:Generated_Source\PSoC6\pdl\middleware\ble/cy_ble_event_handler.h ****      *  the cy_stc_ble_gls_char_value_t type.
ARM GAS  C:\Users\codyg\AppData\Local\Temp\ccQkQY0S.s 			page 46


1148:Generated_Source\PSoC6\pdl\middleware\ble/cy_ble_event_handler.h ****      */
1149:Generated_Source\PSoC6\pdl\middleware\ble/cy_ble_event_handler.h ****     CY_BLE_EVT_GLSC_WRITE_CHAR_RESPONSE,
1150:Generated_Source\PSoC6\pdl\middleware\ble/cy_ble_event_handler.h **** 
1151:Generated_Source\PSoC6\pdl\middleware\ble/cy_ble_event_handler.h ****     /** GLS Client - Read Response for Read Request of Glucose
1152:Generated_Source\PSoC6\pdl\middleware\ble/cy_ble_event_handler.h ****      *  Service Characteristic Descriptor Read request. The
1153:Generated_Source\PSoC6\pdl\middleware\ble/cy_ble_event_handler.h ****      *  parameter of this event is a structure of
1154:Generated_Source\PSoC6\pdl\middleware\ble/cy_ble_event_handler.h ****      *  the cy_stc_ble_gls_descr_value_t type.
1155:Generated_Source\PSoC6\pdl\middleware\ble/cy_ble_event_handler.h ****      */
1156:Generated_Source\PSoC6\pdl\middleware\ble/cy_ble_event_handler.h ****     CY_BLE_EVT_GLSC_READ_DESCR_RESPONSE,
1157:Generated_Source\PSoC6\pdl\middleware\ble/cy_ble_event_handler.h **** 
1158:Generated_Source\PSoC6\pdl\middleware\ble/cy_ble_event_handler.h ****     /** GLS Client - Write Response for Write Request of Glucose
1159:Generated_Source\PSoC6\pdl\middleware\ble/cy_ble_event_handler.h ****      *  Service Characteristic Configuration Descriptor value.
1160:Generated_Source\PSoC6\pdl\middleware\ble/cy_ble_event_handler.h ****      *  The parameter of this event is a structure of
1161:Generated_Source\PSoC6\pdl\middleware\ble/cy_ble_event_handler.h ****      *  the cy_stc_ble_gls_descr_value_t type.
1162:Generated_Source\PSoC6\pdl\middleware\ble/cy_ble_event_handler.h ****      */
1163:Generated_Source\PSoC6\pdl\middleware\ble/cy_ble_event_handler.h ****     CY_BLE_EVT_GLSC_WRITE_DESCR_RESPONSE,
1164:Generated_Source\PSoC6\pdl\middleware\ble/cy_ble_event_handler.h **** 
1165:Generated_Source\PSoC6\pdl\middleware\ble/cy_ble_event_handler.h **** 
1166:Generated_Source\PSoC6\pdl\middleware\ble/cy_ble_event_handler.h ****     /****************************************
1167:Generated_Source\PSoC6\pdl\middleware\ble/cy_ble_event_handler.h ****      * HIDS Service Events
1168:Generated_Source\PSoC6\pdl\middleware\ble/cy_ble_event_handler.h ****      ***************************************/
1169:Generated_Source\PSoC6\pdl\middleware\ble/cy_ble_event_handler.h **** 
1170:Generated_Source\PSoC6\pdl\middleware\ble/cy_ble_event_handler.h ****     /** HIDS Server - Notification for HID service was
1171:Generated_Source\PSoC6\pdl\middleware\ble/cy_ble_event_handler.h ****      *  enabled. The parameter of this event is a
1172:Generated_Source\PSoC6\pdl\middleware\ble/cy_ble_event_handler.h ****      *  structure of the cy_stc_ble_hids_char_value_t type.
1173:Generated_Source\PSoC6\pdl\middleware\ble/cy_ble_event_handler.h ****      */
1174:Generated_Source\PSoC6\pdl\middleware\ble/cy_ble_event_handler.h ****     CY_BLE_EVT_HIDSS_NOTIFICATION_ENABLED,
1175:Generated_Source\PSoC6\pdl\middleware\ble/cy_ble_event_handler.h **** 
1176:Generated_Source\PSoC6\pdl\middleware\ble/cy_ble_event_handler.h ****     /** HIDS Server - Notification for HID service was
1177:Generated_Source\PSoC6\pdl\middleware\ble/cy_ble_event_handler.h ****      *  disabled. The parameter of this event is a
1178:Generated_Source\PSoC6\pdl\middleware\ble/cy_ble_event_handler.h ****      *  structure of the cy_stc_ble_hids_char_value_t type.
1179:Generated_Source\PSoC6\pdl\middleware\ble/cy_ble_event_handler.h ****      */
1180:Generated_Source\PSoC6\pdl\middleware\ble/cy_ble_event_handler.h ****     CY_BLE_EVT_HIDSS_NOTIFICATION_DISABLED,
1181:Generated_Source\PSoC6\pdl\middleware\ble/cy_ble_event_handler.h **** 
1182:Generated_Source\PSoC6\pdl\middleware\ble/cy_ble_event_handler.h ****     /** HIDS Server - Enter boot mode request. The
1183:Generated_Source\PSoC6\pdl\middleware\ble/cy_ble_event_handler.h ****      *  parameter of this event is a structure of
1184:Generated_Source\PSoC6\pdl\middleware\ble/cy_ble_event_handler.h ****      *  the cy_stc_ble_hids_char_value_t type.
1185:Generated_Source\PSoC6\pdl\middleware\ble/cy_ble_event_handler.h ****      */
1186:Generated_Source\PSoC6\pdl\middleware\ble/cy_ble_event_handler.h ****     CY_BLE_EVT_HIDSS_BOOT_MODE_ENTER,
1187:Generated_Source\PSoC6\pdl\middleware\ble/cy_ble_event_handler.h **** 
1188:Generated_Source\PSoC6\pdl\middleware\ble/cy_ble_event_handler.h ****     /** HIDS Server - Enter report mode request. The
1189:Generated_Source\PSoC6\pdl\middleware\ble/cy_ble_event_handler.h ****      *  parameter of this event is a structure of
1190:Generated_Source\PSoC6\pdl\middleware\ble/cy_ble_event_handler.h ****      *  the cy_stc_ble_hids_char_value_t type.
1191:Generated_Source\PSoC6\pdl\middleware\ble/cy_ble_event_handler.h ****      */
1192:Generated_Source\PSoC6\pdl\middleware\ble/cy_ble_event_handler.h ****     CY_BLE_EVT_HIDSS_REPORT_MODE_ENTER,
1193:Generated_Source\PSoC6\pdl\middleware\ble/cy_ble_event_handler.h **** 
1194:Generated_Source\PSoC6\pdl\middleware\ble/cy_ble_event_handler.h ****     /** HIDS Server - Enter suspend mode request. The
1195:Generated_Source\PSoC6\pdl\middleware\ble/cy_ble_event_handler.h ****      *  parameter of this event is a structure of
1196:Generated_Source\PSoC6\pdl\middleware\ble/cy_ble_event_handler.h ****      *  cy_stc_ble_hids_char_value_t type.
1197:Generated_Source\PSoC6\pdl\middleware\ble/cy_ble_event_handler.h ****      */
1198:Generated_Source\PSoC6\pdl\middleware\ble/cy_ble_event_handler.h ****     CY_BLE_EVT_HIDSS_SUSPEND,
1199:Generated_Source\PSoC6\pdl\middleware\ble/cy_ble_event_handler.h **** 
1200:Generated_Source\PSoC6\pdl\middleware\ble/cy_ble_event_handler.h ****     /** HIDS Server - Exit suspend mode request. The
1201:Generated_Source\PSoC6\pdl\middleware\ble/cy_ble_event_handler.h ****      *  parameter of this event is a structure of
1202:Generated_Source\PSoC6\pdl\middleware\ble/cy_ble_event_handler.h ****      *  the cy_stc_ble_hids_char_value_t type.
1203:Generated_Source\PSoC6\pdl\middleware\ble/cy_ble_event_handler.h ****      */
1204:Generated_Source\PSoC6\pdl\middleware\ble/cy_ble_event_handler.h ****     CY_BLE_EVT_HIDSS_EXIT_SUSPEND,
ARM GAS  C:\Users\codyg\AppData\Local\Temp\ccQkQY0S.s 			page 47


1205:Generated_Source\PSoC6\pdl\middleware\ble/cy_ble_event_handler.h **** 
1206:Generated_Source\PSoC6\pdl\middleware\ble/cy_ble_event_handler.h ****     /** HIDS Server - Write Report Characteristic
1207:Generated_Source\PSoC6\pdl\middleware\ble/cy_ble_event_handler.h ****      *  request. The parameter of this event is a
1208:Generated_Source\PSoC6\pdl\middleware\ble/cy_ble_event_handler.h ****      *  structure of the cy_stc_ble_hids_char_value_t type.
1209:Generated_Source\PSoC6\pdl\middleware\ble/cy_ble_event_handler.h ****      */
1210:Generated_Source\PSoC6\pdl\middleware\ble/cy_ble_event_handler.h ****     CY_BLE_EVT_HIDSS_REPORT_WRITE_CHAR,
1211:Generated_Source\PSoC6\pdl\middleware\ble/cy_ble_event_handler.h **** 
1212:Generated_Source\PSoC6\pdl\middleware\ble/cy_ble_event_handler.h ****     /** HIDS Client - HID Service Characteristic
1213:Generated_Source\PSoC6\pdl\middleware\ble/cy_ble_event_handler.h ****      *  Notification was received. The parameter of this
1214:Generated_Source\PSoC6\pdl\middleware\ble/cy_ble_event_handler.h ****      *  event is a structure of the cy_stc_ble_hids_char_value_t type.
1215:Generated_Source\PSoC6\pdl\middleware\ble/cy_ble_event_handler.h ****      */
1216:Generated_Source\PSoC6\pdl\middleware\ble/cy_ble_event_handler.h ****     CY_BLE_EVT_HIDSC_NOTIFICATION,
1217:Generated_Source\PSoC6\pdl\middleware\ble/cy_ble_event_handler.h **** 
1218:Generated_Source\PSoC6\pdl\middleware\ble/cy_ble_event_handler.h ****     /** HIDS Client - Read Response for Read Request of HID
1219:Generated_Source\PSoC6\pdl\middleware\ble/cy_ble_event_handler.h ****      *  Service Characteristic value. The parameter of this
1220:Generated_Source\PSoC6\pdl\middleware\ble/cy_ble_event_handler.h ****      *  event is a structure of the cy_stc_ble_hids_descr_value_t type.
1221:Generated_Source\PSoC6\pdl\middleware\ble/cy_ble_event_handler.h ****      */
1222:Generated_Source\PSoC6\pdl\middleware\ble/cy_ble_event_handler.h ****     CY_BLE_EVT_HIDSC_READ_CHAR_RESPONSE,
1223:Generated_Source\PSoC6\pdl\middleware\ble/cy_ble_event_handler.h **** 
1224:Generated_Source\PSoC6\pdl\middleware\ble/cy_ble_event_handler.h ****     /** HIDS Client - Write Response for Write Request of
1225:Generated_Source\PSoC6\pdl\middleware\ble/cy_ble_event_handler.h ****      *  HID Service Characteristic value. The parameter
1226:Generated_Source\PSoC6\pdl\middleware\ble/cy_ble_event_handler.h ****      *  of this event is a structure of
1227:Generated_Source\PSoC6\pdl\middleware\ble/cy_ble_event_handler.h ****      *  the cy_stc_ble_hids_char_value_t type.
1228:Generated_Source\PSoC6\pdl\middleware\ble/cy_ble_event_handler.h ****      */
