ARM GAS  C:\Users\codyg\AppData\Local\Temp\ccmkwGi3.s 			page 1


   1              		.syntax unified
   2              		.cpu cortex-m4
   3              		.eabi_attribute 27, 1
   4              		.fpu fpv4-sp-d16
   5              		.eabi_attribute 20, 1
   6              		.eabi_attribute 21, 1
   7              		.eabi_attribute 23, 3
   8              		.eabi_attribute 24, 1
   9              		.eabi_attribute 25, 1
  10              		.eabi_attribute 26, 1
  11              		.eabi_attribute 30, 1
  12              		.eabi_attribute 34, 1
  13              		.eabi_attribute 18, 4
  14              		.thumb
  15              		.syntax unified
  16              		.file	"display_task.c"
  17              		.text
  18              	.Ltext0:
  19              		.cfi_sections	.debug_frame
  20              		.section	.text.DelayMs,"ax",%progbits
  21              		.align	2
  22              		.thumb
  23              		.thumb_func
  24              		.type	DelayMs, %function
  25              	DelayMs:
  26              	.LFB522:
  27              		.file 1 "display_task.c"
   1:display_task.c **** /******************************************************************************
   2:display_task.c **** * File Name: display_task.c
   3:display_task.c **** *
   4:display_task.c **** * Version: 1.00
   5:display_task.c **** *
   6:display_task.c **** * Description: This file contains the task that initializes the E-INK display, 
   7:display_task.c **** *              shows the instructions to use this code example at startup and
   8:display_task.c **** *              frequenly refreshes the display to show temperature
   9:display_task.c **** *
  10:display_task.c **** * Related Document: CE218138_BLE_Thermometer_RTOS.pdf
  11:display_task.c **** *
  12:display_task.c **** * Hardware Dependency: CY8CKIT-062-BLE PSoC 6 BLE Pioneer Kit
  13:display_task.c **** *                      CY8CKIT-028-EPD E-INK Display Shield
  14:display_task.c **** *
  15:display_task.c **** *******************************************************************************
  16:display_task.c **** * Copyright (2018), Cypress Semiconductor Corporation. All rights reserved.
  17:display_task.c **** *******************************************************************************
  18:display_task.c **** * This software, including source code, documentation and related materials
  19:display_task.c **** * (“Software”), is owned by Cypress Semiconductor Corporation or one of its
  20:display_task.c **** * subsidiaries (“Cypress”) and is protected by and subject to worldwide patent
  21:display_task.c **** * protection (United States and foreign), United States copyright laws and
  22:display_task.c **** * international treaty provisions. Therefore, you may use this Software only
  23:display_task.c **** * as provided in the license agreement accompanying the software package from
  24:display_task.c **** * which you obtained this Software (“EULA”).
  25:display_task.c **** *
  26:display_task.c **** * If no EULA applies, Cypress hereby grants you a personal, nonexclusive,
  27:display_task.c **** * non-transferable license to copy, modify, and compile the Software source
  28:display_task.c **** * code solely for use in connection with Cypress’s integrated circuit products.
  29:display_task.c **** * Any reproduction, modification, translation, compilation, or representation
  30:display_task.c **** * of this Software except as specified above is prohibited without the express
ARM GAS  C:\Users\codyg\AppData\Local\Temp\ccmkwGi3.s 			page 2


  31:display_task.c **** * written permission of Cypress.
  32:display_task.c **** *
  33:display_task.c **** * Disclaimer: THIS SOFTWARE IS PROVIDED AS-IS, WITH NO WARRANTY OF ANY KIND, 
  34:display_task.c **** * EXPRESS OR IMPLIED, INCLUDING, BUT NOT LIMITED TO, NONINFRINGEMENT, IMPLIED 
  35:display_task.c **** * WARRANTIES OF MERCHANTABILITY AND FITNESS FOR A PARTICULAR PURPOSE. Cypress 
  36:display_task.c **** * reserves the right to make changes to the Software without notice. Cypress 
  37:display_task.c **** * does not assume any liability arising out of the application or use of the 
  38:display_task.c **** * Software or any product or circuit described in the Software. Cypress does 
  39:display_task.c **** * not authorize its products for use in any products where a malfunction or 
  40:display_task.c **** * failure of the Cypress product may reasonably be expected to result in 
  41:display_task.c **** * significant property damage, injury or death (“High Risk Product”). By 
  42:display_task.c **** * including Cypress’s product in a High Risk Product, the manufacturer of such 
  43:display_task.c **** * system or application assumes all risk of such use and in doing so agrees to 
  44:display_task.c **** * indemnify Cypress against all liability.
  45:display_task.c **** *******************************************************************************/
  46:display_task.c **** /******************************************************************************
  47:display_task.c **** * This file contains the task that initialize the E-INK display, shows the 
  48:display_task.c **** * instructions to use this code example at startup and frequenly refreshes the
  49:display_task.c **** * display to show temperature
  50:display_task.c **** *
  51:display_task.c **** * For the details of the E-INK display and library functions, see the code 
  52:display_task.c **** * example CE218133 - PSoC 6 MCU E-INK Display with CapSense
  53:display_task.c **** *******************************************************************************/
  54:display_task.c **** 
  55:display_task.c **** /* Header file includes */
  56:display_task.c **** #include <math.h>
  57:display_task.c **** #include <string.h>
  58:display_task.c **** #include "display_task.h"
  59:display_task.c **** #include "screen_contents.h"
  60:display_task.c **** #include "cy_eink_library.h"
  61:display_task.c **** #include "temperature_task.h"
  62:display_task.c **** #include "uart_debug.h"
  63:display_task.c **** #include "task.h" 
  64:display_task.c **** #include "timers.h"
  65:display_task.c **** 
  66:display_task.c **** /* Two frame buffers are used in this project since the E-INK display requires
  67:display_task.c ****    the storage of the previous as well as the current frame. See Appendix A
  68:display_task.c ****    of the the code example document of CE218133 - PSoC 6 MCU E-INK Display with 
  69:display_task.c ****    CapSense for details */
  70:display_task.c **** #define NUMBER_OF_FRAME_BUFFERS        (uint8_t) (2u)
  71:display_task.c **** /* Character string size used to store temperature value */
  72:display_task.c **** #define TEMPERATURE_STRING_SIZE        (uint8_t) (10u)
  73:display_task.c **** /* Macro used to convert the temperature to two digit decimal values */
  74:display_task.c **** #define DECIMAL_2DIGIT_SCALER          (uint8_t) (100u)
  75:display_task.c **** 
  76:display_task.c **** /* Enumerated data type used to identify the frame buffers */
  77:display_task.c **** typedef enum 
  78:display_task.c **** {
  79:display_task.c ****     BUFFER0 = (0x00u),
  80:display_task.c ****     BUFFER1 = (0x01u)
  81:display_task.c **** }   frame_buffer_t;
  82:display_task.c **** 
  83:display_task.c **** /* Variable that stores the current frame buffer being used */
  84:display_task.c **** frame_buffer_t      currentFrameBuffer  = BUFFER0;
  85:display_task.c **** 
  86:display_task.c **** /* Frame buffers used by the display update functions. See Appendix A of the 
  87:display_task.c ****    the code example document of CE218133 - PSoC 6 MCU E-INK Display with 
ARM GAS  C:\Users\codyg\AppData\Local\Temp\ccmkwGi3.s 			page 3


  88:display_task.c ****    CapSense for details of frame buffers */
  89:display_task.c **** cy_eink_frame_t     frameBuffer[NUMBER_OF_FRAME_BUFFERS]
  90:display_task.c ****                                [CY_EINK_FRAME_SIZE];
  91:display_task.c **** /* Variable that stores the pointer to the current frame being displayed */
  92:display_task.c **** cy_eink_frame_t*    currentFrame =  CY_EINK_WHITE_FRAME;
  93:display_task.c **** 
  94:display_task.c **** /* Ambient temperature is defined at 25c, since the thermistor circuit is
  95:display_task.c ****    used for health themometer */
  96:display_task.c **** #define AMBIENT_TEMPERATURE     (int8_t)(25u)
  97:display_task.c **** 
  98:display_task.c **** /* Function used to register the E-INK delay call back */
  99:display_task.c **** void static DelayMs(uint32_t delayInMs)  {vTaskDelay(pdMS_TO_TICKS(delayInMs));}
  28              		.loc 1 99 0
  29              		.cfi_startproc
  30              		@ args = 0, pretend = 0, frame = 0
  31              		@ frame_needed = 0, uses_anonymous_args = 0
  32              	.LVL0:
  33 0000 08B5     		push	{r3, lr}
  34              		.cfi_def_cfa_offset 8
  35              		.cfi_offset 3, -8
  36              		.cfi_offset 14, -4
  37              		.loc 1 99 0
  38 0002 4FF47A73 		mov	r3, #1000
  39 0006 03FB00F0 		mul	r0, r3, r0
  40              	.LVL1:
  41 000a 034B     		ldr	r3, .L3
  42 000c A3FB0030 		umull	r3, r0, r3, r0
  43 0010 8009     		lsrs	r0, r0, #6
  44 0012 FFF7FEFF 		bl	vTaskDelay
  45              	.LVL2:
  46 0016 08BD     		pop	{r3, pc}
  47              	.L4:
  48              		.align	2
  49              	.L3:
  50 0018 D34D6210 		.word	274877907
  51              		.cfi_endproc
  52              	.LFE522:
  53              		.size	DelayMs, .-DelayMs
  54              		.section	.text.Task_Display,"ax",%progbits
  55              		.align	2
  56              		.global	Task_Display
  57              		.thumb
  58              		.thumb_func
  59              		.type	Task_Display, %function
  60              	Task_Display:
  61              	.LFB523:
 100:display_task.c **** 
 101:display_task.c **** 
 102:display_task.c **** /*******************************************************************************
 103:display_task.c **** * Task Name  : Task_Display
 104:display_task.c **** ********************************************************************************
 105:display_task.c **** *
 106:display_task.c **** * Summary:
 107:display_task.c **** *  This Task combines text and logo/heading images using a frame buffer and then
 108:display_task.c **** *  writes the frame buffer to the E-INK display to show the instructions to use
 109:display_task.c **** *  this code example. In addition, this task frequenly refreshes the display to
 110:display_task.c **** *  show temperature
ARM GAS  C:\Users\codyg\AppData\Local\Temp\ccmkwGi3.s 			page 4


 111:display_task.c **** *
 112:display_task.c **** * Task Handle: None
 113:display_task.c **** *                                                    
 114:display_task.c **** *******************************************************************************/
 115:display_task.c **** void Task_Display (void *pvParameters)
 116:display_task.c **** {  
  62              		.loc 1 116 0
  63              		.cfi_startproc
  64              		@ args = 0, pretend = 0, frame = 32
  65              		@ frame_needed = 0, uses_anonymous_args = 0
  66              	.LVL3:
  67 0000 F0B5     		push	{r4, r5, r6, r7, lr}
  68              		.cfi_def_cfa_offset 20
  69              		.cfi_offset 4, -20
  70              		.cfi_offset 5, -16
  71              		.cfi_offset 6, -12
  72              		.cfi_offset 7, -8
  73              		.cfi_offset 14, -4
  74 0002 89B0     		sub	sp, sp, #36
  75              		.cfi_def_cfa_offset 56
  76              	.LVL4:
 117:display_task.c ****     /* Variable used to store the return values of RTOS APIs */
 118:display_task.c ****     BaseType_t rtosApiResult;
 119:display_task.c ****     
 120:display_task.c ****     /* Flag that indicates if the E-INK display has been detected */
 121:display_task.c ****     cy_eink_api_result displayDetected = CY_EINK_FAILURE;
 122:display_task.c **** 
 123:display_task.c ****     /* Variable that store text to be printed */
 124:display_task.c ****     char static tempSting[TEMPERATURE_STRING_SIZE];
 125:display_task.c ****     
 126:display_task.c ****     /* Variables used to convert the string to printable format */
 127:display_task.c ****     int8  decimal;
 128:display_task.c ****     int8  fraction;
 129:display_task.c ****     int16 temp;
 130:display_task.c **** 
 131:display_task.c ****     /* Coordinates at which the background image is cropped before loading to 
 132:display_task.c ****        the frame buffers. In this project, the entire frame is copied to 
 133:display_task.c ****        initialize the frame buffers with calender and clock icons and to clear 
 134:display_task.c ****        the text area with white pixels */
 135:display_task.c ****     uint8 const  fullFrameCoordinates[] =   {0, 33, 0, 175};
  77              		.loc 1 135 0
  78 0004 574B     		ldr	r3, .L13
  79 0006 1868     		ldr	r0, [r3]	@ unaligned
  80              	.LVL5:
  81 0008 0790     		str	r0, [sp, #28]	@ unaligned
 136:display_task.c **** 
 137:display_task.c ****     /* Variable that counts the number of frame buffers initialized */
 138:display_task.c ****     uint8 static buffersFilled  = 0u;
 139:display_task.c ****     
 140:display_task.c ****     /* Variable that stores temperature value */
 141:display_task.c ****     float temperature;
 142:display_task.c **** 
 143:display_task.c ****     /* Remove warning for unused parameter */
 144:display_task.c ****     (void)pvParameters ;
 145:display_task.c ****     
 146:display_task.c ****     /* Initialize the E-INK display hardware with the ambient temperature 
 147:display_task.c ****        value and the delay function pointer */
ARM GAS  C:\Users\codyg\AppData\Local\Temp\ccmkwGi3.s 			page 5


 148:display_task.c ****     if(Cy_EINK_Start(AMBIENT_TEMPERATURE, DelayMs) == CY_EINK_SUCCESS)
  82              		.loc 1 148 0
  83 000a 5749     		ldr	r1, .L13+4
  84 000c 1920     		movs	r0, #25
  85 000e FFF7FEFF 		bl	Cy_EINK_Start
  86              	.LVL6:
  87 0012 50B9     		cbnz	r0, .L7
 149:display_task.c ****     {
 150:display_task.c ****         Task_DebugPrintf("Success  : Display - Cy_EINK_Start API", 0u);
 151:display_task.c **** 
 152:display_task.c ****         /* Power on the display and check if the operation was successful */
 153:display_task.c ****         displayDetected = Cy_EINK_Power(CY_EINK_ON);
  88              		.loc 1 153 0
  89 0014 0120     		movs	r0, #1
  90 0016 FFF7FEFF 		bl	Cy_EINK_Power
  91              	.LVL7:
 154:display_task.c ****         
 155:display_task.c ****          /* Do this only if the E-INK display has been detected */
 156:display_task.c ****         if(displayDetected == CY_EINK_SUCCESS)
  92              		.loc 1 156 0
  93 001a 30B9     		cbnz	r0, .L7
 157:display_task.c ****         { 
 158:display_task.c ****             Cy_EINK_Clear(CY_EINK_WHITE_BACKGROUND,CY_EINK_POWER_MANUAL);
  94              		.loc 1 158 0
  95 001c 0021     		movs	r1, #0
  96 001e 0120     		movs	r0, #1
  97              	.LVL8:
  98 0020 FFF7FEFF 		bl	Cy_EINK_Clear
  99              	.LVL9:
 159:display_task.c ****             Cy_EINK_Power(CY_EINK_OFF);
 100              		.loc 1 159 0
 101 0024 0020     		movs	r0, #0
 102 0026 FFF7FEFF 		bl	Cy_EINK_Power
 103              	.LVL10:
 104              	.L7:
 160:display_task.c ****         }
 161:display_task.c ****         else
 162:display_task.c ****         {
 163:display_task.c ****             Task_DebugPrintf("Failure! : Display - E-INK display power on ", 0u);
 164:display_task.c ****         }                
 165:display_task.c ****     }
 166:display_task.c ****     else
 167:display_task.c ****     {
 168:display_task.c ****         Task_DebugPrintf("Failure! : Display - Cy_EINK_Start API", 0u);
 169:display_task.c ****     }
 170:display_task.c ****     
 171:display_task.c ****     /* Repeatedly running part of the task */
 172:display_task.c ****     for(;;)
 173:display_task.c ****     {
 174:display_task.c ****         /* Block until a command has been received over 
 175:display_task.c ****            temperatureDataQ */
 176:display_task.c ****         rtosApiResult = xQueueReceive(temperatureDataQ, &temperature,
 105              		.loc 1 176 0
 106 002a 0023     		movs	r3, #0
 107 002c 4FF0FF32 		mov	r2, #-1
 108 0030 06A9     		add	r1, sp, #24
 109 0032 4E48     		ldr	r0, .L13+8
ARM GAS  C:\Users\codyg\AppData\Local\Temp\ccmkwGi3.s 			page 6


 110 0034 0068     		ldr	r0, [r0]
 111 0036 FFF7FEFF 		bl	xQueueGenericReceive
 112              	.LVL11:
 177:display_task.c ****                         portMAX_DELAY);
 178:display_task.c ****         
 179:display_task.c ****          /* Command has been received from temperatureDataQ */ 
 180:display_task.c ****         if(rtosApiResult == pdTRUE)   
 113              		.loc 1 180 0
 114 003a 0128     		cmp	r0, #1
 115 003c F5D1     		bne	.L7
 116              	.LBB2:
 181:display_task.c ****         {
 182:display_task.c ****             /* Two frame buffers are used in this project since the E-INK 
 183:display_task.c ****                display requires the retention of the previous as well as the 
 184:display_task.c ****                current frame. The code below finds the frame buffer used in the 
 185:display_task.c ****                previous update and selects the other frame buffer to be 
 186:display_task.c ****                overwritten by the current operation */
 187:display_task.c ****             if (currentFrameBuffer == BUFFER0)
 117              		.loc 1 187 0
 118 003e 4C4B     		ldr	r3, .L13+12
 119 0040 1B78     		ldrb	r3, [r3]	@ zero_extendqisi2
 120 0042 1BB9     		cbnz	r3, .L8
 188:display_task.c ****             {
 189:display_task.c ****                 currentFrameBuffer = BUFFER1;
 121              		.loc 1 189 0
 122 0044 0122     		movs	r2, #1
 123 0046 4A4B     		ldr	r3, .L13+12
 124 0048 1A70     		strb	r2, [r3]
 125 004a 02E0     		b	.L9
 126              	.L8:
 190:display_task.c ****             }
 191:display_task.c ****             else
 192:display_task.c ****             {
 193:display_task.c ****                 currentFrameBuffer = BUFFER0;
 127              		.loc 1 193 0
 128 004c 0022     		movs	r2, #0
 129 004e 484B     		ldr	r3, .L13+12
 130 0050 1A70     		strb	r2, [r3]
 131              	.L9:
 194:display_task.c ****             }
 195:display_task.c ****             
 196:display_task.c ****             /* Initialize the current frame buffer being used with the 
 197:display_task.c ****                background image and the instructions (text), if both the frame 
 198:display_task.c ****                buffers are not initialized already */
 199:display_task.c ****             if (buffersFilled < NUMBER_OF_FRAME_BUFFERS)
 132              		.loc 1 199 0
 133 0052 474B     		ldr	r3, .L13+12
 134 0054 5B78     		ldrb	r3, [r3, #1]	@ zero_extendqisi2
 135 0056 012B     		cmp	r3, #1
 136 0058 40D8     		bhi	.L10
 137              	.LBB3:
 200:display_task.c ****             {
 201:display_task.c ****                 /* Text fields used in this project start printing from these 
 202:display_task.c ****                    coordinates. See Appendix A of the code example document of 
 203:display_task.c ****                    CE218133 - PSoC 6 MCU E-INK Display with CapSense for the  
 204:display_task.c ****                    details of font size and text coordinate formats */
 205:display_task.c ****                 uint8 const  note1Origin[]          =   {0x15u, 0x00u};
ARM GAS  C:\Users\codyg\AppData\Local\Temp\ccmkwGi3.s 			page 7


 138              		.loc 1 205 0
 139 005a 1523     		movs	r3, #21
 140 005c 8DF80830 		strb	r3, [sp, #8]
 141 0060 0023     		movs	r3, #0
 142 0062 8DF80930 		strb	r3, [sp, #9]
 206:display_task.c ****                 uint8 const  note2Origin[]          =   {0x15u, 0x01u};
 143              		.loc 1 206 0
 144 0066 3F4A     		ldr	r2, .L13
 145 0068 9188     		ldrh	r1, [r2, #4]	@ unaligned
 146 006a ADF80C10 		strh	r1, [sp, #12]	@ unaligned
 207:display_task.c ****                 uint8 const  note3Origin[]          =   {0x15u, 0x02u};
 147              		.loc 1 207 0
 148 006e 1289     		ldrh	r2, [r2, #8]	@ unaligned
 149 0070 ADF81020 		strh	r2, [sp, #16]	@ unaligned
 208:display_task.c ****                 uint8 const  instructionOrigin[]    =   {0x00u, 0x04u};
 150              		.loc 1 208 0
 151 0074 8DF81430 		strb	r3, [sp, #20]
 152 0078 0423     		movs	r3, #4
 153 007a 8DF81530 		strb	r3, [sp, #21]
 209:display_task.c ****                 
 210:display_task.c ****                 /* Load the images and text fields into the framebuffer */
 211:display_task.c ****                 Cy_EINK_ImageToFrameBuffer(frameBuffer[currentFrameBuffer],
 154              		.loc 1 211 0
 155 007e 3C4C     		ldr	r4, .L13+12
 156 0080 2078     		ldrb	r0, [r4]	@ zero_extendqisi2
 157              	.LVL12:
 158 0082 41F2B066 		movw	r6, #5808
 159 0086 3B4D     		ldr	r5, .L13+16
 160 0088 07AA     		add	r2, sp, #28
 161 008a 3B49     		ldr	r1, .L13+20
 162 008c 06FB0050 		mla	r0, r6, r0, r5
 163 0090 FFF7FEFF 		bl	Cy_EINK_ImageToFrameBuffer
 164              	.LVL13:
 212:display_task.c ****                                            (uint8*)background,
 213:display_task.c ****                                            (uint8*)fullFrameCoordinates); 
 214:display_task.c ****                 Cy_EINK_TextToFrameBuffer(frameBuffer[currentFrameBuffer], 
 165              		.loc 1 214 0
 166 0094 2078     		ldrb	r0, [r4]	@ zero_extendqisi2
 167 0096 394F     		ldr	r7, .L13+24
 168 0098 02AB     		add	r3, sp, #8
 169 009a 3A46     		mov	r2, r7
 170 009c 3849     		ldr	r1, .L13+28
 171 009e 06FB0050 		mla	r0, r6, r0, r5
 172 00a2 FFF7FEFF 		bl	Cy_EINK_TextToFrameBuffer
 173              	.LVL14:
 215:display_task.c ****                                           (char*)note1, CY_EINK_FONT_8X12BLACK,
 216:display_task.c ****                                           (uint8*)note1Origin); 
 217:display_task.c ****                 Cy_EINK_TextToFrameBuffer(frameBuffer[currentFrameBuffer],
 174              		.loc 1 217 0
 175 00a6 2078     		ldrb	r0, [r4]	@ zero_extendqisi2
 176 00a8 03AB     		add	r3, sp, #12
 177 00aa 3A46     		mov	r2, r7
 178 00ac 3549     		ldr	r1, .L13+32
 179 00ae 06FB0050 		mla	r0, r6, r0, r5
 180 00b2 FFF7FEFF 		bl	Cy_EINK_TextToFrameBuffer
 181              	.LVL15:
 218:display_task.c ****                                           (char*)note2, CY_EINK_FONT_8X12BLACK,
ARM GAS  C:\Users\codyg\AppData\Local\Temp\ccmkwGi3.s 			page 8


 219:display_task.c ****                                           (uint8*)note2Origin);
 220:display_task.c ****                 Cy_EINK_TextToFrameBuffer(frameBuffer[currentFrameBuffer],
 182              		.loc 1 220 0
 183 00b6 2078     		ldrb	r0, [r4]	@ zero_extendqisi2
 184 00b8 04AB     		add	r3, sp, #16
 185 00ba 3A46     		mov	r2, r7
 186 00bc 3249     		ldr	r1, .L13+36
 187 00be 06FB0050 		mla	r0, r6, r0, r5
 188 00c2 FFF7FEFF 		bl	Cy_EINK_TextToFrameBuffer
 189              	.LVL16:
 221:display_task.c ****                                           (char*)note3, CY_EINK_FONT_8X12BLACK,
 222:display_task.c ****                                           (uint8*)note3Origin); 
 223:display_task.c ****                 Cy_EINK_TextToFrameBuffer(frameBuffer[currentFrameBuffer],
 190              		.loc 1 223 0
 191 00c6 2078     		ldrb	r0, [r4]	@ zero_extendqisi2
 192 00c8 05AB     		add	r3, sp, #20
 193 00ca 3A46     		mov	r2, r7
 194 00cc 2F49     		ldr	r1, .L13+40
 195 00ce 06FB0050 		mla	r0, r6, r0, r5
 196 00d2 FFF7FEFF 		bl	Cy_EINK_TextToFrameBuffer
 197              	.LVL17:
 224:display_task.c ****                                           (char*)instructions, 
 225:display_task.c ****                                           CY_EINK_FONT_8X12BLACK,
 226:display_task.c ****                                           (uint8*)instructionOrigin); 
 227:display_task.c ****                 buffersFilled++;
 198              		.loc 1 227 0
 199 00d6 6378     		ldrb	r3, [r4, #1]	@ zero_extendqisi2
 200 00d8 0133     		adds	r3, r3, #1
 201 00da 6370     		strb	r3, [r4, #1]
 202              	.L10:
 203              	.LBE3:
 228:display_task.c ****             }    
 229:display_task.c **** 
 230:display_task.c ****             /* Covert temperature data to string */
 231:display_task.c ****             temp     = roundf(temperature*DECIMAL_2DIGIT_SCALER);
 204              		.loc 1 231 0 discriminator 1
 205 00dc DFED2C7A 		vldr.32	s15, .L13+44
 206 00e0 9DED067A 		vldr.32	s14, [sp, #24]
 207 00e4 67EE277A 		vmul.f32	s15, s14, s15
 208 00e8 17EE900A 		vmov	r0, s15
 209 00ec FFF7FEFF 		bl	roundf
 210              	.LVL18:
 211 00f0 07EE900A 		vmov	s15, r0
 212 00f4 FDEEE77A 		vcvt.s32.f32	s15, s15
 213 00f8 CDED017A 		vstr.32	s15, [sp, #4]	@ int
 214 00fc BDF90410 		ldrsh	r1, [sp, #4]
 215              	.LVL19:
 232:display_task.c ****             decimal  = temp/DECIMAL_2DIGIT_SCALER;
 216              		.loc 1 232 0 discriminator 1
 217 0100 244A     		ldr	r2, .L13+48
 218 0102 82FB0132 		smull	r3, r2, r2, r1
 219 0106 CB17     		asrs	r3, r1, #31
 220 0108 C3EB6212 		rsb	r2, r3, r2, asr #5
 221              	.LVL20:
 233:display_task.c ****             fraction = (int8_t)(abs(temp%DECIMAL_2DIGIT_SCALER));
 222              		.loc 1 233 0 discriminator 1
 223 010c 6423     		movs	r3, #100
ARM GAS  C:\Users\codyg\AppData\Local\Temp\ccmkwGi3.s 			page 9


 224 010e 03FB1213 		mls	r3, r3, r2, r1
 225 0112 1BB2     		sxth	r3, r3
 226 0114 002B     		cmp	r3, #0
 227 0116 B8BF     		it	lt
 228 0118 5B42     		rsblt	r3, r3, #0
 229              	.LVL21:
 234:display_task.c ****             sprintf (tempSting,"%3d.%02d",decimal,fraction);
 230              		.loc 1 234 0 discriminator 1
 231 011a 154C     		ldr	r4, .L13+12
 232 011c 271D     		adds	r7, r4, #4
 233 011e 5BB2     		sxtb	r3, r3
 234 0120 52B2     		sxtb	r2, r2
 235 0122 1D49     		ldr	r1, .L13+52
 236              	.LVL22:
 237 0124 3846     		mov	r0, r7
 238 0126 FFF7FEFF 		bl	sprintf
 239              	.LVL23:
 235:display_task.c ****             
 236:display_task.c ****             /* Coordinate at which the temperature value is printed */
 237:display_task.c ****             uint8 const  tempOrigin[] =   {0x02u, 0x01u};
 240              		.loc 1 237 0 discriminator 1
 241 012a 1C4B     		ldr	r3, .L13+56
 242 012c 1B88     		ldrh	r3, [r3]	@ unaligned
 243 012e ADF81430 		strh	r3, [sp, #20]	@ unaligned
 238:display_task.c ****             
 239:display_task.c ****             /* Load the frame buffer with the string that stores temperature 
 240:display_task.c ****                data */
 241:display_task.c ****             Cy_EINK_TextToFrameBuffer(frameBuffer[currentFrameBuffer], 
 244              		.loc 1 241 0 discriminator 1
 245 0132 2078     		ldrb	r0, [r4]	@ zero_extendqisi2
 246 0134 41F2B066 		movw	r6, #5808
 247 0138 0E4D     		ldr	r5, .L13+16
 248 013a 05AB     		add	r3, sp, #20
 249 013c 184A     		ldr	r2, .L13+60
 250 013e 3946     		mov	r1, r7
 251 0140 06FB0050 		mla	r0, r6, r0, r5
 252 0144 FFF7FEFF 		bl	Cy_EINK_TextToFrameBuffer
 253              	.LVL24:
 242:display_task.c ****                                       tempSting, CY_EINK_FONT_16X16BLACK,
 243:display_task.c ****                                       (uint8_t*)tempOrigin);
 244:display_task.c **** 
 245:display_task.c ****             /* Update the display with the current frame */
 246:display_task.c ****             Cy_EINK_ShowFrame(currentFrame, frameBuffer[currentFrameBuffer],
 254              		.loc 1 246 0 discriminator 1
 255 0148 2178     		ldrb	r1, [r4]	@ zero_extendqisi2
 256 014a 0123     		movs	r3, #1
 257 014c 0222     		movs	r2, #2
 258 014e 06FB0151 		mla	r1, r6, r1, r5
 259 0152 2069     		ldr	r0, [r4, #16]
 260 0154 FFF7FEFF 		bl	Cy_EINK_ShowFrame
 261              	.LVL25:
 247:display_task.c ****                               CY_EINK_FULL_2STAGE, CY_EINK_POWER_AUTO);
 248:display_task.c ****             
 249:display_task.c ****             /* Store the pointer to the current frame, which is required for 
 250:display_task.c ****                subsequent updates */
 251:display_task.c ****             currentFrame = frameBuffer[currentFrameBuffer];
 262              		.loc 1 251 0 discriminator 1
ARM GAS  C:\Users\codyg\AppData\Local\Temp\ccmkwGi3.s 			page 10


 263 0158 2378     		ldrb	r3, [r4]	@ zero_extendqisi2
 264 015a 06FB0353 		mla	r3, r6, r3, r5
 265 015e 2361     		str	r3, [r4, #16]
 266 0160 63E7     		b	.L7
 267              	.L14:
 268 0162 00BF     		.align	2
 269              	.L13:
 270 0164 00000000 		.word	.LANCHOR0
 271 0168 00000000 		.word	DelayMs
 272 016c 00000000 		.word	temperatureDataQ
 273 0170 00000000 		.word	.LANCHOR1
 274 0174 00000000 		.word	frameBuffer
 275 0178 00000000 		.word	background
 276 017c 00000000 		.word	cy_eink_font8By12_blackInWhite
 277 0180 00000000 		.word	note1
 278 0184 00000000 		.word	note2
 279 0188 00000000 		.word	note3
 280 018c 00000000 		.word	instructions
 281 0190 0000C842 		.word	1120403456
 282 0194 1F85EB51 		.word	1374389535
 283 0198 00000000 		.word	.LC4
 284 019c 0C000000 		.word	.LANCHOR0+12
 285 01a0 00000000 		.word	cy_eink_font16By16_blackInWhite
 286              	.LBE2:
 287              		.cfi_endproc
 288              	.LFE523:
 289              		.size	Task_Display, .-Task_Display
 290              		.global	currentFrame
 291              		.comm	frameBuffer,11616,4
 292              		.global	currentFrameBuffer
 293              		.section	.rodata
 294              		.align	2
 295              		.set	.LANCHOR0,. + 0
 296              	.LC0:
 297 0000 00       		.byte	0
 298 0001 21       		.byte	33
 299 0002 00       		.byte	0
 300 0003 AF       		.byte	-81
 301              	.LC1:
 302 0004 15       		.byte	21
 303 0005 01       		.byte	1
 304 0006 0000     		.space	2
 305              	.LC2:
 306 0008 15       		.byte	21
 307 0009 02       		.byte	2
 308 000a 0000     		.space	2
 309              	.LC3:
 310 000c 02       		.byte	2
 311 000d 01       		.byte	1
 312              		.section	.rodata.str1.4,"aMS",%progbits,1
 313              		.align	2
 314              	.LC4:
 315 0000 2533642E 		.ascii	"%3d.%02d\000"
 315      25303264 
 315      00
 316              		.bss
 317              		.align	2
ARM GAS  C:\Users\codyg\AppData\Local\Temp\ccmkwGi3.s 			page 11


 318              		.set	.LANCHOR1,. + 0
 319              		.type	currentFrameBuffer, %object
 320              		.size	currentFrameBuffer, 1
 321              	currentFrameBuffer:
 322 0000 00       		.space	1
 323              		.type	buffersFilled.19448, %object
 324              		.size	buffersFilled.19448, 1
 325              	buffersFilled.19448:
 326 0001 00       		.space	1
 327 0002 0000     		.space	2
 328              		.type	tempSting.19443, %object
 329              		.size	tempSting.19443, 10
 330              	tempSting.19443:
 331 0004 00000000 		.space	10
 331      00000000 
 331      0000
 332 000e 0000     		.space	2
 333              		.type	currentFrame, %object
 334              		.size	currentFrame, 4
 335              	currentFrame:
 336 0010 00000000 		.space	4
 337              		.text
 338              	.Letext0:
 339              		.file 2 "c:\\program files (x86)\\cypress\\psoc creator\\4.2\\psoc creator\\import\\gnu\\arm\\5.4.
 340              		.file 3 "c:\\program files (x86)\\cypress\\psoc creator\\4.2\\psoc creator\\import\\gnu\\arm\\5.4.
 341              		.file 4 "Generated_Source\\PSoC6\\pdl\\drivers/peripheral/syslib/cy_syslib.h"
 342              		.file 5 "Generated_Source\\PSoC6\\pdl\\drivers/peripheral/scb/cy_scb_spi.h"
 343              		.file 6 "Generated_Source\\PSoC6\\pdl\\drivers/peripheral/sar/cy_sar.h"
 344              		.file 7 "Generated_Source\\PSoC6\\pdl\\middleware/ble/cy_ble_stack.h"
 345              		.file 8 "Generated_Source\\PSoC6\\pdl\\middleware/ble/cy_ble_stack_host_main.h"
 346              		.file 9 "Generated_Source\\PSoC6\\pdl\\middleware/ble/cy_ble_gap.h"
 347              		.file 10 "Generated_Source\\PSoC6\\pdl\\middleware/ble/cy_ble_dis.h"
 348              		.file 11 "Generated_Source\\PSoC6\\pdl\\middleware/ble/cy_ble_hts.h"
 349              		.file 12 "Generated_Source\\PSoC6\\pdl\\middleware/ble/cy_ble_event_handler.h"
 350              		.file 13 "Generated_Source\\PSoC6/ADC.h"
 351              		.file 14 "Generated_Source\\PSoC6\\pdl\\rtos/FreeRTOS/9.0.0/Source/portable/GCC/CM4F/portmacro.h"
 352              		.file 15 "Generated_Source\\PSoC6\\pdl\\rtos/FreeRTOS/9.0.0/Source/include/queue.h"
 353              		.file 16 ".\\cy_eink_library/cy_eink_fonts.h"
 354              		.file 17 ".\\cy_eink_library/pervasive_eink_hardware_driver.h"
 355              		.file 18 ".\\cy_eink_library/cy_eink_library.h"
 356              		.file 19 "Generated_Source\\PSoC6\\pdl\\cmsis/include/core_cm4.h"
 357              		.file 20 "Generated_Source\\PSoC6/CY_EINK_SPIM.h"
 358              		.file 21 "screen_contents.h"
 359              		.file 22 "temperature_task.h"
 360              		.file 23 "Generated_Source\\PSoC6\\pdl\\rtos/FreeRTOS/9.0.0/Source/include/task.h"
 361              		.file 24 "c:\\program files (x86)\\cypress\\psoc creator\\4.2\\psoc creator\\import\\gnu\\arm\\5.4
 362              		.file 25 "c:\\program files (x86)\\cypress\\psoc creator\\4.2\\psoc creator\\import\\gnu\\arm\\5.4