ARM GAS  C:\Users\codyg\AppData\Local\Temp\cch9SNiH.s 			page 1


   1              		.syntax unified
   2              		.cpu cortex-m4
   3              		.eabi_attribute 27, 1
   4              		.fpu fpv4-sp-d16
   5              		.eabi_attribute 20, 1
   6              		.eabi_attribute 21, 1
   7              		.eabi_attribute 23, 3
   8              		.eabi_attribute 24, 1
   9              		.eabi_attribute 25, 1
  10              		.eabi_attribute 26, 1
  11              		.eabi_attribute 30, 1
  12              		.eabi_attribute 34, 1
  13              		.eabi_attribute 18, 4
  14              		.thumb
  15              		.syntax unified
  16              		.file	"event_groups.c"
  17              		.text
  18              	.Ltext0:
  19              		.cfi_sections	.debug_frame
  20              		.section	.text.prvTestWaitCondition,"ax",%progbits
  21              		.align	2
  22              		.thumb
  23              		.thumb_func
  24              		.type	prvTestWaitCondition, %function
  25              	prvTestWaitCondition:
  26              	.LFB530:
  27              		.file 1 "Generated_Source\\PSoC6\\pdl\\rtos\\FreeRTOS\\9.0.0\\Source\\event_groups.c"
   1:Generated_Source\PSoC6\pdl\rtos\FreeRTOS\9.0.0\Source/event_groups.c **** /*
   2:Generated_Source\PSoC6\pdl\rtos\FreeRTOS\9.0.0\Source/event_groups.c ****     FreeRTOS V9.0.0 - Copyright (C) 2016 Real Time Engineers Ltd.
   3:Generated_Source\PSoC6\pdl\rtos\FreeRTOS\9.0.0\Source/event_groups.c ****     All rights reserved
   4:Generated_Source\PSoC6\pdl\rtos\FreeRTOS\9.0.0\Source/event_groups.c **** 
   5:Generated_Source\PSoC6\pdl\rtos\FreeRTOS\9.0.0\Source/event_groups.c ****     VISIT http://www.FreeRTOS.org TO ENSURE YOU ARE USING THE LATEST VERSION.
   6:Generated_Source\PSoC6\pdl\rtos\FreeRTOS\9.0.0\Source/event_groups.c **** 
   7:Generated_Source\PSoC6\pdl\rtos\FreeRTOS\9.0.0\Source/event_groups.c ****     This file is part of the FreeRTOS distribution.
   8:Generated_Source\PSoC6\pdl\rtos\FreeRTOS\9.0.0\Source/event_groups.c **** 
   9:Generated_Source\PSoC6\pdl\rtos\FreeRTOS\9.0.0\Source/event_groups.c ****     FreeRTOS is free software; you can redistribute it and/or modify it under
  10:Generated_Source\PSoC6\pdl\rtos\FreeRTOS\9.0.0\Source/event_groups.c ****     the terms of the GNU General Public License (version 2) as published by the
  11:Generated_Source\PSoC6\pdl\rtos\FreeRTOS\9.0.0\Source/event_groups.c ****     Free Software Foundation >>>> AND MODIFIED BY <<<< the FreeRTOS exception.
  12:Generated_Source\PSoC6\pdl\rtos\FreeRTOS\9.0.0\Source/event_groups.c **** 
  13:Generated_Source\PSoC6\pdl\rtos\FreeRTOS\9.0.0\Source/event_groups.c ****     ***************************************************************************
  14:Generated_Source\PSoC6\pdl\rtos\FreeRTOS\9.0.0\Source/event_groups.c ****     >>!   NOTE: The modification to the GPL is included to allow you to     !<<
  15:Generated_Source\PSoC6\pdl\rtos\FreeRTOS\9.0.0\Source/event_groups.c ****     >>!   distribute a combined work that includes FreeRTOS without being   !<<
  16:Generated_Source\PSoC6\pdl\rtos\FreeRTOS\9.0.0\Source/event_groups.c ****     >>!   obliged to provide the source code for proprietary components     !<<
  17:Generated_Source\PSoC6\pdl\rtos\FreeRTOS\9.0.0\Source/event_groups.c ****     >>!   outside of the FreeRTOS kernel.                                   !<<
  18:Generated_Source\PSoC6\pdl\rtos\FreeRTOS\9.0.0\Source/event_groups.c ****     ***************************************************************************
  19:Generated_Source\PSoC6\pdl\rtos\FreeRTOS\9.0.0\Source/event_groups.c **** 
  20:Generated_Source\PSoC6\pdl\rtos\FreeRTOS\9.0.0\Source/event_groups.c ****     FreeRTOS is distributed in the hope that it will be useful, but WITHOUT ANY
  21:Generated_Source\PSoC6\pdl\rtos\FreeRTOS\9.0.0\Source/event_groups.c ****     WARRANTY; without even the implied warranty of MERCHANTABILITY or FITNESS
  22:Generated_Source\PSoC6\pdl\rtos\FreeRTOS\9.0.0\Source/event_groups.c ****     FOR A PARTICULAR PURPOSE.  Full license text is available on the following
  23:Generated_Source\PSoC6\pdl\rtos\FreeRTOS\9.0.0\Source/event_groups.c ****     link: http://www.freertos.org/a00114.html
  24:Generated_Source\PSoC6\pdl\rtos\FreeRTOS\9.0.0\Source/event_groups.c **** 
  25:Generated_Source\PSoC6\pdl\rtos\FreeRTOS\9.0.0\Source/event_groups.c ****     ***************************************************************************
  26:Generated_Source\PSoC6\pdl\rtos\FreeRTOS\9.0.0\Source/event_groups.c ****      *                                                                       *
  27:Generated_Source\PSoC6\pdl\rtos\FreeRTOS\9.0.0\Source/event_groups.c ****      *    FreeRTOS provides completely free yet professionally developed,    *
  28:Generated_Source\PSoC6\pdl\rtos\FreeRTOS\9.0.0\Source/event_groups.c ****      *    robust, strictly quality controlled, supported, and cross          *
  29:Generated_Source\PSoC6\pdl\rtos\FreeRTOS\9.0.0\Source/event_groups.c ****      *    platform software that is more than just the market leader, it     *
  30:Generated_Source\PSoC6\pdl\rtos\FreeRTOS\9.0.0\Source/event_groups.c ****      *    is the industry's de facto standard.                               *
ARM GAS  C:\Users\codyg\AppData\Local\Temp\cch9SNiH.s 			page 2


  31:Generated_Source\PSoC6\pdl\rtos\FreeRTOS\9.0.0\Source/event_groups.c ****      *                                                                       *
  32:Generated_Source\PSoC6\pdl\rtos\FreeRTOS\9.0.0\Source/event_groups.c ****      *    Help yourself get started quickly while simultaneously helping     *
  33:Generated_Source\PSoC6\pdl\rtos\FreeRTOS\9.0.0\Source/event_groups.c ****      *    to support the FreeRTOS project by purchasing a FreeRTOS           *
  34:Generated_Source\PSoC6\pdl\rtos\FreeRTOS\9.0.0\Source/event_groups.c ****      *    tutorial book, reference manual, or both:                          *
  35:Generated_Source\PSoC6\pdl\rtos\FreeRTOS\9.0.0\Source/event_groups.c ****      *    http://www.FreeRTOS.org/Documentation                              *
  36:Generated_Source\PSoC6\pdl\rtos\FreeRTOS\9.0.0\Source/event_groups.c ****      *                                                                       *
  37:Generated_Source\PSoC6\pdl\rtos\FreeRTOS\9.0.0\Source/event_groups.c ****     ***************************************************************************
  38:Generated_Source\PSoC6\pdl\rtos\FreeRTOS\9.0.0\Source/event_groups.c **** 
  39:Generated_Source\PSoC6\pdl\rtos\FreeRTOS\9.0.0\Source/event_groups.c ****     http://www.FreeRTOS.org/FAQHelp.html - Having a problem?  Start by reading
  40:Generated_Source\PSoC6\pdl\rtos\FreeRTOS\9.0.0\Source/event_groups.c ****     the FAQ page "My application does not run, what could be wrong?".  Have you
  41:Generated_Source\PSoC6\pdl\rtos\FreeRTOS\9.0.0\Source/event_groups.c ****     defined configASSERT()?
  42:Generated_Source\PSoC6\pdl\rtos\FreeRTOS\9.0.0\Source/event_groups.c **** 
  43:Generated_Source\PSoC6\pdl\rtos\FreeRTOS\9.0.0\Source/event_groups.c ****     http://www.FreeRTOS.org/support - In return for receiving this top quality
  44:Generated_Source\PSoC6\pdl\rtos\FreeRTOS\9.0.0\Source/event_groups.c ****     embedded software for free we request you assist our global community by
  45:Generated_Source\PSoC6\pdl\rtos\FreeRTOS\9.0.0\Source/event_groups.c ****     participating in the support forum.
  46:Generated_Source\PSoC6\pdl\rtos\FreeRTOS\9.0.0\Source/event_groups.c **** 
  47:Generated_Source\PSoC6\pdl\rtos\FreeRTOS\9.0.0\Source/event_groups.c ****     http://www.FreeRTOS.org/training - Investing in training allows your team to
  48:Generated_Source\PSoC6\pdl\rtos\FreeRTOS\9.0.0\Source/event_groups.c ****     be as productive as possible as early as possible.  Now you can receive
  49:Generated_Source\PSoC6\pdl\rtos\FreeRTOS\9.0.0\Source/event_groups.c ****     FreeRTOS training directly from Richard Barry, CEO of Real Time Engineers
  50:Generated_Source\PSoC6\pdl\rtos\FreeRTOS\9.0.0\Source/event_groups.c ****     Ltd, and the world's leading authority on the world's leading RTOS.
  51:Generated_Source\PSoC6\pdl\rtos\FreeRTOS\9.0.0\Source/event_groups.c **** 
  52:Generated_Source\PSoC6\pdl\rtos\FreeRTOS\9.0.0\Source/event_groups.c ****     http://www.FreeRTOS.org/plus - A selection of FreeRTOS ecosystem products,
  53:Generated_Source\PSoC6\pdl\rtos\FreeRTOS\9.0.0\Source/event_groups.c ****     including FreeRTOS+Trace - an indispensable productivity tool, a DOS
  54:Generated_Source\PSoC6\pdl\rtos\FreeRTOS\9.0.0\Source/event_groups.c ****     compatible FAT file system, and our tiny thread aware UDP/IP stack.
  55:Generated_Source\PSoC6\pdl\rtos\FreeRTOS\9.0.0\Source/event_groups.c **** 
  56:Generated_Source\PSoC6\pdl\rtos\FreeRTOS\9.0.0\Source/event_groups.c ****     http://www.FreeRTOS.org/labs - Where new FreeRTOS products go to incubate.
  57:Generated_Source\PSoC6\pdl\rtos\FreeRTOS\9.0.0\Source/event_groups.c ****     Come and try FreeRTOS+TCP, our new open source TCP/IP stack for FreeRTOS.
  58:Generated_Source\PSoC6\pdl\rtos\FreeRTOS\9.0.0\Source/event_groups.c **** 
  59:Generated_Source\PSoC6\pdl\rtos\FreeRTOS\9.0.0\Source/event_groups.c ****     http://www.OpenRTOS.com - Real Time Engineers ltd. license FreeRTOS to High
  60:Generated_Source\PSoC6\pdl\rtos\FreeRTOS\9.0.0\Source/event_groups.c ****     Integrity Systems ltd. to sell under the OpenRTOS brand.  Low cost OpenRTOS
  61:Generated_Source\PSoC6\pdl\rtos\FreeRTOS\9.0.0\Source/event_groups.c ****     licenses offer ticketed support, indemnification and commercial middleware.
  62:Generated_Source\PSoC6\pdl\rtos\FreeRTOS\9.0.0\Source/event_groups.c **** 
  63:Generated_Source\PSoC6\pdl\rtos\FreeRTOS\9.0.0\Source/event_groups.c ****     http://www.SafeRTOS.com - High Integrity Systems also provide a safety
  64:Generated_Source\PSoC6\pdl\rtos\FreeRTOS\9.0.0\Source/event_groups.c ****     engineered and independently SIL3 certified version for use in safety and
  65:Generated_Source\PSoC6\pdl\rtos\FreeRTOS\9.0.0\Source/event_groups.c ****     mission critical applications that require provable dependability.
  66:Generated_Source\PSoC6\pdl\rtos\FreeRTOS\9.0.0\Source/event_groups.c **** 
  67:Generated_Source\PSoC6\pdl\rtos\FreeRTOS\9.0.0\Source/event_groups.c ****     1 tab == 4 spaces!
  68:Generated_Source\PSoC6\pdl\rtos\FreeRTOS\9.0.0\Source/event_groups.c **** */
  69:Generated_Source\PSoC6\pdl\rtos\FreeRTOS\9.0.0\Source/event_groups.c **** 
  70:Generated_Source\PSoC6\pdl\rtos\FreeRTOS\9.0.0\Source/event_groups.c **** /* Standard includes. */
  71:Generated_Source\PSoC6\pdl\rtos\FreeRTOS\9.0.0\Source/event_groups.c **** #include <stdlib.h>
  72:Generated_Source\PSoC6\pdl\rtos\FreeRTOS\9.0.0\Source/event_groups.c **** 
  73:Generated_Source\PSoC6\pdl\rtos\FreeRTOS\9.0.0\Source/event_groups.c **** /* Defining MPU_WRAPPERS_INCLUDED_FROM_API_FILE prevents task.h from redefining
  74:Generated_Source\PSoC6\pdl\rtos\FreeRTOS\9.0.0\Source/event_groups.c **** all the API functions to use the MPU wrappers.  That should only be done when
  75:Generated_Source\PSoC6\pdl\rtos\FreeRTOS\9.0.0\Source/event_groups.c **** task.h is included from an application file. */
  76:Generated_Source\PSoC6\pdl\rtos\FreeRTOS\9.0.0\Source/event_groups.c **** #define MPU_WRAPPERS_INCLUDED_FROM_API_FILE
  77:Generated_Source\PSoC6\pdl\rtos\FreeRTOS\9.0.0\Source/event_groups.c **** 
  78:Generated_Source\PSoC6\pdl\rtos\FreeRTOS\9.0.0\Source/event_groups.c **** /* FreeRTOS includes. */
  79:Generated_Source\PSoC6\pdl\rtos\FreeRTOS\9.0.0\Source/event_groups.c **** #include "FreeRTOS.h"
  80:Generated_Source\PSoC6\pdl\rtos\FreeRTOS\9.0.0\Source/event_groups.c **** #include "task.h"
  81:Generated_Source\PSoC6\pdl\rtos\FreeRTOS\9.0.0\Source/event_groups.c **** #include "timers.h"
  82:Generated_Source\PSoC6\pdl\rtos\FreeRTOS\9.0.0\Source/event_groups.c **** #include "event_groups.h"
  83:Generated_Source\PSoC6\pdl\rtos\FreeRTOS\9.0.0\Source/event_groups.c **** 
  84:Generated_Source\PSoC6\pdl\rtos\FreeRTOS\9.0.0\Source/event_groups.c **** /* Lint e961 and e750 are suppressed as a MISRA exception justified because the
  85:Generated_Source\PSoC6\pdl\rtos\FreeRTOS\9.0.0\Source/event_groups.c **** MPU ports require MPU_WRAPPERS_INCLUDED_FROM_API_FILE to be defined for the
  86:Generated_Source\PSoC6\pdl\rtos\FreeRTOS\9.0.0\Source/event_groups.c **** header files above, but not in this file, in order to generate the correct
  87:Generated_Source\PSoC6\pdl\rtos\FreeRTOS\9.0.0\Source/event_groups.c **** privileged Vs unprivileged linkage and placement. */
ARM GAS  C:\Users\codyg\AppData\Local\Temp\cch9SNiH.s 			page 3


  88:Generated_Source\PSoC6\pdl\rtos\FreeRTOS\9.0.0\Source/event_groups.c **** #undef MPU_WRAPPERS_INCLUDED_FROM_API_FILE /*lint !e961 !e750. */
  89:Generated_Source\PSoC6\pdl\rtos\FreeRTOS\9.0.0\Source/event_groups.c **** 
  90:Generated_Source\PSoC6\pdl\rtos\FreeRTOS\9.0.0\Source/event_groups.c **** /* The following bit fields convey control information in a task's event list
  91:Generated_Source\PSoC6\pdl\rtos\FreeRTOS\9.0.0\Source/event_groups.c **** item value.  It is important they don't clash with the
  92:Generated_Source\PSoC6\pdl\rtos\FreeRTOS\9.0.0\Source/event_groups.c **** taskEVENT_LIST_ITEM_VALUE_IN_USE definition. */
  93:Generated_Source\PSoC6\pdl\rtos\FreeRTOS\9.0.0\Source/event_groups.c **** #if configUSE_16_BIT_TICKS == 1
  94:Generated_Source\PSoC6\pdl\rtos\FreeRTOS\9.0.0\Source/event_groups.c **** 	#define eventCLEAR_EVENTS_ON_EXIT_BIT	0x0100U
  95:Generated_Source\PSoC6\pdl\rtos\FreeRTOS\9.0.0\Source/event_groups.c **** 	#define eventUNBLOCKED_DUE_TO_BIT_SET	0x0200U
  96:Generated_Source\PSoC6\pdl\rtos\FreeRTOS\9.0.0\Source/event_groups.c **** 	#define eventWAIT_FOR_ALL_BITS			0x0400U
  97:Generated_Source\PSoC6\pdl\rtos\FreeRTOS\9.0.0\Source/event_groups.c **** 	#define eventEVENT_BITS_CONTROL_BYTES	0xff00U
  98:Generated_Source\PSoC6\pdl\rtos\FreeRTOS\9.0.0\Source/event_groups.c **** #else
  99:Generated_Source\PSoC6\pdl\rtos\FreeRTOS\9.0.0\Source/event_groups.c **** 	#define eventCLEAR_EVENTS_ON_EXIT_BIT	0x01000000UL
 100:Generated_Source\PSoC6\pdl\rtos\FreeRTOS\9.0.0\Source/event_groups.c **** 	#define eventUNBLOCKED_DUE_TO_BIT_SET	0x02000000UL
 101:Generated_Source\PSoC6\pdl\rtos\FreeRTOS\9.0.0\Source/event_groups.c **** 	#define eventWAIT_FOR_ALL_BITS			0x04000000UL
 102:Generated_Source\PSoC6\pdl\rtos\FreeRTOS\9.0.0\Source/event_groups.c **** 	#define eventEVENT_BITS_CONTROL_BYTES	0xff000000UL
 103:Generated_Source\PSoC6\pdl\rtos\FreeRTOS\9.0.0\Source/event_groups.c **** #endif
 104:Generated_Source\PSoC6\pdl\rtos\FreeRTOS\9.0.0\Source/event_groups.c **** 
 105:Generated_Source\PSoC6\pdl\rtos\FreeRTOS\9.0.0\Source/event_groups.c **** typedef struct xEventGroupDefinition
 106:Generated_Source\PSoC6\pdl\rtos\FreeRTOS\9.0.0\Source/event_groups.c **** {
 107:Generated_Source\PSoC6\pdl\rtos\FreeRTOS\9.0.0\Source/event_groups.c **** 	EventBits_t uxEventBits;
 108:Generated_Source\PSoC6\pdl\rtos\FreeRTOS\9.0.0\Source/event_groups.c **** 	List_t xTasksWaitingForBits;		/*< List of tasks waiting for a bit to be set. */
 109:Generated_Source\PSoC6\pdl\rtos\FreeRTOS\9.0.0\Source/event_groups.c **** 
 110:Generated_Source\PSoC6\pdl\rtos\FreeRTOS\9.0.0\Source/event_groups.c **** 	#if( configUSE_TRACE_FACILITY == 1 )
 111:Generated_Source\PSoC6\pdl\rtos\FreeRTOS\9.0.0\Source/event_groups.c **** 		UBaseType_t uxEventGroupNumber;
 112:Generated_Source\PSoC6\pdl\rtos\FreeRTOS\9.0.0\Source/event_groups.c **** 	#endif
 113:Generated_Source\PSoC6\pdl\rtos\FreeRTOS\9.0.0\Source/event_groups.c **** 
 114:Generated_Source\PSoC6\pdl\rtos\FreeRTOS\9.0.0\Source/event_groups.c **** 	#if( ( configSUPPORT_STATIC_ALLOCATION == 1 ) && ( configSUPPORT_DYNAMIC_ALLOCATION == 1 ) )
 115:Generated_Source\PSoC6\pdl\rtos\FreeRTOS\9.0.0\Source/event_groups.c **** 		uint8_t ucStaticallyAllocated; /*< Set to pdTRUE if the event group is statically allocated to en
 116:Generated_Source\PSoC6\pdl\rtos\FreeRTOS\9.0.0\Source/event_groups.c **** 	#endif
 117:Generated_Source\PSoC6\pdl\rtos\FreeRTOS\9.0.0\Source/event_groups.c **** } EventGroup_t;
 118:Generated_Source\PSoC6\pdl\rtos\FreeRTOS\9.0.0\Source/event_groups.c **** 
 119:Generated_Source\PSoC6\pdl\rtos\FreeRTOS\9.0.0\Source/event_groups.c **** /*-----------------------------------------------------------*/
 120:Generated_Source\PSoC6\pdl\rtos\FreeRTOS\9.0.0\Source/event_groups.c **** 
 121:Generated_Source\PSoC6\pdl\rtos\FreeRTOS\9.0.0\Source/event_groups.c **** /*
 122:Generated_Source\PSoC6\pdl\rtos\FreeRTOS\9.0.0\Source/event_groups.c ****  * Test the bits set in uxCurrentEventBits to see if the wait condition is met.
 123:Generated_Source\PSoC6\pdl\rtos\FreeRTOS\9.0.0\Source/event_groups.c ****  * The wait condition is defined by xWaitForAllBits.  If xWaitForAllBits is
 124:Generated_Source\PSoC6\pdl\rtos\FreeRTOS\9.0.0\Source/event_groups.c ****  * pdTRUE then the wait condition is met if all the bits set in uxBitsToWaitFor
 125:Generated_Source\PSoC6\pdl\rtos\FreeRTOS\9.0.0\Source/event_groups.c ****  * are also set in uxCurrentEventBits.  If xWaitForAllBits is pdFALSE then the
 126:Generated_Source\PSoC6\pdl\rtos\FreeRTOS\9.0.0\Source/event_groups.c ****  * wait condition is met if any of the bits set in uxBitsToWait for are also set
 127:Generated_Source\PSoC6\pdl\rtos\FreeRTOS\9.0.0\Source/event_groups.c ****  * in uxCurrentEventBits.
 128:Generated_Source\PSoC6\pdl\rtos\FreeRTOS\9.0.0\Source/event_groups.c ****  */
 129:Generated_Source\PSoC6\pdl\rtos\FreeRTOS\9.0.0\Source/event_groups.c **** static BaseType_t prvTestWaitCondition( const EventBits_t uxCurrentEventBits, const EventBits_t uxB
 130:Generated_Source\PSoC6\pdl\rtos\FreeRTOS\9.0.0\Source/event_groups.c **** 
 131:Generated_Source\PSoC6\pdl\rtos\FreeRTOS\9.0.0\Source/event_groups.c **** /*-----------------------------------------------------------*/
 132:Generated_Source\PSoC6\pdl\rtos\FreeRTOS\9.0.0\Source/event_groups.c **** 
 133:Generated_Source\PSoC6\pdl\rtos\FreeRTOS\9.0.0\Source/event_groups.c **** #if( configSUPPORT_STATIC_ALLOCATION == 1 )
 134:Generated_Source\PSoC6\pdl\rtos\FreeRTOS\9.0.0\Source/event_groups.c **** 
 135:Generated_Source\PSoC6\pdl\rtos\FreeRTOS\9.0.0\Source/event_groups.c **** 	EventGroupHandle_t xEventGroupCreateStatic( StaticEventGroup_t *pxEventGroupBuffer )
 136:Generated_Source\PSoC6\pdl\rtos\FreeRTOS\9.0.0\Source/event_groups.c **** 	{
 137:Generated_Source\PSoC6\pdl\rtos\FreeRTOS\9.0.0\Source/event_groups.c **** 	EventGroup_t *pxEventBits;
 138:Generated_Source\PSoC6\pdl\rtos\FreeRTOS\9.0.0\Source/event_groups.c **** 
 139:Generated_Source\PSoC6\pdl\rtos\FreeRTOS\9.0.0\Source/event_groups.c **** 		/* A StaticEventGroup_t object must be provided. */
 140:Generated_Source\PSoC6\pdl\rtos\FreeRTOS\9.0.0\Source/event_groups.c **** 		configASSERT( pxEventGroupBuffer );
 141:Generated_Source\PSoC6\pdl\rtos\FreeRTOS\9.0.0\Source/event_groups.c **** 
 142:Generated_Source\PSoC6\pdl\rtos\FreeRTOS\9.0.0\Source/event_groups.c **** 		/* The user has provided a statically allocated event group - use it. */
 143:Generated_Source\PSoC6\pdl\rtos\FreeRTOS\9.0.0\Source/event_groups.c **** 		pxEventBits = ( EventGroup_t * ) pxEventGroupBuffer; /*lint !e740 EventGroup_t and StaticEventGro
 144:Generated_Source\PSoC6\pdl\rtos\FreeRTOS\9.0.0\Source/event_groups.c **** 
ARM GAS  C:\Users\codyg\AppData\Local\Temp\cch9SNiH.s 			page 4


 145:Generated_Source\PSoC6\pdl\rtos\FreeRTOS\9.0.0\Source/event_groups.c **** 		if( pxEventBits != NULL )
 146:Generated_Source\PSoC6\pdl\rtos\FreeRTOS\9.0.0\Source/event_groups.c **** 		{
 147:Generated_Source\PSoC6\pdl\rtos\FreeRTOS\9.0.0\Source/event_groups.c **** 			pxEventBits->uxEventBits = 0;
 148:Generated_Source\PSoC6\pdl\rtos\FreeRTOS\9.0.0\Source/event_groups.c **** 			vListInitialise( &( pxEventBits->xTasksWaitingForBits ) );
 149:Generated_Source\PSoC6\pdl\rtos\FreeRTOS\9.0.0\Source/event_groups.c **** 
 150:Generated_Source\PSoC6\pdl\rtos\FreeRTOS\9.0.0\Source/event_groups.c **** 			#if( configSUPPORT_DYNAMIC_ALLOCATION == 1 )
 151:Generated_Source\PSoC6\pdl\rtos\FreeRTOS\9.0.0\Source/event_groups.c **** 			{
 152:Generated_Source\PSoC6\pdl\rtos\FreeRTOS\9.0.0\Source/event_groups.c **** 				/* Both static and dynamic allocation can be used, so note that
 153:Generated_Source\PSoC6\pdl\rtos\FreeRTOS\9.0.0\Source/event_groups.c **** 				this event group was created statically in case the event group
 154:Generated_Source\PSoC6\pdl\rtos\FreeRTOS\9.0.0\Source/event_groups.c **** 				is later deleted. */
 155:Generated_Source\PSoC6\pdl\rtos\FreeRTOS\9.0.0\Source/event_groups.c **** 				pxEventBits->ucStaticallyAllocated = pdTRUE;
 156:Generated_Source\PSoC6\pdl\rtos\FreeRTOS\9.0.0\Source/event_groups.c **** 			}
 157:Generated_Source\PSoC6\pdl\rtos\FreeRTOS\9.0.0\Source/event_groups.c **** 			#endif /* configSUPPORT_DYNAMIC_ALLOCATION */
 158:Generated_Source\PSoC6\pdl\rtos\FreeRTOS\9.0.0\Source/event_groups.c **** 
 159:Generated_Source\PSoC6\pdl\rtos\FreeRTOS\9.0.0\Source/event_groups.c **** 			traceEVENT_GROUP_CREATE( pxEventBits );
 160:Generated_Source\PSoC6\pdl\rtos\FreeRTOS\9.0.0\Source/event_groups.c **** 		}
 161:Generated_Source\PSoC6\pdl\rtos\FreeRTOS\9.0.0\Source/event_groups.c **** 		else
 162:Generated_Source\PSoC6\pdl\rtos\FreeRTOS\9.0.0\Source/event_groups.c **** 		{
 163:Generated_Source\PSoC6\pdl\rtos\FreeRTOS\9.0.0\Source/event_groups.c **** 			traceEVENT_GROUP_CREATE_FAILED();
 164:Generated_Source\PSoC6\pdl\rtos\FreeRTOS\9.0.0\Source/event_groups.c **** 		}
 165:Generated_Source\PSoC6\pdl\rtos\FreeRTOS\9.0.0\Source/event_groups.c **** 
 166:Generated_Source\PSoC6\pdl\rtos\FreeRTOS\9.0.0\Source/event_groups.c **** 		return ( EventGroupHandle_t ) pxEventBits;
 167:Generated_Source\PSoC6\pdl\rtos\FreeRTOS\9.0.0\Source/event_groups.c **** 	}
 168:Generated_Source\PSoC6\pdl\rtos\FreeRTOS\9.0.0\Source/event_groups.c **** 
 169:Generated_Source\PSoC6\pdl\rtos\FreeRTOS\9.0.0\Source/event_groups.c **** #endif /* configSUPPORT_STATIC_ALLOCATION */
 170:Generated_Source\PSoC6\pdl\rtos\FreeRTOS\9.0.0\Source/event_groups.c **** /*-----------------------------------------------------------*/
 171:Generated_Source\PSoC6\pdl\rtos\FreeRTOS\9.0.0\Source/event_groups.c **** 
 172:Generated_Source\PSoC6\pdl\rtos\FreeRTOS\9.0.0\Source/event_groups.c **** #if( configSUPPORT_DYNAMIC_ALLOCATION == 1 )
 173:Generated_Source\PSoC6\pdl\rtos\FreeRTOS\9.0.0\Source/event_groups.c **** 
 174:Generated_Source\PSoC6\pdl\rtos\FreeRTOS\9.0.0\Source/event_groups.c **** 	EventGroupHandle_t xEventGroupCreate( void )
 175:Generated_Source\PSoC6\pdl\rtos\FreeRTOS\9.0.0\Source/event_groups.c **** 	{
 176:Generated_Source\PSoC6\pdl\rtos\FreeRTOS\9.0.0\Source/event_groups.c **** 	EventGroup_t *pxEventBits;
 177:Generated_Source\PSoC6\pdl\rtos\FreeRTOS\9.0.0\Source/event_groups.c **** 
 178:Generated_Source\PSoC6\pdl\rtos\FreeRTOS\9.0.0\Source/event_groups.c **** 		/* Allocate the event group. */
 179:Generated_Source\PSoC6\pdl\rtos\FreeRTOS\9.0.0\Source/event_groups.c **** 		pxEventBits = ( EventGroup_t * ) pvPortMalloc( sizeof( EventGroup_t ) );
 180:Generated_Source\PSoC6\pdl\rtos\FreeRTOS\9.0.0\Source/event_groups.c **** 
 181:Generated_Source\PSoC6\pdl\rtos\FreeRTOS\9.0.0\Source/event_groups.c **** 		if( pxEventBits != NULL )
 182:Generated_Source\PSoC6\pdl\rtos\FreeRTOS\9.0.0\Source/event_groups.c **** 		{
 183:Generated_Source\PSoC6\pdl\rtos\FreeRTOS\9.0.0\Source/event_groups.c **** 			pxEventBits->uxEventBits = 0;
 184:Generated_Source\PSoC6\pdl\rtos\FreeRTOS\9.0.0\Source/event_groups.c **** 			vListInitialise( &( pxEventBits->xTasksWaitingForBits ) );
 185:Generated_Source\PSoC6\pdl\rtos\FreeRTOS\9.0.0\Source/event_groups.c **** 
 186:Generated_Source\PSoC6\pdl\rtos\FreeRTOS\9.0.0\Source/event_groups.c **** 			#if( configSUPPORT_STATIC_ALLOCATION == 1 )
 187:Generated_Source\PSoC6\pdl\rtos\FreeRTOS\9.0.0\Source/event_groups.c **** 			{
 188:Generated_Source\PSoC6\pdl\rtos\FreeRTOS\9.0.0\Source/event_groups.c **** 				/* Both static and dynamic allocation can be used, so note this
 189:Generated_Source\PSoC6\pdl\rtos\FreeRTOS\9.0.0\Source/event_groups.c **** 				event group was allocated statically in case the event group is
 190:Generated_Source\PSoC6\pdl\rtos\FreeRTOS\9.0.0\Source/event_groups.c **** 				later deleted. */
 191:Generated_Source\PSoC6\pdl\rtos\FreeRTOS\9.0.0\Source/event_groups.c **** 				pxEventBits->ucStaticallyAllocated = pdFALSE;
 192:Generated_Source\PSoC6\pdl\rtos\FreeRTOS\9.0.0\Source/event_groups.c **** 			}
 193:Generated_Source\PSoC6\pdl\rtos\FreeRTOS\9.0.0\Source/event_groups.c **** 			#endif /* configSUPPORT_STATIC_ALLOCATION */
 194:Generated_Source\PSoC6\pdl\rtos\FreeRTOS\9.0.0\Source/event_groups.c **** 
 195:Generated_Source\PSoC6\pdl\rtos\FreeRTOS\9.0.0\Source/event_groups.c **** 			traceEVENT_GROUP_CREATE( pxEventBits );
 196:Generated_Source\PSoC6\pdl\rtos\FreeRTOS\9.0.0\Source/event_groups.c **** 		}
 197:Generated_Source\PSoC6\pdl\rtos\FreeRTOS\9.0.0\Source/event_groups.c **** 		else
 198:Generated_Source\PSoC6\pdl\rtos\FreeRTOS\9.0.0\Source/event_groups.c **** 		{
 199:Generated_Source\PSoC6\pdl\rtos\FreeRTOS\9.0.0\Source/event_groups.c **** 			traceEVENT_GROUP_CREATE_FAILED();
 200:Generated_Source\PSoC6\pdl\rtos\FreeRTOS\9.0.0\Source/event_groups.c **** 		}
 201:Generated_Source\PSoC6\pdl\rtos\FreeRTOS\9.0.0\Source/event_groups.c **** 
ARM GAS  C:\Users\codyg\AppData\Local\Temp\cch9SNiH.s 			page 5


 202:Generated_Source\PSoC6\pdl\rtos\FreeRTOS\9.0.0\Source/event_groups.c **** 		return ( EventGroupHandle_t ) pxEventBits;
 203:Generated_Source\PSoC6\pdl\rtos\FreeRTOS\9.0.0\Source/event_groups.c **** 	}
 204:Generated_Source\PSoC6\pdl\rtos\FreeRTOS\9.0.0\Source/event_groups.c **** 
 205:Generated_Source\PSoC6\pdl\rtos\FreeRTOS\9.0.0\Source/event_groups.c **** #endif /* configSUPPORT_DYNAMIC_ALLOCATION */
 206:Generated_Source\PSoC6\pdl\rtos\FreeRTOS\9.0.0\Source/event_groups.c **** /*-----------------------------------------------------------*/
 207:Generated_Source\PSoC6\pdl\rtos\FreeRTOS\9.0.0\Source/event_groups.c **** 
 208:Generated_Source\PSoC6\pdl\rtos\FreeRTOS\9.0.0\Source/event_groups.c **** EventBits_t xEventGroupSync( EventGroupHandle_t xEventGroup, const EventBits_t uxBitsToSet, const E
 209:Generated_Source\PSoC6\pdl\rtos\FreeRTOS\9.0.0\Source/event_groups.c **** {
 210:Generated_Source\PSoC6\pdl\rtos\FreeRTOS\9.0.0\Source/event_groups.c **** EventBits_t uxOriginalBitValue, uxReturn;
 211:Generated_Source\PSoC6\pdl\rtos\FreeRTOS\9.0.0\Source/event_groups.c **** EventGroup_t *pxEventBits = ( EventGroup_t * ) xEventGroup;
 212:Generated_Source\PSoC6\pdl\rtos\FreeRTOS\9.0.0\Source/event_groups.c **** BaseType_t xAlreadyYielded;
 213:Generated_Source\PSoC6\pdl\rtos\FreeRTOS\9.0.0\Source/event_groups.c **** BaseType_t xTimeoutOccurred = pdFALSE;
 214:Generated_Source\PSoC6\pdl\rtos\FreeRTOS\9.0.0\Source/event_groups.c **** 
 215:Generated_Source\PSoC6\pdl\rtos\FreeRTOS\9.0.0\Source/event_groups.c **** 	configASSERT( ( uxBitsToWaitFor & eventEVENT_BITS_CONTROL_BYTES ) == 0 );
 216:Generated_Source\PSoC6\pdl\rtos\FreeRTOS\9.0.0\Source/event_groups.c **** 	configASSERT( uxBitsToWaitFor != 0 );
 217:Generated_Source\PSoC6\pdl\rtos\FreeRTOS\9.0.0\Source/event_groups.c **** 	#if ( ( INCLUDE_xTaskGetSchedulerState == 1 ) || ( configUSE_TIMERS == 1 ) )
 218:Generated_Source\PSoC6\pdl\rtos\FreeRTOS\9.0.0\Source/event_groups.c **** 	{
 219:Generated_Source\PSoC6\pdl\rtos\FreeRTOS\9.0.0\Source/event_groups.c **** 		configASSERT( !( ( xTaskGetSchedulerState() == taskSCHEDULER_SUSPENDED ) && ( xTicksToWait != 0 )
 220:Generated_Source\PSoC6\pdl\rtos\FreeRTOS\9.0.0\Source/event_groups.c **** 	}
 221:Generated_Source\PSoC6\pdl\rtos\FreeRTOS\9.0.0\Source/event_groups.c **** 	#endif
 222:Generated_Source\PSoC6\pdl\rtos\FreeRTOS\9.0.0\Source/event_groups.c **** 
 223:Generated_Source\PSoC6\pdl\rtos\FreeRTOS\9.0.0\Source/event_groups.c **** 	vTaskSuspendAll();
 224:Generated_Source\PSoC6\pdl\rtos\FreeRTOS\9.0.0\Source/event_groups.c **** 	{
 225:Generated_Source\PSoC6\pdl\rtos\FreeRTOS\9.0.0\Source/event_groups.c **** 		uxOriginalBitValue = pxEventBits->uxEventBits;
 226:Generated_Source\PSoC6\pdl\rtos\FreeRTOS\9.0.0\Source/event_groups.c **** 
 227:Generated_Source\PSoC6\pdl\rtos\FreeRTOS\9.0.0\Source/event_groups.c **** 		( void ) xEventGroupSetBits( xEventGroup, uxBitsToSet );
 228:Generated_Source\PSoC6\pdl\rtos\FreeRTOS\9.0.0\Source/event_groups.c **** 
 229:Generated_Source\PSoC6\pdl\rtos\FreeRTOS\9.0.0\Source/event_groups.c **** 		if( ( ( uxOriginalBitValue | uxBitsToSet ) & uxBitsToWaitFor ) == uxBitsToWaitFor )
 230:Generated_Source\PSoC6\pdl\rtos\FreeRTOS\9.0.0\Source/event_groups.c **** 		{
 231:Generated_Source\PSoC6\pdl\rtos\FreeRTOS\9.0.0\Source/event_groups.c **** 			/* All the rendezvous bits are now set - no need to block. */
 232:Generated_Source\PSoC6\pdl\rtos\FreeRTOS\9.0.0\Source/event_groups.c **** 			uxReturn = ( uxOriginalBitValue | uxBitsToSet );
 233:Generated_Source\PSoC6\pdl\rtos\FreeRTOS\9.0.0\Source/event_groups.c **** 
 234:Generated_Source\PSoC6\pdl\rtos\FreeRTOS\9.0.0\Source/event_groups.c **** 			/* Rendezvous always clear the bits.  They will have been cleared
 235:Generated_Source\PSoC6\pdl\rtos\FreeRTOS\9.0.0\Source/event_groups.c **** 			already unless this is the only task in the rendezvous. */
 236:Generated_Source\PSoC6\pdl\rtos\FreeRTOS\9.0.0\Source/event_groups.c **** 			pxEventBits->uxEventBits &= ~uxBitsToWaitFor;
 237:Generated_Source\PSoC6\pdl\rtos\FreeRTOS\9.0.0\Source/event_groups.c **** 
 238:Generated_Source\PSoC6\pdl\rtos\FreeRTOS\9.0.0\Source/event_groups.c **** 			xTicksToWait = 0;
 239:Generated_Source\PSoC6\pdl\rtos\FreeRTOS\9.0.0\Source/event_groups.c **** 		}
 240:Generated_Source\PSoC6\pdl\rtos\FreeRTOS\9.0.0\Source/event_groups.c **** 		else
 241:Generated_Source\PSoC6\pdl\rtos\FreeRTOS\9.0.0\Source/event_groups.c **** 		{
 242:Generated_Source\PSoC6\pdl\rtos\FreeRTOS\9.0.0\Source/event_groups.c **** 			if( xTicksToWait != ( TickType_t ) 0 )
 243:Generated_Source\PSoC6\pdl\rtos\FreeRTOS\9.0.0\Source/event_groups.c **** 			{
 244:Generated_Source\PSoC6\pdl\rtos\FreeRTOS\9.0.0\Source/event_groups.c **** 				traceEVENT_GROUP_SYNC_BLOCK( xEventGroup, uxBitsToSet, uxBitsToWaitFor );
 245:Generated_Source\PSoC6\pdl\rtos\FreeRTOS\9.0.0\Source/event_groups.c **** 
 246:Generated_Source\PSoC6\pdl\rtos\FreeRTOS\9.0.0\Source/event_groups.c **** 				/* Store the bits that the calling task is waiting for in the
 247:Generated_Source\PSoC6\pdl\rtos\FreeRTOS\9.0.0\Source/event_groups.c **** 				task's event list item so the kernel knows when a match is
 248:Generated_Source\PSoC6\pdl\rtos\FreeRTOS\9.0.0\Source/event_groups.c **** 				found.  Then enter the blocked state. */
 249:Generated_Source\PSoC6\pdl\rtos\FreeRTOS\9.0.0\Source/event_groups.c **** 				vTaskPlaceOnUnorderedEventList( &( pxEventBits->xTasksWaitingForBits ), ( uxBitsToWaitFor | eve
 250:Generated_Source\PSoC6\pdl\rtos\FreeRTOS\9.0.0\Source/event_groups.c **** 
 251:Generated_Source\PSoC6\pdl\rtos\FreeRTOS\9.0.0\Source/event_groups.c **** 				/* This assignment is obsolete as uxReturn will get set after
 252:Generated_Source\PSoC6\pdl\rtos\FreeRTOS\9.0.0\Source/event_groups.c **** 				the task unblocks, but some compilers mistakenly generate a
 253:Generated_Source\PSoC6\pdl\rtos\FreeRTOS\9.0.0\Source/event_groups.c **** 				warning about uxReturn being returned without being set if the
 254:Generated_Source\PSoC6\pdl\rtos\FreeRTOS\9.0.0\Source/event_groups.c **** 				assignment is omitted. */
 255:Generated_Source\PSoC6\pdl\rtos\FreeRTOS\9.0.0\Source/event_groups.c **** 				uxReturn = 0;
 256:Generated_Source\PSoC6\pdl\rtos\FreeRTOS\9.0.0\Source/event_groups.c **** 			}
 257:Generated_Source\PSoC6\pdl\rtos\FreeRTOS\9.0.0\Source/event_groups.c **** 			else
 258:Generated_Source\PSoC6\pdl\rtos\FreeRTOS\9.0.0\Source/event_groups.c **** 			{
ARM GAS  C:\Users\codyg\AppData\Local\Temp\cch9SNiH.s 			page 6


 259:Generated_Source\PSoC6\pdl\rtos\FreeRTOS\9.0.0\Source/event_groups.c **** 				/* The rendezvous bits were not set, but no block time was
 260:Generated_Source\PSoC6\pdl\rtos\FreeRTOS\9.0.0\Source/event_groups.c **** 				specified - just return the current event bit value. */
 261:Generated_Source\PSoC6\pdl\rtos\FreeRTOS\9.0.0\Source/event_groups.c **** 				uxReturn = pxEventBits->uxEventBits;
 262:Generated_Source\PSoC6\pdl\rtos\FreeRTOS\9.0.0\Source/event_groups.c **** 			}
 263:Generated_Source\PSoC6\pdl\rtos\FreeRTOS\9.0.0\Source/event_groups.c **** 		}
 264:Generated_Source\PSoC6\pdl\rtos\FreeRTOS\9.0.0\Source/event_groups.c **** 	}
 265:Generated_Source\PSoC6\pdl\rtos\FreeRTOS\9.0.0\Source/event_groups.c **** 	xAlreadyYielded = xTaskResumeAll();
 266:Generated_Source\PSoC6\pdl\rtos\FreeRTOS\9.0.0\Source/event_groups.c **** 
 267:Generated_Source\PSoC6\pdl\rtos\FreeRTOS\9.0.0\Source/event_groups.c **** 	if( xTicksToWait != ( TickType_t ) 0 )
 268:Generated_Source\PSoC6\pdl\rtos\FreeRTOS\9.0.0\Source/event_groups.c **** 	{
 269:Generated_Source\PSoC6\pdl\rtos\FreeRTOS\9.0.0\Source/event_groups.c **** 		if( xAlreadyYielded == pdFALSE )
 270:Generated_Source\PSoC6\pdl\rtos\FreeRTOS\9.0.0\Source/event_groups.c **** 		{
 271:Generated_Source\PSoC6\pdl\rtos\FreeRTOS\9.0.0\Source/event_groups.c **** 			portYIELD_WITHIN_API();
 272:Generated_Source\PSoC6\pdl\rtos\FreeRTOS\9.0.0\Source/event_groups.c **** 		}
 273:Generated_Source\PSoC6\pdl\rtos\FreeRTOS\9.0.0\Source/event_groups.c **** 		else
 274:Generated_Source\PSoC6\pdl\rtos\FreeRTOS\9.0.0\Source/event_groups.c **** 		{
 275:Generated_Source\PSoC6\pdl\rtos\FreeRTOS\9.0.0\Source/event_groups.c **** 			mtCOVERAGE_TEST_MARKER();
 276:Generated_Source\PSoC6\pdl\rtos\FreeRTOS\9.0.0\Source/event_groups.c **** 		}
 277:Generated_Source\PSoC6\pdl\rtos\FreeRTOS\9.0.0\Source/event_groups.c **** 
 278:Generated_Source\PSoC6\pdl\rtos\FreeRTOS\9.0.0\Source/event_groups.c **** 		/* The task blocked to wait for its required bits to be set - at this
 279:Generated_Source\PSoC6\pdl\rtos\FreeRTOS\9.0.0\Source/event_groups.c **** 		point either the required bits were set or the block time expired.  If
 280:Generated_Source\PSoC6\pdl\rtos\FreeRTOS\9.0.0\Source/event_groups.c **** 		the required bits were set they will have been stored in the task's
 281:Generated_Source\PSoC6\pdl\rtos\FreeRTOS\9.0.0\Source/event_groups.c **** 		event list item, and they should now be retrieved then cleared. */
 282:Generated_Source\PSoC6\pdl\rtos\FreeRTOS\9.0.0\Source/event_groups.c **** 		uxReturn = uxTaskResetEventItemValue();
 283:Generated_Source\PSoC6\pdl\rtos\FreeRTOS\9.0.0\Source/event_groups.c **** 
 284:Generated_Source\PSoC6\pdl\rtos\FreeRTOS\9.0.0\Source/event_groups.c **** 		if( ( uxReturn & eventUNBLOCKED_DUE_TO_BIT_SET ) == ( EventBits_t ) 0 )
 285:Generated_Source\PSoC6\pdl\rtos\FreeRTOS\9.0.0\Source/event_groups.c **** 		{
 286:Generated_Source\PSoC6\pdl\rtos\FreeRTOS\9.0.0\Source/event_groups.c **** 			/* The task timed out, just return the current event bit value. */
 287:Generated_Source\PSoC6\pdl\rtos\FreeRTOS\9.0.0\Source/event_groups.c **** 			taskENTER_CRITICAL();
 288:Generated_Source\PSoC6\pdl\rtos\FreeRTOS\9.0.0\Source/event_groups.c **** 			{
 289:Generated_Source\PSoC6\pdl\rtos\FreeRTOS\9.0.0\Source/event_groups.c **** 				uxReturn = pxEventBits->uxEventBits;
 290:Generated_Source\PSoC6\pdl\rtos\FreeRTOS\9.0.0\Source/event_groups.c **** 
 291:Generated_Source\PSoC6\pdl\rtos\FreeRTOS\9.0.0\Source/event_groups.c **** 				/* Although the task got here because it timed out before the
 292:Generated_Source\PSoC6\pdl\rtos\FreeRTOS\9.0.0\Source/event_groups.c **** 				bits it was waiting for were set, it is possible that since it
 293:Generated_Source\PSoC6\pdl\rtos\FreeRTOS\9.0.0\Source/event_groups.c **** 				unblocked another task has set the bits.  If this is the case
 294:Generated_Source\PSoC6\pdl\rtos\FreeRTOS\9.0.0\Source/event_groups.c **** 				then it needs to clear the bits before exiting. */
 295:Generated_Source\PSoC6\pdl\rtos\FreeRTOS\9.0.0\Source/event_groups.c **** 				if( ( uxReturn & uxBitsToWaitFor ) == uxBitsToWaitFor )
 296:Generated_Source\PSoC6\pdl\rtos\FreeRTOS\9.0.0\Source/event_groups.c **** 				{
 297:Generated_Source\PSoC6\pdl\rtos\FreeRTOS\9.0.0\Source/event_groups.c **** 					pxEventBits->uxEventBits &= ~uxBitsToWaitFor;
 298:Generated_Source\PSoC6\pdl\rtos\FreeRTOS\9.0.0\Source/event_groups.c **** 				}
 299:Generated_Source\PSoC6\pdl\rtos\FreeRTOS\9.0.0\Source/event_groups.c **** 				else
 300:Generated_Source\PSoC6\pdl\rtos\FreeRTOS\9.0.0\Source/event_groups.c **** 				{
 301:Generated_Source\PSoC6\pdl\rtos\FreeRTOS\9.0.0\Source/event_groups.c **** 					mtCOVERAGE_TEST_MARKER();
 302:Generated_Source\PSoC6\pdl\rtos\FreeRTOS\9.0.0\Source/event_groups.c **** 				}
 303:Generated_Source\PSoC6\pdl\rtos\FreeRTOS\9.0.0\Source/event_groups.c **** 			}
 304:Generated_Source\PSoC6\pdl\rtos\FreeRTOS\9.0.0\Source/event_groups.c **** 			taskEXIT_CRITICAL();
 305:Generated_Source\PSoC6\pdl\rtos\FreeRTOS\9.0.0\Source/event_groups.c **** 
 306:Generated_Source\PSoC6\pdl\rtos\FreeRTOS\9.0.0\Source/event_groups.c **** 			xTimeoutOccurred = pdTRUE;
 307:Generated_Source\PSoC6\pdl\rtos\FreeRTOS\9.0.0\Source/event_groups.c **** 		}
 308:Generated_Source\PSoC6\pdl\rtos\FreeRTOS\9.0.0\Source/event_groups.c **** 		else
 309:Generated_Source\PSoC6\pdl\rtos\FreeRTOS\9.0.0\Source/event_groups.c **** 		{
 310:Generated_Source\PSoC6\pdl\rtos\FreeRTOS\9.0.0\Source/event_groups.c **** 			/* The task unblocked because the bits were set. */
 311:Generated_Source\PSoC6\pdl\rtos\FreeRTOS\9.0.0\Source/event_groups.c **** 		}
 312:Generated_Source\PSoC6\pdl\rtos\FreeRTOS\9.0.0\Source/event_groups.c **** 
 313:Generated_Source\PSoC6\pdl\rtos\FreeRTOS\9.0.0\Source/event_groups.c **** 		/* Control bits might be set as the task had blocked should not be
 314:Generated_Source\PSoC6\pdl\rtos\FreeRTOS\9.0.0\Source/event_groups.c **** 		returned. */
 315:Generated_Source\PSoC6\pdl\rtos\FreeRTOS\9.0.0\Source/event_groups.c **** 		uxReturn &= ~eventEVENT_BITS_CONTROL_BYTES;
ARM GAS  C:\Users\codyg\AppData\Local\Temp\cch9SNiH.s 			page 7


 316:Generated_Source\PSoC6\pdl\rtos\FreeRTOS\9.0.0\Source/event_groups.c **** 	}
 317:Generated_Source\PSoC6\pdl\rtos\FreeRTOS\9.0.0\Source/event_groups.c **** 
 318:Generated_Source\PSoC6\pdl\rtos\FreeRTOS\9.0.0\Source/event_groups.c **** 	traceEVENT_GROUP_SYNC_END( xEventGroup, uxBitsToSet, uxBitsToWaitFor, xTimeoutOccurred );
 319:Generated_Source\PSoC6\pdl\rtos\FreeRTOS\9.0.0\Source/event_groups.c **** 
 320:Generated_Source\PSoC6\pdl\rtos\FreeRTOS\9.0.0\Source/event_groups.c **** 	return uxReturn;
 321:Generated_Source\PSoC6\pdl\rtos\FreeRTOS\9.0.0\Source/event_groups.c **** }
 322:Generated_Source\PSoC6\pdl\rtos\FreeRTOS\9.0.0\Source/event_groups.c **** /*-----------------------------------------------------------*/
 323:Generated_Source\PSoC6\pdl\rtos\FreeRTOS\9.0.0\Source/event_groups.c **** 
 324:Generated_Source\PSoC6\pdl\rtos\FreeRTOS\9.0.0\Source/event_groups.c **** EventBits_t xEventGroupWaitBits( EventGroupHandle_t xEventGroup, const EventBits_t uxBitsToWaitFor,
 325:Generated_Source\PSoC6\pdl\rtos\FreeRTOS\9.0.0\Source/event_groups.c **** {
 326:Generated_Source\PSoC6\pdl\rtos\FreeRTOS\9.0.0\Source/event_groups.c **** EventGroup_t *pxEventBits = ( EventGroup_t * ) xEventGroup;
 327:Generated_Source\PSoC6\pdl\rtos\FreeRTOS\9.0.0\Source/event_groups.c **** EventBits_t uxReturn, uxControlBits = 0;
 328:Generated_Source\PSoC6\pdl\rtos\FreeRTOS\9.0.0\Source/event_groups.c **** BaseType_t xWaitConditionMet, xAlreadyYielded;
 329:Generated_Source\PSoC6\pdl\rtos\FreeRTOS\9.0.0\Source/event_groups.c **** BaseType_t xTimeoutOccurred = pdFALSE;
 330:Generated_Source\PSoC6\pdl\rtos\FreeRTOS\9.0.0\Source/event_groups.c **** 
 331:Generated_Source\PSoC6\pdl\rtos\FreeRTOS\9.0.0\Source/event_groups.c **** 	/* Check the user is not attempting to wait on the bits used by the kernel
 332:Generated_Source\PSoC6\pdl\rtos\FreeRTOS\9.0.0\Source/event_groups.c **** 	itself, and that at least one bit is being requested. */
 333:Generated_Source\PSoC6\pdl\rtos\FreeRTOS\9.0.0\Source/event_groups.c **** 	configASSERT( xEventGroup );
 334:Generated_Source\PSoC6\pdl\rtos\FreeRTOS\9.0.0\Source/event_groups.c **** 	configASSERT( ( uxBitsToWaitFor & eventEVENT_BITS_CONTROL_BYTES ) == 0 );
 335:Generated_Source\PSoC6\pdl\rtos\FreeRTOS\9.0.0\Source/event_groups.c **** 	configASSERT( uxBitsToWaitFor != 0 );
 336:Generated_Source\PSoC6\pdl\rtos\FreeRTOS\9.0.0\Source/event_groups.c **** 	#if ( ( INCLUDE_xTaskGetSchedulerState == 1 ) || ( configUSE_TIMERS == 1 ) )
 337:Generated_Source\PSoC6\pdl\rtos\FreeRTOS\9.0.0\Source/event_groups.c **** 	{
 338:Generated_Source\PSoC6\pdl\rtos\FreeRTOS\9.0.0\Source/event_groups.c **** 		configASSERT( !( ( xTaskGetSchedulerState() == taskSCHEDULER_SUSPENDED ) && ( xTicksToWait != 0 )
 339:Generated_Source\PSoC6\pdl\rtos\FreeRTOS\9.0.0\Source/event_groups.c **** 	}
 340:Generated_Source\PSoC6\pdl\rtos\FreeRTOS\9.0.0\Source/event_groups.c **** 	#endif
 341:Generated_Source\PSoC6\pdl\rtos\FreeRTOS\9.0.0\Source/event_groups.c **** 
 342:Generated_Source\PSoC6\pdl\rtos\FreeRTOS\9.0.0\Source/event_groups.c **** 	vTaskSuspendAll();
 343:Generated_Source\PSoC6\pdl\rtos\FreeRTOS\9.0.0\Source/event_groups.c **** 	{
 344:Generated_Source\PSoC6\pdl\rtos\FreeRTOS\9.0.0\Source/event_groups.c **** 		const EventBits_t uxCurrentEventBits = pxEventBits->uxEventBits;
 345:Generated_Source\PSoC6\pdl\rtos\FreeRTOS\9.0.0\Source/event_groups.c **** 
 346:Generated_Source\PSoC6\pdl\rtos\FreeRTOS\9.0.0\Source/event_groups.c **** 		/* Check to see if the wait condition is already met or not. */
 347:Generated_Source\PSoC6\pdl\rtos\FreeRTOS\9.0.0\Source/event_groups.c **** 		xWaitConditionMet = prvTestWaitCondition( uxCurrentEventBits, uxBitsToWaitFor, xWaitForAllBits );
 348:Generated_Source\PSoC6\pdl\rtos\FreeRTOS\9.0.0\Source/event_groups.c **** 
 349:Generated_Source\PSoC6\pdl\rtos\FreeRTOS\9.0.0\Source/event_groups.c **** 		if( xWaitConditionMet != pdFALSE )
 350:Generated_Source\PSoC6\pdl\rtos\FreeRTOS\9.0.0\Source/event_groups.c **** 		{
 351:Generated_Source\PSoC6\pdl\rtos\FreeRTOS\9.0.0\Source/event_groups.c **** 			/* The wait condition has already been met so there is no need to
 352:Generated_Source\PSoC6\pdl\rtos\FreeRTOS\9.0.0\Source/event_groups.c **** 			block. */
 353:Generated_Source\PSoC6\pdl\rtos\FreeRTOS\9.0.0\Source/event_groups.c **** 			uxReturn = uxCurrentEventBits;
 354:Generated_Source\PSoC6\pdl\rtos\FreeRTOS\9.0.0\Source/event_groups.c **** 			xTicksToWait = ( TickType_t ) 0;
 355:Generated_Source\PSoC6\pdl\rtos\FreeRTOS\9.0.0\Source/event_groups.c **** 
 356:Generated_Source\PSoC6\pdl\rtos\FreeRTOS\9.0.0\Source/event_groups.c **** 			/* Clear the wait bits if requested to do so. */
 357:Generated_Source\PSoC6\pdl\rtos\FreeRTOS\9.0.0\Source/event_groups.c **** 			if( xClearOnExit != pdFALSE )
 358:Generated_Source\PSoC6\pdl\rtos\FreeRTOS\9.0.0\Source/event_groups.c **** 			{
 359:Generated_Source\PSoC6\pdl\rtos\FreeRTOS\9.0.0\Source/event_groups.c **** 				pxEventBits->uxEventBits &= ~uxBitsToWaitFor;
 360:Generated_Source\PSoC6\pdl\rtos\FreeRTOS\9.0.0\Source/event_groups.c **** 			}
 361:Generated_Source\PSoC6\pdl\rtos\FreeRTOS\9.0.0\Source/event_groups.c **** 			else
 362:Generated_Source\PSoC6\pdl\rtos\FreeRTOS\9.0.0\Source/event_groups.c **** 			{
 363:Generated_Source\PSoC6\pdl\rtos\FreeRTOS\9.0.0\Source/event_groups.c **** 				mtCOVERAGE_TEST_MARKER();
 364:Generated_Source\PSoC6\pdl\rtos\FreeRTOS\9.0.0\Source/event_groups.c **** 			}
 365:Generated_Source\PSoC6\pdl\rtos\FreeRTOS\9.0.0\Source/event_groups.c **** 		}
 366:Generated_Source\PSoC6\pdl\rtos\FreeRTOS\9.0.0\Source/event_groups.c **** 		else if( xTicksToWait == ( TickType_t ) 0 )
 367:Generated_Source\PSoC6\pdl\rtos\FreeRTOS\9.0.0\Source/event_groups.c **** 		{
 368:Generated_Source\PSoC6\pdl\rtos\FreeRTOS\9.0.0\Source/event_groups.c **** 			/* The wait condition has not been met, but no block time was
 369:Generated_Source\PSoC6\pdl\rtos\FreeRTOS\9.0.0\Source/event_groups.c **** 			specified, so just return the current value. */
 370:Generated_Source\PSoC6\pdl\rtos\FreeRTOS\9.0.0\Source/event_groups.c **** 			uxReturn = uxCurrentEventBits;
 371:Generated_Source\PSoC6\pdl\rtos\FreeRTOS\9.0.0\Source/event_groups.c **** 		}
 372:Generated_Source\PSoC6\pdl\rtos\FreeRTOS\9.0.0\Source/event_groups.c **** 		else
ARM GAS  C:\Users\codyg\AppData\Local\Temp\cch9SNiH.s 			page 8


 373:Generated_Source\PSoC6\pdl\rtos\FreeRTOS\9.0.0\Source/event_groups.c **** 		{
 374:Generated_Source\PSoC6\pdl\rtos\FreeRTOS\9.0.0\Source/event_groups.c **** 			/* The task is going to block to wait for its required bits to be
 375:Generated_Source\PSoC6\pdl\rtos\FreeRTOS\9.0.0\Source/event_groups.c **** 			set.  uxControlBits are used to remember the specified behaviour of
 376:Generated_Source\PSoC6\pdl\rtos\FreeRTOS\9.0.0\Source/event_groups.c **** 			this call to xEventGroupWaitBits() - for use when the event bits
 377:Generated_Source\PSoC6\pdl\rtos\FreeRTOS\9.0.0\Source/event_groups.c **** 			unblock the task. */
 378:Generated_Source\PSoC6\pdl\rtos\FreeRTOS\9.0.0\Source/event_groups.c **** 			if( xClearOnExit != pdFALSE )
 379:Generated_Source\PSoC6\pdl\rtos\FreeRTOS\9.0.0\Source/event_groups.c **** 			{
 380:Generated_Source\PSoC6\pdl\rtos\FreeRTOS\9.0.0\Source/event_groups.c **** 				uxControlBits |= eventCLEAR_EVENTS_ON_EXIT_BIT;
 381:Generated_Source\PSoC6\pdl\rtos\FreeRTOS\9.0.0\Source/event_groups.c **** 			}
 382:Generated_Source\PSoC6\pdl\rtos\FreeRTOS\9.0.0\Source/event_groups.c **** 			else
 383:Generated_Source\PSoC6\pdl\rtos\FreeRTOS\9.0.0\Source/event_groups.c **** 			{
 384:Generated_Source\PSoC6\pdl\rtos\FreeRTOS\9.0.0\Source/event_groups.c **** 				mtCOVERAGE_TEST_MARKER();
 385:Generated_Source\PSoC6\pdl\rtos\FreeRTOS\9.0.0\Source/event_groups.c **** 			}
 386:Generated_Source\PSoC6\pdl\rtos\FreeRTOS\9.0.0\Source/event_groups.c **** 
 387:Generated_Source\PSoC6\pdl\rtos\FreeRTOS\9.0.0\Source/event_groups.c **** 			if( xWaitForAllBits != pdFALSE )
 388:Generated_Source\PSoC6\pdl\rtos\FreeRTOS\9.0.0\Source/event_groups.c **** 			{
 389:Generated_Source\PSoC6\pdl\rtos\FreeRTOS\9.0.0\Source/event_groups.c **** 				uxControlBits |= eventWAIT_FOR_ALL_BITS;
 390:Generated_Source\PSoC6\pdl\rtos\FreeRTOS\9.0.0\Source/event_groups.c **** 			}
 391:Generated_Source\PSoC6\pdl\rtos\FreeRTOS\9.0.0\Source/event_groups.c **** 			else
 392:Generated_Source\PSoC6\pdl\rtos\FreeRTOS\9.0.0\Source/event_groups.c **** 			{
 393:Generated_Source\PSoC6\pdl\rtos\FreeRTOS\9.0.0\Source/event_groups.c **** 				mtCOVERAGE_TEST_MARKER();
 394:Generated_Source\PSoC6\pdl\rtos\FreeRTOS\9.0.0\Source/event_groups.c **** 			}
 395:Generated_Source\PSoC6\pdl\rtos\FreeRTOS\9.0.0\Source/event_groups.c **** 
 396:Generated_Source\PSoC6\pdl\rtos\FreeRTOS\9.0.0\Source/event_groups.c **** 			/* Store the bits that the calling task is waiting for in the
 397:Generated_Source\PSoC6\pdl\rtos\FreeRTOS\9.0.0\Source/event_groups.c **** 			task's event list item so the kernel knows when a match is
 398:Generated_Source\PSoC6\pdl\rtos\FreeRTOS\9.0.0\Source/event_groups.c **** 			found.  Then enter the blocked state. */
 399:Generated_Source\PSoC6\pdl\rtos\FreeRTOS\9.0.0\Source/event_groups.c **** 			vTaskPlaceOnUnorderedEventList( &( pxEventBits->xTasksWaitingForBits ), ( uxBitsToWaitFor | uxCo
 400:Generated_Source\PSoC6\pdl\rtos\FreeRTOS\9.0.0\Source/event_groups.c **** 
 401:Generated_Source\PSoC6\pdl\rtos\FreeRTOS\9.0.0\Source/event_groups.c **** 			/* This is obsolete as it will get set after the task unblocks, but
 402:Generated_Source\PSoC6\pdl\rtos\FreeRTOS\9.0.0\Source/event_groups.c **** 			some compilers mistakenly generate a warning about the variable
 403:Generated_Source\PSoC6\pdl\rtos\FreeRTOS\9.0.0\Source/event_groups.c **** 			being returned without being set if it is not done. */
 404:Generated_Source\PSoC6\pdl\rtos\FreeRTOS\9.0.0\Source/event_groups.c **** 			uxReturn = 0;
 405:Generated_Source\PSoC6\pdl\rtos\FreeRTOS\9.0.0\Source/event_groups.c **** 
 406:Generated_Source\PSoC6\pdl\rtos\FreeRTOS\9.0.0\Source/event_groups.c **** 			traceEVENT_GROUP_WAIT_BITS_BLOCK( xEventGroup, uxBitsToWaitFor );
 407:Generated_Source\PSoC6\pdl\rtos\FreeRTOS\9.0.0\Source/event_groups.c **** 		}
 408:Generated_Source\PSoC6\pdl\rtos\FreeRTOS\9.0.0\Source/event_groups.c **** 	}
 409:Generated_Source\PSoC6\pdl\rtos\FreeRTOS\9.0.0\Source/event_groups.c **** 	xAlreadyYielded = xTaskResumeAll();
 410:Generated_Source\PSoC6\pdl\rtos\FreeRTOS\9.0.0\Source/event_groups.c **** 
 411:Generated_Source\PSoC6\pdl\rtos\FreeRTOS\9.0.0\Source/event_groups.c **** 	if( xTicksToWait != ( TickType_t ) 0 )
 412:Generated_Source\PSoC6\pdl\rtos\FreeRTOS\9.0.0\Source/event_groups.c **** 	{
 413:Generated_Source\PSoC6\pdl\rtos\FreeRTOS\9.0.0\Source/event_groups.c **** 		if( xAlreadyYielded == pdFALSE )
 414:Generated_Source\PSoC6\pdl\rtos\FreeRTOS\9.0.0\Source/event_groups.c **** 		{
 415:Generated_Source\PSoC6\pdl\rtos\FreeRTOS\9.0.0\Source/event_groups.c **** 			portYIELD_WITHIN_API();
 416:Generated_Source\PSoC6\pdl\rtos\FreeRTOS\9.0.0\Source/event_groups.c **** 		}
 417:Generated_Source\PSoC6\pdl\rtos\FreeRTOS\9.0.0\Source/event_groups.c **** 		else
 418:Generated_Source\PSoC6\pdl\rtos\FreeRTOS\9.0.0\Source/event_groups.c **** 		{
 419:Generated_Source\PSoC6\pdl\rtos\FreeRTOS\9.0.0\Source/event_groups.c **** 			mtCOVERAGE_TEST_MARKER();
 420:Generated_Source\PSoC6\pdl\rtos\FreeRTOS\9.0.0\Source/event_groups.c **** 		}
 421:Generated_Source\PSoC6\pdl\rtos\FreeRTOS\9.0.0\Source/event_groups.c **** 
 422:Generated_Source\PSoC6\pdl\rtos\FreeRTOS\9.0.0\Source/event_groups.c **** 		/* The task blocked to wait for its required bits to be set - at this
 423:Generated_Source\PSoC6\pdl\rtos\FreeRTOS\9.0.0\Source/event_groups.c **** 		point either the required bits were set or the block time expired.  If
 424:Generated_Source\PSoC6\pdl\rtos\FreeRTOS\9.0.0\Source/event_groups.c **** 		the required bits were set they will have been stored in the task's
 425:Generated_Source\PSoC6\pdl\rtos\FreeRTOS\9.0.0\Source/event_groups.c **** 		event list item, and they should now be retrieved then cleared. */
 426:Generated_Source\PSoC6\pdl\rtos\FreeRTOS\9.0.0\Source/event_groups.c **** 		uxReturn = uxTaskResetEventItemValue();
 427:Generated_Source\PSoC6\pdl\rtos\FreeRTOS\9.0.0\Source/event_groups.c **** 
 428:Generated_Source\PSoC6\pdl\rtos\FreeRTOS\9.0.0\Source/event_groups.c **** 		if( ( uxReturn & eventUNBLOCKED_DUE_TO_BIT_SET ) == ( EventBits_t ) 0 )
 429:Generated_Source\PSoC6\pdl\rtos\FreeRTOS\9.0.0\Source/event_groups.c **** 		{
ARM GAS  C:\Users\codyg\AppData\Local\Temp\cch9SNiH.s 			page 9


 430:Generated_Source\PSoC6\pdl\rtos\FreeRTOS\9.0.0\Source/event_groups.c **** 			taskENTER_CRITICAL();
 431:Generated_Source\PSoC6\pdl\rtos\FreeRTOS\9.0.0\Source/event_groups.c **** 			{
 432:Generated_Source\PSoC6\pdl\rtos\FreeRTOS\9.0.0\Source/event_groups.c **** 				/* The task timed out, just return the current event bit value. */
 433:Generated_Source\PSoC6\pdl\rtos\FreeRTOS\9.0.0\Source/event_groups.c **** 				uxReturn = pxEventBits->uxEventBits;
 434:Generated_Source\PSoC6\pdl\rtos\FreeRTOS\9.0.0\Source/event_groups.c **** 
 435:Generated_Source\PSoC6\pdl\rtos\FreeRTOS\9.0.0\Source/event_groups.c **** 				/* It is possible that the event bits were updated between this
 436:Generated_Source\PSoC6\pdl\rtos\FreeRTOS\9.0.0\Source/event_groups.c **** 				task leaving the Blocked state and running again. */
 437:Generated_Source\PSoC6\pdl\rtos\FreeRTOS\9.0.0\Source/event_groups.c **** 				if( prvTestWaitCondition( uxReturn, uxBitsToWaitFor, xWaitForAllBits ) != pdFALSE )
 438:Generated_Source\PSoC6\pdl\rtos\FreeRTOS\9.0.0\Source/event_groups.c **** 				{
 439:Generated_Source\PSoC6\pdl\rtos\FreeRTOS\9.0.0\Source/event_groups.c **** 					if( xClearOnExit != pdFALSE )
 440:Generated_Source\PSoC6\pdl\rtos\FreeRTOS\9.0.0\Source/event_groups.c **** 					{
 441:Generated_Source\PSoC6\pdl\rtos\FreeRTOS\9.0.0\Source/event_groups.c **** 						pxEventBits->uxEventBits &= ~uxBitsToWaitFor;
 442:Generated_Source\PSoC6\pdl\rtos\FreeRTOS\9.0.0\Source/event_groups.c **** 					}
 443:Generated_Source\PSoC6\pdl\rtos\FreeRTOS\9.0.0\Source/event_groups.c **** 					else
 444:Generated_Source\PSoC6\pdl\rtos\FreeRTOS\9.0.0\Source/event_groups.c **** 					{
 445:Generated_Source\PSoC6\pdl\rtos\FreeRTOS\9.0.0\Source/event_groups.c **** 						mtCOVERAGE_TEST_MARKER();
 446:Generated_Source\PSoC6\pdl\rtos\FreeRTOS\9.0.0\Source/event_groups.c **** 					}
 447:Generated_Source\PSoC6\pdl\rtos\FreeRTOS\9.0.0\Source/event_groups.c **** 				}
 448:Generated_Source\PSoC6\pdl\rtos\FreeRTOS\9.0.0\Source/event_groups.c **** 				else
 449:Generated_Source\PSoC6\pdl\rtos\FreeRTOS\9.0.0\Source/event_groups.c **** 				{
 450:Generated_Source\PSoC6\pdl\rtos\FreeRTOS\9.0.0\Source/event_groups.c **** 					mtCOVERAGE_TEST_MARKER();
 451:Generated_Source\PSoC6\pdl\rtos\FreeRTOS\9.0.0\Source/event_groups.c **** 				}
 452:Generated_Source\PSoC6\pdl\rtos\FreeRTOS\9.0.0\Source/event_groups.c **** 			}
 453:Generated_Source\PSoC6\pdl\rtos\FreeRTOS\9.0.0\Source/event_groups.c **** 			taskEXIT_CRITICAL();
 454:Generated_Source\PSoC6\pdl\rtos\FreeRTOS\9.0.0\Source/event_groups.c **** 
 455:Generated_Source\PSoC6\pdl\rtos\FreeRTOS\9.0.0\Source/event_groups.c **** 			/* Prevent compiler warnings when trace macros are not used. */
 456:Generated_Source\PSoC6\pdl\rtos\FreeRTOS\9.0.0\Source/event_groups.c **** 			xTimeoutOccurred = pdFALSE;
 457:Generated_Source\PSoC6\pdl\rtos\FreeRTOS\9.0.0\Source/event_groups.c **** 		}
 458:Generated_Source\PSoC6\pdl\rtos\FreeRTOS\9.0.0\Source/event_groups.c **** 		else
 459:Generated_Source\PSoC6\pdl\rtos\FreeRTOS\9.0.0\Source/event_groups.c **** 		{
 460:Generated_Source\PSoC6\pdl\rtos\FreeRTOS\9.0.0\Source/event_groups.c **** 			/* The task unblocked because the bits were set. */
 461:Generated_Source\PSoC6\pdl\rtos\FreeRTOS\9.0.0\Source/event_groups.c **** 		}
 462:Generated_Source\PSoC6\pdl\rtos\FreeRTOS\9.0.0\Source/event_groups.c **** 
 463:Generated_Source\PSoC6\pdl\rtos\FreeRTOS\9.0.0\Source/event_groups.c **** 		/* The task blocked so control bits may have been set. */
 464:Generated_Source\PSoC6\pdl\rtos\FreeRTOS\9.0.0\Source/event_groups.c **** 		uxReturn &= ~eventEVENT_BITS_CONTROL_BYTES;
 465:Generated_Source\PSoC6\pdl\rtos\FreeRTOS\9.0.0\Source/event_groups.c **** 	}
 466:Generated_Source\PSoC6\pdl\rtos\FreeRTOS\9.0.0\Source/event_groups.c **** 	traceEVENT_GROUP_WAIT_BITS_END( xEventGroup, uxBitsToWaitFor, xTimeoutOccurred );
 467:Generated_Source\PSoC6\pdl\rtos\FreeRTOS\9.0.0\Source/event_groups.c **** 
 468:Generated_Source\PSoC6\pdl\rtos\FreeRTOS\9.0.0\Source/event_groups.c **** 	return uxReturn;
 469:Generated_Source\PSoC6\pdl\rtos\FreeRTOS\9.0.0\Source/event_groups.c **** }
 470:Generated_Source\PSoC6\pdl\rtos\FreeRTOS\9.0.0\Source/event_groups.c **** /*-----------------------------------------------------------*/
 471:Generated_Source\PSoC6\pdl\rtos\FreeRTOS\9.0.0\Source/event_groups.c **** 
 472:Generated_Source\PSoC6\pdl\rtos\FreeRTOS\9.0.0\Source/event_groups.c **** EventBits_t xEventGroupClearBits( EventGroupHandle_t xEventGroup, const EventBits_t uxBitsToClear )
 473:Generated_Source\PSoC6\pdl\rtos\FreeRTOS\9.0.0\Source/event_groups.c **** {
 474:Generated_Source\PSoC6\pdl\rtos\FreeRTOS\9.0.0\Source/event_groups.c **** EventGroup_t *pxEventBits = ( EventGroup_t * ) xEventGroup;
 475:Generated_Source\PSoC6\pdl\rtos\FreeRTOS\9.0.0\Source/event_groups.c **** EventBits_t uxReturn;
 476:Generated_Source\PSoC6\pdl\rtos\FreeRTOS\9.0.0\Source/event_groups.c **** 
 477:Generated_Source\PSoC6\pdl\rtos\FreeRTOS\9.0.0\Source/event_groups.c **** 	/* Check the user is not attempting to clear the bits used by the kernel
 478:Generated_Source\PSoC6\pdl\rtos\FreeRTOS\9.0.0\Source/event_groups.c **** 	itself. */
 479:Generated_Source\PSoC6\pdl\rtos\FreeRTOS\9.0.0\Source/event_groups.c **** 	configASSERT( xEventGroup );
 480:Generated_Source\PSoC6\pdl\rtos\FreeRTOS\9.0.0\Source/event_groups.c **** 	configASSERT( ( uxBitsToClear & eventEVENT_BITS_CONTROL_BYTES ) == 0 );
 481:Generated_Source\PSoC6\pdl\rtos\FreeRTOS\9.0.0\Source/event_groups.c **** 
 482:Generated_Source\PSoC6\pdl\rtos\FreeRTOS\9.0.0\Source/event_groups.c **** 	taskENTER_CRITICAL();
 483:Generated_Source\PSoC6\pdl\rtos\FreeRTOS\9.0.0\Source/event_groups.c **** 	{
 484:Generated_Source\PSoC6\pdl\rtos\FreeRTOS\9.0.0\Source/event_groups.c **** 		traceEVENT_GROUP_CLEAR_BITS( xEventGroup, uxBitsToClear );
 485:Generated_Source\PSoC6\pdl\rtos\FreeRTOS\9.0.0\Source/event_groups.c **** 
 486:Generated_Source\PSoC6\pdl\rtos\FreeRTOS\9.0.0\Source/event_groups.c **** 		/* The value returned is the event group value prior to the bits being
ARM GAS  C:\Users\codyg\AppData\Local\Temp\cch9SNiH.s 			page 10


 487:Generated_Source\PSoC6\pdl\rtos\FreeRTOS\9.0.0\Source/event_groups.c **** 		cleared. */
 488:Generated_Source\PSoC6\pdl\rtos\FreeRTOS\9.0.0\Source/event_groups.c **** 		uxReturn = pxEventBits->uxEventBits;
 489:Generated_Source\PSoC6\pdl\rtos\FreeRTOS\9.0.0\Source/event_groups.c **** 
 490:Generated_Source\PSoC6\pdl\rtos\FreeRTOS\9.0.0\Source/event_groups.c **** 		/* Clear the bits. */
 491:Generated_Source\PSoC6\pdl\rtos\FreeRTOS\9.0.0\Source/event_groups.c **** 		pxEventBits->uxEventBits &= ~uxBitsToClear;
 492:Generated_Source\PSoC6\pdl\rtos\FreeRTOS\9.0.0\Source/event_groups.c **** 	}
 493:Generated_Source\PSoC6\pdl\rtos\FreeRTOS\9.0.0\Source/event_groups.c **** 	taskEXIT_CRITICAL();
 494:Generated_Source\PSoC6\pdl\rtos\FreeRTOS\9.0.0\Source/event_groups.c **** 
 495:Generated_Source\PSoC6\pdl\rtos\FreeRTOS\9.0.0\Source/event_groups.c **** 	return uxReturn;
 496:Generated_Source\PSoC6\pdl\rtos\FreeRTOS\9.0.0\Source/event_groups.c **** }
 497:Generated_Source\PSoC6\pdl\rtos\FreeRTOS\9.0.0\Source/event_groups.c **** /*-----------------------------------------------------------*/
 498:Generated_Source\PSoC6\pdl\rtos\FreeRTOS\9.0.0\Source/event_groups.c **** 
 499:Generated_Source\PSoC6\pdl\rtos\FreeRTOS\9.0.0\Source/event_groups.c **** #if ( ( configUSE_TRACE_FACILITY == 1 ) && ( INCLUDE_xTimerPendFunctionCall == 1 ) && ( configUSE_T
 500:Generated_Source\PSoC6\pdl\rtos\FreeRTOS\9.0.0\Source/event_groups.c **** 
 501:Generated_Source\PSoC6\pdl\rtos\FreeRTOS\9.0.0\Source/event_groups.c **** 	BaseType_t xEventGroupClearBitsFromISR( EventGroupHandle_t xEventGroup, const EventBits_t uxBitsTo
 502:Generated_Source\PSoC6\pdl\rtos\FreeRTOS\9.0.0\Source/event_groups.c **** 	{
 503:Generated_Source\PSoC6\pdl\rtos\FreeRTOS\9.0.0\Source/event_groups.c **** 		BaseType_t xReturn;
 504:Generated_Source\PSoC6\pdl\rtos\FreeRTOS\9.0.0\Source/event_groups.c **** 
 505:Generated_Source\PSoC6\pdl\rtos\FreeRTOS\9.0.0\Source/event_groups.c **** 		traceEVENT_GROUP_CLEAR_BITS_FROM_ISR( xEventGroup, uxBitsToClear );
 506:Generated_Source\PSoC6\pdl\rtos\FreeRTOS\9.0.0\Source/event_groups.c **** 		xReturn = xTimerPendFunctionCallFromISR( vEventGroupClearBitsCallback, ( void * ) xEventGroup, ( 
 507:Generated_Source\PSoC6\pdl\rtos\FreeRTOS\9.0.0\Source/event_groups.c **** 
 508:Generated_Source\PSoC6\pdl\rtos\FreeRTOS\9.0.0\Source/event_groups.c **** 		return xReturn;
 509:Generated_Source\PSoC6\pdl\rtos\FreeRTOS\9.0.0\Source/event_groups.c **** 	}
 510:Generated_Source\PSoC6\pdl\rtos\FreeRTOS\9.0.0\Source/event_groups.c **** 
 511:Generated_Source\PSoC6\pdl\rtos\FreeRTOS\9.0.0\Source/event_groups.c **** #endif
 512:Generated_Source\PSoC6\pdl\rtos\FreeRTOS\9.0.0\Source/event_groups.c **** /*-----------------------------------------------------------*/
 513:Generated_Source\PSoC6\pdl\rtos\FreeRTOS\9.0.0\Source/event_groups.c **** 
 514:Generated_Source\PSoC6\pdl\rtos\FreeRTOS\9.0.0\Source/event_groups.c **** EventBits_t xEventGroupGetBitsFromISR( EventGroupHandle_t xEventGroup )
 515:Generated_Source\PSoC6\pdl\rtos\FreeRTOS\9.0.0\Source/event_groups.c **** {
 516:Generated_Source\PSoC6\pdl\rtos\FreeRTOS\9.0.0\Source/event_groups.c **** UBaseType_t uxSavedInterruptStatus;
 517:Generated_Source\PSoC6\pdl\rtos\FreeRTOS\9.0.0\Source/event_groups.c **** EventGroup_t *pxEventBits = ( EventGroup_t * ) xEventGroup;
 518:Generated_Source\PSoC6\pdl\rtos\FreeRTOS\9.0.0\Source/event_groups.c **** EventBits_t uxReturn;
 519:Generated_Source\PSoC6\pdl\rtos\FreeRTOS\9.0.0\Source/event_groups.c **** 
 520:Generated_Source\PSoC6\pdl\rtos\FreeRTOS\9.0.0\Source/event_groups.c **** 	uxSavedInterruptStatus = portSET_INTERRUPT_MASK_FROM_ISR();
 521:Generated_Source\PSoC6\pdl\rtos\FreeRTOS\9.0.0\Source/event_groups.c **** 	{
 522:Generated_Source\PSoC6\pdl\rtos\FreeRTOS\9.0.0\Source/event_groups.c **** 		uxReturn = pxEventBits->uxEventBits;
 523:Generated_Source\PSoC6\pdl\rtos\FreeRTOS\9.0.0\Source/event_groups.c **** 	}
 524:Generated_Source\PSoC6\pdl\rtos\FreeRTOS\9.0.0\Source/event_groups.c **** 	portCLEAR_INTERRUPT_MASK_FROM_ISR( uxSavedInterruptStatus );
 525:Generated_Source\PSoC6\pdl\rtos\FreeRTOS\9.0.0\Source/event_groups.c **** 
 526:Generated_Source\PSoC6\pdl\rtos\FreeRTOS\9.0.0\Source/event_groups.c **** 	return uxReturn;
 527:Generated_Source\PSoC6\pdl\rtos\FreeRTOS\9.0.0\Source/event_groups.c **** }
 528:Generated_Source\PSoC6\pdl\rtos\FreeRTOS\9.0.0\Source/event_groups.c **** /*-----------------------------------------------------------*/
 529:Generated_Source\PSoC6\pdl\rtos\FreeRTOS\9.0.0\Source/event_groups.c **** 
 530:Generated_Source\PSoC6\pdl\rtos\FreeRTOS\9.0.0\Source/event_groups.c **** EventBits_t xEventGroupSetBits( EventGroupHandle_t xEventGroup, const EventBits_t uxBitsToSet )
 531:Generated_Source\PSoC6\pdl\rtos\FreeRTOS\9.0.0\Source/event_groups.c **** {
 532:Generated_Source\PSoC6\pdl\rtos\FreeRTOS\9.0.0\Source/event_groups.c **** ListItem_t *pxListItem, *pxNext;
 533:Generated_Source\PSoC6\pdl\rtos\FreeRTOS\9.0.0\Source/event_groups.c **** ListItem_t const *pxListEnd;
 534:Generated_Source\PSoC6\pdl\rtos\FreeRTOS\9.0.0\Source/event_groups.c **** List_t *pxList;
 535:Generated_Source\PSoC6\pdl\rtos\FreeRTOS\9.0.0\Source/event_groups.c **** EventBits_t uxBitsToClear = 0, uxBitsWaitedFor, uxControlBits;
 536:Generated_Source\PSoC6\pdl\rtos\FreeRTOS\9.0.0\Source/event_groups.c **** EventGroup_t *pxEventBits = ( EventGroup_t * ) xEventGroup;
 537:Generated_Source\PSoC6\pdl\rtos\FreeRTOS\9.0.0\Source/event_groups.c **** BaseType_t xMatchFound = pdFALSE;
 538:Generated_Source\PSoC6\pdl\rtos\FreeRTOS\9.0.0\Source/event_groups.c **** 
 539:Generated_Source\PSoC6\pdl\rtos\FreeRTOS\9.0.0\Source/event_groups.c **** 	/* Check the user is not attempting to set the bits used by the kernel
 540:Generated_Source\PSoC6\pdl\rtos\FreeRTOS\9.0.0\Source/event_groups.c **** 	itself. */
 541:Generated_Source\PSoC6\pdl\rtos\FreeRTOS\9.0.0\Source/event_groups.c **** 	configASSERT( xEventGroup );
 542:Generated_Source\PSoC6\pdl\rtos\FreeRTOS\9.0.0\Source/event_groups.c **** 	configASSERT( ( uxBitsToSet & eventEVENT_BITS_CONTROL_BYTES ) == 0 );
 543:Generated_Source\PSoC6\pdl\rtos\FreeRTOS\9.0.0\Source/event_groups.c **** 
ARM GAS  C:\Users\codyg\AppData\Local\Temp\cch9SNiH.s 			page 11


 544:Generated_Source\PSoC6\pdl\rtos\FreeRTOS\9.0.0\Source/event_groups.c **** 	pxList = &( pxEventBits->xTasksWaitingForBits );
 545:Generated_Source\PSoC6\pdl\rtos\FreeRTOS\9.0.0\Source/event_groups.c **** 	pxListEnd = listGET_END_MARKER( pxList ); /*lint !e826 !e740 The mini list structure is used as th
 546:Generated_Source\PSoC6\pdl\rtos\FreeRTOS\9.0.0\Source/event_groups.c **** 	vTaskSuspendAll();
 547:Generated_Source\PSoC6\pdl\rtos\FreeRTOS\9.0.0\Source/event_groups.c **** 	{
 548:Generated_Source\PSoC6\pdl\rtos\FreeRTOS\9.0.0\Source/event_groups.c **** 		traceEVENT_GROUP_SET_BITS( xEventGroup, uxBitsToSet );
 549:Generated_Source\PSoC6\pdl\rtos\FreeRTOS\9.0.0\Source/event_groups.c **** 
 550:Generated_Source\PSoC6\pdl\rtos\FreeRTOS\9.0.0\Source/event_groups.c **** 		pxListItem = listGET_HEAD_ENTRY( pxList );
 551:Generated_Source\PSoC6\pdl\rtos\FreeRTOS\9.0.0\Source/event_groups.c **** 
 552:Generated_Source\PSoC6\pdl\rtos\FreeRTOS\9.0.0\Source/event_groups.c **** 		/* Set the bits. */
 553:Generated_Source\PSoC6\pdl\rtos\FreeRTOS\9.0.0\Source/event_groups.c **** 		pxEventBits->uxEventBits |= uxBitsToSet;
 554:Generated_Source\PSoC6\pdl\rtos\FreeRTOS\9.0.0\Source/event_groups.c **** 
 555:Generated_Source\PSoC6\pdl\rtos\FreeRTOS\9.0.0\Source/event_groups.c **** 		/* See if the new bit value should unblock any tasks. */
 556:Generated_Source\PSoC6\pdl\rtos\FreeRTOS\9.0.0\Source/event_groups.c **** 		while( pxListItem != pxListEnd )
 557:Generated_Source\PSoC6\pdl\rtos\FreeRTOS\9.0.0\Source/event_groups.c **** 		{
 558:Generated_Source\PSoC6\pdl\rtos\FreeRTOS\9.0.0\Source/event_groups.c **** 			pxNext = listGET_NEXT( pxListItem );
 559:Generated_Source\PSoC6\pdl\rtos\FreeRTOS\9.0.0\Source/event_groups.c **** 			uxBitsWaitedFor = listGET_LIST_ITEM_VALUE( pxListItem );
 560:Generated_Source\PSoC6\pdl\rtos\FreeRTOS\9.0.0\Source/event_groups.c **** 			xMatchFound = pdFALSE;
 561:Generated_Source\PSoC6\pdl\rtos\FreeRTOS\9.0.0\Source/event_groups.c **** 
 562:Generated_Source\PSoC6\pdl\rtos\FreeRTOS\9.0.0\Source/event_groups.c **** 			/* Split the bits waited for from the control bits. */
 563:Generated_Source\PSoC6\pdl\rtos\FreeRTOS\9.0.0\Source/event_groups.c **** 			uxControlBits = uxBitsWaitedFor & eventEVENT_BITS_CONTROL_BYTES;
 564:Generated_Source\PSoC6\pdl\rtos\FreeRTOS\9.0.0\Source/event_groups.c **** 			uxBitsWaitedFor &= ~eventEVENT_BITS_CONTROL_BYTES;
 565:Generated_Source\PSoC6\pdl\rtos\FreeRTOS\9.0.0\Source/event_groups.c **** 
 566:Generated_Source\PSoC6\pdl\rtos\FreeRTOS\9.0.0\Source/event_groups.c **** 			if( ( uxControlBits & eventWAIT_FOR_ALL_BITS ) == ( EventBits_t ) 0 )
 567:Generated_Source\PSoC6\pdl\rtos\FreeRTOS\9.0.0\Source/event_groups.c **** 			{
 568:Generated_Source\PSoC6\pdl\rtos\FreeRTOS\9.0.0\Source/event_groups.c **** 				/* Just looking for single bit being set. */
 569:Generated_Source\PSoC6\pdl\rtos\FreeRTOS\9.0.0\Source/event_groups.c **** 				if( ( uxBitsWaitedFor & pxEventBits->uxEventBits ) != ( EventBits_t ) 0 )
 570:Generated_Source\PSoC6\pdl\rtos\FreeRTOS\9.0.0\Source/event_groups.c **** 				{
 571:Generated_Source\PSoC6\pdl\rtos\FreeRTOS\9.0.0\Source/event_groups.c **** 					xMatchFound = pdTRUE;
 572:Generated_Source\PSoC6\pdl\rtos\FreeRTOS\9.0.0\Source/event_groups.c **** 				}
 573:Generated_Source\PSoC6\pdl\rtos\FreeRTOS\9.0.0\Source/event_groups.c **** 				else
 574:Generated_Source\PSoC6\pdl\rtos\FreeRTOS\9.0.0\Source/event_groups.c **** 				{
 575:Generated_Source\PSoC6\pdl\rtos\FreeRTOS\9.0.0\Source/event_groups.c **** 					mtCOVERAGE_TEST_MARKER();
 576:Generated_Source\PSoC6\pdl\rtos\FreeRTOS\9.0.0\Source/event_groups.c **** 				}
 577:Generated_Source\PSoC6\pdl\rtos\FreeRTOS\9.0.0\Source/event_groups.c **** 			}
 578:Generated_Source\PSoC6\pdl\rtos\FreeRTOS\9.0.0\Source/event_groups.c **** 			else if( ( uxBitsWaitedFor & pxEventBits->uxEventBits ) == uxBitsWaitedFor )
 579:Generated_Source\PSoC6\pdl\rtos\FreeRTOS\9.0.0\Source/event_groups.c **** 			{
 580:Generated_Source\PSoC6\pdl\rtos\FreeRTOS\9.0.0\Source/event_groups.c **** 				/* All bits are set. */
 581:Generated_Source\PSoC6\pdl\rtos\FreeRTOS\9.0.0\Source/event_groups.c **** 				xMatchFound = pdTRUE;
 582:Generated_Source\PSoC6\pdl\rtos\FreeRTOS\9.0.0\Source/event_groups.c **** 			}
 583:Generated_Source\PSoC6\pdl\rtos\FreeRTOS\9.0.0\Source/event_groups.c **** 			else
 584:Generated_Source\PSoC6\pdl\rtos\FreeRTOS\9.0.0\Source/event_groups.c **** 			{
 585:Generated_Source\PSoC6\pdl\rtos\FreeRTOS\9.0.0\Source/event_groups.c **** 				/* Need all bits to be set, but not all the bits were set. */
 586:Generated_Source\PSoC6\pdl\rtos\FreeRTOS\9.0.0\Source/event_groups.c **** 			}
 587:Generated_Source\PSoC6\pdl\rtos\FreeRTOS\9.0.0\Source/event_groups.c **** 
 588:Generated_Source\PSoC6\pdl\rtos\FreeRTOS\9.0.0\Source/event_groups.c **** 			if( xMatchFound != pdFALSE )
 589:Generated_Source\PSoC6\pdl\rtos\FreeRTOS\9.0.0\Source/event_groups.c **** 			{
 590:Generated_Source\PSoC6\pdl\rtos\FreeRTOS\9.0.0\Source/event_groups.c **** 				/* The bits match.  Should the bits be cleared on exit? */
 591:Generated_Source\PSoC6\pdl\rtos\FreeRTOS\9.0.0\Source/event_groups.c **** 				if( ( uxControlBits & eventCLEAR_EVENTS_ON_EXIT_BIT ) != ( EventBits_t ) 0 )
 592:Generated_Source\PSoC6\pdl\rtos\FreeRTOS\9.0.0\Source/event_groups.c **** 				{
 593:Generated_Source\PSoC6\pdl\rtos\FreeRTOS\9.0.0\Source/event_groups.c **** 					uxBitsToClear |= uxBitsWaitedFor;
 594:Generated_Source\PSoC6\pdl\rtos\FreeRTOS\9.0.0\Source/event_groups.c **** 				}
 595:Generated_Source\PSoC6\pdl\rtos\FreeRTOS\9.0.0\Source/event_groups.c **** 				else
 596:Generated_Source\PSoC6\pdl\rtos\FreeRTOS\9.0.0\Source/event_groups.c **** 				{
 597:Generated_Source\PSoC6\pdl\rtos\FreeRTOS\9.0.0\Source/event_groups.c **** 					mtCOVERAGE_TEST_MARKER();
 598:Generated_Source\PSoC6\pdl\rtos\FreeRTOS\9.0.0\Source/event_groups.c **** 				}
 599:Generated_Source\PSoC6\pdl\rtos\FreeRTOS\9.0.0\Source/event_groups.c **** 
 600:Generated_Source\PSoC6\pdl\rtos\FreeRTOS\9.0.0\Source/event_groups.c **** 				/* Store the actual event flag value in the task's event list
ARM GAS  C:\Users\codyg\AppData\Local\Temp\cch9SNiH.s 			page 12


 601:Generated_Source\PSoC6\pdl\rtos\FreeRTOS\9.0.0\Source/event_groups.c **** 				item before removing the task from the event list.  The
 602:Generated_Source\PSoC6\pdl\rtos\FreeRTOS\9.0.0\Source/event_groups.c **** 				eventUNBLOCKED_DUE_TO_BIT_SET bit is set so the task knows
 603:Generated_Source\PSoC6\pdl\rtos\FreeRTOS\9.0.0\Source/event_groups.c **** 				that is was unblocked due to its required bits matching, rather
 604:Generated_Source\PSoC6\pdl\rtos\FreeRTOS\9.0.0\Source/event_groups.c **** 				than because it timed out. */
 605:Generated_Source\PSoC6\pdl\rtos\FreeRTOS\9.0.0\Source/event_groups.c **** 				( void ) xTaskRemoveFromUnorderedEventList( pxListItem, pxEventBits->uxEventBits | eventUNBLOCK
 606:Generated_Source\PSoC6\pdl\rtos\FreeRTOS\9.0.0\Source/event_groups.c **** 			}
 607:Generated_Source\PSoC6\pdl\rtos\FreeRTOS\9.0.0\Source/event_groups.c **** 
 608:Generated_Source\PSoC6\pdl\rtos\FreeRTOS\9.0.0\Source/event_groups.c **** 			/* Move onto the next list item.  Note pxListItem->pxNext is not
 609:Generated_Source\PSoC6\pdl\rtos\FreeRTOS\9.0.0\Source/event_groups.c **** 			used here as the list item may have been removed from the event list
 610:Generated_Source\PSoC6\pdl\rtos\FreeRTOS\9.0.0\Source/event_groups.c **** 			and inserted into the ready/pending reading list. */
 611:Generated_Source\PSoC6\pdl\rtos\FreeRTOS\9.0.0\Source/event_groups.c **** 			pxListItem = pxNext;
 612:Generated_Source\PSoC6\pdl\rtos\FreeRTOS\9.0.0\Source/event_groups.c **** 		}
 613:Generated_Source\PSoC6\pdl\rtos\FreeRTOS\9.0.0\Source/event_groups.c **** 
 614:Generated_Source\PSoC6\pdl\rtos\FreeRTOS\9.0.0\Source/event_groups.c **** 		/* Clear any bits that matched when the eventCLEAR_EVENTS_ON_EXIT_BIT
 615:Generated_Source\PSoC6\pdl\rtos\FreeRTOS\9.0.0\Source/event_groups.c **** 		bit was set in the control word. */
 616:Generated_Source\PSoC6\pdl\rtos\FreeRTOS\9.0.0\Source/event_groups.c **** 		pxEventBits->uxEventBits &= ~uxBitsToClear;
 617:Generated_Source\PSoC6\pdl\rtos\FreeRTOS\9.0.0\Source/event_groups.c **** 	}
 618:Generated_Source\PSoC6\pdl\rtos\FreeRTOS\9.0.0\Source/event_groups.c **** 	( void ) xTaskResumeAll();
 619:Generated_Source\PSoC6\pdl\rtos\FreeRTOS\9.0.0\Source/event_groups.c **** 
 620:Generated_Source\PSoC6\pdl\rtos\FreeRTOS\9.0.0\Source/event_groups.c **** 	return pxEventBits->uxEventBits;
 621:Generated_Source\PSoC6\pdl\rtos\FreeRTOS\9.0.0\Source/event_groups.c **** }
 622:Generated_Source\PSoC6\pdl\rtos\FreeRTOS\9.0.0\Source/event_groups.c **** /*-----------------------------------------------------------*/
 623:Generated_Source\PSoC6\pdl\rtos\FreeRTOS\9.0.0\Source/event_groups.c **** 
 624:Generated_Source\PSoC6\pdl\rtos\FreeRTOS\9.0.0\Source/event_groups.c **** void vEventGroupDelete( EventGroupHandle_t xEventGroup )
 625:Generated_Source\PSoC6\pdl\rtos\FreeRTOS\9.0.0\Source/event_groups.c **** {
 626:Generated_Source\PSoC6\pdl\rtos\FreeRTOS\9.0.0\Source/event_groups.c **** EventGroup_t *pxEventBits = ( EventGroup_t * ) xEventGroup;
 627:Generated_Source\PSoC6\pdl\rtos\FreeRTOS\9.0.0\Source/event_groups.c **** const List_t *pxTasksWaitingForBits = &( pxEventBits->xTasksWaitingForBits );
 628:Generated_Source\PSoC6\pdl\rtos\FreeRTOS\9.0.0\Source/event_groups.c **** 
 629:Generated_Source\PSoC6\pdl\rtos\FreeRTOS\9.0.0\Source/event_groups.c **** 	vTaskSuspendAll();
 630:Generated_Source\PSoC6\pdl\rtos\FreeRTOS\9.0.0\Source/event_groups.c **** 	{
 631:Generated_Source\PSoC6\pdl\rtos\FreeRTOS\9.0.0\Source/event_groups.c **** 		traceEVENT_GROUP_DELETE( xEventGroup );
 632:Generated_Source\PSoC6\pdl\rtos\FreeRTOS\9.0.0\Source/event_groups.c **** 
 633:Generated_Source\PSoC6\pdl\rtos\FreeRTOS\9.0.0\Source/event_groups.c **** 		while( listCURRENT_LIST_LENGTH( pxTasksWaitingForBits ) > ( UBaseType_t ) 0 )
 634:Generated_Source\PSoC6\pdl\rtos\FreeRTOS\9.0.0\Source/event_groups.c **** 		{
 635:Generated_Source\PSoC6\pdl\rtos\FreeRTOS\9.0.0\Source/event_groups.c **** 			/* Unblock the task, returning 0 as the event list is being deleted
 636:Generated_Source\PSoC6\pdl\rtos\FreeRTOS\9.0.0\Source/event_groups.c **** 			and	cannot therefore have any bits set. */
 637:Generated_Source\PSoC6\pdl\rtos\FreeRTOS\9.0.0\Source/event_groups.c **** 			configASSERT( pxTasksWaitingForBits->xListEnd.pxNext != ( ListItem_t * ) &( pxTasksWaitingForBit
 638:Generated_Source\PSoC6\pdl\rtos\FreeRTOS\9.0.0\Source/event_groups.c **** 			( void ) xTaskRemoveFromUnorderedEventList( pxTasksWaitingForBits->xListEnd.pxNext, eventUNBLOCK
 639:Generated_Source\PSoC6\pdl\rtos\FreeRTOS\9.0.0\Source/event_groups.c **** 		}
 640:Generated_Source\PSoC6\pdl\rtos\FreeRTOS\9.0.0\Source/event_groups.c **** 
 641:Generated_Source\PSoC6\pdl\rtos\FreeRTOS\9.0.0\Source/event_groups.c **** 		#if( ( configSUPPORT_DYNAMIC_ALLOCATION == 1 ) && ( configSUPPORT_STATIC_ALLOCATION == 0 ) )
 642:Generated_Source\PSoC6\pdl\rtos\FreeRTOS\9.0.0\Source/event_groups.c **** 		{
 643:Generated_Source\PSoC6\pdl\rtos\FreeRTOS\9.0.0\Source/event_groups.c **** 			/* The event group can only have been allocated dynamically - free
 644:Generated_Source\PSoC6\pdl\rtos\FreeRTOS\9.0.0\Source/event_groups.c **** 			it again. */
 645:Generated_Source\PSoC6\pdl\rtos\FreeRTOS\9.0.0\Source/event_groups.c **** 			vPortFree( pxEventBits );
 646:Generated_Source\PSoC6\pdl\rtos\FreeRTOS\9.0.0\Source/event_groups.c **** 		}
 647:Generated_Source\PSoC6\pdl\rtos\FreeRTOS\9.0.0\Source/event_groups.c **** 		#elif( ( configSUPPORT_DYNAMIC_ALLOCATION == 1 ) && ( configSUPPORT_STATIC_ALLOCATION == 1 ) )
 648:Generated_Source\PSoC6\pdl\rtos\FreeRTOS\9.0.0\Source/event_groups.c **** 		{
 649:Generated_Source\PSoC6\pdl\rtos\FreeRTOS\9.0.0\Source/event_groups.c **** 			/* The event group could have been allocated statically or
 650:Generated_Source\PSoC6\pdl\rtos\FreeRTOS\9.0.0\Source/event_groups.c **** 			dynamically, so check before attempting to free the memory. */
 651:Generated_Source\PSoC6\pdl\rtos\FreeRTOS\9.0.0\Source/event_groups.c **** 			if( pxEventBits->ucStaticallyAllocated == ( uint8_t ) pdFALSE )
 652:Generated_Source\PSoC6\pdl\rtos\FreeRTOS\9.0.0\Source/event_groups.c **** 			{
 653:Generated_Source\PSoC6\pdl\rtos\FreeRTOS\9.0.0\Source/event_groups.c **** 				vPortFree( pxEventBits );
 654:Generated_Source\PSoC6\pdl\rtos\FreeRTOS\9.0.0\Source/event_groups.c **** 			}
 655:Generated_Source\PSoC6\pdl\rtos\FreeRTOS\9.0.0\Source/event_groups.c **** 			else
 656:Generated_Source\PSoC6\pdl\rtos\FreeRTOS\9.0.0\Source/event_groups.c **** 			{
 657:Generated_Source\PSoC6\pdl\rtos\FreeRTOS\9.0.0\Source/event_groups.c **** 				mtCOVERAGE_TEST_MARKER();
ARM GAS  C:\Users\codyg\AppData\Local\Temp\cch9SNiH.s 			page 13


 658:Generated_Source\PSoC6\pdl\rtos\FreeRTOS\9.0.0\Source/event_groups.c **** 			}
 659:Generated_Source\PSoC6\pdl\rtos\FreeRTOS\9.0.0\Source/event_groups.c **** 		}
 660:Generated_Source\PSoC6\pdl\rtos\FreeRTOS\9.0.0\Source/event_groups.c **** 		#endif /* configSUPPORT_DYNAMIC_ALLOCATION */
 661:Generated_Source\PSoC6\pdl\rtos\FreeRTOS\9.0.0\Source/event_groups.c **** 	}
 662:Generated_Source\PSoC6\pdl\rtos\FreeRTOS\9.0.0\Source/event_groups.c **** 	( void ) xTaskResumeAll();
 663:Generated_Source\PSoC6\pdl\rtos\FreeRTOS\9.0.0\Source/event_groups.c **** }
 664:Generated_Source\PSoC6\pdl\rtos\FreeRTOS\9.0.0\Source/event_groups.c **** /*-----------------------------------------------------------*/
 665:Generated_Source\PSoC6\pdl\rtos\FreeRTOS\9.0.0\Source/event_groups.c **** 
 666:Generated_Source\PSoC6\pdl\rtos\FreeRTOS\9.0.0\Source/event_groups.c **** /* For internal use only - execute a 'set bits' command that was pended from
 667:Generated_Source\PSoC6\pdl\rtos\FreeRTOS\9.0.0\Source/event_groups.c **** an interrupt. */
 668:Generated_Source\PSoC6\pdl\rtos\FreeRTOS\9.0.0\Source/event_groups.c **** void vEventGroupSetBitsCallback( void *pvEventGroup, const uint32_t ulBitsToSet )
 669:Generated_Source\PSoC6\pdl\rtos\FreeRTOS\9.0.0\Source/event_groups.c **** {
 670:Generated_Source\PSoC6\pdl\rtos\FreeRTOS\9.0.0\Source/event_groups.c **** 	( void ) xEventGroupSetBits( pvEventGroup, ( EventBits_t ) ulBitsToSet );
 671:Generated_Source\PSoC6\pdl\rtos\FreeRTOS\9.0.0\Source/event_groups.c **** }
 672:Generated_Source\PSoC6\pdl\rtos\FreeRTOS\9.0.0\Source/event_groups.c **** /*-----------------------------------------------------------*/
 673:Generated_Source\PSoC6\pdl\rtos\FreeRTOS\9.0.0\Source/event_groups.c **** 
 674:Generated_Source\PSoC6\pdl\rtos\FreeRTOS\9.0.0\Source/event_groups.c **** /* For internal use only - execute a 'clear bits' command that was pended from
 675:Generated_Source\PSoC6\pdl\rtos\FreeRTOS\9.0.0\Source/event_groups.c **** an interrupt. */
 676:Generated_Source\PSoC6\pdl\rtos\FreeRTOS\9.0.0\Source/event_groups.c **** void vEventGroupClearBitsCallback( void *pvEventGroup, const uint32_t ulBitsToClear )
 677:Generated_Source\PSoC6\pdl\rtos\FreeRTOS\9.0.0\Source/event_groups.c **** {
 678:Generated_Source\PSoC6\pdl\rtos\FreeRTOS\9.0.0\Source/event_groups.c **** 	( void ) xEventGroupClearBits( pvEventGroup, ( EventBits_t ) ulBitsToClear );
 679:Generated_Source\PSoC6\pdl\rtos\FreeRTOS\9.0.0\Source/event_groups.c **** }
 680:Generated_Source\PSoC6\pdl\rtos\FreeRTOS\9.0.0\Source/event_groups.c **** /*-----------------------------------------------------------*/
 681:Generated_Source\PSoC6\pdl\rtos\FreeRTOS\9.0.0\Source/event_groups.c **** 
 682:Generated_Source\PSoC6\pdl\rtos\FreeRTOS\9.0.0\Source/event_groups.c **** static BaseType_t prvTestWaitCondition( const EventBits_t uxCurrentEventBits, const EventBits_t uxB
 683:Generated_Source\PSoC6\pdl\rtos\FreeRTOS\9.0.0\Source/event_groups.c **** {
  28              		.loc 1 683 0
  29              		.cfi_startproc
  30              		@ args = 0, pretend = 0, frame = 0
  31              		@ frame_needed = 0, uses_anonymous_args = 0
  32              		@ link register save eliminated.
  33              	.LVL0:
 684:Generated_Source\PSoC6\pdl\rtos\FreeRTOS\9.0.0\Source/event_groups.c **** BaseType_t xWaitConditionMet = pdFALSE;
 685:Generated_Source\PSoC6\pdl\rtos\FreeRTOS\9.0.0\Source/event_groups.c **** 
 686:Generated_Source\PSoC6\pdl\rtos\FreeRTOS\9.0.0\Source/event_groups.c **** 	if( xWaitForAllBits == pdFALSE )
  34              		.loc 1 686 0
  35 0000 1AB9     		cbnz	r2, .L2
 687:Generated_Source\PSoC6\pdl\rtos\FreeRTOS\9.0.0\Source/event_groups.c **** 	{
 688:Generated_Source\PSoC6\pdl\rtos\FreeRTOS\9.0.0\Source/event_groups.c **** 		/* Task only has to wait for one bit within uxBitsToWaitFor to be
 689:Generated_Source\PSoC6\pdl\rtos\FreeRTOS\9.0.0\Source/event_groups.c **** 		set.  Is one already set? */
 690:Generated_Source\PSoC6\pdl\rtos\FreeRTOS\9.0.0\Source/event_groups.c **** 		if( ( uxCurrentEventBits & uxBitsToWaitFor ) != ( EventBits_t ) 0 )
  36              		.loc 1 690 0
  37 0002 0842     		tst	r0, r1
  38 0004 06D1     		bne	.L4
 684:Generated_Source\PSoC6\pdl\rtos\FreeRTOS\9.0.0\Source/event_groups.c **** BaseType_t xWaitConditionMet = pdFALSE;
  39              		.loc 1 684 0
  40 0006 0020     		movs	r0, #0
  41              	.LVL1:
  42 0008 7047     		bx	lr
  43              	.LVL2:
  44              	.L2:
 691:Generated_Source\PSoC6\pdl\rtos\FreeRTOS\9.0.0\Source/event_groups.c **** 		{
 692:Generated_Source\PSoC6\pdl\rtos\FreeRTOS\9.0.0\Source/event_groups.c **** 			xWaitConditionMet = pdTRUE;
 693:Generated_Source\PSoC6\pdl\rtos\FreeRTOS\9.0.0\Source/event_groups.c **** 		}
 694:Generated_Source\PSoC6\pdl\rtos\FreeRTOS\9.0.0\Source/event_groups.c **** 		else
 695:Generated_Source\PSoC6\pdl\rtos\FreeRTOS\9.0.0\Source/event_groups.c **** 		{
 696:Generated_Source\PSoC6\pdl\rtos\FreeRTOS\9.0.0\Source/event_groups.c **** 			mtCOVERAGE_TEST_MARKER();
ARM GAS  C:\Users\codyg\AppData\Local\Temp\cch9SNiH.s 			page 14


 697:Generated_Source\PSoC6\pdl\rtos\FreeRTOS\9.0.0\Source/event_groups.c **** 		}
 698:Generated_Source\PSoC6\pdl\rtos\FreeRTOS\9.0.0\Source/event_groups.c **** 	}
 699:Generated_Source\PSoC6\pdl\rtos\FreeRTOS\9.0.0\Source/event_groups.c **** 	else
 700:Generated_Source\PSoC6\pdl\rtos\FreeRTOS\9.0.0\Source/event_groups.c **** 	{
 701:Generated_Source\PSoC6\pdl\rtos\FreeRTOS\9.0.0\Source/event_groups.c **** 		/* Task has to wait for all the bits in uxBitsToWaitFor to be set.
 702:Generated_Source\PSoC6\pdl\rtos\FreeRTOS\9.0.0\Source/event_groups.c **** 		Are they set already? */
 703:Generated_Source\PSoC6\pdl\rtos\FreeRTOS\9.0.0\Source/event_groups.c **** 		if( ( uxCurrentEventBits & uxBitsToWaitFor ) == uxBitsToWaitFor )
  45              		.loc 1 703 0
  46 000a 31EA0003 		bics	r3, r1, r0
  47 000e 03D0     		beq	.L5
 684:Generated_Source\PSoC6\pdl\rtos\FreeRTOS\9.0.0\Source/event_groups.c **** 
  48              		.loc 1 684 0
  49 0010 0020     		movs	r0, #0
  50              	.LVL3:
  51 0012 7047     		bx	lr
  52              	.LVL4:
  53              	.L4:
 692:Generated_Source\PSoC6\pdl\rtos\FreeRTOS\9.0.0\Source/event_groups.c **** 		}
  54              		.loc 1 692 0
  55 0014 0120     		movs	r0, #1
  56              	.LVL5:
  57 0016 7047     		bx	lr
  58              	.LVL6:
  59              	.L5:
 704:Generated_Source\PSoC6\pdl\rtos\FreeRTOS\9.0.0\Source/event_groups.c **** 		{
 705:Generated_Source\PSoC6\pdl\rtos\FreeRTOS\9.0.0\Source/event_groups.c **** 			xWaitConditionMet = pdTRUE;
  60              		.loc 1 705 0
  61 0018 0120     		movs	r0, #1
  62              	.LVL7:
 706:Generated_Source\PSoC6\pdl\rtos\FreeRTOS\9.0.0\Source/event_groups.c **** 		}
 707:Generated_Source\PSoC6\pdl\rtos\FreeRTOS\9.0.0\Source/event_groups.c **** 		else
 708:Generated_Source\PSoC6\pdl\rtos\FreeRTOS\9.0.0\Source/event_groups.c **** 		{
 709:Generated_Source\PSoC6\pdl\rtos\FreeRTOS\9.0.0\Source/event_groups.c **** 			mtCOVERAGE_TEST_MARKER();
 710:Generated_Source\PSoC6\pdl\rtos\FreeRTOS\9.0.0\Source/event_groups.c **** 		}
 711:Generated_Source\PSoC6\pdl\rtos\FreeRTOS\9.0.0\Source/event_groups.c **** 	}
 712:Generated_Source\PSoC6\pdl\rtos\FreeRTOS\9.0.0\Source/event_groups.c **** 
 713:Generated_Source\PSoC6\pdl\rtos\FreeRTOS\9.0.0\Source/event_groups.c **** 	return xWaitConditionMet;
 714:Generated_Source\PSoC6\pdl\rtos\FreeRTOS\9.0.0\Source/event_groups.c **** }
  63              		.loc 1 714 0
  64 001a 7047     		bx	lr
  65              		.cfi_endproc
  66              	.LFE530:
  67              		.size	prvTestWaitCondition, .-prvTestWaitCondition
  68              		.section	.text.xEventGroupCreate,"ax",%progbits
  69              		.align	2
  70              		.global	xEventGroupCreate
  71              		.thumb
  72              		.thumb_func
  73              		.type	xEventGroupCreate, %function
  74              	xEventGroupCreate:
  75              	.LFB521:
 175:Generated_Source\PSoC6\pdl\rtos\FreeRTOS\9.0.0\Source/event_groups.c **** 	EventGroup_t *pxEventBits;
  76              		.loc 1 175 0
  77              		.cfi_startproc
  78              		@ args = 0, pretend = 0, frame = 0
  79              		@ frame_needed = 0, uses_anonymous_args = 0
  80 0000 10B5     		push	{r4, lr}
ARM GAS  C:\Users\codyg\AppData\Local\Temp\cch9SNiH.s 			page 15


  81              		.cfi_def_cfa_offset 8
  82              		.cfi_offset 4, -8
  83              		.cfi_offset 14, -4
 179:Generated_Source\PSoC6\pdl\rtos\FreeRTOS\9.0.0\Source/event_groups.c **** 
  84              		.loc 1 179 0
  85 0002 1820     		movs	r0, #24
  86 0004 FFF7FEFF 		bl	pvPortMalloc
  87              	.LVL8:
 181:Generated_Source\PSoC6\pdl\rtos\FreeRTOS\9.0.0\Source/event_groups.c **** 		{
  88              		.loc 1 181 0
  89 0008 0446     		mov	r4, r0
  90 000a 20B1     		cbz	r0, .L7
 183:Generated_Source\PSoC6\pdl\rtos\FreeRTOS\9.0.0\Source/event_groups.c **** 			vListInitialise( &( pxEventBits->xTasksWaitingForBits ) );
  91              		.loc 1 183 0
  92 000c 0023     		movs	r3, #0
  93 000e 40F8043B 		str	r3, [r0], #4
  94              	.LVL9:
 184:Generated_Source\PSoC6\pdl\rtos\FreeRTOS\9.0.0\Source/event_groups.c **** 
  95              		.loc 1 184 0
  96 0012 FFF7FEFF 		bl	vListInitialise
  97              	.LVL10:
  98              	.L7:
 203:Generated_Source\PSoC6\pdl\rtos\FreeRTOS\9.0.0\Source/event_groups.c **** 
  99              		.loc 1 203 0
 100 0016 2046     		mov	r0, r4
 101 0018 10BD     		pop	{r4, pc}
 102              		.cfi_endproc
 103              	.LFE521:
 104              		.size	xEventGroupCreate, .-xEventGroupCreate
 105 001a 00BF     		.section	.text.xEventGroupWaitBits,"ax",%progbits
 106              		.align	2
 107              		.global	xEventGroupWaitBits
 108              		.thumb
 109              		.thumb_func
 110              		.type	xEventGroupWaitBits, %function
 111              	xEventGroupWaitBits:
 112              	.LFB523:
 325:Generated_Source\PSoC6\pdl\rtos\FreeRTOS\9.0.0\Source/event_groups.c **** EventGroup_t *pxEventBits = ( EventGroup_t * ) xEventGroup;
 113              		.loc 1 325 0
 114              		.cfi_startproc
 115              		@ args = 4, pretend = 0, frame = 0
 116              		@ frame_needed = 0, uses_anonymous_args = 0
 117              	.LVL11:
 118 0000 2DE9F843 		push	{r3, r4, r5, r6, r7, r8, r9, lr}
 119              		.cfi_def_cfa_offset 32
 120              		.cfi_offset 3, -32
 121              		.cfi_offset 4, -28
 122              		.cfi_offset 5, -24
 123              		.cfi_offset 6, -20
 124              		.cfi_offset 7, -16
 125              		.cfi_offset 8, -12
 126              		.cfi_offset 9, -8
 127              		.cfi_offset 14, -4
 128 0004 089F     		ldr	r7, [sp, #32]
 129              	.LVL12:
 333:Generated_Source\PSoC6\pdl\rtos\FreeRTOS\9.0.0\Source/event_groups.c **** 	configASSERT( ( uxBitsToWaitFor & eventEVENT_BITS_CONTROL_BYTES ) == 0 );
 130              		.loc 1 333 0
ARM GAS  C:\Users\codyg\AppData\Local\Temp\cch9SNiH.s 			page 16


 131 0006 08B9     		cbnz	r0, .L10
 333:Generated_Source\PSoC6\pdl\rtos\FreeRTOS\9.0.0\Source/event_groups.c **** 	configASSERT( ( uxBitsToWaitFor & eventEVENT_BITS_CONTROL_BYTES ) == 0 );
 132              		.loc 1 333 0 is_stmt 0 discriminator 1
 133              		.syntax unified
 134              	@ 333 "Generated_Source\PSoC6\pdl\rtos\FreeRTOS\9.0.0\Source\event_groups.c" 1
 135 0008 72B6     		 cpsid i 
 136              	@ 0 "" 2
 137              		.thumb
 138              		.syntax unified
 139              	.L11:
 140 000a FEE7     		b	.L11
 141              	.L10:
 142 000c 0646     		mov	r6, r0
 334:Generated_Source\PSoC6\pdl\rtos\FreeRTOS\9.0.0\Source/event_groups.c **** 	configASSERT( uxBitsToWaitFor != 0 );
 143              		.loc 1 334 0 is_stmt 1
 144 000e 11F07F4F 		tst	r1, #-16777216
 145 0012 01D0     		beq	.L12
 334:Generated_Source\PSoC6\pdl\rtos\FreeRTOS\9.0.0\Source/event_groups.c **** 	configASSERT( uxBitsToWaitFor != 0 );
 146              		.loc 1 334 0 is_stmt 0 discriminator 1
 147              		.syntax unified
 148              	@ 334 "Generated_Source\PSoC6\pdl\rtos\FreeRTOS\9.0.0\Source\event_groups.c" 1
 149 0014 72B6     		 cpsid i 
 150              	@ 0 "" 2
 151              		.thumb
 152              		.syntax unified
 153              	.L13:
 154 0016 FEE7     		b	.L13
 155              	.L12:
 335:Generated_Source\PSoC6\pdl\rtos\FreeRTOS\9.0.0\Source/event_groups.c **** 	#if ( ( INCLUDE_xTaskGetSchedulerState == 1 ) || ( configUSE_TIMERS == 1 ) )
 156              		.loc 1 335 0 is_stmt 1
 157 0018 09B9     		cbnz	r1, .L14
 335:Generated_Source\PSoC6\pdl\rtos\FreeRTOS\9.0.0\Source/event_groups.c **** 	#if ( ( INCLUDE_xTaskGetSchedulerState == 1 ) || ( configUSE_TIMERS == 1 ) )
 158              		.loc 1 335 0 is_stmt 0 discriminator 1
 159              		.syntax unified
 160              	@ 335 "Generated_Source\PSoC6\pdl\rtos\FreeRTOS\9.0.0\Source\event_groups.c" 1
 161 001a 72B6     		 cpsid i 
 162              	@ 0 "" 2
 163              		.thumb
 164              		.syntax unified
 165              	.L15:
 166 001c FEE7     		b	.L15
 167              	.L14:
 168 001e 9946     		mov	r9, r3
 169 0020 9046     		mov	r8, r2
 170 0022 0D46     		mov	r5, r1
 338:Generated_Source\PSoC6\pdl\rtos\FreeRTOS\9.0.0\Source/event_groups.c **** 	}
 171              		.loc 1 338 0 is_stmt 1
 172 0024 FFF7FEFF 		bl	xTaskGetSchedulerState
 173              	.LVL13:
 174 0028 10B9     		cbnz	r0, .L27
 338:Generated_Source\PSoC6\pdl\rtos\FreeRTOS\9.0.0\Source/event_groups.c **** 	}
 175              		.loc 1 338 0 is_stmt 0 discriminator 2
 176 002a 1FB9     		cbnz	r7, .L28
 338:Generated_Source\PSoC6\pdl\rtos\FreeRTOS\9.0.0\Source/event_groups.c **** 	}
 177              		.loc 1 338 0
 178 002c 0123     		movs	r3, #1
 179 002e 02E0     		b	.L16
ARM GAS  C:\Users\codyg\AppData\Local\Temp\cch9SNiH.s 			page 17


 180              	.L27:
 181 0030 0123     		movs	r3, #1
 182 0032 00E0     		b	.L16
 183              	.L28:
 184 0034 0023     		movs	r3, #0
 185              	.L16:
 338:Generated_Source\PSoC6\pdl\rtos\FreeRTOS\9.0.0\Source/event_groups.c **** 	}
 186              		.loc 1 338 0 discriminator 6
 187 0036 0BB9     		cbnz	r3, .L17
 338:Generated_Source\PSoC6\pdl\rtos\FreeRTOS\9.0.0\Source/event_groups.c **** 	}
 188              		.loc 1 338 0 discriminator 7
 189              		.syntax unified
 190              	@ 338 "Generated_Source\PSoC6\pdl\rtos\FreeRTOS\9.0.0\Source\event_groups.c" 1
 191 0038 72B6     		 cpsid i 
 192              	@ 0 "" 2
 193              		.thumb
 194              		.syntax unified
 195              	.L18:
 196 003a FEE7     		b	.L18
 197              	.L17:
 342:Generated_Source\PSoC6\pdl\rtos\FreeRTOS\9.0.0\Source/event_groups.c **** 	{
 198              		.loc 1 342 0 is_stmt 1
 199 003c FFF7FEFF 		bl	vTaskSuspendAll
 200              	.LVL14:
 201              	.LBB6:
 344:Generated_Source\PSoC6\pdl\rtos\FreeRTOS\9.0.0\Source/event_groups.c **** 
 202              		.loc 1 344 0
 203 0040 3468     		ldr	r4, [r6]
 204              	.LVL15:
 347:Generated_Source\PSoC6\pdl\rtos\FreeRTOS\9.0.0\Source/event_groups.c **** 
 205              		.loc 1 347 0
 206 0042 4A46     		mov	r2, r9
 207 0044 2946     		mov	r1, r5
 208 0046 2046     		mov	r0, r4
 209 0048 FFF7FEFF 		bl	prvTestWaitCondition
 210              	.LVL16:
 349:Generated_Source\PSoC6\pdl\rtos\FreeRTOS\9.0.0\Source/event_groups.c **** 		{
 211              		.loc 1 349 0
 212 004c 38B1     		cbz	r0, .L19
 213              	.LVL17:
 357:Generated_Source\PSoC6\pdl\rtos\FreeRTOS\9.0.0\Source/event_groups.c **** 			{
 214              		.loc 1 357 0
 215 004e B8F1000F 		cmp	r8, #0
 216 0052 18D0     		beq	.L29
 359:Generated_Source\PSoC6\pdl\rtos\FreeRTOS\9.0.0\Source/event_groups.c **** 			}
 217              		.loc 1 359 0
 218 0054 24EA0503 		bic	r3, r4, r5
 219 0058 3360     		str	r3, [r6]
 354:Generated_Source\PSoC6\pdl\rtos\FreeRTOS\9.0.0\Source/event_groups.c **** 
 220              		.loc 1 354 0
 221 005a 0027     		movs	r7, #0
 222 005c 14E0     		b	.L20
 223              	.LVL18:
 224              	.L19:
 366:Generated_Source\PSoC6\pdl\rtos\FreeRTOS\9.0.0\Source/event_groups.c **** 		{
 225              		.loc 1 366 0
 226 005e 9FB1     		cbz	r7, .L20
ARM GAS  C:\Users\codyg\AppData\Local\Temp\cch9SNiH.s 			page 18


 378:Generated_Source\PSoC6\pdl\rtos\FreeRTOS\9.0.0\Source/event_groups.c **** 			{
 227              		.loc 1 378 0
 228 0060 B8F1000F 		cmp	r8, #0
 229 0064 01D1     		bne	.L30
 230              	.LBE6:
 327:Generated_Source\PSoC6\pdl\rtos\FreeRTOS\9.0.0\Source/event_groups.c **** BaseType_t xWaitConditionMet, xAlreadyYielded;
 231              		.loc 1 327 0
 232 0066 0021     		movs	r1, #0
 233 0068 01E0     		b	.L21
 234              	.L30:
 235              	.LBB7:
 380:Generated_Source\PSoC6\pdl\rtos\FreeRTOS\9.0.0\Source/event_groups.c **** 			}
 236              		.loc 1 380 0
 237 006a 4FF08071 		mov	r1, #16777216
 238              	.L21:
 239              	.LVL19:
 387:Generated_Source\PSoC6\pdl\rtos\FreeRTOS\9.0.0\Source/event_groups.c **** 			{
 240              		.loc 1 387 0
 241 006e B9F1000F 		cmp	r9, #0
 242 0072 01D0     		beq	.L22
 389:Generated_Source\PSoC6\pdl\rtos\FreeRTOS\9.0.0\Source/event_groups.c **** 			}
 243              		.loc 1 389 0
 244 0074 41F08061 		orr	r1, r1, #67108864
 245              	.LVL20:
 246              	.L22:
 399:Generated_Source\PSoC6\pdl\rtos\FreeRTOS\9.0.0\Source/event_groups.c **** 
 247              		.loc 1 399 0
 248 0078 3A46     		mov	r2, r7
 249 007a 2943     		orrs	r1, r1, r5
 250              	.LVL21:
 251 007c 301D     		adds	r0, r6, #4
 252              	.LVL22:
 253 007e FFF7FEFF 		bl	vTaskPlaceOnUnorderedEventList
 254              	.LVL23:
 404:Generated_Source\PSoC6\pdl\rtos\FreeRTOS\9.0.0\Source/event_groups.c **** 
 255              		.loc 1 404 0
 256 0082 0024     		movs	r4, #0
 257              	.LVL24:
 258 0084 00E0     		b	.L20
 259              	.LVL25:
 260              	.L29:
 354:Generated_Source\PSoC6\pdl\rtos\FreeRTOS\9.0.0\Source/event_groups.c **** 
 261              		.loc 1 354 0
 262 0086 0027     		movs	r7, #0
 263              	.LVL26:
 264              	.L20:
 265              	.LBE7:
 409:Generated_Source\PSoC6\pdl\rtos\FreeRTOS\9.0.0\Source/event_groups.c **** 
 266              		.loc 1 409 0
 267 0088 FFF7FEFF 		bl	xTaskResumeAll
 268              	.LVL27:
 411:Generated_Source\PSoC6\pdl\rtos\FreeRTOS\9.0.0\Source/event_groups.c **** 	{
 269              		.loc 1 411 0
 270 008c 0FB3     		cbz	r7, .L23
 413:Generated_Source\PSoC6\pdl\rtos\FreeRTOS\9.0.0\Source/event_groups.c **** 		{
 271              		.loc 1 413 0
 272 008e 38B9     		cbnz	r0, .L24
ARM GAS  C:\Users\codyg\AppData\Local\Temp\cch9SNiH.s 			page 19


 415:Generated_Source\PSoC6\pdl\rtos\FreeRTOS\9.0.0\Source/event_groups.c **** 		}
 273              		.loc 1 415 0
 274 0090 4FF08052 		mov	r2, #268435456
 275 0094 104B     		ldr	r3, .L32
 276 0096 1A60     		str	r2, [r3]
 277              		.syntax unified
 278              	@ 415 "Generated_Source\PSoC6\pdl\rtos\FreeRTOS\9.0.0\Source\event_groups.c" 1
 279 0098 BFF34F8F 		dsb
 280              	@ 0 "" 2
 281              	@ 415 "Generated_Source\PSoC6\pdl\rtos\FreeRTOS\9.0.0\Source\event_groups.c" 1
 282 009c BFF36F8F 		isb
 283              	@ 0 "" 2
 284              		.thumb
 285              		.syntax unified
 286              	.L24:
 426:Generated_Source\PSoC6\pdl\rtos\FreeRTOS\9.0.0\Source/event_groups.c **** 
 287              		.loc 1 426 0
 288 00a0 FFF7FEFF 		bl	uxTaskResetEventItemValue
 289              	.LVL28:
 290 00a4 0446     		mov	r4, r0
 291              	.LVL29:
 428:Generated_Source\PSoC6\pdl\rtos\FreeRTOS\9.0.0\Source/event_groups.c **** 		{
 292              		.loc 1 428 0
 293 00a6 10F0007F 		tst	r0, #33554432
 294 00aa 10D1     		bne	.L25
 430:Generated_Source\PSoC6\pdl\rtos\FreeRTOS\9.0.0\Source/event_groups.c **** 			{
 295              		.loc 1 430 0
 296 00ac FFF7FEFF 		bl	vPortEnterCritical
 297              	.LVL30:
 433:Generated_Source\PSoC6\pdl\rtos\FreeRTOS\9.0.0\Source/event_groups.c **** 
 298              		.loc 1 433 0
 299 00b0 3468     		ldr	r4, [r6]
 300              	.LVL31:
 437:Generated_Source\PSoC6\pdl\rtos\FreeRTOS\9.0.0\Source/event_groups.c **** 				{
 301              		.loc 1 437 0
 302 00b2 4A46     		mov	r2, r9
 303 00b4 2946     		mov	r1, r5
 304 00b6 2046     		mov	r0, r4
 305 00b8 FFF7FEFF 		bl	prvTestWaitCondition
 306              	.LVL32:
 307 00bc 28B1     		cbz	r0, .L26
 439:Generated_Source\PSoC6\pdl\rtos\FreeRTOS\9.0.0\Source/event_groups.c **** 					{
 308              		.loc 1 439 0
 309 00be B8F1000F 		cmp	r8, #0
 310 00c2 02D0     		beq	.L26
 441:Generated_Source\PSoC6\pdl\rtos\FreeRTOS\9.0.0\Source/event_groups.c **** 					}
 311              		.loc 1 441 0
 312 00c4 24EA0505 		bic	r5, r4, r5
 313              	.LVL33:
 314 00c8 3560     		str	r5, [r6]
 315              	.L26:
 453:Generated_Source\PSoC6\pdl\rtos\FreeRTOS\9.0.0\Source/event_groups.c **** 
 316              		.loc 1 453 0
 317 00ca FFF7FEFF 		bl	vPortExitCritical
 318              	.LVL34:
 319              	.L25:
 464:Generated_Source\PSoC6\pdl\rtos\FreeRTOS\9.0.0\Source/event_groups.c **** 	}
ARM GAS  C:\Users\codyg\AppData\Local\Temp\cch9SNiH.s 			page 20


 320              		.loc 1 464 0
 321 00ce 24F07F44 		bic	r4, r4, #-16777216
 322              	.LVL35:
 323              	.L23:
 469:Generated_Source\PSoC6\pdl\rtos\FreeRTOS\9.0.0\Source/event_groups.c **** /*-----------------------------------------------------------*/
 324              		.loc 1 469 0
 325 00d2 2046     		mov	r0, r4
 326 00d4 BDE8F883 		pop	{r3, r4, r5, r6, r7, r8, r9, pc}
 327              	.LVL36:
 328              	.L33:
 329              		.align	2
 330              	.L32:
 331 00d8 04ED00E0 		.word	-536810236
 332              		.cfi_endproc
 333              	.LFE523:
 334              		.size	xEventGroupWaitBits, .-xEventGroupWaitBits
 335              		.section	.text.xEventGroupClearBits,"ax",%progbits
 336              		.align	2
 337              		.global	xEventGroupClearBits
 338              		.thumb
 339              		.thumb_func
 340              		.type	xEventGroupClearBits, %function
 341              	xEventGroupClearBits:
 342              	.LFB524:
 473:Generated_Source\PSoC6\pdl\rtos\FreeRTOS\9.0.0\Source/event_groups.c **** EventGroup_t *pxEventBits = ( EventGroup_t * ) xEventGroup;
 343              		.loc 1 473 0
 344              		.cfi_startproc
 345              		@ args = 0, pretend = 0, frame = 0
 346              		@ frame_needed = 0, uses_anonymous_args = 0
 347              	.LVL37:
 479:Generated_Source\PSoC6\pdl\rtos\FreeRTOS\9.0.0\Source/event_groups.c **** 	configASSERT( ( uxBitsToClear & eventEVENT_BITS_CONTROL_BYTES ) == 0 );
 348              		.loc 1 479 0
 349 0000 08B9     		cbnz	r0, .L35
 479:Generated_Source\PSoC6\pdl\rtos\FreeRTOS\9.0.0\Source/event_groups.c **** 	configASSERT( ( uxBitsToClear & eventEVENT_BITS_CONTROL_BYTES ) == 0 );
 350              		.loc 1 479 0 is_stmt 0 discriminator 1
 351              		.syntax unified
 352              	@ 479 "Generated_Source\PSoC6\pdl\rtos\FreeRTOS\9.0.0\Source\event_groups.c" 1
 353 0002 72B6     		 cpsid i 
 354              	@ 0 "" 2
 355              		.thumb
 356              		.syntax unified
 357              	.L36:
 358 0004 FEE7     		b	.L36
 359              	.L35:
 473:Generated_Source\PSoC6\pdl\rtos\FreeRTOS\9.0.0\Source/event_groups.c **** EventGroup_t *pxEventBits = ( EventGroup_t * ) xEventGroup;
 360              		.loc 1 473 0 is_stmt 1
 361 0006 70B5     		push	{r4, r5, r6, lr}
 362              		.cfi_def_cfa_offset 16
 363              		.cfi_offset 4, -16
 364              		.cfi_offset 5, -12
 365              		.cfi_offset 6, -8
 366              		.cfi_offset 14, -4
 367 0008 0546     		mov	r5, r0
 480:Generated_Source\PSoC6\pdl\rtos\FreeRTOS\9.0.0\Source/event_groups.c **** 
 368              		.loc 1 480 0
 369 000a 11F07F4F 		tst	r1, #-16777216
 370 000e 01D0     		beq	.L37
ARM GAS  C:\Users\codyg\AppData\Local\Temp\cch9SNiH.s 			page 21


 480:Generated_Source\PSoC6\pdl\rtos\FreeRTOS\9.0.0\Source/event_groups.c **** 
 371              		.loc 1 480 0 is_stmt 0 discriminator 1
 372              		.syntax unified
 373              	@ 480 "Generated_Source\PSoC6\pdl\rtos\FreeRTOS\9.0.0\Source\event_groups.c" 1
 374 0010 72B6     		 cpsid i 
 375              	@ 0 "" 2
 376              		.thumb
 377              		.syntax unified
 378              	.L38:
 379 0012 FEE7     		b	.L38
 380              	.L37:
 381 0014 0C46     		mov	r4, r1
 482:Generated_Source\PSoC6\pdl\rtos\FreeRTOS\9.0.0\Source/event_groups.c **** 	{
 382              		.loc 1 482 0 is_stmt 1
 383 0016 FFF7FEFF 		bl	vPortEnterCritical
 384              	.LVL38:
 488:Generated_Source\PSoC6\pdl\rtos\FreeRTOS\9.0.0\Source/event_groups.c **** 
 385              		.loc 1 488 0
 386 001a 2E68     		ldr	r6, [r5]
 387              	.LVL39:
 491:Generated_Source\PSoC6\pdl\rtos\FreeRTOS\9.0.0\Source/event_groups.c **** 	}
 388              		.loc 1 491 0
 389 001c 26EA0401 		bic	r1, r6, r4
 390 0020 2960     		str	r1, [r5]
 493:Generated_Source\PSoC6\pdl\rtos\FreeRTOS\9.0.0\Source/event_groups.c **** 
 391              		.loc 1 493 0
 392 0022 FFF7FEFF 		bl	vPortExitCritical
 393              	.LVL40:
 496:Generated_Source\PSoC6\pdl\rtos\FreeRTOS\9.0.0\Source/event_groups.c **** /*-----------------------------------------------------------*/
 394              		.loc 1 496 0
 395 0026 3046     		mov	r0, r6
 396 0028 70BD     		pop	{r4, r5, r6, pc}
 397              		.cfi_endproc
 398              	.LFE524:
 399              		.size	xEventGroupClearBits, .-xEventGroupClearBits
 400 002a 00BF     		.section	.text.xEventGroupGetBitsFromISR,"ax",%progbits
 401              		.align	2
 402              		.global	xEventGroupGetBitsFromISR
 403              		.thumb
 404              		.thumb_func
 405              		.type	xEventGroupGetBitsFromISR, %function
 406              	xEventGroupGetBitsFromISR:
 407              	.LFB525:
 515:Generated_Source\PSoC6\pdl\rtos\FreeRTOS\9.0.0\Source/event_groups.c **** UBaseType_t uxSavedInterruptStatus;
 408              		.loc 1 515 0
 409              		.cfi_startproc
 410              		@ args = 0, pretend = 0, frame = 0
 411              		@ frame_needed = 0, uses_anonymous_args = 0
 412              		@ link register save eliminated.
 413              	.LVL41:
 414              	.LBB8:
 415              	.LBB9:
 416              		.file 2 "Generated_Source\\PSoC6\\pdl\\rtos/FreeRTOS/9.0.0/Source/portable/GCC/CM4F/portmacro.h"
   1:Generated_Source\PSoC6\pdl\rtos/FreeRTOS/9.0.0/Source/portable/GCC/CM4F/portmacro.h **** /*
   2:Generated_Source\PSoC6\pdl\rtos/FreeRTOS/9.0.0/Source/portable/GCC/CM4F/portmacro.h ****     FreeRTOS V9.0.0 - Copyright (C) 2016 Real Time Engineers Ltd.
   3:Generated_Source\PSoC6\pdl\rtos/FreeRTOS/9.0.0/Source/portable/GCC/CM4F/portmacro.h ****     All rights reserved
   4:Generated_Source\PSoC6\pdl\rtos/FreeRTOS/9.0.0/Source/portable/GCC/CM4F/portmacro.h **** 
ARM GAS  C:\Users\codyg\AppData\Local\Temp\cch9SNiH.s 			page 22


   5:Generated_Source\PSoC6\pdl\rtos/FreeRTOS/9.0.0/Source/portable/GCC/CM4F/portmacro.h ****     VISIT http://www.FreeRTOS.org TO ENSURE YOU ARE USING THE LATEST VERSION.
   6:Generated_Source\PSoC6\pdl\rtos/FreeRTOS/9.0.0/Source/portable/GCC/CM4F/portmacro.h **** 
   7:Generated_Source\PSoC6\pdl\rtos/FreeRTOS/9.0.0/Source/portable/GCC/CM4F/portmacro.h ****     This file is part of the FreeRTOS distribution.
   8:Generated_Source\PSoC6\pdl\rtos/FreeRTOS/9.0.0/Source/portable/GCC/CM4F/portmacro.h **** 
   9:Generated_Source\PSoC6\pdl\rtos/FreeRTOS/9.0.0/Source/portable/GCC/CM4F/portmacro.h ****     FreeRTOS is free software; you can redistribute it and/or modify it under
  10:Generated_Source\PSoC6\pdl\rtos/FreeRTOS/9.0.0/Source/portable/GCC/CM4F/portmacro.h ****     the terms of the GNU General Public License (version 2) as published by the
  11:Generated_Source\PSoC6\pdl\rtos/FreeRTOS/9.0.0/Source/portable/GCC/CM4F/portmacro.h ****     Free Software Foundation >>>> AND MODIFIED BY <<<< the FreeRTOS exception.
  12:Generated_Source\PSoC6\pdl\rtos/FreeRTOS/9.0.0/Source/portable/GCC/CM4F/portmacro.h **** 
  13:Generated_Source\PSoC6\pdl\rtos/FreeRTOS/9.0.0/Source/portable/GCC/CM4F/portmacro.h ****     ***************************************************************************
  14:Generated_Source\PSoC6\pdl\rtos/FreeRTOS/9.0.0/Source/portable/GCC/CM4F/portmacro.h ****     >>!   NOTE: The modification to the GPL is included to allow you to     !<<
  15:Generated_Source\PSoC6\pdl\rtos/FreeRTOS/9.0.0/Source/portable/GCC/CM4F/portmacro.h ****     >>!   distribute a combined work that includes FreeRTOS without being   !<<
  16:Generated_Source\PSoC6\pdl\rtos/FreeRTOS/9.0.0/Source/portable/GCC/CM4F/portmacro.h ****     >>!   obliged to provide the source code for proprietary components     !<<
  17:Generated_Source\PSoC6\pdl\rtos/FreeRTOS/9.0.0/Source/portable/GCC/CM4F/portmacro.h ****     >>!   outside of the FreeRTOS kernel.                                   !<<
  18:Generated_Source\PSoC6\pdl\rtos/FreeRTOS/9.0.0/Source/portable/GCC/CM4F/portmacro.h ****     ***************************************************************************
  19:Generated_Source\PSoC6\pdl\rtos/FreeRTOS/9.0.0/Source/portable/GCC/CM4F/portmacro.h **** 
  20:Generated_Source\PSoC6\pdl\rtos/FreeRTOS/9.0.0/Source/portable/GCC/CM4F/portmacro.h ****     FreeRTOS is distributed in the hope that it will be useful, but WITHOUT ANY
  21:Generated_Source\PSoC6\pdl\rtos/FreeRTOS/9.0.0/Source/portable/GCC/CM4F/portmacro.h ****     WARRANTY; without even the implied warranty of MERCHANTABILITY or FITNESS
  22:Generated_Source\PSoC6\pdl\rtos/FreeRTOS/9.0.0/Source/portable/GCC/CM4F/portmacro.h ****     FOR A PARTICULAR PURPOSE.  Full license text is available on the following
  23:Generated_Source\PSoC6\pdl\rtos/FreeRTOS/9.0.0/Source/portable/GCC/CM4F/portmacro.h ****     link: http://www.freertos.org/a00114.html
  24:Generated_Source\PSoC6\pdl\rtos/FreeRTOS/9.0.0/Source/portable/GCC/CM4F/portmacro.h **** 
  25:Generated_Source\PSoC6\pdl\rtos/FreeRTOS/9.0.0/Source/portable/GCC/CM4F/portmacro.h ****     ***************************************************************************
  26:Generated_Source\PSoC6\pdl\rtos/FreeRTOS/9.0.0/Source/portable/GCC/CM4F/portmacro.h ****      *                                                                       *
  27:Generated_Source\PSoC6\pdl\rtos/FreeRTOS/9.0.0/Source/portable/GCC/CM4F/portmacro.h ****      *    FreeRTOS provides completely free yet professionally developed,    *
  28:Generated_Source\PSoC6\pdl\rtos/FreeRTOS/9.0.0/Source/portable/GCC/CM4F/portmacro.h ****      *    robust, strictly quality controlled, supported, and cross          *
  29:Generated_Source\PSoC6\pdl\rtos/FreeRTOS/9.0.0/Source/portable/GCC/CM4F/portmacro.h ****      *    platform software that is more than just the market leader, it     *
  30:Generated_Source\PSoC6\pdl\rtos/FreeRTOS/9.0.0/Source/portable/GCC/CM4F/portmacro.h ****      *    is the industry's de facto standard.                               *
  31:Generated_Source\PSoC6\pdl\rtos/FreeRTOS/9.0.0/Source/portable/GCC/CM4F/portmacro.h ****      *                                                                       *
  32:Generated_Source\PSoC6\pdl\rtos/FreeRTOS/9.0.0/Source/portable/GCC/CM4F/portmacro.h ****      *    Help yourself get started quickly while simultaneously helping     *
  33:Generated_Source\PSoC6\pdl\rtos/FreeRTOS/9.0.0/Source/portable/GCC/CM4F/portmacro.h ****      *    to support the FreeRTOS project by purchasing a FreeRTOS           *
  34:Generated_Source\PSoC6\pdl\rtos/FreeRTOS/9.0.0/Source/portable/GCC/CM4F/portmacro.h ****      *    tutorial book, reference manual, or both:                          *
  35:Generated_Source\PSoC6\pdl\rtos/FreeRTOS/9.0.0/Source/portable/GCC/CM4F/portmacro.h ****      *    http://www.FreeRTOS.org/Documentation                              *
  36:Generated_Source\PSoC6\pdl\rtos/FreeRTOS/9.0.0/Source/portable/GCC/CM4F/portmacro.h ****      *                                                                       *
  37:Generated_Source\PSoC6\pdl\rtos/FreeRTOS/9.0.0/Source/portable/GCC/CM4F/portmacro.h ****     ***************************************************************************
  38:Generated_Source\PSoC6\pdl\rtos/FreeRTOS/9.0.0/Source/portable/GCC/CM4F/portmacro.h **** 
  39:Generated_Source\PSoC6\pdl\rtos/FreeRTOS/9.0.0/Source/portable/GCC/CM4F/portmacro.h ****     http://www.FreeRTOS.org/FAQHelp.html - Having a problem?  Start by reading
  40:Generated_Source\PSoC6\pdl\rtos/FreeRTOS/9.0.0/Source/portable/GCC/CM4F/portmacro.h ****     the FAQ page "My application does not run, what could be wrong?".  Have you
  41:Generated_Source\PSoC6\pdl\rtos/FreeRTOS/9.0.0/Source/portable/GCC/CM4F/portmacro.h ****     defined configASSERT()?
  42:Generated_Source\PSoC6\pdl\rtos/FreeRTOS/9.0.0/Source/portable/GCC/CM4F/portmacro.h **** 
  43:Generated_Source\PSoC6\pdl\rtos/FreeRTOS/9.0.0/Source/portable/GCC/CM4F/portmacro.h ****     http://www.FreeRTOS.org/support - In return for receiving this top quality
  44:Generated_Source\PSoC6\pdl\rtos/FreeRTOS/9.0.0/Source/portable/GCC/CM4F/portmacro.h ****     embedded software for free we request you assist our global community by
  45:Generated_Source\PSoC6\pdl\rtos/FreeRTOS/9.0.0/Source/portable/GCC/CM4F/portmacro.h ****     participating in the support forum.
  46:Generated_Source\PSoC6\pdl\rtos/FreeRTOS/9.0.0/Source/portable/GCC/CM4F/portmacro.h **** 
  47:Generated_Source\PSoC6\pdl\rtos/FreeRTOS/9.0.0/Source/portable/GCC/CM4F/portmacro.h ****     http://www.FreeRTOS.org/training - Investing in training allows your team to
  48:Generated_Source\PSoC6\pdl\rtos/FreeRTOS/9.0.0/Source/portable/GCC/CM4F/portmacro.h ****     be as productive as possible as early as possible.  Now you can receive
  49:Generated_Source\PSoC6\pdl\rtos/FreeRTOS/9.0.0/Source/portable/GCC/CM4F/portmacro.h ****     FreeRTOS training directly from Richard Barry, CEO of Real Time Engineers
  50:Generated_Source\PSoC6\pdl\rtos/FreeRTOS/9.0.0/Source/portable/GCC/CM4F/portmacro.h ****     Ltd, and the world's leading authority on the world's leading RTOS.
  51:Generated_Source\PSoC6\pdl\rtos/FreeRTOS/9.0.0/Source/portable/GCC/CM4F/portmacro.h **** 
  52:Generated_Source\PSoC6\pdl\rtos/FreeRTOS/9.0.0/Source/portable/GCC/CM4F/portmacro.h ****     http://www.FreeRTOS.org/plus - A selection of FreeRTOS ecosystem products,
  53:Generated_Source\PSoC6\pdl\rtos/FreeRTOS/9.0.0/Source/portable/GCC/CM4F/portmacro.h ****     including FreeRTOS+Trace - an indispensable productivity tool, a DOS
  54:Generated_Source\PSoC6\pdl\rtos/FreeRTOS/9.0.0/Source/portable/GCC/CM4F/portmacro.h ****     compatible FAT file system, and our tiny thread aware UDP/IP stack.
  55:Generated_Source\PSoC6\pdl\rtos/FreeRTOS/9.0.0/Source/portable/GCC/CM4F/portmacro.h **** 
  56:Generated_Source\PSoC6\pdl\rtos/FreeRTOS/9.0.0/Source/portable/GCC/CM4F/portmacro.h ****     http://www.FreeRTOS.org/labs - Where new FreeRTOS products go to incubate.
  57:Generated_Source\PSoC6\pdl\rtos/FreeRTOS/9.0.0/Source/portable/GCC/CM4F/portmacro.h ****     Come and try FreeRTOS+TCP, our new open source TCP/IP stack for FreeRTOS.
  58:Generated_Source\PSoC6\pdl\rtos/FreeRTOS/9.0.0/Source/portable/GCC/CM4F/portmacro.h **** 
  59:Generated_Source\PSoC6\pdl\rtos/FreeRTOS/9.0.0/Source/portable/GCC/CM4F/portmacro.h ****     http://www.OpenRTOS.com - Real Time Engineers ltd. license FreeRTOS to High
  60:Generated_Source\PSoC6\pdl\rtos/FreeRTOS/9.0.0/Source/portable/GCC/CM4F/portmacro.h ****     Integrity Systems ltd. to sell under the OpenRTOS brand.  Low cost OpenRTOS
  61:Generated_Source\PSoC6\pdl\rtos/FreeRTOS/9.0.0/Source/portable/GCC/CM4F/portmacro.h ****     licenses offer ticketed support, indemnification and commercial middleware.
ARM GAS  C:\Users\codyg\AppData\Local\Temp\cch9SNiH.s 			page 23


  62:Generated_Source\PSoC6\pdl\rtos/FreeRTOS/9.0.0/Source/portable/GCC/CM4F/portmacro.h **** 
  63:Generated_Source\PSoC6\pdl\rtos/FreeRTOS/9.0.0/Source/portable/GCC/CM4F/portmacro.h ****     http://www.SafeRTOS.com - High Integrity Systems also provide a safety
  64:Generated_Source\PSoC6\pdl\rtos/FreeRTOS/9.0.0/Source/portable/GCC/CM4F/portmacro.h ****     engineered and independently SIL3 certified version for use in safety and
  65:Generated_Source\PSoC6\pdl\rtos/FreeRTOS/9.0.0/Source/portable/GCC/CM4F/portmacro.h ****     mission critical applications that require provable dependability.
  66:Generated_Source\PSoC6\pdl\rtos/FreeRTOS/9.0.0/Source/portable/GCC/CM4F/portmacro.h **** 
  67:Generated_Source\PSoC6\pdl\rtos/FreeRTOS/9.0.0/Source/portable/GCC/CM4F/portmacro.h ****     1 tab == 4 spaces!
  68:Generated_Source\PSoC6\pdl\rtos/FreeRTOS/9.0.0/Source/portable/GCC/CM4F/portmacro.h **** */
  69:Generated_Source\PSoC6\pdl\rtos/FreeRTOS/9.0.0/Source/portable/GCC/CM4F/portmacro.h **** 
  70:Generated_Source\PSoC6\pdl\rtos/FreeRTOS/9.0.0/Source/portable/GCC/CM4F/portmacro.h **** 
  71:Generated_Source\PSoC6\pdl\rtos/FreeRTOS/9.0.0/Source/portable/GCC/CM4F/portmacro.h **** #ifndef PORTMACRO_H
  72:Generated_Source\PSoC6\pdl\rtos/FreeRTOS/9.0.0/Source/portable/GCC/CM4F/portmacro.h **** #define PORTMACRO_H
  73:Generated_Source\PSoC6\pdl\rtos/FreeRTOS/9.0.0/Source/portable/GCC/CM4F/portmacro.h **** 
  74:Generated_Source\PSoC6\pdl\rtos/FreeRTOS/9.0.0/Source/portable/GCC/CM4F/portmacro.h **** #ifdef __cplusplus
  75:Generated_Source\PSoC6\pdl\rtos/FreeRTOS/9.0.0/Source/portable/GCC/CM4F/portmacro.h **** extern "C" {
  76:Generated_Source\PSoC6\pdl\rtos/FreeRTOS/9.0.0/Source/portable/GCC/CM4F/portmacro.h **** #endif
  77:Generated_Source\PSoC6\pdl\rtos/FreeRTOS/9.0.0/Source/portable/GCC/CM4F/portmacro.h **** 
  78:Generated_Source\PSoC6\pdl\rtos/FreeRTOS/9.0.0/Source/portable/GCC/CM4F/portmacro.h **** /*-----------------------------------------------------------
  79:Generated_Source\PSoC6\pdl\rtos/FreeRTOS/9.0.0/Source/portable/GCC/CM4F/portmacro.h ****  * Port specific definitions.
  80:Generated_Source\PSoC6\pdl\rtos/FreeRTOS/9.0.0/Source/portable/GCC/CM4F/portmacro.h ****  *
  81:Generated_Source\PSoC6\pdl\rtos/FreeRTOS/9.0.0/Source/portable/GCC/CM4F/portmacro.h ****  * The settings in this file configure FreeRTOS correctly for the
  82:Generated_Source\PSoC6\pdl\rtos/FreeRTOS/9.0.0/Source/portable/GCC/CM4F/portmacro.h ****  * given hardware and compiler.
  83:Generated_Source\PSoC6\pdl\rtos/FreeRTOS/9.0.0/Source/portable/GCC/CM4F/portmacro.h ****  *
  84:Generated_Source\PSoC6\pdl\rtos/FreeRTOS/9.0.0/Source/portable/GCC/CM4F/portmacro.h ****  * These settings should not be altered.
  85:Generated_Source\PSoC6\pdl\rtos/FreeRTOS/9.0.0/Source/portable/GCC/CM4F/portmacro.h ****  *-----------------------------------------------------------
  86:Generated_Source\PSoC6\pdl\rtos/FreeRTOS/9.0.0/Source/portable/GCC/CM4F/portmacro.h ****  */
  87:Generated_Source\PSoC6\pdl\rtos/FreeRTOS/9.0.0/Source/portable/GCC/CM4F/portmacro.h **** 
  88:Generated_Source\PSoC6\pdl\rtos/FreeRTOS/9.0.0/Source/portable/GCC/CM4F/portmacro.h **** /* Type definitions. */
  89:Generated_Source\PSoC6\pdl\rtos/FreeRTOS/9.0.0/Source/portable/GCC/CM4F/portmacro.h **** #define portCHAR        char
  90:Generated_Source\PSoC6\pdl\rtos/FreeRTOS/9.0.0/Source/portable/GCC/CM4F/portmacro.h **** #define portFLOAT       float
  91:Generated_Source\PSoC6\pdl\rtos/FreeRTOS/9.0.0/Source/portable/GCC/CM4F/portmacro.h **** #define portDOUBLE      double
  92:Generated_Source\PSoC6\pdl\rtos/FreeRTOS/9.0.0/Source/portable/GCC/CM4F/portmacro.h **** #define portLONG        long
  93:Generated_Source\PSoC6\pdl\rtos/FreeRTOS/9.0.0/Source/portable/GCC/CM4F/portmacro.h **** #define portSHORT       short
  94:Generated_Source\PSoC6\pdl\rtos/FreeRTOS/9.0.0/Source/portable/GCC/CM4F/portmacro.h **** #define portSTACK_TYPE  uint32_t
  95:Generated_Source\PSoC6\pdl\rtos/FreeRTOS/9.0.0/Source/portable/GCC/CM4F/portmacro.h **** #define portBASE_TYPE   long
  96:Generated_Source\PSoC6\pdl\rtos/FreeRTOS/9.0.0/Source/portable/GCC/CM4F/portmacro.h **** 
  97:Generated_Source\PSoC6\pdl\rtos/FreeRTOS/9.0.0/Source/portable/GCC/CM4F/portmacro.h **** typedef portSTACK_TYPE StackType_t;
  98:Generated_Source\PSoC6\pdl\rtos/FreeRTOS/9.0.0/Source/portable/GCC/CM4F/portmacro.h **** typedef long BaseType_t;
  99:Generated_Source\PSoC6\pdl\rtos/FreeRTOS/9.0.0/Source/portable/GCC/CM4F/portmacro.h **** typedef unsigned long UBaseType_t;
 100:Generated_Source\PSoC6\pdl\rtos/FreeRTOS/9.0.0/Source/portable/GCC/CM4F/portmacro.h **** 
 101:Generated_Source\PSoC6\pdl\rtos/FreeRTOS/9.0.0/Source/portable/GCC/CM4F/portmacro.h **** #if( configUSE_16_BIT_TICKS == 1 )
 102:Generated_Source\PSoC6\pdl\rtos/FreeRTOS/9.0.0/Source/portable/GCC/CM4F/portmacro.h ****     typedef uint16_t TickType_t;
 103:Generated_Source\PSoC6\pdl\rtos/FreeRTOS/9.0.0/Source/portable/GCC/CM4F/portmacro.h ****     #define portMAX_DELAY ( TickType_t ) 0xffff
 104:Generated_Source\PSoC6\pdl\rtos/FreeRTOS/9.0.0/Source/portable/GCC/CM4F/portmacro.h **** #else
 105:Generated_Source\PSoC6\pdl\rtos/FreeRTOS/9.0.0/Source/portable/GCC/CM4F/portmacro.h ****     typedef uint32_t TickType_t;
 106:Generated_Source\PSoC6\pdl\rtos/FreeRTOS/9.0.0/Source/portable/GCC/CM4F/portmacro.h ****     #define portMAX_DELAY ( TickType_t ) 0xffffffffUL
 107:Generated_Source\PSoC6\pdl\rtos/FreeRTOS/9.0.0/Source/portable/GCC/CM4F/portmacro.h **** 
 108:Generated_Source\PSoC6\pdl\rtos/FreeRTOS/9.0.0/Source/portable/GCC/CM4F/portmacro.h ****     /* 32-bit tick type on a 32-bit architecture, so reads of the tick count do
 109:Generated_Source\PSoC6\pdl\rtos/FreeRTOS/9.0.0/Source/portable/GCC/CM4F/portmacro.h ****     not need to be guarded with a critical section. */
 110:Generated_Source\PSoC6\pdl\rtos/FreeRTOS/9.0.0/Source/portable/GCC/CM4F/portmacro.h ****     #define portTICK_TYPE_IS_ATOMIC 1
 111:Generated_Source\PSoC6\pdl\rtos/FreeRTOS/9.0.0/Source/portable/GCC/CM4F/portmacro.h **** #endif
 112:Generated_Source\PSoC6\pdl\rtos/FreeRTOS/9.0.0/Source/portable/GCC/CM4F/portmacro.h **** /*-----------------------------------------------------------*/
 113:Generated_Source\PSoC6\pdl\rtos/FreeRTOS/9.0.0/Source/portable/GCC/CM4F/portmacro.h **** 
 114:Generated_Source\PSoC6\pdl\rtos/FreeRTOS/9.0.0/Source/portable/GCC/CM4F/portmacro.h **** /* Architecture specifics. */
 115:Generated_Source\PSoC6\pdl\rtos/FreeRTOS/9.0.0/Source/portable/GCC/CM4F/portmacro.h **** #define portSTACK_GROWTH              ( -1 )
 116:Generated_Source\PSoC6\pdl\rtos/FreeRTOS/9.0.0/Source/portable/GCC/CM4F/portmacro.h **** #define portTICK_PERIOD_MS            ( ( TickType_t ) 1000 / configTICK_RATE_HZ )
 117:Generated_Source\PSoC6\pdl\rtos/FreeRTOS/9.0.0/Source/portable/GCC/CM4F/portmacro.h **** #define portBYTE_ALIGNMENT            8
 118:Generated_Source\PSoC6\pdl\rtos/FreeRTOS/9.0.0/Source/portable/GCC/CM4F/portmacro.h **** /*-----------------------------------------------------------*/
ARM GAS  C:\Users\codyg\AppData\Local\Temp\cch9SNiH.s 			page 24


 119:Generated_Source\PSoC6\pdl\rtos/FreeRTOS/9.0.0/Source/portable/GCC/CM4F/portmacro.h **** 
 120:Generated_Source\PSoC6\pdl\rtos/FreeRTOS/9.0.0/Source/portable/GCC/CM4F/portmacro.h **** 
 121:Generated_Source\PSoC6\pdl\rtos/FreeRTOS/9.0.0/Source/portable/GCC/CM4F/portmacro.h **** /* Scheduler utilities. */
 122:Generated_Source\PSoC6\pdl\rtos/FreeRTOS/9.0.0/Source/portable/GCC/CM4F/portmacro.h **** #define portYIELD()                                                            \
 123:Generated_Source\PSoC6\pdl\rtos/FreeRTOS/9.0.0/Source/portable/GCC/CM4F/portmacro.h **** {                                                                              \
 124:Generated_Source\PSoC6\pdl\rtos/FreeRTOS/9.0.0/Source/portable/GCC/CM4F/portmacro.h ****     /* Set a PendSV to request a context switch. */                            \
 125:Generated_Source\PSoC6\pdl\rtos/FreeRTOS/9.0.0/Source/portable/GCC/CM4F/portmacro.h ****     portNVIC_INT_CTRL_REG = portNVIC_PENDSVSET_BIT;                            \
 126:Generated_Source\PSoC6\pdl\rtos/FreeRTOS/9.0.0/Source/portable/GCC/CM4F/portmacro.h ****                                                                                \
 127:Generated_Source\PSoC6\pdl\rtos/FreeRTOS/9.0.0/Source/portable/GCC/CM4F/portmacro.h ****     /* Barriers are normally not required but do ensure the code is completely \
 128:Generated_Source\PSoC6\pdl\rtos/FreeRTOS/9.0.0/Source/portable/GCC/CM4F/portmacro.h ****     within the specified behaviour for the architecture. */                    \
 129:Generated_Source\PSoC6\pdl\rtos/FreeRTOS/9.0.0/Source/portable/GCC/CM4F/portmacro.h ****     __asm volatile( "dsb" );                                                   \
 130:Generated_Source\PSoC6\pdl\rtos/FreeRTOS/9.0.0/Source/portable/GCC/CM4F/portmacro.h ****     __asm volatile( "isb" );                                                   \
 131:Generated_Source\PSoC6\pdl\rtos/FreeRTOS/9.0.0/Source/portable/GCC/CM4F/portmacro.h **** }                                                                              \
 132:Generated_Source\PSoC6\pdl\rtos/FreeRTOS/9.0.0/Source/portable/GCC/CM4F/portmacro.h **** 
 133:Generated_Source\PSoC6\pdl\rtos/FreeRTOS/9.0.0/Source/portable/GCC/CM4F/portmacro.h **** #define portNVIC_INT_CTRL_REG         ( * ( ( volatile uint32_t * ) 0xe000ed04 ) )
 134:Generated_Source\PSoC6\pdl\rtos/FreeRTOS/9.0.0/Source/portable/GCC/CM4F/portmacro.h **** #define portNVIC_PENDSVSET_BIT        ( 1UL << 28UL )
 135:Generated_Source\PSoC6\pdl\rtos/FreeRTOS/9.0.0/Source/portable/GCC/CM4F/portmacro.h **** #define portEND_SWITCHING_ISR( xSwitchRequired ) if( xSwitchRequired != pdFALSE ) portYIELD()
 136:Generated_Source\PSoC6\pdl\rtos/FreeRTOS/9.0.0/Source/portable/GCC/CM4F/portmacro.h **** #define portYIELD_FROM_ISR( x )       portEND_SWITCHING_ISR( x )
 137:Generated_Source\PSoC6\pdl\rtos/FreeRTOS/9.0.0/Source/portable/GCC/CM4F/portmacro.h **** /*-----------------------------------------------------------*/
 138:Generated_Source\PSoC6\pdl\rtos/FreeRTOS/9.0.0/Source/portable/GCC/CM4F/portmacro.h **** 
 139:Generated_Source\PSoC6\pdl\rtos/FreeRTOS/9.0.0/Source/portable/GCC/CM4F/portmacro.h **** 
 140:Generated_Source\PSoC6\pdl\rtos/FreeRTOS/9.0.0/Source/portable/GCC/CM4F/portmacro.h **** /* Critical section management. */
 141:Generated_Source\PSoC6\pdl\rtos/FreeRTOS/9.0.0/Source/portable/GCC/CM4F/portmacro.h **** extern void vPortEnterCritical( void );
 142:Generated_Source\PSoC6\pdl\rtos/FreeRTOS/9.0.0/Source/portable/GCC/CM4F/portmacro.h **** extern void vPortExitCritical( void );
 143:Generated_Source\PSoC6\pdl\rtos/FreeRTOS/9.0.0/Source/portable/GCC/CM4F/portmacro.h **** #define portSET_INTERRUPT_MASK_FROM_ISR()       ulPortRaiseBASEPRI()
 144:Generated_Source\PSoC6\pdl\rtos/FreeRTOS/9.0.0/Source/portable/GCC/CM4F/portmacro.h **** #define portCLEAR_INTERRUPT_MASK_FROM_ISR(x)    vPortSetBASEPRI(x)
 145:Generated_Source\PSoC6\pdl\rtos/FreeRTOS/9.0.0/Source/portable/GCC/CM4F/portmacro.h **** #define portDISABLE_INTERRUPTS()                __asm volatile   ( " cpsid i " )
 146:Generated_Source\PSoC6\pdl\rtos/FreeRTOS/9.0.0/Source/portable/GCC/CM4F/portmacro.h **** #define portENABLE_INTERRUPTS()                 __asm volatile   ( " cpsie i " )
 147:Generated_Source\PSoC6\pdl\rtos/FreeRTOS/9.0.0/Source/portable/GCC/CM4F/portmacro.h **** #define portENTER_CRITICAL()                    vPortEnterCritical()
 148:Generated_Source\PSoC6\pdl\rtos/FreeRTOS/9.0.0/Source/portable/GCC/CM4F/portmacro.h **** #define portEXIT_CRITICAL()                     vPortExitCritical()
 149:Generated_Source\PSoC6\pdl\rtos/FreeRTOS/9.0.0/Source/portable/GCC/CM4F/portmacro.h **** 
 150:Generated_Source\PSoC6\pdl\rtos/FreeRTOS/9.0.0/Source/portable/GCC/CM4F/portmacro.h **** /*-----------------------------------------------------------*/
 151:Generated_Source\PSoC6\pdl\rtos/FreeRTOS/9.0.0/Source/portable/GCC/CM4F/portmacro.h **** 
 152:Generated_Source\PSoC6\pdl\rtos/FreeRTOS/9.0.0/Source/portable/GCC/CM4F/portmacro.h **** /* Task function macros as described on the FreeRTOS.org WEB site. */
 153:Generated_Source\PSoC6\pdl\rtos/FreeRTOS/9.0.0/Source/portable/GCC/CM4F/portmacro.h **** #define portTASK_FUNCTION_PROTO( vFunction, pvParameters ) void vFunction( void *pvParameters )
 154:Generated_Source\PSoC6\pdl\rtos/FreeRTOS/9.0.0/Source/portable/GCC/CM4F/portmacro.h **** #define portTASK_FUNCTION( vFunction, pvParameters ) void vFunction( void *pvParameters )
 155:Generated_Source\PSoC6\pdl\rtos/FreeRTOS/9.0.0/Source/portable/GCC/CM4F/portmacro.h **** 
 156:Generated_Source\PSoC6\pdl\rtos/FreeRTOS/9.0.0/Source/portable/GCC/CM4F/portmacro.h **** /*-----------------------------------------------------------*/
 157:Generated_Source\PSoC6\pdl\rtos/FreeRTOS/9.0.0/Source/portable/GCC/CM4F/portmacro.h **** 
 158:Generated_Source\PSoC6\pdl\rtos/FreeRTOS/9.0.0/Source/portable/GCC/CM4F/portmacro.h **** #ifdef configASSERT
 159:Generated_Source\PSoC6\pdl\rtos/FreeRTOS/9.0.0/Source/portable/GCC/CM4F/portmacro.h ****     void vPortValidateInterruptPriority( void );
 160:Generated_Source\PSoC6\pdl\rtos/FreeRTOS/9.0.0/Source/portable/GCC/CM4F/portmacro.h ****     #define portASSERT_IF_INTERRUPT_PRIORITY_INVALID()     vPortValidateInterruptPriority()
 161:Generated_Source\PSoC6\pdl\rtos/FreeRTOS/9.0.0/Source/portable/GCC/CM4F/portmacro.h **** #endif
 162:Generated_Source\PSoC6\pdl\rtos/FreeRTOS/9.0.0/Source/portable/GCC/CM4F/portmacro.h **** 
 163:Generated_Source\PSoC6\pdl\rtos/FreeRTOS/9.0.0/Source/portable/GCC/CM4F/portmacro.h **** /* portNOP() is not required by this port. */
 164:Generated_Source\PSoC6\pdl\rtos/FreeRTOS/9.0.0/Source/portable/GCC/CM4F/portmacro.h **** #define portNOP()
 165:Generated_Source\PSoC6\pdl\rtos/FreeRTOS/9.0.0/Source/portable/GCC/CM4F/portmacro.h **** 
 166:Generated_Source\PSoC6\pdl\rtos/FreeRTOS/9.0.0/Source/portable/GCC/CM4F/portmacro.h **** #define portINLINE    __inline
 167:Generated_Source\PSoC6\pdl\rtos/FreeRTOS/9.0.0/Source/portable/GCC/CM4F/portmacro.h **** 
 168:Generated_Source\PSoC6\pdl\rtos/FreeRTOS/9.0.0/Source/portable/GCC/CM4F/portmacro.h **** #ifndef portFORCE_INLINE
 169:Generated_Source\PSoC6\pdl\rtos/FreeRTOS/9.0.0/Source/portable/GCC/CM4F/portmacro.h ****     #define portFORCE_INLINE inline __attribute__(( always_inline))
 170:Generated_Source\PSoC6\pdl\rtos/FreeRTOS/9.0.0/Source/portable/GCC/CM4F/portmacro.h **** #endif
 171:Generated_Source\PSoC6\pdl\rtos/FreeRTOS/9.0.0/Source/portable/GCC/CM4F/portmacro.h **** 
 172:Generated_Source\PSoC6\pdl\rtos/FreeRTOS/9.0.0/Source/portable/GCC/CM4F/portmacro.h **** /*-----------------------------------------------------------*/
 173:Generated_Source\PSoC6\pdl\rtos/FreeRTOS/9.0.0/Source/portable/GCC/CM4F/portmacro.h **** 
 174:Generated_Source\PSoC6\pdl\rtos/FreeRTOS/9.0.0/Source/portable/GCC/CM4F/portmacro.h **** portFORCE_INLINE static BaseType_t xPortIsInsideInterrupt( void )
 175:Generated_Source\PSoC6\pdl\rtos/FreeRTOS/9.0.0/Source/portable/GCC/CM4F/portmacro.h **** {
ARM GAS  C:\Users\codyg\AppData\Local\Temp\cch9SNiH.s 			page 25


 176:Generated_Source\PSoC6\pdl\rtos/FreeRTOS/9.0.0/Source/portable/GCC/CM4F/portmacro.h **** uint32_t ulCurrentInterrupt;
 177:Generated_Source\PSoC6\pdl\rtos/FreeRTOS/9.0.0/Source/portable/GCC/CM4F/portmacro.h **** BaseType_t xReturn;
 178:Generated_Source\PSoC6\pdl\rtos/FreeRTOS/9.0.0/Source/portable/GCC/CM4F/portmacro.h **** 
 179:Generated_Source\PSoC6\pdl\rtos/FreeRTOS/9.0.0/Source/portable/GCC/CM4F/portmacro.h ****     /* Obtain the number of the currently executing interrupt. */
 180:Generated_Source\PSoC6\pdl\rtos/FreeRTOS/9.0.0/Source/portable/GCC/CM4F/portmacro.h ****     __asm volatile( "mrs %0, ipsr" : "=r"( ulCurrentInterrupt ) );
 181:Generated_Source\PSoC6\pdl\rtos/FreeRTOS/9.0.0/Source/portable/GCC/CM4F/portmacro.h **** 
 182:Generated_Source\PSoC6\pdl\rtos/FreeRTOS/9.0.0/Source/portable/GCC/CM4F/portmacro.h ****     if( ulCurrentInterrupt == 0 )
 183:Generated_Source\PSoC6\pdl\rtos/FreeRTOS/9.0.0/Source/portable/GCC/CM4F/portmacro.h ****     {
 184:Generated_Source\PSoC6\pdl\rtos/FreeRTOS/9.0.0/Source/portable/GCC/CM4F/portmacro.h ****         xReturn = pdFALSE;
 185:Generated_Source\PSoC6\pdl\rtos/FreeRTOS/9.0.0/Source/portable/GCC/CM4F/portmacro.h ****     }
 186:Generated_Source\PSoC6\pdl\rtos/FreeRTOS/9.0.0/Source/portable/GCC/CM4F/portmacro.h ****     else
 187:Generated_Source\PSoC6\pdl\rtos/FreeRTOS/9.0.0/Source/portable/GCC/CM4F/portmacro.h ****     {
 188:Generated_Source\PSoC6\pdl\rtos/FreeRTOS/9.0.0/Source/portable/GCC/CM4F/portmacro.h ****         xReturn = pdTRUE;
 189:Generated_Source\PSoC6\pdl\rtos/FreeRTOS/9.0.0/Source/portable/GCC/CM4F/portmacro.h ****     }
 190:Generated_Source\PSoC6\pdl\rtos/FreeRTOS/9.0.0/Source/portable/GCC/CM4F/portmacro.h **** 
 191:Generated_Source\PSoC6\pdl\rtos/FreeRTOS/9.0.0/Source/portable/GCC/CM4F/portmacro.h ****     return xReturn;
 192:Generated_Source\PSoC6\pdl\rtos/FreeRTOS/9.0.0/Source/portable/GCC/CM4F/portmacro.h **** }
 193:Generated_Source\PSoC6\pdl\rtos/FreeRTOS/9.0.0/Source/portable/GCC/CM4F/portmacro.h **** /*-----------------------------------------------------------*/
 194:Generated_Source\PSoC6\pdl\rtos/FreeRTOS/9.0.0/Source/portable/GCC/CM4F/portmacro.h **** 
 195:Generated_Source\PSoC6\pdl\rtos/FreeRTOS/9.0.0/Source/portable/GCC/CM4F/portmacro.h **** portFORCE_INLINE static void vPortRaiseBASEPRI( void )
 196:Generated_Source\PSoC6\pdl\rtos/FreeRTOS/9.0.0/Source/portable/GCC/CM4F/portmacro.h **** {
 197:Generated_Source\PSoC6\pdl\rtos/FreeRTOS/9.0.0/Source/portable/GCC/CM4F/portmacro.h **** uint32_t ulNewBASEPRI;
 198:Generated_Source\PSoC6\pdl\rtos/FreeRTOS/9.0.0/Source/portable/GCC/CM4F/portmacro.h **** 
 199:Generated_Source\PSoC6\pdl\rtos/FreeRTOS/9.0.0/Source/portable/GCC/CM4F/portmacro.h ****     __asm volatile
 200:Generated_Source\PSoC6\pdl\rtos/FreeRTOS/9.0.0/Source/portable/GCC/CM4F/portmacro.h ****     (
 201:Generated_Source\PSoC6\pdl\rtos/FreeRTOS/9.0.0/Source/portable/GCC/CM4F/portmacro.h ****         "    mov %0, %1                                                 \n" \
 202:Generated_Source\PSoC6\pdl\rtos/FreeRTOS/9.0.0/Source/portable/GCC/CM4F/portmacro.h ****         "    msr basepri, %0                                            \n" \
 203:Generated_Source\PSoC6\pdl\rtos/FreeRTOS/9.0.0/Source/portable/GCC/CM4F/portmacro.h ****         "    isb                                                        \n" \
 204:Generated_Source\PSoC6\pdl\rtos/FreeRTOS/9.0.0/Source/portable/GCC/CM4F/portmacro.h ****         "    dsb                                                        \n" \
 205:Generated_Source\PSoC6\pdl\rtos/FreeRTOS/9.0.0/Source/portable/GCC/CM4F/portmacro.h ****         :"=r" (ulNewBASEPRI) : "i" ( configMAX_SYSCALL_INTERRUPT_PRIORITY )
 206:Generated_Source\PSoC6\pdl\rtos/FreeRTOS/9.0.0/Source/portable/GCC/CM4F/portmacro.h ****     );
 207:Generated_Source\PSoC6\pdl\rtos/FreeRTOS/9.0.0/Source/portable/GCC/CM4F/portmacro.h **** }
 208:Generated_Source\PSoC6\pdl\rtos/FreeRTOS/9.0.0/Source/portable/GCC/CM4F/portmacro.h **** 
 209:Generated_Source\PSoC6\pdl\rtos/FreeRTOS/9.0.0/Source/portable/GCC/CM4F/portmacro.h **** /*-----------------------------------------------------------*/
 210:Generated_Source\PSoC6\pdl\rtos/FreeRTOS/9.0.0/Source/portable/GCC/CM4F/portmacro.h **** 
 211:Generated_Source\PSoC6\pdl\rtos/FreeRTOS/9.0.0/Source/portable/GCC/CM4F/portmacro.h **** portFORCE_INLINE static uint32_t ulPortRaiseBASEPRI( void )
 212:Generated_Source\PSoC6\pdl\rtos/FreeRTOS/9.0.0/Source/portable/GCC/CM4F/portmacro.h **** {
 213:Generated_Source\PSoC6\pdl\rtos/FreeRTOS/9.0.0/Source/portable/GCC/CM4F/portmacro.h **** uint32_t ulOriginalBASEPRI, ulNewBASEPRI;
 214:Generated_Source\PSoC6\pdl\rtos/FreeRTOS/9.0.0/Source/portable/GCC/CM4F/portmacro.h **** 
 215:Generated_Source\PSoC6\pdl\rtos/FreeRTOS/9.0.0/Source/portable/GCC/CM4F/portmacro.h ****     __asm volatile
 417              		.loc 2 215 0
 418              		.syntax unified
 419              	@ 215 "Generated_Source\PSoC6\pdl\rtos/FreeRTOS/9.0.0/Source/portable/GCC/CM4F/portmacro.h" 1
 420 0000 EFF31183 		    mrs r3, basepri                                            
 421 0004 4FF02F02 	    mov r2, #47                                                 
 422 0008 82F31188 	    msr basepri, r2                                            
 423 000c BFF36F8F 	    isb                                                        
 424 0010 BFF34F8F 	    dsb                                                        
 425              	
 426              	@ 0 "" 2
 427              		.thumb
 428              		.syntax unified
 429              	.LBE9:
 430              	.LBE8:
 522:Generated_Source\PSoC6\pdl\rtos\FreeRTOS\9.0.0\Source/event_groups.c **** 	}
 431              		.loc 1 522 0
 432 0014 0068     		ldr	r0, [r0]
ARM GAS  C:\Users\codyg\AppData\Local\Temp\cch9SNiH.s 			page 26


 433              	.LVL42:
 434              	.LBB10:
 435              	.LBB11:
 216:Generated_Source\PSoC6\pdl\rtos/FreeRTOS/9.0.0/Source/portable/GCC/CM4F/portmacro.h ****     (
 217:Generated_Source\PSoC6\pdl\rtos/FreeRTOS/9.0.0/Source/portable/GCC/CM4F/portmacro.h ****         "    mrs %0, basepri                                            \n" \
 218:Generated_Source\PSoC6\pdl\rtos/FreeRTOS/9.0.0/Source/portable/GCC/CM4F/portmacro.h ****         "    mov %1, %2                                                 \n" \
 219:Generated_Source\PSoC6\pdl\rtos/FreeRTOS/9.0.0/Source/portable/GCC/CM4F/portmacro.h ****         "    msr basepri, %1                                            \n" \
 220:Generated_Source\PSoC6\pdl\rtos/FreeRTOS/9.0.0/Source/portable/GCC/CM4F/portmacro.h ****         "    isb                                                        \n" \
 221:Generated_Source\PSoC6\pdl\rtos/FreeRTOS/9.0.0/Source/portable/GCC/CM4F/portmacro.h ****         "    dsb                                                        \n" \
 222:Generated_Source\PSoC6\pdl\rtos/FreeRTOS/9.0.0/Source/portable/GCC/CM4F/portmacro.h ****         :"=r" (ulOriginalBASEPRI), "=r" (ulNewBASEPRI) : "i" ( configMAX_SYSCALL_INTERRUPT_PRIORITY
 223:Generated_Source\PSoC6\pdl\rtos/FreeRTOS/9.0.0/Source/portable/GCC/CM4F/portmacro.h ****     );
 224:Generated_Source\PSoC6\pdl\rtos/FreeRTOS/9.0.0/Source/portable/GCC/CM4F/portmacro.h **** 
 225:Generated_Source\PSoC6\pdl\rtos/FreeRTOS/9.0.0/Source/portable/GCC/CM4F/portmacro.h ****     /* This return will not be reached but is necessary to prevent compiler
 226:Generated_Source\PSoC6\pdl\rtos/FreeRTOS/9.0.0/Source/portable/GCC/CM4F/portmacro.h ****     warnings. */
 227:Generated_Source\PSoC6\pdl\rtos/FreeRTOS/9.0.0/Source/portable/GCC/CM4F/portmacro.h ****     return ulOriginalBASEPRI;
 228:Generated_Source\PSoC6\pdl\rtos/FreeRTOS/9.0.0/Source/portable/GCC/CM4F/portmacro.h **** }
 229:Generated_Source\PSoC6\pdl\rtos/FreeRTOS/9.0.0/Source/portable/GCC/CM4F/portmacro.h **** /*-----------------------------------------------------------*/
 230:Generated_Source\PSoC6\pdl\rtos/FreeRTOS/9.0.0/Source/portable/GCC/CM4F/portmacro.h **** 
 231:Generated_Source\PSoC6\pdl\rtos/FreeRTOS/9.0.0/Source/portable/GCC/CM4F/portmacro.h **** portFORCE_INLINE static void vPortSetBASEPRI( uint32_t ulNewMaskValue )
 232:Generated_Source\PSoC6\pdl\rtos/FreeRTOS/9.0.0/Source/portable/GCC/CM4F/portmacro.h **** {
 233:Generated_Source\PSoC6\pdl\rtos/FreeRTOS/9.0.0/Source/portable/GCC/CM4F/portmacro.h ****     __asm volatile
 436              		.loc 2 233 0
 437              		.syntax unified
 438              	@ 233 "Generated_Source\PSoC6\pdl\rtos/FreeRTOS/9.0.0/Source/portable/GCC/CM4F/portmacro.h" 1
 439 0016 83F31188 		    msr basepri, r3  
 440              	@ 0 "" 2
 441              		.thumb
 442              		.syntax unified
 443              	.LBE11:
 444              	.LBE10:
 527:Generated_Source\PSoC6\pdl\rtos\FreeRTOS\9.0.0\Source/event_groups.c **** /*-----------------------------------------------------------*/
 445              		.loc 1 527 0
 446 001a 7047     		bx	lr
 447              		.cfi_endproc
 448              	.LFE525:
 449              		.size	xEventGroupGetBitsFromISR, .-xEventGroupGetBitsFromISR
 450              		.section	.text.xEventGroupSetBits,"ax",%progbits
 451              		.align	2
 452              		.global	xEventGroupSetBits
 453              		.thumb
 454              		.thumb_func
 455              		.type	xEventGroupSetBits, %function
 456              	xEventGroupSetBits:
 457              	.LFB526:
 531:Generated_Source\PSoC6\pdl\rtos\FreeRTOS\9.0.0\Source/event_groups.c **** ListItem_t *pxListItem, *pxNext;
 458              		.loc 1 531 0
 459              		.cfi_startproc
 460              		@ args = 0, pretend = 0, frame = 0
 461              		@ frame_needed = 0, uses_anonymous_args = 0
 462              	.LVL43:
 541:Generated_Source\PSoC6\pdl\rtos\FreeRTOS\9.0.0\Source/event_groups.c **** 	configASSERT( ( uxBitsToSet & eventEVENT_BITS_CONTROL_BYTES ) == 0 );
 463              		.loc 1 541 0
 464 0000 08B9     		cbnz	r0, .L42
 541:Generated_Source\PSoC6\pdl\rtos\FreeRTOS\9.0.0\Source/event_groups.c **** 	configASSERT( ( uxBitsToSet & eventEVENT_BITS_CONTROL_BYTES ) == 0 );
 465              		.loc 1 541 0 is_stmt 0 discriminator 1
 466              		.syntax unified
 467              	@ 541 "Generated_Source\PSoC6\pdl\rtos\FreeRTOS\9.0.0\Source\event_groups.c" 1
ARM GAS  C:\Users\codyg\AppData\Local\Temp\cch9SNiH.s 			page 27


 468 0002 72B6     		 cpsid i 
 469              	@ 0 "" 2
 470              		.thumb
 471              		.syntax unified
 472              	.L43:
 473 0004 FEE7     		b	.L43
 474              	.L42:
 531:Generated_Source\PSoC6\pdl\rtos\FreeRTOS\9.0.0\Source/event_groups.c **** ListItem_t *pxListItem, *pxNext;
 475              		.loc 1 531 0 is_stmt 1
 476 0006 F8B5     		push	{r3, r4, r5, r6, r7, lr}
 477              		.cfi_def_cfa_offset 24
 478              		.cfi_offset 3, -24
 479              		.cfi_offset 4, -20
 480              		.cfi_offset 5, -16
 481              		.cfi_offset 6, -12
 482              		.cfi_offset 7, -8
 483              		.cfi_offset 14, -4
 484 0008 0446     		mov	r4, r0
 542:Generated_Source\PSoC6\pdl\rtos\FreeRTOS\9.0.0\Source/event_groups.c **** 
 485              		.loc 1 542 0
 486 000a 11F07F4F 		tst	r1, #-16777216
 487 000e 01D0     		beq	.L44
 542:Generated_Source\PSoC6\pdl\rtos\FreeRTOS\9.0.0\Source/event_groups.c **** 
 488              		.loc 1 542 0 is_stmt 0 discriminator 1
 489              		.syntax unified
 490              	@ 542 "Generated_Source\PSoC6\pdl\rtos\FreeRTOS\9.0.0\Source\event_groups.c" 1
 491 0010 72B6     		 cpsid i 
 492              	@ 0 "" 2
 493              		.thumb
 494              		.syntax unified
 495              	.L45:
 496 0012 FEE7     		b	.L45
 497              	.L44:
 498 0014 0D46     		mov	r5, r1
 499              	.LVL44:
 545:Generated_Source\PSoC6\pdl\rtos\FreeRTOS\9.0.0\Source/event_groups.c **** 	vTaskSuspendAll();
 500              		.loc 1 545 0 is_stmt 1
 501 0016 00F10C06 		add	r6, r0, #12
 502              	.LVL45:
 546:Generated_Source\PSoC6\pdl\rtos\FreeRTOS\9.0.0\Source/event_groups.c **** 	{
 503              		.loc 1 546 0
 504 001a FFF7FEFF 		bl	vTaskSuspendAll
 505              	.LVL46:
 550:Generated_Source\PSoC6\pdl\rtos\FreeRTOS\9.0.0\Source/event_groups.c **** 
 506              		.loc 1 550 0
 507 001e 2069     		ldr	r0, [r4, #16]
 508              	.LVL47:
 553:Generated_Source\PSoC6\pdl\rtos\FreeRTOS\9.0.0\Source/event_groups.c **** 
 509              		.loc 1 553 0
 510 0020 2168     		ldr	r1, [r4]
 511 0022 2943     		orrs	r1, r1, r5
 512 0024 2160     		str	r1, [r4]
 535:Generated_Source\PSoC6\pdl\rtos\FreeRTOS\9.0.0\Source/event_groups.c **** EventGroup_t *pxEventBits = ( EventGroup_t * ) xEventGroup;
 513              		.loc 1 535 0
 514 0026 0025     		movs	r5, #0
 515              	.LVL48:
 556:Generated_Source\PSoC6\pdl\rtos\FreeRTOS\9.0.0\Source/event_groups.c **** 		{
ARM GAS  C:\Users\codyg\AppData\Local\Temp\cch9SNiH.s 			page 28


 516              		.loc 1 556 0
 517 0028 1FE0     		b	.L46
 518              	.LVL49:
 519              	.L51:
 558:Generated_Source\PSoC6\pdl\rtos\FreeRTOS\9.0.0\Source/event_groups.c **** 			uxBitsWaitedFor = listGET_LIST_ITEM_VALUE( pxListItem );
 520              		.loc 1 558 0
 521 002a 4768     		ldr	r7, [r0, #4]
 522              	.LVL50:
 559:Generated_Source\PSoC6\pdl\rtos\FreeRTOS\9.0.0\Source/event_groups.c **** 			xMatchFound = pdFALSE;
 523              		.loc 1 559 0
 524 002c 0168     		ldr	r1, [r0]
 525              	.LVL51:
 564:Generated_Source\PSoC6\pdl\rtos\FreeRTOS\9.0.0\Source/event_groups.c **** 
 526              		.loc 1 564 0
 527 002e 21F07F42 		bic	r2, r1, #-16777216
 528              	.LVL52:
 566:Generated_Source\PSoC6\pdl\rtos\FreeRTOS\9.0.0\Source/event_groups.c **** 			{
 529              		.loc 1 566 0
 530 0032 11F0806F 		tst	r1, #67108864
 531 0036 04D1     		bne	.L47
 569:Generated_Source\PSoC6\pdl\rtos\FreeRTOS\9.0.0\Source/event_groups.c **** 				{
 532              		.loc 1 569 0
 533 0038 2368     		ldr	r3, [r4]
 534 003a 1A42     		tst	r2, r3
 535 003c 07D1     		bne	.L52
 560:Generated_Source\PSoC6\pdl\rtos\FreeRTOS\9.0.0\Source/event_groups.c **** 
 536              		.loc 1 560 0
 537 003e 0023     		movs	r3, #0
 538 0040 08E0     		b	.L48
 539              	.L47:
 578:Generated_Source\PSoC6\pdl\rtos\FreeRTOS\9.0.0\Source/event_groups.c **** 			{
 540              		.loc 1 578 0
 541 0042 2368     		ldr	r3, [r4]
 542 0044 32EA0303 		bics	r3, r2, r3
 543 0048 03D0     		beq	.L53
 560:Generated_Source\PSoC6\pdl\rtos\FreeRTOS\9.0.0\Source/event_groups.c **** 
 544              		.loc 1 560 0
 545 004a 0023     		movs	r3, #0
 546 004c 02E0     		b	.L48
 547              	.L52:
 571:Generated_Source\PSoC6\pdl\rtos\FreeRTOS\9.0.0\Source/event_groups.c **** 				}
 548              		.loc 1 571 0
 549 004e 0123     		movs	r3, #1
 550 0050 00E0     		b	.L48
 551              	.L53:
 581:Generated_Source\PSoC6\pdl\rtos\FreeRTOS\9.0.0\Source/event_groups.c **** 			}
 552              		.loc 1 581 0
 553 0052 0123     		movs	r3, #1
 554              	.L48:
 555              	.LVL53:
 588:Generated_Source\PSoC6\pdl\rtos\FreeRTOS\9.0.0\Source/event_groups.c **** 			{
 556              		.loc 1 588 0
 557 0054 43B1     		cbz	r3, .L49
 591:Generated_Source\PSoC6\pdl\rtos\FreeRTOS\9.0.0\Source/event_groups.c **** 				{
 558              		.loc 1 591 0
 559 0056 11F0807F 		tst	r1, #16777216
 560 005a 00D0     		beq	.L50
ARM GAS  C:\Users\codyg\AppData\Local\Temp\cch9SNiH.s 			page 29


 593:Generated_Source\PSoC6\pdl\rtos\FreeRTOS\9.0.0\Source/event_groups.c **** 				}
 561              		.loc 1 593 0
 562 005c 1543     		orrs	r5, r5, r2
 563              	.LVL54:
 564              	.L50:
 605:Generated_Source\PSoC6\pdl\rtos\FreeRTOS\9.0.0\Source/event_groups.c **** 			}
 565              		.loc 1 605 0
 566 005e 2168     		ldr	r1, [r4]
 567              	.LVL55:
 568 0060 41F00071 		orr	r1, r1, #33554432
 569 0064 FFF7FEFF 		bl	xTaskRemoveFromUnorderedEventList
 570              	.LVL56:
 571              	.L49:
 560:Generated_Source\PSoC6\pdl\rtos\FreeRTOS\9.0.0\Source/event_groups.c **** 
 572              		.loc 1 560 0
 573 0068 3846     		mov	r0, r7
 574              	.LVL57:
 575              	.L46:
 556:Generated_Source\PSoC6\pdl\rtos\FreeRTOS\9.0.0\Source/event_groups.c **** 		{
 576              		.loc 1 556 0
 577 006a B042     		cmp	r0, r6
 578 006c DDD1     		bne	.L51
 616:Generated_Source\PSoC6\pdl\rtos\FreeRTOS\9.0.0\Source/event_groups.c **** 	}
 579              		.loc 1 616 0
 580 006e 2368     		ldr	r3, [r4]
 581 0070 23EA0503 		bic	r3, r3, r5
 582 0074 2360     		str	r3, [r4]
 618:Generated_Source\PSoC6\pdl\rtos\FreeRTOS\9.0.0\Source/event_groups.c **** 
 583              		.loc 1 618 0
 584 0076 FFF7FEFF 		bl	xTaskResumeAll
 585              	.LVL58:
 621:Generated_Source\PSoC6\pdl\rtos\FreeRTOS\9.0.0\Source/event_groups.c **** /*-----------------------------------------------------------*/
 586              		.loc 1 621 0
 587 007a 2068     		ldr	r0, [r4]
 588 007c F8BD     		pop	{r3, r4, r5, r6, r7, pc}
 589              		.cfi_endproc
 590              	.LFE526:
 591              		.size	xEventGroupSetBits, .-xEventGroupSetBits
 592 007e 00BF     		.section	.text.xEventGroupSync,"ax",%progbits
 593              		.align	2
 594              		.global	xEventGroupSync
 595              		.thumb
 596              		.thumb_func
 597              		.type	xEventGroupSync, %function
 598              	xEventGroupSync:
 599              	.LFB522:
 209:Generated_Source\PSoC6\pdl\rtos\FreeRTOS\9.0.0\Source/event_groups.c **** EventBits_t uxOriginalBitValue, uxReturn;
 600              		.loc 1 209 0
 601              		.cfi_startproc
 602              		@ args = 0, pretend = 0, frame = 0
 603              		@ frame_needed = 0, uses_anonymous_args = 0
 604              	.LVL59:
 215:Generated_Source\PSoC6\pdl\rtos\FreeRTOS\9.0.0\Source/event_groups.c **** 	configASSERT( uxBitsToWaitFor != 0 );
 605              		.loc 1 215 0
 606 0000 12F07F4F 		tst	r2, #-16777216
 607 0004 01D0     		beq	.L56
 215:Generated_Source\PSoC6\pdl\rtos\FreeRTOS\9.0.0\Source/event_groups.c **** 	configASSERT( uxBitsToWaitFor != 0 );
ARM GAS  C:\Users\codyg\AppData\Local\Temp\cch9SNiH.s 			page 30


 608              		.loc 1 215 0 is_stmt 0 discriminator 1
 609              		.syntax unified
 610              	@ 215 "Generated_Source\PSoC6\pdl\rtos\FreeRTOS\9.0.0\Source\event_groups.c" 1
 611 0006 72B6     		 cpsid i 
 612              	@ 0 "" 2
 613              		.thumb
 614              		.syntax unified
 615              	.L57:
 616 0008 FEE7     		b	.L57
 617              	.L56:
 209:Generated_Source\PSoC6\pdl\rtos\FreeRTOS\9.0.0\Source/event_groups.c **** EventBits_t uxOriginalBitValue, uxReturn;
 618              		.loc 1 209 0 is_stmt 1
 619 000a 2DE9F041 		push	{r4, r5, r6, r7, r8, lr}
 620              		.cfi_def_cfa_offset 24
 621              		.cfi_offset 4, -24
 622              		.cfi_offset 5, -20
 623              		.cfi_offset 6, -16
 624              		.cfi_offset 7, -12
 625              		.cfi_offset 8, -8
 626              		.cfi_offset 14, -4
 627 000e 0646     		mov	r6, r0
 628 0010 0C46     		mov	r4, r1
 629 0012 1546     		mov	r5, r2
 630 0014 1F46     		mov	r7, r3
 216:Generated_Source\PSoC6\pdl\rtos\FreeRTOS\9.0.0\Source/event_groups.c **** 	#if ( ( INCLUDE_xTaskGetSchedulerState == 1 ) || ( configUSE_TIMERS == 1 ) )
 631              		.loc 1 216 0
 632 0016 0AB9     		cbnz	r2, .L58
 216:Generated_Source\PSoC6\pdl\rtos\FreeRTOS\9.0.0\Source/event_groups.c **** 	#if ( ( INCLUDE_xTaskGetSchedulerState == 1 ) || ( configUSE_TIMERS == 1 ) )
 633              		.loc 1 216 0 is_stmt 0 discriminator 1
 634              		.syntax unified
 635              	@ 216 "Generated_Source\PSoC6\pdl\rtos\FreeRTOS\9.0.0\Source\event_groups.c" 1
 636 0018 72B6     		 cpsid i 
 637              	@ 0 "" 2
 638              		.thumb
 639              		.syntax unified
 640              	.L59:
 641 001a FEE7     		b	.L59
 642              	.L58:
 219:Generated_Source\PSoC6\pdl\rtos\FreeRTOS\9.0.0\Source/event_groups.c **** 	}
 643              		.loc 1 219 0 is_stmt 1
 644 001c FFF7FEFF 		bl	xTaskGetSchedulerState
 645              	.LVL60:
 646 0020 10B9     		cbnz	r0, .L70
 219:Generated_Source\PSoC6\pdl\rtos\FreeRTOS\9.0.0\Source/event_groups.c **** 	}
 647              		.loc 1 219 0 is_stmt 0 discriminator 2
 648 0022 1FB9     		cbnz	r7, .L71
 219:Generated_Source\PSoC6\pdl\rtos\FreeRTOS\9.0.0\Source/event_groups.c **** 	}
 649              		.loc 1 219 0
 650 0024 0123     		movs	r3, #1
 651 0026 02E0     		b	.L60
 652              	.L70:
 653 0028 0123     		movs	r3, #1
 654 002a 00E0     		b	.L60
 655              	.L71:
 656 002c 0023     		movs	r3, #0
 657              	.L60:
 219:Generated_Source\PSoC6\pdl\rtos\FreeRTOS\9.0.0\Source/event_groups.c **** 	}
ARM GAS  C:\Users\codyg\AppData\Local\Temp\cch9SNiH.s 			page 31


 658              		.loc 1 219 0 discriminator 6
 659 002e 0BB9     		cbnz	r3, .L61
 219:Generated_Source\PSoC6\pdl\rtos\FreeRTOS\9.0.0\Source/event_groups.c **** 	}
 660              		.loc 1 219 0 discriminator 7
 661              		.syntax unified
 662              	@ 219 "Generated_Source\PSoC6\pdl\rtos\FreeRTOS\9.0.0\Source\event_groups.c" 1
 663 0030 72B6     		 cpsid i 
 664              	@ 0 "" 2
 665              		.thumb
 666              		.syntax unified
 667              	.L62:
 668 0032 FEE7     		b	.L62
 669              	.L61:
 223:Generated_Source\PSoC6\pdl\rtos\FreeRTOS\9.0.0\Source/event_groups.c **** 	{
 670              		.loc 1 223 0 is_stmt 1
 671 0034 FFF7FEFF 		bl	vTaskSuspendAll
 672              	.LVL61:
 225:Generated_Source\PSoC6\pdl\rtos\FreeRTOS\9.0.0\Source/event_groups.c **** 
 673              		.loc 1 225 0
 674 0038 D6F80080 		ldr	r8, [r6]
 675              	.LVL62:
 227:Generated_Source\PSoC6\pdl\rtos\FreeRTOS\9.0.0\Source/event_groups.c **** 
 676              		.loc 1 227 0
 677 003c 2146     		mov	r1, r4
 678 003e 3046     		mov	r0, r6
 679 0040 FFF7FEFF 		bl	xEventGroupSetBits
 680              	.LVL63:
 229:Generated_Source\PSoC6\pdl\rtos\FreeRTOS\9.0.0\Source/event_groups.c **** 		{
 681              		.loc 1 229 0
 682 0044 48EA0404 		orr	r4, r8, r4
 683              	.LVL64:
 684 0048 35EA0403 		bics	r3, r5, r4
 685 004c 05D1     		bne	.L63
 686              	.LVL65:
 236:Generated_Source\PSoC6\pdl\rtos\FreeRTOS\9.0.0\Source/event_groups.c **** 
 687              		.loc 1 236 0
 688 004e 3368     		ldr	r3, [r6]
 689 0050 23EA0503 		bic	r3, r3, r5
 690 0054 3360     		str	r3, [r6]
 691              	.LVL66:
 238:Generated_Source\PSoC6\pdl\rtos\FreeRTOS\9.0.0\Source/event_groups.c **** 		}
 692              		.loc 1 238 0
 693 0056 0027     		movs	r7, #0
 694 0058 09E0     		b	.L64
 695              	.LVL67:
 696              	.L63:
 242:Generated_Source\PSoC6\pdl\rtos\FreeRTOS\9.0.0\Source/event_groups.c **** 			{
 697              		.loc 1 242 0
 698 005a 3FB1     		cbz	r7, .L65
 249:Generated_Source\PSoC6\pdl\rtos\FreeRTOS\9.0.0\Source/event_groups.c **** 
 699              		.loc 1 249 0
 700 005c 3A46     		mov	r2, r7
 701 005e 45F0A061 		orr	r1, r5, #83886080
 702 0062 301D     		adds	r0, r6, #4
 703 0064 FFF7FEFF 		bl	vTaskPlaceOnUnorderedEventList
 704              	.LVL68:
 255:Generated_Source\PSoC6\pdl\rtos\FreeRTOS\9.0.0\Source/event_groups.c **** 			}
ARM GAS  C:\Users\codyg\AppData\Local\Temp\cch9SNiH.s 			page 32


 705              		.loc 1 255 0
 706 0068 0024     		movs	r4, #0
 707 006a 00E0     		b	.L64
 708              	.LVL69:
 709              	.L65:
 261:Generated_Source\PSoC6\pdl\rtos\FreeRTOS\9.0.0\Source/event_groups.c **** 			}
 710              		.loc 1 261 0
 711 006c 3468     		ldr	r4, [r6]
 712              	.LVL70:
 713              	.L64:
 265:Generated_Source\PSoC6\pdl\rtos\FreeRTOS\9.0.0\Source/event_groups.c **** 
 714              		.loc 1 265 0
 715 006e FFF7FEFF 		bl	xTaskResumeAll
 716              	.LVL71:
 267:Generated_Source\PSoC6\pdl\rtos\FreeRTOS\9.0.0\Source/event_groups.c **** 	{
 717              		.loc 1 267 0
 718 0072 DFB1     		cbz	r7, .L66
 269:Generated_Source\PSoC6\pdl\rtos\FreeRTOS\9.0.0\Source/event_groups.c **** 		{
 719              		.loc 1 269 0
 720 0074 38B9     		cbnz	r0, .L67
 271:Generated_Source\PSoC6\pdl\rtos\FreeRTOS\9.0.0\Source/event_groups.c **** 		}
 721              		.loc 1 271 0
 722 0076 4FF08052 		mov	r2, #268435456
 723 007a 0E4B     		ldr	r3, .L73
 724 007c 1A60     		str	r2, [r3]
 725              		.syntax unified
 726              	@ 271 "Generated_Source\PSoC6\pdl\rtos\FreeRTOS\9.0.0\Source\event_groups.c" 1
 727 007e BFF34F8F 		dsb
 728              	@ 0 "" 2
 729              	@ 271 "Generated_Source\PSoC6\pdl\rtos\FreeRTOS\9.0.0\Source\event_groups.c" 1
 730 0082 BFF36F8F 		isb
 731              	@ 0 "" 2
 732              		.thumb
 733              		.syntax unified
 734              	.L67:
 282:Generated_Source\PSoC6\pdl\rtos\FreeRTOS\9.0.0\Source/event_groups.c **** 
 735              		.loc 1 282 0
 736 0086 FFF7FEFF 		bl	uxTaskResetEventItemValue
 737              	.LVL72:
 738 008a 0446     		mov	r4, r0
 739              	.LVL73:
 284:Generated_Source\PSoC6\pdl\rtos\FreeRTOS\9.0.0\Source/event_groups.c **** 		{
 740              		.loc 1 284 0
 741 008c 10F0007F 		tst	r0, #33554432
 742 0090 0AD1     		bne	.L68
 287:Generated_Source\PSoC6\pdl\rtos\FreeRTOS\9.0.0\Source/event_groups.c **** 			{
 743              		.loc 1 287 0
 744 0092 FFF7FEFF 		bl	vPortEnterCritical
 745              	.LVL74:
 289:Generated_Source\PSoC6\pdl\rtos\FreeRTOS\9.0.0\Source/event_groups.c **** 
 746              		.loc 1 289 0
 747 0096 3468     		ldr	r4, [r6]
 748              	.LVL75:
 295:Generated_Source\PSoC6\pdl\rtos\FreeRTOS\9.0.0\Source/event_groups.c **** 				{
 749              		.loc 1 295 0
 750 0098 35EA0403 		bics	r3, r5, r4
 751 009c 02D1     		bne	.L69
ARM GAS  C:\Users\codyg\AppData\Local\Temp\cch9SNiH.s 			page 33


 297:Generated_Source\PSoC6\pdl\rtos\FreeRTOS\9.0.0\Source/event_groups.c **** 				}
 752              		.loc 1 297 0
 753 009e 24EA0505 		bic	r5, r4, r5
 754              	.LVL76:
 755 00a2 3560     		str	r5, [r6]
 756              	.L69:
 304:Generated_Source\PSoC6\pdl\rtos\FreeRTOS\9.0.0\Source/event_groups.c **** 
 757              		.loc 1 304 0
 758 00a4 FFF7FEFF 		bl	vPortExitCritical
 759              	.LVL77:
 760              	.L68:
 315:Generated_Source\PSoC6\pdl\rtos\FreeRTOS\9.0.0\Source/event_groups.c **** 	}
 761              		.loc 1 315 0
 762 00a8 24F07F44 		bic	r4, r4, #-16777216
 763              	.LVL78:
 764              	.L66:
 321:Generated_Source\PSoC6\pdl\rtos\FreeRTOS\9.0.0\Source/event_groups.c **** /*-----------------------------------------------------------*/
 765              		.loc 1 321 0
 766 00ac 2046     		mov	r0, r4
 767 00ae BDE8F081 		pop	{r4, r5, r6, r7, r8, pc}
 768              	.LVL79:
 769              	.L74:
 770 00b2 00BF     		.align	2
 771              	.L73:
 772 00b4 04ED00E0 		.word	-536810236
 773              		.cfi_endproc
 774              	.LFE522:
 775              		.size	xEventGroupSync, .-xEventGroupSync
 776              		.section	.text.vEventGroupDelete,"ax",%progbits
 777              		.align	2
 778              		.global	vEventGroupDelete
 779              		.thumb
 780              		.thumb_func
 781              		.type	vEventGroupDelete, %function
 782              	vEventGroupDelete:
 783              	.LFB527:
 625:Generated_Source\PSoC6\pdl\rtos\FreeRTOS\9.0.0\Source/event_groups.c **** EventGroup_t *pxEventBits = ( EventGroup_t * ) xEventGroup;
 784              		.loc 1 625 0
 785              		.cfi_startproc
 786              		@ args = 0, pretend = 0, frame = 0
 787              		@ frame_needed = 0, uses_anonymous_args = 0
 788              	.LVL80:
 789 0000 10B5     		push	{r4, lr}
 790              		.cfi_def_cfa_offset 8
 791              		.cfi_offset 4, -8
 792              		.cfi_offset 14, -4
 793 0002 0446     		mov	r4, r0
 794              	.LVL81:
 629:Generated_Source\PSoC6\pdl\rtos\FreeRTOS\9.0.0\Source/event_groups.c **** 	{
 795              		.loc 1 629 0
 796 0004 FFF7FEFF 		bl	vTaskSuspendAll
 797              	.LVL82:
 633:Generated_Source\PSoC6\pdl\rtos\FreeRTOS\9.0.0\Source/event_groups.c **** 		{
 798              		.loc 1 633 0
 799 0008 0AE0     		b	.L76
 800              	.L79:
 637:Generated_Source\PSoC6\pdl\rtos\FreeRTOS\9.0.0\Source/event_groups.c **** 			( void ) xTaskRemoveFromUnorderedEventList( pxTasksWaitingForBits->xListEnd.pxNext, eventUNBLOCK
ARM GAS  C:\Users\codyg\AppData\Local\Temp\cch9SNiH.s 			page 34


 801              		.loc 1 637 0
 802 000a 2069     		ldr	r0, [r4, #16]
 803 000c 04F10C03 		add	r3, r4, #12
 804 0010 9842     		cmp	r0, r3
 805 0012 01D1     		bne	.L77
 637:Generated_Source\PSoC6\pdl\rtos\FreeRTOS\9.0.0\Source/event_groups.c **** 			( void ) xTaskRemoveFromUnorderedEventList( pxTasksWaitingForBits->xListEnd.pxNext, eventUNBLOCK
 806              		.loc 1 637 0 is_stmt 0 discriminator 1
 807              		.syntax unified
 808              	@ 637 "Generated_Source\PSoC6\pdl\rtos\FreeRTOS\9.0.0\Source\event_groups.c" 1
 809 0014 72B6     		 cpsid i 
 810              	@ 0 "" 2
 811              		.thumb
 812              		.syntax unified
 813              	.L78:
 814 0016 FEE7     		b	.L78
 815              	.L77:
 638:Generated_Source\PSoC6\pdl\rtos\FreeRTOS\9.0.0\Source/event_groups.c **** 		}
 816              		.loc 1 638 0 is_stmt 1
 817 0018 4FF00071 		mov	r1, #33554432
 818 001c FFF7FEFF 		bl	xTaskRemoveFromUnorderedEventList
 819              	.LVL83:
 820              	.L76:
 633:Generated_Source\PSoC6\pdl\rtos\FreeRTOS\9.0.0\Source/event_groups.c **** 		{
 821              		.loc 1 633 0
 822 0020 6368     		ldr	r3, [r4, #4]
 823 0022 002B     		cmp	r3, #0
 824 0024 F1D1     		bne	.L79
 645:Generated_Source\PSoC6\pdl\rtos\FreeRTOS\9.0.0\Source/event_groups.c **** 		}
 825              		.loc 1 645 0
 826 0026 2046     		mov	r0, r4
 827 0028 FFF7FEFF 		bl	vPortFree
 828              	.LVL84:
 662:Generated_Source\PSoC6\pdl\rtos\FreeRTOS\9.0.0\Source/event_groups.c **** }
 829              		.loc 1 662 0
 830 002c FFF7FEFF 		bl	xTaskResumeAll
 831              	.LVL85:
 832 0030 10BD     		pop	{r4, pc}
 833              		.cfi_endproc
 834              	.LFE527:
 835              		.size	vEventGroupDelete, .-vEventGroupDelete
 836 0032 00BF     		.section	.text.vEventGroupSetBitsCallback,"ax",%progbits
 837              		.align	2
 838              		.global	vEventGroupSetBitsCallback
 839              		.thumb
 840              		.thumb_func
 841              		.type	vEventGroupSetBitsCallback, %function
 842              	vEventGroupSetBitsCallback:
 843              	.LFB528:
 669:Generated_Source\PSoC6\pdl\rtos\FreeRTOS\9.0.0\Source/event_groups.c **** 	( void ) xEventGroupSetBits( pvEventGroup, ( EventBits_t ) ulBitsToSet );
 844              		.loc 1 669 0
 845              		.cfi_startproc
 846              		@ args = 0, pretend = 0, frame = 0
 847              		@ frame_needed = 0, uses_anonymous_args = 0
 848              	.LVL86:
 849 0000 08B5     		push	{r3, lr}
 850              		.cfi_def_cfa_offset 8
 851              		.cfi_offset 3, -8
ARM GAS  C:\Users\codyg\AppData\Local\Temp\cch9SNiH.s 			page 35


 852              		.cfi_offset 14, -4
 670:Generated_Source\PSoC6\pdl\rtos\FreeRTOS\9.0.0\Source/event_groups.c **** }
 853              		.loc 1 670 0
 854 0002 FFF7FEFF 		bl	xEventGroupSetBits
 855              	.LVL87:
 856 0006 08BD     		pop	{r3, pc}
 857              		.cfi_endproc
 858              	.LFE528:
 859              		.size	vEventGroupSetBitsCallback, .-vEventGroupSetBitsCallback
 860              		.section	.text.vEventGroupClearBitsCallback,"ax",%progbits
 861              		.align	2
 862              		.global	vEventGroupClearBitsCallback
 863              		.thumb
 864              		.thumb_func
 865              		.type	vEventGroupClearBitsCallback, %function
 866              	vEventGroupClearBitsCallback:
 867              	.LFB529:
 677:Generated_Source\PSoC6\pdl\rtos\FreeRTOS\9.0.0\Source/event_groups.c **** 	( void ) xEventGroupClearBits( pvEventGroup, ( EventBits_t ) ulBitsToClear );
 868              		.loc 1 677 0
 869              		.cfi_startproc
 870              		@ args = 0, pretend = 0, frame = 0
 871              		@ frame_needed = 0, uses_anonymous_args = 0
 872              	.LVL88:
 873 0000 08B5     		push	{r3, lr}
 874              		.cfi_def_cfa_offset 8
 875              		.cfi_offset 3, -8
 876              		.cfi_offset 14, -4
 678:Generated_Source\PSoC6\pdl\rtos\FreeRTOS\9.0.0\Source/event_groups.c **** }
 877              		.loc 1 678 0
 878 0002 FFF7FEFF 		bl	xEventGroupClearBits
 879              	.LVL89:
 880 0006 08BD     		pop	{r3, pc}
 881              		.cfi_endproc
 882              	.LFE529:
 883              		.size	vEventGroupClearBitsCallback, .-vEventGroupClearBitsCallback
 884              		.text
 885              	.Letext0:
 886              		.file 3 "c:\\program files (x86)\\cypress\\psoc creator\\4.2\\psoc creator\\import\\gnu\\arm\\5.4.
 887              		.file 4 "c:\\program files (x86)\\cypress\\psoc creator\\4.2\\psoc creator\\import\\gnu\\arm\\5.4.
 888              		.file 5 "Generated_Source\\PSoC6\\pdl\\drivers/peripheral/scb/cy_scb_spi.h"
 889              		.file 6 "Generated_Source\\PSoC6\\pdl\\drivers/peripheral/sar/cy_sar.h"
 890              		.file 7 "Generated_Source\\PSoC6\\pdl\\middleware/ble/cy_ble_stack_host_main.h"
 891              		.file 8 "Generated_Source\\PSoC6\\pdl\\middleware/ble/cy_ble_gap.h"
 892              		.file 9 "Generated_Source\\PSoC6/ADC.h"
 893              		.file 10 "Generated_Source\\PSoC6\\pdl\\rtos/FreeRTOS/9.0.0/Source/include/list.h"
 894              		.file 11 "Generated_Source\\PSoC6\\pdl\\rtos/FreeRTOS/9.0.0/Source/include/event_groups.h"
 895              		.file 12 "Generated_Source\\PSoC6\\pdl\\cmsis/include/core_cm4.h"
 896              		.file 13 "Generated_Source\\PSoC6/CY_EINK_SPIM.h"
 897              		.file 14 "Generated_Source\\PSoC6\\pdl\\rtos/FreeRTOS/9.0.0/Source/include/portable.h"
 898              		.file 15 "Generated_Source\\PSoC6\\pdl\\rtos/FreeRTOS/9.0.0/Source/include/task.h"