ARM GAS  C:\Users\codyg\AppData\Local\Temp\ccpDGbKX.s 			page 1


   1              		.syntax unified
   2              		.cpu cortex-m4
   3              		.eabi_attribute 27, 1
   4              		.fpu fpv4-sp-d16
   5              		.eabi_attribute 20, 1
   6              		.eabi_attribute 21, 1
   7              		.eabi_attribute 23, 3
   8              		.eabi_attribute 24, 1
   9              		.eabi_attribute 25, 1
  10              		.eabi_attribute 26, 1
  11              		.eabi_attribute 30, 1
  12              		.eabi_attribute 34, 1
  13              		.eabi_attribute 18, 4
  14              		.thumb
  15              		.syntax unified
  16              		.file	"main_cm4.c"
  17              		.text
  18              	.Ltext0:
  19              		.cfi_sections	.debug_frame
  20              		.section	.text.main,"ax",%progbits
  21              		.align	2
  22              		.global	main
  23              		.thumb
  24              		.thumb_func
  25              		.type	main, %function
  26              	main:
  27              	.LFB714:
  28              		.file 1 "main_cm4.c"
   1:main_cm4.c    **** /******************************************************************************
   2:main_cm4.c    **** * File Name: main_cm4.c
   3:main_cm4.c    **** *
   4:main_cm4.c    **** * Version: 1.00
   5:main_cm4.c    **** *
   6:main_cm4.c    **** * Description: This code example demonstrates BLE Health Thermometer Service 
   7:main_cm4.c    **** *
   8:main_cm4.c    **** * Related Document: CE218138_BLE_Thermometer_RTOS.pdf
   9:main_cm4.c    **** *
  10:main_cm4.c    **** * Hardware Dependency: CY8CKIT-062-BLE PSoC 6 BLE Pioneer Kit
  11:main_cm4.c    **** *                      CY8CKIT-028-EPD E-INK Display Shield
  12:main_cm4.c    **** *
  13:main_cm4.c    **** *******************************************************************************
  14:main_cm4.c    **** * Copyright (2018), Cypress Semiconductor Corporation. All rights reserved.
  15:main_cm4.c    **** *******************************************************************************
  16:main_cm4.c    **** * This software, including source code, documentation and related materials
  17:main_cm4.c    **** * (“Software”), is owned by Cypress Semiconductor Corporation or one of its
  18:main_cm4.c    **** * subsidiaries (“Cypress”) and is protected by and subject to worldwide patent
  19:main_cm4.c    **** * protection (United States and foreign), United States copyright laws and
  20:main_cm4.c    **** * international treaty provisions. Therefore, you may use this Software only
  21:main_cm4.c    **** * as provided in the license agreement accompanying the software package from
  22:main_cm4.c    **** * which you obtained this Software (“EULA”).
  23:main_cm4.c    **** *
  24:main_cm4.c    **** * If no EULA applies, Cypress hereby grants you a personal, nonexclusive,
  25:main_cm4.c    **** * non-transferable license to copy, modify, and compile the Software source
  26:main_cm4.c    **** * code solely for use in connection with Cypress’s integrated circuit products.
  27:main_cm4.c    **** * Any reproduction, modification, translation, compilation, or representation
  28:main_cm4.c    **** * of this Software except as specified above is prohibited without the express
  29:main_cm4.c    **** * written permission of Cypress.
ARM GAS  C:\Users\codyg\AppData\Local\Temp\ccpDGbKX.s 			page 2


  30:main_cm4.c    **** *
  31:main_cm4.c    **** * Disclaimer: THIS SOFTWARE IS PROVIDED AS-IS, WITH NO WARRANTY OF ANY KIND, 
  32:main_cm4.c    **** * EXPRESS OR IMPLIED, INCLUDING, BUT NOT LIMITED TO, NONINFRINGEMENT, IMPLIED 
  33:main_cm4.c    **** * WARRANTIES OF MERCHANTABILITY AND FITNESS FOR A PARTICULAR PURPOSE. Cypress 
  34:main_cm4.c    **** * reserves the right to make changes to the Software without notice. Cypress 
  35:main_cm4.c    **** * does not assume any liability arising out of the application or use of the 
  36:main_cm4.c    **** * Software or any product or circuit described in the Software. Cypress does 
  37:main_cm4.c    **** * not authorize its products for use in any products where a malfunction or 
  38:main_cm4.c    **** * failure of the Cypress product may reasonably be expected to result in 
  39:main_cm4.c    **** * significant property damage, injury or death (“High Risk Product”). By 
  40:main_cm4.c    **** * including Cypress’s product in a High Risk Product, the manufacturer of such 
  41:main_cm4.c    **** * system or application assumes all risk of such use and in doing so agrees to 
  42:main_cm4.c    **** * indemnify Cypress against all liability.
  43:main_cm4.c    **** *******************************************************************************/
  44:main_cm4.c    **** /******************************************************************************
  45:main_cm4.c    **** * This code example demonstrates interfacing PSoC 6 MCU with BLE Connectivity 
  46:main_cm4.c    **** * (PSoC 6 MCU) with a thermistor circuit to read temperature information and 
  47:main_cm4.c    **** * send the temperature information using BLE Health Thermometer Service 
  48:main_cm4.c    **** * indications to a mobile device running CySmart mobile application
  49:main_cm4.c    **** *
  50:main_cm4.c    **** * This code examples uses FreeRTOS. For a bare-metal version of this code
  51:main_cm4.c    **** * example, see CE220567 – PSoC 6 MCU with BLE Connectivity: BLE Thermometer
  52:main_cm4.c    **** *******************************************************************************/
  53:main_cm4.c    **** 
  54:main_cm4.c    **** /* Header file includes */
  55:main_cm4.c    **** #include "ble_task.h"
  56:main_cm4.c    **** #include "status_led_task.h"  
  57:main_cm4.c    **** #include "temperature_task.h"
  58:main_cm4.c    **** #include "display_task.h"
  59:main_cm4.c    **** #include "uart_debug.h"  
  60:main_cm4.c    **** #include "project.h"
  61:main_cm4.c    **** #include "FreeRTOS.h"
  62:main_cm4.c    **** #include "task.h"
  63:main_cm4.c    **** #include "queue.h"
  64:main_cm4.c    **** 
  65:main_cm4.c    **** /* Priorities of user tasks in this project */
  66:main_cm4.c    **** #define TASK_BLE_PRIORITY           (20u)
  67:main_cm4.c    **** #define TASK_TEMPERATURE_PRIORITY   (15u)
  68:main_cm4.c    **** #define TASK_STATUS_LED_PRIORITY    (10u)
  69:main_cm4.c    **** #define TASK_DISPLAY_PRIORITY       (5u)
  70:main_cm4.c    **** 
  71:main_cm4.c    **** /* Stack sizes of user tasks in this project */
  72:main_cm4.c    **** #define TASK_BLE_STACK_SIZE         (1024u)
  73:main_cm4.c    **** #define TASK_STATUS_LED_STACK_SIZE  (configMINIMAL_STACK_SIZE)
  74:main_cm4.c    **** #define TASK_TEMPERATURE_STACK_SIZE (configMINIMAL_STACK_SIZE)
  75:main_cm4.c    **** #define TASK_DISPLAY_STACK_SIZE     (512u)
  76:main_cm4.c    ****  
  77:main_cm4.c    **** /* Queue lengths of message queues used in this project */
  78:main_cm4.c    **** #define BLE_COMMAND_QUEUE_LEN       (10u)
  79:main_cm4.c    **** #define TEMP_COMMAND_QUEUE_LEN      (1u)
  80:main_cm4.c    **** #define TEMP_DATA_QUEUE_LEN         (1u)
  81:main_cm4.c    **** #define STATUS_LED_QUEUE_LEN        (5u)
  82:main_cm4.c    **** 
  83:main_cm4.c    **** /*******************************************************************************
  84:main_cm4.c    **** * Function Name: main
  85:main_cm4.c    **** ********************************************************************************
  86:main_cm4.c    **** * Summary:
ARM GAS  C:\Users\codyg\AppData\Local\Temp\ccpDGbKX.s 			page 3


  87:main_cm4.c    **** *  System entrance point. This function enables interrupts and then calls the
  88:main_cm4.c    **** *  the function that sets up user tasks and then starts RTOS scheduler. 
  89:main_cm4.c    **** *
  90:main_cm4.c    **** * Parameters:
  91:main_cm4.c    **** *  void
  92:main_cm4.c    **** *
  93:main_cm4.c    **** * Return:
  94:main_cm4.c    **** *  int
  95:main_cm4.c    **** *
  96:main_cm4.c    **** *******************************************************************************/
  97:main_cm4.c    **** int main()
  98:main_cm4.c    **** {   
  29              		.loc 1 98 0
  30              		.cfi_startproc
  31              		@ Volatile: function does not return.
  32              		@ args = 0, pretend = 0, frame = 0
  33              		@ frame_needed = 0, uses_anonymous_args = 0
  34 0000 00B5     		push	{lr}
  35              		.cfi_def_cfa_offset 4
  36              		.cfi_offset 14, -4
  37 0002 83B0     		sub	sp, sp, #12
  38              		.cfi_def_cfa_offset 16
  99:main_cm4.c    ****     /* Create the queues. See the respective data-types for details of queue
 100:main_cm4.c    ****        contents */
 101:main_cm4.c    ****     bleCommandQ         = xQueueCreate(BLE_COMMAND_QUEUE_LEN,
  39              		.loc 1 101 0
  40 0004 0022     		movs	r2, #0
  41 0006 0821     		movs	r1, #8
  42 0008 0A20     		movs	r0, #10
  43 000a FFF7FEFF 		bl	xQueueGenericCreate
  44              	.LVL0:
  45 000e 2C4B     		ldr	r3, .L4
  46 0010 1860     		str	r0, [r3]
 102:main_cm4.c    ****                                         sizeof(ble_command_t));
 103:main_cm4.c    ****     temperatureCommandQ = xQueueCreate(TEMP_COMMAND_QUEUE_LEN,
  47              		.loc 1 103 0
  48 0012 0022     		movs	r2, #0
  49 0014 0121     		movs	r1, #1
  50 0016 0846     		mov	r0, r1
  51 0018 FFF7FEFF 		bl	xQueueGenericCreate
  52              	.LVL1:
  53 001c 294B     		ldr	r3, .L4+4
  54 001e 1860     		str	r0, [r3]
 104:main_cm4.c    ****                                         sizeof(temperature_command_t));
 105:main_cm4.c    ****     temperatureDataQ    = xQueueCreate(TEMP_DATA_QUEUE_LEN,
  55              		.loc 1 105 0
  56 0020 0022     		movs	r2, #0
  57 0022 0421     		movs	r1, #4
  58 0024 0120     		movs	r0, #1
  59 0026 FFF7FEFF 		bl	xQueueGenericCreate
  60              	.LVL2:
  61 002a 274B     		ldr	r3, .L4+8
  62 002c 1860     		str	r0, [r3]
 106:main_cm4.c    ****                                         sizeof(float));
 107:main_cm4.c    ****     statusLedDataQ      = xQueueCreate(STATUS_LED_QUEUE_LEN,
  63              		.loc 1 107 0
  64 002e 0022     		movs	r2, #0
ARM GAS  C:\Users\codyg\AppData\Local\Temp\ccpDGbKX.s 			page 4


  65 0030 0221     		movs	r1, #2
  66 0032 0520     		movs	r0, #5
  67 0034 FFF7FEFF 		bl	xQueueGenericCreate
  68              	.LVL3:
  69 0038 244B     		ldr	r3, .L4+12
  70 003a 1860     		str	r0, [r3]
 108:main_cm4.c    ****                                         sizeof(status_led_data_t));
 109:main_cm4.c    ****          
 110:main_cm4.c    ****     /* Create the user Tasks. See the respective Task definition for more
 111:main_cm4.c    ****        details of these tasks */       
 112:main_cm4.c    ****     xTaskCreate(Task_Ble, "BLE Task", TASK_BLE_STACK_SIZE,
  71              		.loc 1 112 0
  72 003c 0024     		movs	r4, #0
  73 003e 0194     		str	r4, [sp, #4]
  74 0040 1423     		movs	r3, #20
  75 0042 0093     		str	r3, [sp]
  76 0044 2346     		mov	r3, r4
  77 0046 4FF48062 		mov	r2, #1024
  78 004a 2149     		ldr	r1, .L4+16
  79 004c 2148     		ldr	r0, .L4+20
  80 004e FFF7FEFF 		bl	xTaskCreate
  81              	.LVL4:
 113:main_cm4.c    ****                 NULL, TASK_BLE_PRIORITY, NULL);
 114:main_cm4.c    ****     xTaskCreate(Task_Temperature, "Temperature Task", TASK_TEMPERATURE_STACK_SIZE,
  82              		.loc 1 114 0
  83 0052 0194     		str	r4, [sp, #4]
  84 0054 0F23     		movs	r3, #15
  85 0056 0093     		str	r3, [sp]
  86 0058 2346     		mov	r3, r4
  87 005a 8022     		movs	r2, #128
  88 005c 1E49     		ldr	r1, .L4+24
  89 005e 1F48     		ldr	r0, .L4+28
  90 0060 FFF7FEFF 		bl	xTaskCreate
  91              	.LVL5:
 115:main_cm4.c    ****                 NULL, TASK_TEMPERATURE_PRIORITY, NULL);
 116:main_cm4.c    ****     xTaskCreate(Task_StatusLed, "Status LED Task", TASK_STATUS_LED_STACK_SIZE,
  92              		.loc 1 116 0
  93 0064 0194     		str	r4, [sp, #4]
  94 0066 0A23     		movs	r3, #10
  95 0068 0093     		str	r3, [sp]
  96 006a 2346     		mov	r3, r4
  97 006c 8022     		movs	r2, #128
  98 006e 1C49     		ldr	r1, .L4+32
  99 0070 1C48     		ldr	r0, .L4+36
 100 0072 FFF7FEFF 		bl	xTaskCreate
 101              	.LVL6:
 117:main_cm4.c    ****                 NULL, TASK_STATUS_LED_PRIORITY, NULL);
 118:main_cm4.c    ****     xTaskCreate(Task_Display, "Display task", TASK_DISPLAY_STACK_SIZE,
 102              		.loc 1 118 0
 103 0076 0194     		str	r4, [sp, #4]
 104 0078 0523     		movs	r3, #5
 105 007a 0093     		str	r3, [sp]
 106 007c 2346     		mov	r3, r4
 107 007e 4FF40072 		mov	r2, #512
 108 0082 1949     		ldr	r1, .L4+40
 109 0084 1948     		ldr	r0, .L4+44
 110 0086 FFF7FEFF 		bl	xTaskCreate
ARM GAS  C:\Users\codyg\AppData\Local\Temp\ccpDGbKX.s 			page 5


 111              	.LVL7:
 112              	.LBB4:
 113              	.LBB5:
 114              		.file 2 "uart_debug.h"
   1:uart_debug.h  **** /******************************************************************************
   2:uart_debug.h  **** * File Name: uart_debug.h
   3:uart_debug.h  **** *
   4:uart_debug.h  **** * Version: 1.00
   5:uart_debug.h  **** *
   6:uart_debug.h  **** * Description: This file contains the macros that are used for UART based 
   7:uart_debug.h  **** *              debug
   8:uart_debug.h  **** *
   9:uart_debug.h  **** * Related Document: CE218138_BLE_Thermometer_RTOS.pdf
  10:uart_debug.h  **** *
  11:uart_debug.h  **** * Hardware Dependency: CY8CKIT-062-BLE PSoC 6 BLE Pioneer Kit
  12:uart_debug.h  **** *                      CY8CKIT-028-EPD E-INK Display Shield
  13:uart_debug.h  **** *
  14:uart_debug.h  **** *******************************************************************************
  15:uart_debug.h  **** * Copyright (2018), Cypress Semiconductor Corporation. All rights reserved.
  16:uart_debug.h  **** *******************************************************************************
  17:uart_debug.h  **** * This software, including source code, documentation and related materials
  18:uart_debug.h  **** * (“Software”), is owned by Cypress Semiconductor Corporation or one of its
  19:uart_debug.h  **** * subsidiaries (“Cypress”) and is protected by and subject to worldwide patent
  20:uart_debug.h  **** * protection (United States and foreign), United States copyright laws and
  21:uart_debug.h  **** * international treaty provisions. Therefore, you may use this Software only
  22:uart_debug.h  **** * as provided in the license agreement accompanying the software package from
  23:uart_debug.h  **** * which you obtained this Software (“EULA”).
  24:uart_debug.h  **** *
  25:uart_debug.h  **** * If no EULA applies, Cypress hereby grants you a personal, nonexclusive,
  26:uart_debug.h  **** * non-transferable license to copy, modify, and compile the Software source
  27:uart_debug.h  **** * code solely for use in connection with Cypress’s integrated circuit products.
  28:uart_debug.h  **** * Any reproduction, modification, translation, compilation, or representation
  29:uart_debug.h  **** * of this Software except as specified above is prohibited without the express
  30:uart_debug.h  **** * written permission of Cypress.
  31:uart_debug.h  **** *
  32:uart_debug.h  **** * Disclaimer: THIS SOFTWARE IS PROVIDED AS-IS, WITH NO WARRANTY OF ANY KIND, 
  33:uart_debug.h  **** * EXPRESS OR IMPLIED, INCLUDING, BUT NOT LIMITED TO, NONINFRINGEMENT, IMPLIED 
  34:uart_debug.h  **** * WARRANTIES OF MERCHANTABILITY AND FITNESS FOR A PARTICULAR PURPOSE. Cypress 
  35:uart_debug.h  **** * reserves the right to make changes to the Software without notice. Cypress 
  36:uart_debug.h  **** * does not assume any liability arising out of the application or use of the 
  37:uart_debug.h  **** * Software or any product or circuit described in the Software. Cypress does 
  38:uart_debug.h  **** * not authorize its products for use in any products where a malfunction or 
  39:uart_debug.h  **** * failure of the Cypress product may reasonably be expected to result in 
  40:uart_debug.h  **** * significant property damage, injury or death (“High Risk Product”). By 
  41:uart_debug.h  **** * including Cypress’s product in a High Risk Product, the manufacturer of such 
  42:uart_debug.h  **** * system or application assumes all risk of such use and in doing so agrees to 
  43:uart_debug.h  **** * indemnify Cypress against all liability.
  44:uart_debug.h  **** *******************************************************************************/
  45:uart_debug.h  **** /******************************************************************************
  46:uart_debug.h  **** * This file contains the macros that are used for UART based debug. Note that 
  47:uart_debug.h  **** * enabling debug reduces performance and power efficiency. It also increases 
  48:uart_debug.h  **** * the code size.
  49:uart_debug.h  **** *
  50:uart_debug.h  **** * If the debug is enabled, you should set up a serial port terminal emulator 
  51:uart_debug.h  **** * such as Tera Term, or Hyperterminal with these settings to view the debug
  52:uart_debug.h  **** * information :
  53:uart_debug.h  **** *
ARM GAS  C:\Users\codyg\AppData\Local\Temp\ccpDGbKX.s 			page 6


  54:uart_debug.h  **** *   Baud rate     :  115200
  55:uart_debug.h  **** *   Data size     :  8-bit
  56:uart_debug.h  **** *   Parity        :  None
  57:uart_debug.h  **** *   Stop          :  1-bit
  58:uart_debug.h  **** *   Flow Control  :  None  
  59:uart_debug.h  **** *******************************************************************************/
  60:uart_debug.h  **** 
  61:uart_debug.h  **** /* Include guard */
  62:uart_debug.h  **** #ifndef UART_DEBUG_H
  63:uart_debug.h  **** #define UART_DEBUG_H
  64:uart_debug.h  **** 
  65:uart_debug.h  **** /* Header file includes */     
  66:uart_debug.h  **** #include "project.h"    
  67:uart_debug.h  **** #include <stdio.h>
  68:uart_debug.h  **** #include <stdlib.h>
  69:uart_debug.h  **** #include <string.h>
  70:uart_debug.h  **** #include <inttypes.h> 
  71:uart_debug.h  ****     
  72:uart_debug.h  **** #if CY_CPU_CORTEX_M4
  73:uart_debug.h  ****     #include "FreeRTOS.h"
  74:uart_debug.h  ****     #include "task.h"
  75:uart_debug.h  ****     #include "queue.h"   
  76:uart_debug.h  **** #endif /* CY_CPU_CORTEX_M4 */
  77:uart_debug.h  ****   
  78:uart_debug.h  **** /* (true) enables UART based debug and (false) disables it. Note that 
  79:uart_debug.h  ****    enabling debug reduces performance, power efficiency and increases 
  80:uart_debug.h  ****    code size. Make sure to enable the UART_DEBUG component in TopDesign 
  81:uart_debug.h  ****    schematic if debug is enabled */    
  82:uart_debug.h  **** #define UART_DEBUG_ENABLE    (true)
  83:uart_debug.h  ****     
  84:uart_debug.h  **** /* Declare the macros used for UART based debug. Make sure to enable the
  85:uart_debug.h  ****     UART_DEBUG component in TopDesign schematic if debug is enabled */    
  86:uart_debug.h  **** #if (UART_DEBUG_ENABLE)
  87:uart_debug.h  ****     /* UART component used for STDIO functions */
  88:uart_debug.h  ****     #define UART_STDIO          (DEBUG_UART_HW)
  89:uart_debug.h  ****     
  90:uart_debug.h  ****     /* Following macros are not RTOS thread-safe, therefore, should not be
  91:uart_debug.h  ****        called from RTOS Tasks */
  92:uart_debug.h  ****     
  93:uart_debug.h  ****     /* Initializes the UART component used for STDIO functions */
  94:uart_debug.h  ****     #define DebugPrintfInit()  (DEBUG_UART_Start())
  95:uart_debug.h  ****     /* Function macro that sends formatted output to STDOUT */
  96:uart_debug.h  ****     #define DebugPrintf(...)     (printf(__VA_ARGS__))
  97:uart_debug.h  ****     
  98:uart_debug.h  **** #if CY_CPU_CORTEX_M4    
  99:uart_debug.h  **** 	/* RTOS thread-safe macros for initializing and printing debug 
 100:uart_debug.h  **** 	   information from RTOS Tasks */
 101:uart_debug.h  **** 	
 102:uart_debug.h  **** 	/* Initializes the underlying Task and Queue used for printing debug 
 103:uart_debug.h  **** 	   messages */
 104:uart_debug.h  **** 	#define Task_DebugInit()   (InitDebugPrintf())
 105:uart_debug.h  **** 
 106:uart_debug.h  **** 	/* Prints a constant string and an optional error code from a separate 
 107:uart_debug.h  **** 	   Task */
 108:uart_debug.h  **** 	#define Task_DebugPrintf(constString, errorCode) (SendToDebugPrintTask(         \
 109:uart_debug.h  **** 													(char*)constString,        \
 110:uart_debug.h  **** 													(uint32_t)errorCode))
ARM GAS  C:\Users\codyg\AppData\Local\Temp\ccpDGbKX.s 			page 7


 111:uart_debug.h  **** 	
 112:uart_debug.h  **** 	/* Definition of internal macros, datatypes and the inline functions 
 113:uart_debug.h  **** 	   used by the RTOS thread-safe macros for initializing and printing debug 
 114:uart_debug.h  **** 	   information from RTOS Tasks */
 115:uart_debug.h  **** 			
 116:uart_debug.h  **** 	/* Maximum number of debug messages that can be queued */
 117:uart_debug.h  **** 	#define DEBUG_QUEUE_SIZE    16u
 118:uart_debug.h  **** 	
 119:uart_debug.h  **** 	/* Datatype used for debug queue */
 120:uart_debug.h  **** 	typedef struct
 121:uart_debug.h  **** 	{
 122:uart_debug.h  **** 		char* stringPointer;
 123:uart_debug.h  **** 		uint32_t errorCode;
 124:uart_debug.h  **** 	}   debug_print_data_t;
 125:uart_debug.h  **** 	
 126:uart_debug.h  **** 	/* Queue handle for debug message Queue */
 127:uart_debug.h  **** 	extern QueueHandle_t debugMessageQ;
 128:uart_debug.h  **** 	
 129:uart_debug.h  **** 	/* Task that performs thread safe debug message printing */
 130:uart_debug.h  **** 	void Task_Debug(void *pvParameters);
 131:uart_debug.h  **** 	
 132:uart_debug.h  **** 	/* Inline function that creates the underlying Task and Queue  */
 133:uart_debug.h  **** 	void inline static InitDebugPrintf()
 134:uart_debug.h  **** 	{
 135:uart_debug.h  **** 		debugMessageQ = xQueueCreate(DEBUG_QUEUE_SIZE,
 115              		.loc 2 135 0
 116 008a 2246     		mov	r2, r4
 117 008c 0821     		movs	r1, #8
 118 008e 1020     		movs	r0, #16
 119 0090 FFF7FEFF 		bl	xQueueGenericCreate
 120              	.LVL8:
 121 0094 164B     		ldr	r3, .L4+48
 122 0096 1860     		str	r0, [r3]
 136:uart_debug.h  **** 										sizeof(debug_print_data_t));
 137:uart_debug.h  **** 		xTaskCreate(Task_Debug, "Debug Task", configMINIMAL_STACK_SIZE, NULL,
 123              		.loc 2 137 0
 124 0098 0194     		str	r4, [sp, #4]
 125 009a 0123     		movs	r3, #1
 126 009c 0093     		str	r3, [sp]
 127 009e 2346     		mov	r3, r4
 128 00a0 8022     		movs	r2, #128
 129 00a2 1449     		ldr	r1, .L4+52
 130 00a4 1448     		ldr	r0, .L4+56
 131 00a6 FFF7FEFF 		bl	xTaskCreate
 132              	.LVL9:
 133              	.LBE5:
 134              	.LBE4:
 119:main_cm4.c    ****                 NULL, TASK_DISPLAY_PRIORITY, NULL);
 120:main_cm4.c    **** 
 121:main_cm4.c    ****     /* Initialize thread-safe debug message printing. See uart_debug.h header 
 122:main_cm4.c    ****        file to enable / disable this feature */
 123:main_cm4.c    ****     Task_DebugInit();
 124:main_cm4.c    ****     
 125:main_cm4.c    ****     /* Start the RTOS scheduler. This function should never return */
 126:main_cm4.c    ****     vTaskStartScheduler();
 135              		.loc 1 126 0
 136 00aa FFF7FEFF 		bl	vTaskStartScheduler
ARM GAS  C:\Users\codyg\AppData\Local\Temp\ccpDGbKX.s 			page 8


 137              	.LVL10:
 127:main_cm4.c    ****     
 128:main_cm4.c    ****     /* Should never get here! */ 
 129:main_cm4.c    ****     DebugPrintf("Error!   : RTOS - scheduler crashed \r\n");
 138              		.loc 1 129 0
 139 00ae 1348     		ldr	r0, .L4+60
 140 00b0 FFF7FEFF 		bl	puts
 141              	.LVL11:
 130:main_cm4.c    ****     
 131:main_cm4.c    ****     /* Halt the CPU if scheduler exits */
 132:main_cm4.c    ****     CY_ASSERT(0);
 142              		.loc 1 132 0
 143 00b4 8421     		movs	r1, #132
 144 00b6 1248     		ldr	r0, .L4+64
 145 00b8 FFF7FEFF 		bl	Cy_SysLib_AssertFailed
 146              	.LVL12:
 147              	.L2:
 148 00bc FEE7     		b	.L2
 149              	.L5:
 150 00be 00BF     		.align	2
 151              	.L4:
 152 00c0 00000000 		.word	bleCommandQ
 153 00c4 00000000 		.word	temperatureCommandQ
 154 00c8 00000000 		.word	temperatureDataQ
 155 00cc 00000000 		.word	statusLedDataQ
 156 00d0 00000000 		.word	.LC0
 157 00d4 00000000 		.word	Task_Ble
 158 00d8 0C000000 		.word	.LC1
 159 00dc 00000000 		.word	Task_Temperature
 160 00e0 20000000 		.word	.LC2
 161 00e4 00000000 		.word	Task_StatusLed
 162 00e8 30000000 		.word	.LC3
 163 00ec 00000000 		.word	Task_Display
 164 00f0 00000000 		.word	debugMessageQ
 165 00f4 40000000 		.word	.LC4
 166 00f8 00000000 		.word	Task_Debug
 167 00fc 4C000000 		.word	.LC5
 168 0100 74000000 		.word	.LC6
 169              		.cfi_endproc
 170              	.LFE714:
 171              		.size	main, .-main
 172              		.section	.text.vApplicationIdleHook,"ax",%progbits
 173              		.align	2
 174              		.global	vApplicationIdleHook
 175              		.thumb
 176              		.thumb_func
 177              		.type	vApplicationIdleHook, %function
 178              	vApplicationIdleHook:
 179              	.LFB715:
 133:main_cm4.c    ****     
 134:main_cm4.c    ****     for(;;)
 135:main_cm4.c    ****     {
 136:main_cm4.c    ****     }	
 137:main_cm4.c    **** }
 138:main_cm4.c    **** 
 139:main_cm4.c    **** /*******************************************************************************
 140:main_cm4.c    **** * Function Name: void vApplicationIdleHook(void)
ARM GAS  C:\Users\codyg\AppData\Local\Temp\ccpDGbKX.s 			page 9


 141:main_cm4.c    **** ********************************************************************************
 142:main_cm4.c    **** *
 143:main_cm4.c    **** * Summary:
 144:main_cm4.c    **** *  This function is called when the RTOS in idle mode
 145:main_cm4.c    **** *    
 146:main_cm4.c    **** * Parameters:
 147:main_cm4.c    **** *  None
 148:main_cm4.c    **** *
 149:main_cm4.c    **** * Return:
 150:main_cm4.c    **** *  None
 151:main_cm4.c    **** *
 152:main_cm4.c    **** *******************************************************************************/
 153:main_cm4.c    **** void vApplicationIdleHook(void)
 154:main_cm4.c    **** {
 180              		.loc 1 154 0
 181              		.cfi_startproc
 182              		@ args = 0, pretend = 0, frame = 0
 183              		@ frame_needed = 0, uses_anonymous_args = 0
 184 0000 08B5     		push	{r3, lr}
 185              		.cfi_def_cfa_offset 8
 186              		.cfi_offset 3, -8
 187              		.cfi_offset 14, -4
 155:main_cm4.c    ****     /* Enter sleep-mode */
 156:main_cm4.c    ****     Cy_SysPm_Sleep(CY_SYSPM_WAIT_FOR_INTERRUPT);
 188              		.loc 1 156 0
 189 0002 0020     		movs	r0, #0
 190 0004 FFF7FEFF 		bl	Cy_SysPm_Sleep
 191              	.LVL13:
 192 0008 08BD     		pop	{r3, pc}
 193              		.cfi_endproc
 194              	.LFE715:
 195              		.size	vApplicationIdleHook, .-vApplicationIdleHook
 196 000a 00BF     		.section	.text.vApplicationStackOverflowHook,"ax",%progbits
 197              		.align	2
 198              		.global	vApplicationStackOverflowHook
 199              		.thumb
 200              		.thumb_func
 201              		.type	vApplicationStackOverflowHook, %function
 202              	vApplicationStackOverflowHook:
 203              	.LFB716:
 157:main_cm4.c    **** }
 158:main_cm4.c    **** 
 159:main_cm4.c    **** /*******************************************************************************
 160:main_cm4.c    **** * Function Name: void vApplicationStackOverflowHook(TaskHandle_t *pxTask, 
 161:main_cm4.c    ****                                                     signed char *pcTaskName)
 162:main_cm4.c    **** ********************************************************************************
 163:main_cm4.c    **** *
 164:main_cm4.c    **** * Summary:
 165:main_cm4.c    **** *  This function is called when a stack overflow has been detected by the RTOS
 166:main_cm4.c    **** *    
 167:main_cm4.c    **** * Parameters:
 168:main_cm4.c    **** *  TaskHandle_t  : Handle to the task
 169:main_cm4.c    **** *  signed char   : Name of the task
 170:main_cm4.c    **** *
 171:main_cm4.c    **** * Return:
 172:main_cm4.c    **** *  None
 173:main_cm4.c    **** *
ARM GAS  C:\Users\codyg\AppData\Local\Temp\ccpDGbKX.s 			page 10


 174:main_cm4.c    **** *******************************************************************************/
 175:main_cm4.c    **** void vApplicationStackOverflowHook(TaskHandle_t *pxTask, 
 176:main_cm4.c    ****                                    signed char *pcTaskName)
 177:main_cm4.c    **** {
 204              		.loc 1 177 0
 205              		.cfi_startproc
 206              		@ args = 0, pretend = 0, frame = 0
 207              		@ frame_needed = 0, uses_anonymous_args = 0
 208              	.LVL14:
 209 0000 08B5     		push	{r3, lr}
 210              		.cfi_def_cfa_offset 8
 211              		.cfi_offset 3, -8
 212              		.cfi_offset 14, -4
 178:main_cm4.c    ****     /* Remove warning for unused parameters */
 179:main_cm4.c    ****     (void)pxTask;
 180:main_cm4.c    ****     (void)pcTaskName;
 181:main_cm4.c    ****     
 182:main_cm4.c    ****     /* Print the error message with task name if debug is enabled in 
 183:main_cm4.c    ****        uart_debug.h file */
 184:main_cm4.c    ****     DebugPrintf("Error!   : RTOS - stack overflow in %s \r\n", pcTaskName);
 213              		.loc 1 184 0
 214 0002 0448     		ldr	r0, .L10
 215              	.LVL15:
 216 0004 FFF7FEFF 		bl	printf
 217              	.LVL16:
 185:main_cm4.c    ****     
 186:main_cm4.c    ****     /* Halt the CPU */
 187:main_cm4.c    ****     CY_ASSERT(0);
 218              		.loc 1 187 0
 219 0008 BB21     		movs	r1, #187
 220 000a 0348     		ldr	r0, .L10+4
 221 000c FFF7FEFF 		bl	Cy_SysLib_AssertFailed
 222              	.LVL17:
 223 0010 08BD     		pop	{r3, pc}
 224              	.L11:
 225 0012 00BF     		.align	2
 226              	.L10:
 227 0014 80000000 		.word	.LC7
 228 0018 74000000 		.word	.LC6
 229              		.cfi_endproc
 230              	.LFE716:
 231              		.size	vApplicationStackOverflowHook, .-vApplicationStackOverflowHook
 232              		.section	.text.vApplicationMallocFailedHook,"ax",%progbits
 233              		.align	2
 234              		.global	vApplicationMallocFailedHook
 235              		.thumb
 236              		.thumb_func
 237              		.type	vApplicationMallocFailedHook, %function
 238              	vApplicationMallocFailedHook:
 239              	.LFB717:
 188:main_cm4.c    **** }
 189:main_cm4.c    **** 
 190:main_cm4.c    **** /*******************************************************************************
 191:main_cm4.c    **** * Function Name: void vApplicationMallocFailedHook(void)
 192:main_cm4.c    **** ********************************************************************************
 193:main_cm4.c    **** *
 194:main_cm4.c    **** * Summary:
ARM GAS  C:\Users\codyg\AppData\Local\Temp\ccpDGbKX.s 			page 11


 195:main_cm4.c    **** *  This function is called when a memory allocation operation by the RTOS
 196:main_cm4.c    **** *  has failed
 197:main_cm4.c    **** *    
 198:main_cm4.c    **** * Parameters:
 199:main_cm4.c    **** *  None
 200:main_cm4.c    **** *
 201:main_cm4.c    **** * Return:
 202:main_cm4.c    **** *  None
 203:main_cm4.c    **** *
 204:main_cm4.c    **** *******************************************************************************/
 205:main_cm4.c    **** void vApplicationMallocFailedHook(void)
 206:main_cm4.c    **** {
 240              		.loc 1 206 0
 241              		.cfi_startproc
 242              		@ args = 0, pretend = 0, frame = 0
 243              		@ frame_needed = 0, uses_anonymous_args = 0
 244 0000 08B5     		push	{r3, lr}
 245              		.cfi_def_cfa_offset 8
 246              		.cfi_offset 3, -8
 247              		.cfi_offset 14, -4
 207:main_cm4.c    ****     /* Print the error message if debug is enabled in uart_debug.h file */
 208:main_cm4.c    ****     DebugPrintf("Error!   : RTOS - Memory allocation failed \r\n");
 248              		.loc 1 208 0
 249 0002 0448     		ldr	r0, .L14
 250 0004 FFF7FEFF 		bl	puts
 251              	.LVL18:
 209:main_cm4.c    ****     
 210:main_cm4.c    ****     /* Halt the CPU */
 211:main_cm4.c    ****     CY_ASSERT(0);
 252              		.loc 1 211 0
 253 0008 D321     		movs	r1, #211
 254 000a 0348     		ldr	r0, .L14+4
 255 000c FFF7FEFF 		bl	Cy_SysLib_AssertFailed
 256              	.LVL19:
 257 0010 08BD     		pop	{r3, pc}
 258              	.L15:
 259 0012 00BF     		.align	2
 260              	.L14:
 261 0014 AC000000 		.word	.LC8
 262 0018 74000000 		.word	.LC6
 263              		.cfi_endproc
 264              	.LFE717:
 265              		.size	vApplicationMallocFailedHook, .-vApplicationMallocFailedHook
 266              		.section	.rodata.str1.4,"aMS",%progbits,1
 267              		.align	2
 268              	.LC0:
 269 0000 424C4520 		.ascii	"BLE Task\000"
 269      5461736B 
 269      00
 270 0009 000000   		.space	3
 271              	.LC1:
 272 000c 54656D70 		.ascii	"Temperature Task\000"
 272      65726174 
 272      75726520 
 272      5461736B 
 272      00
 273 001d 000000   		.space	3
ARM GAS  C:\Users\codyg\AppData\Local\Temp\ccpDGbKX.s 			page 12


 274              	.LC2:
 275 0020 53746174 		.ascii	"Status LED Task\000"
 275      7573204C 
 275      45442054 
 275      61736B00 
 276              	.LC3:
 277 0030 44697370 		.ascii	"Display task\000"
 277      6C617920 
 277      7461736B 
 277      00
 278 003d 000000   		.space	3
 279              	.LC4:
 280 0040 44656275 		.ascii	"Debug Task\000"
 280      67205461 
 280      736B00
 281 004b 00       		.space	1
 282              	.LC5:
 283 004c 4572726F 		.ascii	"Error!   : RTOS - scheduler crashed \015\000"
 283      72212020 
 283      203A2052 
 283      544F5320 
 283      2D207363 
 284 0072 0000     		.space	2
 285              	.LC6:
 286 0074 6D61696E 		.ascii	"main_cm4.c\000"
 286      5F636D34 
 286      2E6300
 287 007f 00       		.space	1
 288              	.LC7:
 289 0080 4572726F 		.ascii	"Error!   : RTOS - stack overflow in %s \015\012\000"
 289      72212020 
 289      203A2052 
 289      544F5320 
 289      2D207374 
 290 00aa 0000     		.space	2
 291              	.LC8:
 292 00ac 4572726F 		.ascii	"Error!   : RTOS - Memory allocation failed \015\000"
 292      72212020 
 292      203A2052 
 292      544F5320 
 292      2D204D65 
 293              		.text
 294              	.Letext0:
 295              		.file 3 "c:\\program files (x86)\\cypress\\psoc creator\\4.2\\psoc creator\\import\\gnu\\arm\\5.4.
 296              		.file 4 "c:\\program files (x86)\\cypress\\psoc creator\\4.2\\psoc creator\\import\\gnu\\arm\\5.4.
 297              		.file 5 "Generated_Source\\PSoC6\\pdl\\drivers/peripheral/syslib/cy_syslib.h"
 298              		.file 6 "Generated_Source\\PSoC6\\pdl\\drivers/peripheral/syspm/cy_syspm.h"
 299              		.file 7 "Generated_Source\\PSoC6\\pdl\\drivers/peripheral/rtc/cy_rtc.h"
 300              		.file 8 "Generated_Source\\PSoC6\\pdl\\drivers/peripheral/tcpwm/cy_tcpwm_counter.h"
 301              		.file 9 "Generated_Source\\PSoC6\\pdl\\drivers/peripheral/scb/cy_scb_spi.h"
 302              		.file 10 "Generated_Source\\PSoC6\\pdl\\drivers/peripheral/scb/cy_scb_uart.h"
 303              		.file 11 "Generated_Source\\PSoC6\\pdl\\drivers/peripheral/sar/cy_sar.h"
 304              		.file 12 "Generated_Source\\PSoC6\\pdl\\middleware/ble/cy_ble_stack_host_main.h"
 305              		.file 13 "Generated_Source\\PSoC6\\pdl\\middleware/ble/cy_ble_gap.h"
 306              		.file 14 "Generated_Source\\PSoC6/ADC.h"
 307              		.file 15 "Generated_Source\\PSoC6\\pdl\\rtos/FreeRTOS/9.0.0/Source/portable/GCC/CM4F/portmacro.h"
 308              		.file 16 "Generated_Source\\PSoC6\\pdl\\rtos/FreeRTOS/9.0.0/Source/include/queue.h"
ARM GAS  C:\Users\codyg\AppData\Local\Temp\ccpDGbKX.s 			page 13


 309              		.file 17 "Generated_Source\\PSoC6\\pdl\\rtos/FreeRTOS/9.0.0/Source/include/task.h"
 310              		.file 18 "Generated_Source\\PSoC6\\pdl\\cmsis/include/core_cm4.h"
 311              		.file 19 "Generated_Source\\PSoC6/CY_EINK_SPIM.h"
 312              		.file 20 "Generated_Source\\PSoC6/DEBUG_UART.h"
 313              		.file 21 "Generated_Source\\PSoC6/Counter_ms.h"
 314              		.file 22 "Generated_Source\\PSoC6/Timer_PPG.h"
 315              		.file 23 "Generated_Source\\PSoC6/Timer_IMU.h"
 316              		.file 24 "Generated_Source\\PSoC6/RTC.h"
 317              		.file 25 "ble_task.h"
 318              		.file 26 "status_led_task.h"
 319              		.file 27 "temperature_task.h"
 320              		.file 28 "c:\\program files (x86)\\cypress\\psoc creator\\4.2\\psoc creator\\import\\gnu\\arm\\5.4
 321              		.file 29 "<built-in>"