ARM GAS  C:\Users\codyg\AppData\Local\Temp\ccQipZVL.s 			page 1


   1              		.syntax unified
   2              		.cpu cortex-m4
   3              		.eabi_attribute 27, 1
   4              		.fpu fpv4-sp-d16
   5              		.eabi_attribute 20, 1
   6              		.eabi_attribute 21, 1
   7              		.eabi_attribute 23, 3
   8              		.eabi_attribute 24, 1
   9              		.eabi_attribute 25, 1
  10              		.eabi_attribute 26, 1
  11              		.eabi_attribute 30, 1
  12              		.eabi_attribute 34, 1
  13              		.eabi_attribute 18, 4
  14              		.thumb
  15              		.syntax unified
  16              		.file	"pervasive_eink_hardware_driver.c"
  17              		.text
  18              	.Ltext0:
  19              		.cfi_sections	.debug_frame
  20              		.section	.text.Pv_EINK_SendData,"ax",%progbits
  21              		.align	2
  22              		.global	Pv_EINK_SendData
  23              		.thumb
  24              		.thumb_func
  25              		.type	Pv_EINK_SendData, %function
  26              	Pv_EINK_SendData:
  27              	.LFB517:
  28              		.file 1 "cy_eink_library\\pervasive_eink_hardware_driver.c"
   1:cy_eink_library/pervasive_eink_hardware_driver.c **** /*******************************************************************************
   2:cy_eink_library/pervasive_eink_hardware_driver.c **** * Copyright (2018), Pervasive Displays Inc.
   3:cy_eink_library/pervasive_eink_hardware_driver.c **** *******************************************************************************
   4:cy_eink_library/pervasive_eink_hardware_driver.c **** *
   5:cy_eink_library/pervasive_eink_hardware_driver.c **** *  Authors: Pervasive Displays Inc.
   6:cy_eink_library/pervasive_eink_hardware_driver.c **** *
   7:cy_eink_library/pervasive_eink_hardware_driver.c **** *  Redistribution and use in source and binary forms, with or without
   8:cy_eink_library/pervasive_eink_hardware_driver.c **** *  modification, are permitted provided that the following conditions
   9:cy_eink_library/pervasive_eink_hardware_driver.c **** *  are met:
  10:cy_eink_library/pervasive_eink_hardware_driver.c **** *
  11:cy_eink_library/pervasive_eink_hardware_driver.c **** *  1. Redistributions of source code must retain the above copyright
  12:cy_eink_library/pervasive_eink_hardware_driver.c **** *     notice, this list of conditions and the following disclaimer.
  13:cy_eink_library/pervasive_eink_hardware_driver.c **** *  2. Redistributions in binary form must reproduce the above copyright
  14:cy_eink_library/pervasive_eink_hardware_driver.c **** *     notice, this list of conditions and the following disclaimer in
  15:cy_eink_library/pervasive_eink_hardware_driver.c **** *     the documentation and/or other materials provided with the
  16:cy_eink_library/pervasive_eink_hardware_driver.c **** *     distribution.
  17:cy_eink_library/pervasive_eink_hardware_driver.c **** *
  18:cy_eink_library/pervasive_eink_hardware_driver.c **** *  THIS SOFTWARE IS PROVIDED BY THE COPYRIGHT HOLDERS AND CONTRIBUTORS
  19:cy_eink_library/pervasive_eink_hardware_driver.c **** *  "AS IS" AND ANY EXPRESS OR IMPLIED WARRANTIES, INCLUDING, BUT NOT
  20:cy_eink_library/pervasive_eink_hardware_driver.c **** *  LIMITED TO, THE IMPLIED WARRANTIES OF MERCHANTABILITY AND FITNESS FOR
  21:cy_eink_library/pervasive_eink_hardware_driver.c **** *  A PARTICULAR PURPOSE ARE DISCLAIMED. IN NO EVENT SHALL THE COPYRIGHT
  22:cy_eink_library/pervasive_eink_hardware_driver.c **** *  OWNER OR CONTRIBUTORS BE LIABLE FOR ANY DIRECT, INDIRECT, INCIDENTAL,
  23:cy_eink_library/pervasive_eink_hardware_driver.c **** *  SPECIAL, EXEMPLARY, OR CONSEQUENTIAL DAMAGES (INCLUDING, BUT NOT
  24:cy_eink_library/pervasive_eink_hardware_driver.c **** *  LIMITED TO, PROCUREMENT OF SUBSTITUTE GOODS OR SERVICES; LOSS OF USE,
  25:cy_eink_library/pervasive_eink_hardware_driver.c **** *  DATA, OR PROFITS; OR BUSINESS INTERRUPTION) HOWEVER CAUSED AND ON ANY
  26:cy_eink_library/pervasive_eink_hardware_driver.c **** *  THEORY OF LIABILITY, WHETHER IN CONTRACT, STRICT LIABILITY, OR TORT
  27:cy_eink_library/pervasive_eink_hardware_driver.c **** *  (INCLUDING NEGLIGENCE OR OTHERWISE) ARISING IN ANY WAY OUT OF THE USE
  28:cy_eink_library/pervasive_eink_hardware_driver.c **** *  OF THIS SOFTWARE, EVEN IF ADVISED OF THE POSSIBILITY OF SUCH DAMAGE.
  29:cy_eink_library/pervasive_eink_hardware_driver.c **** *******************************************************************************/
ARM GAS  C:\Users\codyg\AppData\Local\Temp\ccQipZVL.s 			page 2


  30:cy_eink_library/pervasive_eink_hardware_driver.c **** /*****************************************************************************
  31:cy_eink_library/pervasive_eink_hardware_driver.c **** * For the details of E-INK display hardware and driver, see the 2.7 inch display
  32:cy_eink_library/pervasive_eink_hardware_driver.c **** * product specification and G2 COG driver interface documents available at the
  33:cy_eink_library/pervasive_eink_hardware_driver.c **** * following location:
  34:cy_eink_library/pervasive_eink_hardware_driver.c **** * http://www.pervasivedisplays.com/products/271
  35:cy_eink_library/pervasive_eink_hardware_driver.c **** *******************************************************************************/
  36:cy_eink_library/pervasive_eink_hardware_driver.c **** 
  37:cy_eink_library/pervasive_eink_hardware_driver.c **** /* Header file includes */
  38:cy_eink_library/pervasive_eink_hardware_driver.c **** #include <string.h>
  39:cy_eink_library/pervasive_eink_hardware_driver.c **** #include "pervasive_eink_hardware_driver.h"
  40:cy_eink_library/pervasive_eink_hardware_driver.c **** 
  41:cy_eink_library/pervasive_eink_hardware_driver.c **** /* Macro for the dummy byte used in the line data */
  42:cy_eink_library/pervasive_eink_hardware_driver.c **** #define PV_EINK_DUMMY_BYTE     (uint8_t)(0x00u)
  43:cy_eink_library/pervasive_eink_hardware_driver.c **** 
  44:cy_eink_library/pervasive_eink_hardware_driver.c **** /* Data used to initialize the scan bytes */
  45:cy_eink_library/pervasive_eink_hardware_driver.c **** #define PV_EINK_SCAN_BYTE_INIT (uint8_t)(0x00u)
  46:cy_eink_library/pervasive_eink_hardware_driver.c **** 
  47:cy_eink_library/pervasive_eink_hardware_driver.c **** /* Line data structure of 2.7" display. Refer to driver document Section 5.1 
  48:cy_eink_library/pervasive_eink_hardware_driver.c ****    for details */
  49:cy_eink_library/pervasive_eink_hardware_driver.c **** struct eink_lineData
  50:cy_eink_library/pervasive_eink_hardware_driver.c **** {
  51:cy_eink_library/pervasive_eink_hardware_driver.c ****     /*  Dummy byte (0x00) */
  52:cy_eink_library/pervasive_eink_hardware_driver.c ****     uint8_t dummyData;
  53:cy_eink_library/pervasive_eink_hardware_driver.c **** 
  54:cy_eink_library/pervasive_eink_hardware_driver.c ****     /*  2.7" even byte array */
  55:cy_eink_library/pervasive_eink_hardware_driver.c ****     uint8_t even[PV_EINK_HORIZONTAL_SIZE];
  56:cy_eink_library/pervasive_eink_hardware_driver.c **** 
  57:cy_eink_library/pervasive_eink_hardware_driver.c ****     /*  2.7" scan byte array */
  58:cy_eink_library/pervasive_eink_hardware_driver.c ****     uint8_t scan[PV_EINK_SCAN_LINE_SIZE];
  59:cy_eink_library/pervasive_eink_hardware_driver.c **** 
  60:cy_eink_library/pervasive_eink_hardware_driver.c ****     /*  2.7" odd byte array */
  61:cy_eink_library/pervasive_eink_hardware_driver.c ****     uint8_t odd[PV_EINK_HORIZONTAL_SIZE];
  62:cy_eink_library/pervasive_eink_hardware_driver.c **** };
  63:cy_eink_library/pervasive_eink_hardware_driver.c **** 
  64:cy_eink_library/pervasive_eink_hardware_driver.c **** /* Packet structure of a line data */
  65:cy_eink_library/pervasive_eink_hardware_driver.c **** typedef union
  66:cy_eink_library/pervasive_eink_hardware_driver.c **** {
  67:cy_eink_library/pervasive_eink_hardware_driver.c ****     /* Line data structure of 2.7" E-INK display */
  68:cy_eink_library/pervasive_eink_hardware_driver.c ****     struct eink_lineData    lineDataBySize;
  69:cy_eink_library/pervasive_eink_hardware_driver.c **** 
  70:cy_eink_library/pervasive_eink_hardware_driver.c ****     /* Line buffer equal to the data line size */
  71:cy_eink_library/pervasive_eink_hardware_driver.c ****     uint8_t                 lineBuffer[PV_EINK_DATA_LINE_SIZE];
  72:cy_eink_library/pervasive_eink_hardware_driver.c **** 
  73:cy_eink_library/pervasive_eink_hardware_driver.c ****     /* The maximum line buffer data size as length */
  74:cy_eink_library/pervasive_eink_hardware_driver.c **** }   driver_data_packet_t;
  75:cy_eink_library/pervasive_eink_hardware_driver.c **** 
  76:cy_eink_library/pervasive_eink_hardware_driver.c **** /* Variable that stores the packets for one full drive frame. This variable
  77:cy_eink_library/pervasive_eink_hardware_driver.c ****    is used for full and partial updates */
  78:cy_eink_library/pervasive_eink_hardware_driver.c **** driver_data_packet_t        bulkDriverPacket[PV_EINK_VERTICAL_SIZE];
  79:cy_eink_library/pervasive_eink_hardware_driver.c **** 
  80:cy_eink_library/pervasive_eink_hardware_driver.c **** /* Variable that stores a single line data. This variable is used to prepare 
  81:cy_eink_library/pervasive_eink_hardware_driver.c ****    dummy frames */
  82:cy_eink_library/pervasive_eink_hardware_driver.c **** driver_data_packet_t  static driverPacket;
  83:cy_eink_library/pervasive_eink_hardware_driver.c **** 
  84:cy_eink_library/pervasive_eink_hardware_driver.c **** /* Scan table for the four stages of display update*/
  85:cy_eink_library/pervasive_eink_hardware_driver.c **** uint8_t const               scanTable[PV_EINK_SCAN_TABLE_SIZE] =
  86:cy_eink_library/pervasive_eink_hardware_driver.c ****                             PV_EINK_SCAN_TABLE_DATA;
ARM GAS  C:\Users\codyg\AppData\Local\Temp\ccQipZVL.s 			page 3


  87:cy_eink_library/pervasive_eink_hardware_driver.c **** 
  88:cy_eink_library/pervasive_eink_hardware_driver.c **** /* The SPI register addresses for Channel Select */
  89:cy_eink_library/pervasive_eink_hardware_driver.c **** uint8_t const               channelSelect[PV_EINK_CHANNEL_SEL_SIZE] =
  90:cy_eink_library/pervasive_eink_hardware_driver.c ****                             PV_EINK_CHANNEL_SEL_DATA;
  91:cy_eink_library/pervasive_eink_hardware_driver.c **** 
  92:cy_eink_library/pervasive_eink_hardware_driver.c **** /* Variables that store the driver timing information */
  93:cy_eink_library/pervasive_eink_hardware_driver.c **** uint16_t static             fullUpdateCycles;
  94:cy_eink_library/pervasive_eink_hardware_driver.c **** uint16_t static             partialUpdateCycles;
  95:cy_eink_library/pervasive_eink_hardware_driver.c **** 
  96:cy_eink_library/pervasive_eink_hardware_driver.c **** /* Pointers for the data structures used by the driver */
  97:cy_eink_library/pervasive_eink_hardware_driver.c **** uint8_t static*             dataLineEven;
  98:cy_eink_library/pervasive_eink_hardware_driver.c **** uint8_t static*             dataLineOdd;
  99:cy_eink_library/pervasive_eink_hardware_driver.c **** uint8_t static*             dataLineScan;
 100:cy_eink_library/pervasive_eink_hardware_driver.c **** 
 101:cy_eink_library/pervasive_eink_hardware_driver.c **** /*******************************************************************************
 102:cy_eink_library/pervasive_eink_hardware_driver.c **** * Function Name: void Pv_EINK_SendData(uint8_t regAddr, uint8_t* data, 
 103:cy_eink_library/pervasive_eink_hardware_driver.c **** *                                   uint16_t dataLength)
 104:cy_eink_library/pervasive_eink_hardware_driver.c **** ********************************************************************************
 105:cy_eink_library/pervasive_eink_hardware_driver.c **** *
 106:cy_eink_library/pervasive_eink_hardware_driver.c **** * Summary: Sends an array of data to the E-INK driver.
 107:cy_eink_library/pervasive_eink_hardware_driver.c **** *
 108:cy_eink_library/pervasive_eink_hardware_driver.c **** * Parameters:
 109:cy_eink_library/pervasive_eink_hardware_driver.c **** *  uint8_t regAddr    : Display driver register address
 110:cy_eink_library/pervasive_eink_hardware_driver.c **** *  uint8_t* data      : Pointer to the data array that will be sent to the
 111:cy_eink_library/pervasive_eink_hardware_driver.c **** *                       driver
 112:cy_eink_library/pervasive_eink_hardware_driver.c **** *  uint16_t dataLength: Length of the data array
 113:cy_eink_library/pervasive_eink_hardware_driver.c **** *
 114:cy_eink_library/pervasive_eink_hardware_driver.c **** * Return:
 115:cy_eink_library/pervasive_eink_hardware_driver.c **** *  None
 116:cy_eink_library/pervasive_eink_hardware_driver.c **** *
 117:cy_eink_library/pervasive_eink_hardware_driver.c **** * Side Effects:
 118:cy_eink_library/pervasive_eink_hardware_driver.c **** *  None
 119:cy_eink_library/pervasive_eink_hardware_driver.c **** *******************************************************************************/
 120:cy_eink_library/pervasive_eink_hardware_driver.c **** void Pv_EINK_SendData(uint8_t regAddr, uint8_t* data, uint16_t dataLength)
 121:cy_eink_library/pervasive_eink_hardware_driver.c **** {
  29              		.loc 1 121 0
  30              		.cfi_startproc
  31              		@ args = 0, pretend = 0, frame = 0
  32              		@ frame_needed = 0, uses_anonymous_args = 0
  33              	.LVL0:
  34 0000 2DE9F041 		push	{r4, r5, r6, r7, r8, lr}
  35              		.cfi_def_cfa_offset 24
  36              		.cfi_offset 4, -24
  37              		.cfi_offset 5, -20
  38              		.cfi_offset 6, -16
  39              		.cfi_offset 7, -12
  40              		.cfi_offset 8, -8
  41              		.cfi_offset 14, -4
  42 0004 8046     		mov	r8, r0
  43 0006 0E46     		mov	r6, r1
  44 0008 1546     		mov	r5, r2
  45              	.LVL1:
  46              	.LBB58:
  47              	.LBB59:
  48              		.file 2 "Generated_Source\\PSoC6\\pdl\\drivers/peripheral/gpio/cy_gpio.h"
   1:Generated_Source\PSoC6\pdl\drivers/peripheral/gpio/cy_gpio.h **** /***************************************************************************//**
   2:Generated_Source\PSoC6\pdl\drivers/peripheral/gpio/cy_gpio.h **** * \file cy_gpio.h
ARM GAS  C:\Users\codyg\AppData\Local\Temp\ccQipZVL.s 			page 4


   3:Generated_Source\PSoC6\pdl\drivers/peripheral/gpio/cy_gpio.h **** * \version 1.10.1
   4:Generated_Source\PSoC6\pdl\drivers/peripheral/gpio/cy_gpio.h **** *
   5:Generated_Source\PSoC6\pdl\drivers/peripheral/gpio/cy_gpio.h **** * \brief
   6:Generated_Source\PSoC6\pdl\drivers/peripheral/gpio/cy_gpio.h **** * Provides an API declaration of the GPIO driver
   7:Generated_Source\PSoC6\pdl\drivers/peripheral/gpio/cy_gpio.h **** *
   8:Generated_Source\PSoC6\pdl\drivers/peripheral/gpio/cy_gpio.h **** ********************************************************************************
   9:Generated_Source\PSoC6\pdl\drivers/peripheral/gpio/cy_gpio.h **** * \copyright
  10:Generated_Source\PSoC6\pdl\drivers/peripheral/gpio/cy_gpio.h **** * Copyright 2016-2018, Cypress Semiconductor Corporation. All rights reserved.
  11:Generated_Source\PSoC6\pdl\drivers/peripheral/gpio/cy_gpio.h **** * You may use this file only in accordance with the license, terms, conditions,
  12:Generated_Source\PSoC6\pdl\drivers/peripheral/gpio/cy_gpio.h **** * disclaimers, and limitations in the end user license agreement accompanying
  13:Generated_Source\PSoC6\pdl\drivers/peripheral/gpio/cy_gpio.h **** * the software package with which this file was provided.
  14:Generated_Source\PSoC6\pdl\drivers/peripheral/gpio/cy_gpio.h **** *******************************************************************************/
  15:Generated_Source\PSoC6\pdl\drivers/peripheral/gpio/cy_gpio.h **** 
  16:Generated_Source\PSoC6\pdl\drivers/peripheral/gpio/cy_gpio.h **** /**
  17:Generated_Source\PSoC6\pdl\drivers/peripheral/gpio/cy_gpio.h **** * \defgroup group_gpio General Purpose Input Output (GPIO)
  18:Generated_Source\PSoC6\pdl\drivers/peripheral/gpio/cy_gpio.h **** * \{
  19:Generated_Source\PSoC6\pdl\drivers/peripheral/gpio/cy_gpio.h **** * The GPIO driver provides an API to configure and access device Input/Output pins.
  20:Generated_Source\PSoC6\pdl\drivers/peripheral/gpio/cy_gpio.h **** * IO pins include all general purpose types such as GPIO, SIO, HSIO, AUXIO, and
  21:Generated_Source\PSoC6\pdl\drivers/peripheral/gpio/cy_gpio.h **** * their variants.
  22:Generated_Source\PSoC6\pdl\drivers/peripheral/gpio/cy_gpio.h **** *
  23:Generated_Source\PSoC6\pdl\drivers/peripheral/gpio/cy_gpio.h **** * Initialization can be performed either at the port level or by configuring the
  24:Generated_Source\PSoC6\pdl\drivers/peripheral/gpio/cy_gpio.h **** * individual pins. For efficient use of code space, port
  25:Generated_Source\PSoC6\pdl\drivers/peripheral/gpio/cy_gpio.h **** * configuration should be used in the field. Refer to the product device header files 
  26:Generated_Source\PSoC6\pdl\drivers/peripheral/gpio/cy_gpio.h **** * for the list of supported ports and pins.
  27:Generated_Source\PSoC6\pdl\drivers/peripheral/gpio/cy_gpio.h **** * 
  28:Generated_Source\PSoC6\pdl\drivers/peripheral/gpio/cy_gpio.h **** * - Single pin configuration is performed by using \ref Cy_GPIO_Pin_FastInit 
  29:Generated_Source\PSoC6\pdl\drivers/peripheral/gpio/cy_gpio.h **** *   (provide specific values) or \ref Cy_GPIO_Pin_Init (provide a filled
  30:Generated_Source\PSoC6\pdl\drivers/peripheral/gpio/cy_gpio.h **** *   cy_stc_gpio_pin_config_t structure).
  31:Generated_Source\PSoC6\pdl\drivers/peripheral/gpio/cy_gpio.h **** * - An entire port can be configured using \ref Cy_GPIO_Port_Init. Provide a filled 
  32:Generated_Source\PSoC6\pdl\drivers/peripheral/gpio/cy_gpio.h **** *   cy_stc_gpio_prt_config_t structure. The values in the structure are 
  33:Generated_Source\PSoC6\pdl\drivers/peripheral/gpio/cy_gpio.h **** *   bitfields representing the desired value for each pin in the port.
  34:Generated_Source\PSoC6\pdl\drivers/peripheral/gpio/cy_gpio.h **** * - Pin configuration and management is based on the port address and pin number.
  35:Generated_Source\PSoC6\pdl\drivers/peripheral/gpio/cy_gpio.h **** *   \ref Cy_GPIO_PortToAddr function can optionally be used to calculate the port
  36:Generated_Source\PSoC6\pdl\drivers/peripheral/gpio/cy_gpio.h **** *   address from the port number at run-time.
  37:Generated_Source\PSoC6\pdl\drivers/peripheral/gpio/cy_gpio.h **** *
  38:Generated_Source\PSoC6\pdl\drivers/peripheral/gpio/cy_gpio.h **** * Once the pin/port initialization is complete, each pin can be accessed by 
  39:Generated_Source\PSoC6\pdl\drivers/peripheral/gpio/cy_gpio.h **** * specifying the port (GPIO_PRT_Type) and the pin (0-7) in the provided API 
  40:Generated_Source\PSoC6\pdl\drivers/peripheral/gpio/cy_gpio.h **** * functions.
  41:Generated_Source\PSoC6\pdl\drivers/peripheral/gpio/cy_gpio.h **** *
  42:Generated_Source\PSoC6\pdl\drivers/peripheral/gpio/cy_gpio.h **** * \section group_gpio_configuration Configuration Considerations
  43:Generated_Source\PSoC6\pdl\drivers/peripheral/gpio/cy_gpio.h **** *
  44:Generated_Source\PSoC6\pdl\drivers/peripheral/gpio/cy_gpio.h **** * 1. Pin multiplexing is controlled through the High-Speed IO Matrix (HSIOM) selection.
  45:Generated_Source\PSoC6\pdl\drivers/peripheral/gpio/cy_gpio.h **** *    This allows the pin to connect to signal sources/sinks throughout the device,
  46:Generated_Source\PSoC6\pdl\drivers/peripheral/gpio/cy_gpio.h **** *    as defined by the pin HSIOM selection options (en_hsiom_sel_t).
  47:Generated_Source\PSoC6\pdl\drivers/peripheral/gpio/cy_gpio.h **** * 2. All pins are initialized to High-Z drive mode with HSIOM connected to CPU (SW
  48:Generated_Source\PSoC6\pdl\drivers/peripheral/gpio/cy_gpio.h **** *    control digital pin only) at Power-On-Reset(POR).
  49:Generated_Source\PSoC6\pdl\drivers/peripheral/gpio/cy_gpio.h **** * 3. Some API functions perform read-modify-write operations on shared port
  50:Generated_Source\PSoC6\pdl\drivers/peripheral/gpio/cy_gpio.h **** *    registers. These functions are not thread safe and care must be taken when
  51:Generated_Source\PSoC6\pdl\drivers/peripheral/gpio/cy_gpio.h **** *    called by the application.
  52:Generated_Source\PSoC6\pdl\drivers/peripheral/gpio/cy_gpio.h **** *
  53:Generated_Source\PSoC6\pdl\drivers/peripheral/gpio/cy_gpio.h **** * Multiple pins on a port can be updated using direct port register writes with an
  54:Generated_Source\PSoC6\pdl\drivers/peripheral/gpio/cy_gpio.h **** * appropriate port mask. An example is shown below, highlighting the different ways of 
  55:Generated_Source\PSoC6\pdl\drivers/peripheral/gpio/cy_gpio.h **** * configuring Port 1 pins using,
  56:Generated_Source\PSoC6\pdl\drivers/peripheral/gpio/cy_gpio.h **** * 
  57:Generated_Source\PSoC6\pdl\drivers/peripheral/gpio/cy_gpio.h **** * - Port output data register
  58:Generated_Source\PSoC6\pdl\drivers/peripheral/gpio/cy_gpio.h **** * - Port output data set register
  59:Generated_Source\PSoC6\pdl\drivers/peripheral/gpio/cy_gpio.h **** * - Port output data clear register
ARM GAS  C:\Users\codyg\AppData\Local\Temp\ccQipZVL.s 			page 5


  60:Generated_Source\PSoC6\pdl\drivers/peripheral/gpio/cy_gpio.h **** *
  61:Generated_Source\PSoC6\pdl\drivers/peripheral/gpio/cy_gpio.h **** * \snippet gpio/gpio_v1_10_sut_01.cydsn/main_cm4.c Cy_GPIO_Snippet
  62:Generated_Source\PSoC6\pdl\drivers/peripheral/gpio/cy_gpio.h **** *
  63:Generated_Source\PSoC6\pdl\drivers/peripheral/gpio/cy_gpio.h **** * \section group_gpio_more_information More Information
  64:Generated_Source\PSoC6\pdl\drivers/peripheral/gpio/cy_gpio.h **** *
  65:Generated_Source\PSoC6\pdl\drivers/peripheral/gpio/cy_gpio.h **** * Refer to the technical reference manual (TRM) and the device datasheet.
  66:Generated_Source\PSoC6\pdl\drivers/peripheral/gpio/cy_gpio.h **** *
  67:Generated_Source\PSoC6\pdl\drivers/peripheral/gpio/cy_gpio.h **** * \section group_gpio_MISRA MISRA-C Compliance]
  68:Generated_Source\PSoC6\pdl\drivers/peripheral/gpio/cy_gpio.h **** * <table class="doxtable">
  69:Generated_Source\PSoC6\pdl\drivers/peripheral/gpio/cy_gpio.h **** *   <tr>
  70:Generated_Source\PSoC6\pdl\drivers/peripheral/gpio/cy_gpio.h **** *     <th>MISRA Rule</th>
  71:Generated_Source\PSoC6\pdl\drivers/peripheral/gpio/cy_gpio.h **** *     <th>Rule Class (Required/Advisory)</th>
  72:Generated_Source\PSoC6\pdl\drivers/peripheral/gpio/cy_gpio.h **** *     <th>Rule Description</th>
  73:Generated_Source\PSoC6\pdl\drivers/peripheral/gpio/cy_gpio.h **** *     <th>Description of Deviation(s)</th>
  74:Generated_Source\PSoC6\pdl\drivers/peripheral/gpio/cy_gpio.h **** *   </tr>
  75:Generated_Source\PSoC6\pdl\drivers/peripheral/gpio/cy_gpio.h **** *   <tr>
  76:Generated_Source\PSoC6\pdl\drivers/peripheral/gpio/cy_gpio.h **** *     <td>16.7</td>
  77:Generated_Source\PSoC6\pdl\drivers/peripheral/gpio/cy_gpio.h **** *     <td>A</td>
  78:Generated_Source\PSoC6\pdl\drivers/peripheral/gpio/cy_gpio.h **** *     <td>A pointer parameter in a function prototype should be declared as pointer 
  79:Generated_Source\PSoC6\pdl\drivers/peripheral/gpio/cy_gpio.h **** *         to const if the pointer is not used to modify the addressed object.</td>
  80:Generated_Source\PSoC6\pdl\drivers/peripheral/gpio/cy_gpio.h **** *     <td>The objects pointed to by the base addresses of the GPIO port are not always modified.
  81:Generated_Source\PSoC6\pdl\drivers/peripheral/gpio/cy_gpio.h **** *         While a const qualifier can be used in select scenarios, it brings little benefit
  82:Generated_Source\PSoC6\pdl\drivers/peripheral/gpio/cy_gpio.h **** *         in adding this to the affected functions. </td>
  83:Generated_Source\PSoC6\pdl\drivers/peripheral/gpio/cy_gpio.h **** *   </tr>
  84:Generated_Source\PSoC6\pdl\drivers/peripheral/gpio/cy_gpio.h **** * </table>
  85:Generated_Source\PSoC6\pdl\drivers/peripheral/gpio/cy_gpio.h **** *
  86:Generated_Source\PSoC6\pdl\drivers/peripheral/gpio/cy_gpio.h **** * \section group_gpio_changelog Changelog
  87:Generated_Source\PSoC6\pdl\drivers/peripheral/gpio/cy_gpio.h **** * <table class="doxtable">
  88:Generated_Source\PSoC6\pdl\drivers/peripheral/gpio/cy_gpio.h **** *   <tr><th>Version</th><th>Changes</th><th>Reason for Change</th></tr>
  89:Generated_Source\PSoC6\pdl\drivers/peripheral/gpio/cy_gpio.h **** *   <tr>
  90:Generated_Source\PSoC6\pdl\drivers/peripheral/gpio/cy_gpio.h **** *     <td>1.10.1</td>
  91:Generated_Source\PSoC6\pdl\drivers/peripheral/gpio/cy_gpio.h **** *     <td>Updated description for the functions: \ref Cy_GPIO_GetInterruptStatus, 
  92:Generated_Source\PSoC6\pdl\drivers/peripheral/gpio/cy_gpio.h **** *         \ref Cy_GPIO_GetInterruptMask, \ref Cy_GPIO_GetInterruptStatusMasked.
  93:Generated_Source\PSoC6\pdl\drivers/peripheral/gpio/cy_gpio.h **** *         Minor documentation edits.
  94:Generated_Source\PSoC6\pdl\drivers/peripheral/gpio/cy_gpio.h **** *     </td>
  95:Generated_Source\PSoC6\pdl\drivers/peripheral/gpio/cy_gpio.h **** *     <td>Documentation update and clarification</td>
  96:Generated_Source\PSoC6\pdl\drivers/peripheral/gpio/cy_gpio.h **** *   </tr>
  97:Generated_Source\PSoC6\pdl\drivers/peripheral/gpio/cy_gpio.h **** *   <tr>
  98:Generated_Source\PSoC6\pdl\drivers/peripheral/gpio/cy_gpio.h **** *     <td>1.10</td>
  99:Generated_Source\PSoC6\pdl\drivers/peripheral/gpio/cy_gpio.h **** *     <td>Added input parameter validation to the API functions</td>
 100:Generated_Source\PSoC6\pdl\drivers/peripheral/gpio/cy_gpio.h **** *     <td></td>
 101:Generated_Source\PSoC6\pdl\drivers/peripheral/gpio/cy_gpio.h **** *   </tr>
 102:Generated_Source\PSoC6\pdl\drivers/peripheral/gpio/cy_gpio.h **** *   <tr>
 103:Generated_Source\PSoC6\pdl\drivers/peripheral/gpio/cy_gpio.h **** *     <td>1.0</td>
 104:Generated_Source\PSoC6\pdl\drivers/peripheral/gpio/cy_gpio.h **** *     <td>Initial version</td>
 105:Generated_Source\PSoC6\pdl\drivers/peripheral/gpio/cy_gpio.h **** *     <td></td>
 106:Generated_Source\PSoC6\pdl\drivers/peripheral/gpio/cy_gpio.h **** *   </tr>
 107:Generated_Source\PSoC6\pdl\drivers/peripheral/gpio/cy_gpio.h **** * </table>
 108:Generated_Source\PSoC6\pdl\drivers/peripheral/gpio/cy_gpio.h **** *
 109:Generated_Source\PSoC6\pdl\drivers/peripheral/gpio/cy_gpio.h **** * \defgroup group_gpio_macros Macros
 110:Generated_Source\PSoC6\pdl\drivers/peripheral/gpio/cy_gpio.h **** * \defgroup group_gpio_functions Functions
 111:Generated_Source\PSoC6\pdl\drivers/peripheral/gpio/cy_gpio.h **** * \{
 112:Generated_Source\PSoC6\pdl\drivers/peripheral/gpio/cy_gpio.h **** *   \defgroup group_gpio_functions_init       Initialization Functions
 113:Generated_Source\PSoC6\pdl\drivers/peripheral/gpio/cy_gpio.h **** *   \defgroup group_gpio_functions_gpio       GPIO Functions
 114:Generated_Source\PSoC6\pdl\drivers/peripheral/gpio/cy_gpio.h **** *   \defgroup group_gpio_functions_sio        SIO Functions
 115:Generated_Source\PSoC6\pdl\drivers/peripheral/gpio/cy_gpio.h **** *   \defgroup group_gpio_functions_interrupt  Port Interrupt Functions
 116:Generated_Source\PSoC6\pdl\drivers/peripheral/gpio/cy_gpio.h **** * \}
ARM GAS  C:\Users\codyg\AppData\Local\Temp\ccQipZVL.s 			page 6


 117:Generated_Source\PSoC6\pdl\drivers/peripheral/gpio/cy_gpio.h **** * \defgroup group_gpio_data_structures Data Structures
 118:Generated_Source\PSoC6\pdl\drivers/peripheral/gpio/cy_gpio.h **** * \defgroup group_gpio_enums Enumerated Types
 119:Generated_Source\PSoC6\pdl\drivers/peripheral/gpio/cy_gpio.h **** */
 120:Generated_Source\PSoC6\pdl\drivers/peripheral/gpio/cy_gpio.h **** 
 121:Generated_Source\PSoC6\pdl\drivers/peripheral/gpio/cy_gpio.h **** #if !defined(CY_GPIO_H)
 122:Generated_Source\PSoC6\pdl\drivers/peripheral/gpio/cy_gpio.h **** #define CY_GPIO_H
 123:Generated_Source\PSoC6\pdl\drivers/peripheral/gpio/cy_gpio.h **** 
 124:Generated_Source\PSoC6\pdl\drivers/peripheral/gpio/cy_gpio.h **** #include <stddef.h>
 125:Generated_Source\PSoC6\pdl\drivers/peripheral/gpio/cy_gpio.h **** #include "syslib/cy_syslib.h"
 126:Generated_Source\PSoC6\pdl\drivers/peripheral/gpio/cy_gpio.h **** #include "cy_device_headers.h"
 127:Generated_Source\PSoC6\pdl\drivers/peripheral/gpio/cy_gpio.h **** 
 128:Generated_Source\PSoC6\pdl\drivers/peripheral/gpio/cy_gpio.h **** #if defined(__cplusplus)
 129:Generated_Source\PSoC6\pdl\drivers/peripheral/gpio/cy_gpio.h **** extern "C" {
 130:Generated_Source\PSoC6\pdl\drivers/peripheral/gpio/cy_gpio.h **** #endif
 131:Generated_Source\PSoC6\pdl\drivers/peripheral/gpio/cy_gpio.h **** 
 132:Generated_Source\PSoC6\pdl\drivers/peripheral/gpio/cy_gpio.h **** /** \addtogroup group_gpio_macros
 133:Generated_Source\PSoC6\pdl\drivers/peripheral/gpio/cy_gpio.h **** * \{
 134:Generated_Source\PSoC6\pdl\drivers/peripheral/gpio/cy_gpio.h **** */
 135:Generated_Source\PSoC6\pdl\drivers/peripheral/gpio/cy_gpio.h **** 
 136:Generated_Source\PSoC6\pdl\drivers/peripheral/gpio/cy_gpio.h **** /** Driver major version */
 137:Generated_Source\PSoC6\pdl\drivers/peripheral/gpio/cy_gpio.h **** #define CY_GPIO_DRV_VERSION_MAJOR       1
 138:Generated_Source\PSoC6\pdl\drivers/peripheral/gpio/cy_gpio.h **** 
 139:Generated_Source\PSoC6\pdl\drivers/peripheral/gpio/cy_gpio.h **** /** Driver minor version */
 140:Generated_Source\PSoC6\pdl\drivers/peripheral/gpio/cy_gpio.h **** #define CY_GPIO_DRV_VERSION_MINOR       10
 141:Generated_Source\PSoC6\pdl\drivers/peripheral/gpio/cy_gpio.h **** 
 142:Generated_Source\PSoC6\pdl\drivers/peripheral/gpio/cy_gpio.h **** /** GPIO driver ID */
 143:Generated_Source\PSoC6\pdl\drivers/peripheral/gpio/cy_gpio.h **** #define CY_GPIO_ID CY_PDL_DRV_ID(0x16u)
 144:Generated_Source\PSoC6\pdl\drivers/peripheral/gpio/cy_gpio.h **** 
 145:Generated_Source\PSoC6\pdl\drivers/peripheral/gpio/cy_gpio.h **** /** \} group_gpio_macros */
 146:Generated_Source\PSoC6\pdl\drivers/peripheral/gpio/cy_gpio.h **** 
 147:Generated_Source\PSoC6\pdl\drivers/peripheral/gpio/cy_gpio.h **** 
 148:Generated_Source\PSoC6\pdl\drivers/peripheral/gpio/cy_gpio.h **** /***************************************
 149:Generated_Source\PSoC6\pdl\drivers/peripheral/gpio/cy_gpio.h **** *       Enumerations
 150:Generated_Source\PSoC6\pdl\drivers/peripheral/gpio/cy_gpio.h **** ***************************************/
 151:Generated_Source\PSoC6\pdl\drivers/peripheral/gpio/cy_gpio.h **** /**
 152:Generated_Source\PSoC6\pdl\drivers/peripheral/gpio/cy_gpio.h **** * \addtogroup group_gpio_enums
 153:Generated_Source\PSoC6\pdl\drivers/peripheral/gpio/cy_gpio.h **** * \{
 154:Generated_Source\PSoC6\pdl\drivers/peripheral/gpio/cy_gpio.h **** */
 155:Generated_Source\PSoC6\pdl\drivers/peripheral/gpio/cy_gpio.h **** 
 156:Generated_Source\PSoC6\pdl\drivers/peripheral/gpio/cy_gpio.h **** /**
 157:Generated_Source\PSoC6\pdl\drivers/peripheral/gpio/cy_gpio.h **** * GPIO Driver error codes
 158:Generated_Source\PSoC6\pdl\drivers/peripheral/gpio/cy_gpio.h **** */
 159:Generated_Source\PSoC6\pdl\drivers/peripheral/gpio/cy_gpio.h **** typedef enum 
 160:Generated_Source\PSoC6\pdl\drivers/peripheral/gpio/cy_gpio.h **** {
 161:Generated_Source\PSoC6\pdl\drivers/peripheral/gpio/cy_gpio.h ****     CY_GPIO_SUCCESS   = 0x00u,                                    /**< Returned successful */
 162:Generated_Source\PSoC6\pdl\drivers/peripheral/gpio/cy_gpio.h ****     CY_GPIO_BAD_PARAM = CY_GPIO_ID | CY_PDL_STATUS_ERROR | 0x01u, /**< Bad parameter was passed */
 163:Generated_Source\PSoC6\pdl\drivers/peripheral/gpio/cy_gpio.h **** } cy_en_gpio_status_t;
 164:Generated_Source\PSoC6\pdl\drivers/peripheral/gpio/cy_gpio.h **** 
 165:Generated_Source\PSoC6\pdl\drivers/peripheral/gpio/cy_gpio.h **** /** \} group_gpio_enums */
 166:Generated_Source\PSoC6\pdl\drivers/peripheral/gpio/cy_gpio.h **** 
 167:Generated_Source\PSoC6\pdl\drivers/peripheral/gpio/cy_gpio.h **** 
 168:Generated_Source\PSoC6\pdl\drivers/peripheral/gpio/cy_gpio.h **** /***************************************
 169:Generated_Source\PSoC6\pdl\drivers/peripheral/gpio/cy_gpio.h **** *       Configuration Structures
 170:Generated_Source\PSoC6\pdl\drivers/peripheral/gpio/cy_gpio.h **** ***************************************/
 171:Generated_Source\PSoC6\pdl\drivers/peripheral/gpio/cy_gpio.h **** 
 172:Generated_Source\PSoC6\pdl\drivers/peripheral/gpio/cy_gpio.h **** /**
 173:Generated_Source\PSoC6\pdl\drivers/peripheral/gpio/cy_gpio.h **** * \addtogroup group_gpio_data_structures
ARM GAS  C:\Users\codyg\AppData\Local\Temp\ccQipZVL.s 			page 7


 174:Generated_Source\PSoC6\pdl\drivers/peripheral/gpio/cy_gpio.h **** * \{
 175:Generated_Source\PSoC6\pdl\drivers/peripheral/gpio/cy_gpio.h **** */
 176:Generated_Source\PSoC6\pdl\drivers/peripheral/gpio/cy_gpio.h **** 
 177:Generated_Source\PSoC6\pdl\drivers/peripheral/gpio/cy_gpio.h **** /** This structure is used to initialize a port of GPIO pins */
 178:Generated_Source\PSoC6\pdl\drivers/peripheral/gpio/cy_gpio.h **** typedef struct {
 179:Generated_Source\PSoC6\pdl\drivers/peripheral/gpio/cy_gpio.h ****     uint32_t out;           /**< Initial output data for the IO pins in the port */
 180:Generated_Source\PSoC6\pdl\drivers/peripheral/gpio/cy_gpio.h ****     uint32_t intrMask;      /**< Interrupt enable mask for the port interrupt */
 181:Generated_Source\PSoC6\pdl\drivers/peripheral/gpio/cy_gpio.h ****     uint32_t intrCfg;       /**< Port pin interrupt edge detection configuration */
 182:Generated_Source\PSoC6\pdl\drivers/peripheral/gpio/cy_gpio.h ****     uint32_t cfg;           /**< Port pin drive modes and input buffer enable configuration */
 183:Generated_Source\PSoC6\pdl\drivers/peripheral/gpio/cy_gpio.h ****     uint32_t cfgIn;         /**< Port pin input buffer configuration */
 184:Generated_Source\PSoC6\pdl\drivers/peripheral/gpio/cy_gpio.h ****     uint32_t cfgOut;        /**< Port pin output buffer configuration */
 185:Generated_Source\PSoC6\pdl\drivers/peripheral/gpio/cy_gpio.h ****     uint32_t cfgSIO;        /**< Port SIO pins configuration */
 186:Generated_Source\PSoC6\pdl\drivers/peripheral/gpio/cy_gpio.h ****     uint32_t sel0Active;    /**< HSIOM selection for port pins 0,1,2,3 */
 187:Generated_Source\PSoC6\pdl\drivers/peripheral/gpio/cy_gpio.h ****     uint32_t sel1Active;    /**< HSIOM selection for port pins 4,5,6,7 */
 188:Generated_Source\PSoC6\pdl\drivers/peripheral/gpio/cy_gpio.h **** } cy_stc_gpio_prt_config_t;
 189:Generated_Source\PSoC6\pdl\drivers/peripheral/gpio/cy_gpio.h **** 
 190:Generated_Source\PSoC6\pdl\drivers/peripheral/gpio/cy_gpio.h **** /** This structure is used to initialize a single GPIO pin */
 191:Generated_Source\PSoC6\pdl\drivers/peripheral/gpio/cy_gpio.h **** typedef struct {
 192:Generated_Source\PSoC6\pdl\drivers/peripheral/gpio/cy_gpio.h ****     uint32_t outVal;         /**< Pin output state */
 193:Generated_Source\PSoC6\pdl\drivers/peripheral/gpio/cy_gpio.h ****     uint32_t driveMode;      /**< Drive mode */
 194:Generated_Source\PSoC6\pdl\drivers/peripheral/gpio/cy_gpio.h ****     en_hsiom_sel_t hsiom;   /**< HSIOM selection */
 195:Generated_Source\PSoC6\pdl\drivers/peripheral/gpio/cy_gpio.h ****     uint32_t intEdge;        /**< Interrupt Edge type */
 196:Generated_Source\PSoC6\pdl\drivers/peripheral/gpio/cy_gpio.h ****     uint32_t intMask;        /**< Interrupt enable mask */
 197:Generated_Source\PSoC6\pdl\drivers/peripheral/gpio/cy_gpio.h ****     uint32_t vtrip;          /**< Input buffer voltage trip type */
 198:Generated_Source\PSoC6\pdl\drivers/peripheral/gpio/cy_gpio.h ****     uint32_t slewRate;       /**< Output buffer slew rate */
 199:Generated_Source\PSoC6\pdl\drivers/peripheral/gpio/cy_gpio.h ****     uint32_t driveSel;       /**< Drive strength */
 200:Generated_Source\PSoC6\pdl\drivers/peripheral/gpio/cy_gpio.h ****     uint32_t vregEn;         /**< SIO pair output buffer mode */
 201:Generated_Source\PSoC6\pdl\drivers/peripheral/gpio/cy_gpio.h ****     uint32_t ibufMode;       /**< SIO pair input buffer mode */
 202:Generated_Source\PSoC6\pdl\drivers/peripheral/gpio/cy_gpio.h ****     uint32_t vtripSel;       /**< SIO pair input buffer trip point */
 203:Generated_Source\PSoC6\pdl\drivers/peripheral/gpio/cy_gpio.h ****     uint32_t vrefSel;        /**< SIO pair reference voltage for input buffer trip point */
 204:Generated_Source\PSoC6\pdl\drivers/peripheral/gpio/cy_gpio.h ****     uint32_t vohSel;         /**< SIO pair regulated voltage output level */
 205:Generated_Source\PSoC6\pdl\drivers/peripheral/gpio/cy_gpio.h **** } cy_stc_gpio_pin_config_t;
 206:Generated_Source\PSoC6\pdl\drivers/peripheral/gpio/cy_gpio.h **** 
 207:Generated_Source\PSoC6\pdl\drivers/peripheral/gpio/cy_gpio.h **** /** \} group_gpio_data_structures */
 208:Generated_Source\PSoC6\pdl\drivers/peripheral/gpio/cy_gpio.h **** 
 209:Generated_Source\PSoC6\pdl\drivers/peripheral/gpio/cy_gpio.h **** /***************************************
 210:Generated_Source\PSoC6\pdl\drivers/peripheral/gpio/cy_gpio.h **** *        Constants
 211:Generated_Source\PSoC6\pdl\drivers/peripheral/gpio/cy_gpio.h **** ***************************************/
 212:Generated_Source\PSoC6\pdl\drivers/peripheral/gpio/cy_gpio.h **** 
 213:Generated_Source\PSoC6\pdl\drivers/peripheral/gpio/cy_gpio.h **** /** \cond INTERNAL */
 214:Generated_Source\PSoC6\pdl\drivers/peripheral/gpio/cy_gpio.h **** 
 215:Generated_Source\PSoC6\pdl\drivers/peripheral/gpio/cy_gpio.h **** /* General Constants */
 216:Generated_Source\PSoC6\pdl\drivers/peripheral/gpio/cy_gpio.h **** #define CY_GPIO_PRT_HALF                       (4UL)      /**< Half-way point of a GPIO port */
 217:Generated_Source\PSoC6\pdl\drivers/peripheral/gpio/cy_gpio.h **** #define CY_GPIO_PRT_DEINIT                     (0UL)      /**< De-init value for port registers */
 218:Generated_Source\PSoC6\pdl\drivers/peripheral/gpio/cy_gpio.h **** 
 219:Generated_Source\PSoC6\pdl\drivers/peripheral/gpio/cy_gpio.h **** /* GPIO Masks */
 220:Generated_Source\PSoC6\pdl\drivers/peripheral/gpio/cy_gpio.h **** #define CY_GPIO_HSIOM_MASK                     (0x1FUL)   /**< HSIOM selection mask */
 221:Generated_Source\PSoC6\pdl\drivers/peripheral/gpio/cy_gpio.h **** #define CY_GPIO_OUT_MASK                       (0x01UL)   /**< Single pin mask for OUT register */
 222:Generated_Source\PSoC6\pdl\drivers/peripheral/gpio/cy_gpio.h **** #define CY_GPIO_IN_MASK                        (0x01UL)   /**< Single pin mask for IN register */
 223:Generated_Source\PSoC6\pdl\drivers/peripheral/gpio/cy_gpio.h **** #define CY_GPIO_CFG_DM_MASK                    (0x0FUL)   /**< Single pin mask for drive mode in CF
 224:Generated_Source\PSoC6\pdl\drivers/peripheral/gpio/cy_gpio.h **** #define CY_GPIO_CFG_IN_VTRIP_SEL_MASK          (0x01UL)   /**< Single pin mask for VTRIP selection 
 225:Generated_Source\PSoC6\pdl\drivers/peripheral/gpio/cy_gpio.h **** #define CY_GPIO_CFG_OUT_SLOW_MASK              (0x01UL)   /**< Single pin mask for slew rate in CFG
 226:Generated_Source\PSoC6\pdl\drivers/peripheral/gpio/cy_gpio.h **** #define CY_GPIO_CFG_OUT_DRIVE_SEL_MASK         (0x03UL)   /**< Single pin mask for drive strength i
 227:Generated_Source\PSoC6\pdl\drivers/peripheral/gpio/cy_gpio.h **** #define CY_GPIO_INTR_STATUS_MASK               (0x01UL)   /**< Single pin mask for interrupt status
 228:Generated_Source\PSoC6\pdl\drivers/peripheral/gpio/cy_gpio.h **** #define CY_GPIO_INTR_EN_MASK                   (0x01UL)   /**< Single pin mask for interrupt status
 229:Generated_Source\PSoC6\pdl\drivers/peripheral/gpio/cy_gpio.h **** #define CY_GPIO_INTR_MASKED_MASK               (0x01UL)   /**< Single pin mask for masked interrupt
 230:Generated_Source\PSoC6\pdl\drivers/peripheral/gpio/cy_gpio.h **** #define CY_GPIO_INTR_SET_MASK                  (0x01UL)   /**< Single pin mask for setting the inte
ARM GAS  C:\Users\codyg\AppData\Local\Temp\ccQipZVL.s 			page 8


 231:Generated_Source\PSoC6\pdl\drivers/peripheral/gpio/cy_gpio.h **** #define CY_GPIO_INTR_EDGE_MASK                 (0x03UL)   /**< Single pin mask for interrupt edge t
 232:Generated_Source\PSoC6\pdl\drivers/peripheral/gpio/cy_gpio.h **** #define CY_GPIO_INTR_FLT_EDGE_MASK             (0x07UL)   /**< Single pin mask for setting filtered
 233:Generated_Source\PSoC6\pdl\drivers/peripheral/gpio/cy_gpio.h **** 
 234:Generated_Source\PSoC6\pdl\drivers/peripheral/gpio/cy_gpio.h **** /* SIO Masks */
 235:Generated_Source\PSoC6\pdl\drivers/peripheral/gpio/cy_gpio.h **** #define CY_GPIO_VREG_EN_MASK                   (0x01UL)   /**< Single SIO pin mask for voltage regu
 236:Generated_Source\PSoC6\pdl\drivers/peripheral/gpio/cy_gpio.h **** #define CY_GPIO_IBUF_MASK                      (0x01UL)   /**< Single SIO pin mask for input buffer
 237:Generated_Source\PSoC6\pdl\drivers/peripheral/gpio/cy_gpio.h **** #define CY_GPIO_IBUF_SHIFT                     (0x01UL)   /**< Single SIO pin shift for input buffe
 238:Generated_Source\PSoC6\pdl\drivers/peripheral/gpio/cy_gpio.h **** #define CY_GPIO_VTRIP_SEL_MASK                 (0x01UL)   /**< Single SIO pin mask for the input bu
 239:Generated_Source\PSoC6\pdl\drivers/peripheral/gpio/cy_gpio.h **** #define CY_GPIO_VTRIP_SEL_SHIFT                (0x02UL)   /**< Single SIO pin shift for the input b
 240:Generated_Source\PSoC6\pdl\drivers/peripheral/gpio/cy_gpio.h **** #define CY_GPIO_VREF_SEL_MASK                  (0x03UL)   /**< Single SIO pin mask for voltage refe
 241:Generated_Source\PSoC6\pdl\drivers/peripheral/gpio/cy_gpio.h **** #define CY_GPIO_VREF_SEL_SHIFT                 (0x03UL)   /**< Single SIO pin shift for voltage ref
 242:Generated_Source\PSoC6\pdl\drivers/peripheral/gpio/cy_gpio.h **** #define CY_GPIO_VOH_SEL_MASK                   (0x07UL)   /**< Single SIO pin mask for VOH */
 243:Generated_Source\PSoC6\pdl\drivers/peripheral/gpio/cy_gpio.h **** #define CY_GPIO_VOH_SEL_SHIFT                  (0x05UL)   /**< Single SIO pin shift for VOH */
 244:Generated_Source\PSoC6\pdl\drivers/peripheral/gpio/cy_gpio.h **** 
 245:Generated_Source\PSoC6\pdl\drivers/peripheral/gpio/cy_gpio.h **** /* Special mask for SIO pin pair setting */
 246:Generated_Source\PSoC6\pdl\drivers/peripheral/gpio/cy_gpio.h **** #define CY_GPIO_SIO_ODD_PIN_MASK               (0x00FEUL) /**< SIO pin pair selection mask */
 247:Generated_Source\PSoC6\pdl\drivers/peripheral/gpio/cy_gpio.h **** #define CY_GPIO_SIO_PIN_MASK                   (0x00FFUL) /**< SIO pin pair mask */
 248:Generated_Source\PSoC6\pdl\drivers/peripheral/gpio/cy_gpio.h **** 
 249:Generated_Source\PSoC6\pdl\drivers/peripheral/gpio/cy_gpio.h **** /* Offsets */
 250:Generated_Source\PSoC6\pdl\drivers/peripheral/gpio/cy_gpio.h **** #define CY_GPIO_HSIOM_OFFSET                   (3UL)      /**< Offset for HSIOM */
 251:Generated_Source\PSoC6\pdl\drivers/peripheral/gpio/cy_gpio.h **** #define CY_GPIO_DRIVE_MODE_OFFSET              (2UL)      /**< Offset for Drive mode */
 252:Generated_Source\PSoC6\pdl\drivers/peripheral/gpio/cy_gpio.h **** #define CY_GPIO_INBUF_OFFSET                   (3UL)      /**< Offset for input buffer */
 253:Generated_Source\PSoC6\pdl\drivers/peripheral/gpio/cy_gpio.h **** #define CY_GPIO_CFG_OUT_DRIVE_OFFSET           (16UL)     /**< Offset for drive strength */
 254:Generated_Source\PSoC6\pdl\drivers/peripheral/gpio/cy_gpio.h **** #define CY_GPIO_INTR_CFG_OFFSET                (1UL)      /**< Offset for interrupt config */
 255:Generated_Source\PSoC6\pdl\drivers/peripheral/gpio/cy_gpio.h **** #define CY_GPIO_INTR_FILT_OFFSET               (18UL)     /**< Offset for filtered interrupt config
 256:Generated_Source\PSoC6\pdl\drivers/peripheral/gpio/cy_gpio.h **** #define CY_GPIO_CFG_SIO_OFFSET                 (2UL)      /**< Offset for SIO config */
 257:Generated_Source\PSoC6\pdl\drivers/peripheral/gpio/cy_gpio.h **** 
 258:Generated_Source\PSoC6\pdl\drivers/peripheral/gpio/cy_gpio.h **** /* Parameter validation constants */
 259:Generated_Source\PSoC6\pdl\drivers/peripheral/gpio/cy_gpio.h **** #define CY_GPIO_PINS_MAX                       (8UL)      /**< Number of pins in the port */
 260:Generated_Source\PSoC6\pdl\drivers/peripheral/gpio/cy_gpio.h **** #define CY_GPIO_PRT_PINS_MASK                  (0x0000000FFUL)
 261:Generated_Source\PSoC6\pdl\drivers/peripheral/gpio/cy_gpio.h **** #define CY_GPIO_PRT_INTR_CFG_EDGE_SEL_MASK     (GPIO_PRT_INTR_CFG_EDGE0_SEL_Msk | \
 262:Generated_Source\PSoC6\pdl\drivers/peripheral/gpio/cy_gpio.h ****                                                 GPIO_PRT_INTR_CFG_EDGE1_SEL_Msk | \
 263:Generated_Source\PSoC6\pdl\drivers/peripheral/gpio/cy_gpio.h ****                                                 GPIO_PRT_INTR_CFG_EDGE2_SEL_Msk | \
 264:Generated_Source\PSoC6\pdl\drivers/peripheral/gpio/cy_gpio.h ****                                                 GPIO_PRT_INTR_CFG_EDGE3_SEL_Msk | \
 265:Generated_Source\PSoC6\pdl\drivers/peripheral/gpio/cy_gpio.h ****                                                 GPIO_PRT_INTR_CFG_EDGE4_SEL_Msk | \
 266:Generated_Source\PSoC6\pdl\drivers/peripheral/gpio/cy_gpio.h ****                                                 GPIO_PRT_INTR_CFG_EDGE5_SEL_Msk | \
 267:Generated_Source\PSoC6\pdl\drivers/peripheral/gpio/cy_gpio.h ****                                                 GPIO_PRT_INTR_CFG_EDGE6_SEL_Msk | \
 268:Generated_Source\PSoC6\pdl\drivers/peripheral/gpio/cy_gpio.h ****                                                 GPIO_PRT_INTR_CFG_EDGE7_SEL_Msk)            
 269:Generated_Source\PSoC6\pdl\drivers/peripheral/gpio/cy_gpio.h **** #define CY_GPIO_PRT_INTR_CFG_RANGE_MASK        (CY_GPIO_PRT_INTR_CFG_EDGE_SEL_MASK | \
 270:Generated_Source\PSoC6\pdl\drivers/peripheral/gpio/cy_gpio.h ****                                                 GPIO_PRT_INTR_CFG_FLT_EDGE_SEL_Msk | \
 271:Generated_Source\PSoC6\pdl\drivers/peripheral/gpio/cy_gpio.h ****                                                 GPIO_PRT_INTR_CFG_FLT_SEL_Msk)
 272:Generated_Source\PSoC6\pdl\drivers/peripheral/gpio/cy_gpio.h **** #define CY_GPIO_PRT_INT_MASK_MASK              (0x0000001FFUL)
 273:Generated_Source\PSoC6\pdl\drivers/peripheral/gpio/cy_gpio.h **** #define CY_GPIO_PRT_SEL_ACTIVE_MASK            (0x1FFFFFFFUL)
 274:Generated_Source\PSoC6\pdl\drivers/peripheral/gpio/cy_gpio.h **** 
 275:Generated_Source\PSoC6\pdl\drivers/peripheral/gpio/cy_gpio.h **** /* Parameter validation macros */
 276:Generated_Source\PSoC6\pdl\drivers/peripheral/gpio/cy_gpio.h **** #define CY_GPIO_IS_PIN_VALID(pinNum)           (CY_GPIO_PINS_MAX > (pinNum))
 277:Generated_Source\PSoC6\pdl\drivers/peripheral/gpio/cy_gpio.h **** #define CY_GPIO_IS_FILTER_PIN_VALID(pinNum)    (CY_GPIO_PINS_MAX >= (pinNum))
 278:Generated_Source\PSoC6\pdl\drivers/peripheral/gpio/cy_gpio.h **** #define CY_GPIO_IS_VALUE_VALID(outVal)         (1UL >= (outVal))
 279:Generated_Source\PSoC6\pdl\drivers/peripheral/gpio/cy_gpio.h **** #define CY_GPIO_IS_DM_VALID(driveMode)         (0U == ((driveMode) & (uint32_t)~CY_GPIO_CFG_DM_MASK
 280:Generated_Source\PSoC6\pdl\drivers/peripheral/gpio/cy_gpio.h **** 
 281:Generated_Source\PSoC6\pdl\drivers/peripheral/gpio/cy_gpio.h **** #define CY_GPIO_IS_HSIOM_VALID(hsiom)          (0U == ((hsiom) & (uint32_t)~CY_GPIO_HSIOM_MASK))
 282:Generated_Source\PSoC6\pdl\drivers/peripheral/gpio/cy_gpio.h **** 
 283:Generated_Source\PSoC6\pdl\drivers/peripheral/gpio/cy_gpio.h **** #define CY_GPIO_IS_INT_EDGE_VALID(intEdge)     ((CY_GPIO_INTR_DISABLE  == (intEdge)) || \
 284:Generated_Source\PSoC6\pdl\drivers/peripheral/gpio/cy_gpio.h ****                                                 (CY_GPIO_INTR_RISING   == (intEdge)) || \
 285:Generated_Source\PSoC6\pdl\drivers/peripheral/gpio/cy_gpio.h ****                                                 (CY_GPIO_INTR_FALLING  == (intEdge)) || \
 286:Generated_Source\PSoC6\pdl\drivers/peripheral/gpio/cy_gpio.h ****                                                 (CY_GPIO_INTR_BOTH     == (intEdge)))
 287:Generated_Source\PSoC6\pdl\drivers/peripheral/gpio/cy_gpio.h **** 
ARM GAS  C:\Users\codyg\AppData\Local\Temp\ccQipZVL.s 			page 9


 288:Generated_Source\PSoC6\pdl\drivers/peripheral/gpio/cy_gpio.h **** #define CY_GPIO_IS_DRIVE_SEL_VALID(driveSel)   ((CY_GPIO_DRIVE_FULL    == (driveSel)) || \
 289:Generated_Source\PSoC6\pdl\drivers/peripheral/gpio/cy_gpio.h ****                                                 (CY_GPIO_DRIVE_1_2     == (driveSel)) || \
 290:Generated_Source\PSoC6\pdl\drivers/peripheral/gpio/cy_gpio.h ****                                                 (CY_GPIO_DRIVE_1_4     == (driveSel)) || \
 291:Generated_Source\PSoC6\pdl\drivers/peripheral/gpio/cy_gpio.h ****                                                 (CY_GPIO_DRIVE_1_8     == (driveSel)))
 292:Generated_Source\PSoC6\pdl\drivers/peripheral/gpio/cy_gpio.h **** 
 293:Generated_Source\PSoC6\pdl\drivers/peripheral/gpio/cy_gpio.h **** #define CY_GPIO_IS_VREF_SEL_VALID(vrefSel)     ((CY_SIO_VREF_PINREF    == (vrefSel)) || \
 294:Generated_Source\PSoC6\pdl\drivers/peripheral/gpio/cy_gpio.h ****                                                 (CY_SIO_VREF_1_2V      == (vrefSel)) || \
 295:Generated_Source\PSoC6\pdl\drivers/peripheral/gpio/cy_gpio.h ****                                                 (CY_SIO_VREF_AMUX_A    == (vrefSel)) || \
 296:Generated_Source\PSoC6\pdl\drivers/peripheral/gpio/cy_gpio.h ****                                                 (CY_SIO_VREF_AMUX_B    == (vrefSel)))
 297:Generated_Source\PSoC6\pdl\drivers/peripheral/gpio/cy_gpio.h **** 
 298:Generated_Source\PSoC6\pdl\drivers/peripheral/gpio/cy_gpio.h **** #define CY_GPIO_IS_VOH_SEL_VALID(vrefSel)      ((CY_SIO_VOH_1_00       == (vrefSel)) || \
 299:Generated_Source\PSoC6\pdl\drivers/peripheral/gpio/cy_gpio.h ****                                                 (CY_SIO_VOH_1_25       == (vrefSel)) || \
 300:Generated_Source\PSoC6\pdl\drivers/peripheral/gpio/cy_gpio.h ****                                                 (CY_SIO_VOH_1_49       == (vrefSel)) || \
 301:Generated_Source\PSoC6\pdl\drivers/peripheral/gpio/cy_gpio.h ****                                                 (CY_SIO_VOH_1_67       == (vrefSel)) || \
 302:Generated_Source\PSoC6\pdl\drivers/peripheral/gpio/cy_gpio.h ****                                                 (CY_SIO_VOH_2_08       == (vrefSel)) || \
 303:Generated_Source\PSoC6\pdl\drivers/peripheral/gpio/cy_gpio.h ****                                                 (CY_SIO_VOH_2_50       == (vrefSel)) || \
 304:Generated_Source\PSoC6\pdl\drivers/peripheral/gpio/cy_gpio.h ****                                                 (CY_SIO_VOH_2_78       == (vrefSel)) || \
 305:Generated_Source\PSoC6\pdl\drivers/peripheral/gpio/cy_gpio.h ****                                                 (CY_SIO_VOH_4_16       == (vrefSel)))
 306:Generated_Source\PSoC6\pdl\drivers/peripheral/gpio/cy_gpio.h ****                    
 307:Generated_Source\PSoC6\pdl\drivers/peripheral/gpio/cy_gpio.h **** #define CY_GPIO_IS_PIN_BIT_VALID(pinBit)       (0U == ((pinBit) & (uint32_t)~CY_GPIO_PRT_PINS_MASK)
 308:Generated_Source\PSoC6\pdl\drivers/peripheral/gpio/cy_gpio.h **** #define CY_GPIO_IS_INTR_CFG_VALID(intrCfg)     (0U == ((intrCfg) & (uint32_t)~CY_GPIO_PRT_INTR_CFG_
 309:Generated_Source\PSoC6\pdl\drivers/peripheral/gpio/cy_gpio.h **** #define CY_GPIO_IS_INTR_MASK_VALID(intrMask)   (0U == ((intrMask) & (uint32_t)~CY_GPIO_PRT_INT_MASK
 310:Generated_Source\PSoC6\pdl\drivers/peripheral/gpio/cy_gpio.h **** #define CY_GPIO_IS_SEL_ACT_VALID(selActive)    (0U == ((selActive) & (uint32_t)~CY_GPIO_PRT_SEL_ACT
 311:Generated_Source\PSoC6\pdl\drivers/peripheral/gpio/cy_gpio.h **** 
 312:Generated_Source\PSoC6\pdl\drivers/peripheral/gpio/cy_gpio.h **** /** \endcond */
 313:Generated_Source\PSoC6\pdl\drivers/peripheral/gpio/cy_gpio.h **** 
 314:Generated_Source\PSoC6\pdl\drivers/peripheral/gpio/cy_gpio.h **** 
 315:Generated_Source\PSoC6\pdl\drivers/peripheral/gpio/cy_gpio.h **** /***************************************
 316:Generated_Source\PSoC6\pdl\drivers/peripheral/gpio/cy_gpio.h **** *        Function Constants
 317:Generated_Source\PSoC6\pdl\drivers/peripheral/gpio/cy_gpio.h **** ***************************************/
 318:Generated_Source\PSoC6\pdl\drivers/peripheral/gpio/cy_gpio.h **** 
 319:Generated_Source\PSoC6\pdl\drivers/peripheral/gpio/cy_gpio.h **** /**
 320:Generated_Source\PSoC6\pdl\drivers/peripheral/gpio/cy_gpio.h **** * \addtogroup group_gpio_macros
 321:Generated_Source\PSoC6\pdl\drivers/peripheral/gpio/cy_gpio.h **** * \{
 322:Generated_Source\PSoC6\pdl\drivers/peripheral/gpio/cy_gpio.h **** */
 323:Generated_Source\PSoC6\pdl\drivers/peripheral/gpio/cy_gpio.h **** 
 324:Generated_Source\PSoC6\pdl\drivers/peripheral/gpio/cy_gpio.h **** /**
 325:Generated_Source\PSoC6\pdl\drivers/peripheral/gpio/cy_gpio.h **** * \defgroup group_gpio_driveModes Pin drive mode
 326:Generated_Source\PSoC6\pdl\drivers/peripheral/gpio/cy_gpio.h **** * \{
 327:Generated_Source\PSoC6\pdl\drivers/peripheral/gpio/cy_gpio.h **** * Constants to be used for setting the drive mode of the pin.
 328:Generated_Source\PSoC6\pdl\drivers/peripheral/gpio/cy_gpio.h **** */
 329:Generated_Source\PSoC6\pdl\drivers/peripheral/gpio/cy_gpio.h **** #define CY_GPIO_DM_ANALOG                      (0x00UL) /**< \brief Analog High-Z. Input buffer off
 330:Generated_Source\PSoC6\pdl\drivers/peripheral/gpio/cy_gpio.h **** #define CY_GPIO_DM_PULLUP_IN_OFF               (0x02UL) /**< \brief Resistive Pull-Up. Input buffer
 331:Generated_Source\PSoC6\pdl\drivers/peripheral/gpio/cy_gpio.h **** #define CY_GPIO_DM_PULLDOWN_IN_OFF             (0x03UL) /**< \brief Resistive Pull-Down. Input buff
 332:Generated_Source\PSoC6\pdl\drivers/peripheral/gpio/cy_gpio.h **** #define CY_GPIO_DM_OD_DRIVESLOW_IN_OFF         (0x04UL) /**< \brief Open Drain, Drives Low. Input b
 333:Generated_Source\PSoC6\pdl\drivers/peripheral/gpio/cy_gpio.h **** #define CY_GPIO_DM_OD_DRIVESHIGH_IN_OFF        (0x05UL) /**< \brief Open Drain, Drives High. Input 
 334:Generated_Source\PSoC6\pdl\drivers/peripheral/gpio/cy_gpio.h **** #define CY_GPIO_DM_STRONG_IN_OFF               (0x06UL) /**< \brief Strong Drive. Input buffer off 
 335:Generated_Source\PSoC6\pdl\drivers/peripheral/gpio/cy_gpio.h **** #define CY_GPIO_DM_PULLUP_DOWN_IN_OFF          (0x07UL) /**< \brief Resistive Pull-Up/Down. Input b
 336:Generated_Source\PSoC6\pdl\drivers/peripheral/gpio/cy_gpio.h **** #define CY_GPIO_DM_HIGHZ                       (0x08UL) /**< \brief Digital High-Z. Input buffer on
 337:Generated_Source\PSoC6\pdl\drivers/peripheral/gpio/cy_gpio.h **** #define CY_GPIO_DM_PULLUP                      (0x0AUL) /**< \brief Resistive Pull-Up. Input buffer
 338:Generated_Source\PSoC6\pdl\drivers/peripheral/gpio/cy_gpio.h **** #define CY_GPIO_DM_PULLDOWN                    (0x0BUL) /**< \brief Resistive Pull-Down. Input buff
 339:Generated_Source\PSoC6\pdl\drivers/peripheral/gpio/cy_gpio.h **** #define CY_GPIO_DM_OD_DRIVESLOW                (0x0CUL) /**< \brief Open Drain, Drives Low. Input b
 340:Generated_Source\PSoC6\pdl\drivers/peripheral/gpio/cy_gpio.h **** #define CY_GPIO_DM_OD_DRIVESHIGH               (0x0DUL) /**< \brief Open Drain, Drives High. Input 
 341:Generated_Source\PSoC6\pdl\drivers/peripheral/gpio/cy_gpio.h **** #define CY_GPIO_DM_STRONG                      (0x0EUL) /**< \brief Strong Drive. Input buffer on *
 342:Generated_Source\PSoC6\pdl\drivers/peripheral/gpio/cy_gpio.h **** #define CY_GPIO_DM_PULLUP_DOWN                 (0x0FUL) /**< \brief Resistive Pull-Up/Down. Input b
 343:Generated_Source\PSoC6\pdl\drivers/peripheral/gpio/cy_gpio.h **** /** \} */
 344:Generated_Source\PSoC6\pdl\drivers/peripheral/gpio/cy_gpio.h **** 
ARM GAS  C:\Users\codyg\AppData\Local\Temp\ccQipZVL.s 			page 10


 345:Generated_Source\PSoC6\pdl\drivers/peripheral/gpio/cy_gpio.h **** /**
 346:Generated_Source\PSoC6\pdl\drivers/peripheral/gpio/cy_gpio.h **** * \defgroup group_gpio_vtrip Voltage trip mode
 347:Generated_Source\PSoC6\pdl\drivers/peripheral/gpio/cy_gpio.h **** * \{
 348:Generated_Source\PSoC6\pdl\drivers/peripheral/gpio/cy_gpio.h **** * Constants to be used for setting the voltage trip type on the pin.
 349:Generated_Source\PSoC6\pdl\drivers/peripheral/gpio/cy_gpio.h **** */
 350:Generated_Source\PSoC6\pdl\drivers/peripheral/gpio/cy_gpio.h **** #define CY_GPIO_VTRIP_CMOS                     (0x00UL) /**< \brief Input buffer compatible with CM
 351:Generated_Source\PSoC6\pdl\drivers/peripheral/gpio/cy_gpio.h **** #define CY_GPIO_VTRIP_TTL                      (0x01UL) /**< \brief Input buffer compatible with TT
 352:Generated_Source\PSoC6\pdl\drivers/peripheral/gpio/cy_gpio.h **** /** \} */
 353:Generated_Source\PSoC6\pdl\drivers/peripheral/gpio/cy_gpio.h **** 
 354:Generated_Source\PSoC6\pdl\drivers/peripheral/gpio/cy_gpio.h **** /**
 355:Generated_Source\PSoC6\pdl\drivers/peripheral/gpio/cy_gpio.h **** * \defgroup group_gpio_slewRate Slew Rate Mode
 356:Generated_Source\PSoC6\pdl\drivers/peripheral/gpio/cy_gpio.h **** * \{
 357:Generated_Source\PSoC6\pdl\drivers/peripheral/gpio/cy_gpio.h **** * Constants to be used for setting the slew rate of the pin.
 358:Generated_Source\PSoC6\pdl\drivers/peripheral/gpio/cy_gpio.h **** */
 359:Generated_Source\PSoC6\pdl\drivers/peripheral/gpio/cy_gpio.h **** #define CY_GPIO_SLEW_FAST                      (0x00UL) /**< \brief Fast slew rate */
 360:Generated_Source\PSoC6\pdl\drivers/peripheral/gpio/cy_gpio.h **** #define CY_GPIO_SLEW_SLOW                      (0x01UL) /**< \brief Slow slew rate */
 361:Generated_Source\PSoC6\pdl\drivers/peripheral/gpio/cy_gpio.h **** /** \} */
 362:Generated_Source\PSoC6\pdl\drivers/peripheral/gpio/cy_gpio.h **** 
 363:Generated_Source\PSoC6\pdl\drivers/peripheral/gpio/cy_gpio.h **** /**
 364:Generated_Source\PSoC6\pdl\drivers/peripheral/gpio/cy_gpio.h **** * \defgroup group_gpio_driveStrength Pin drive strength
 365:Generated_Source\PSoC6\pdl\drivers/peripheral/gpio/cy_gpio.h **** * \{
 366:Generated_Source\PSoC6\pdl\drivers/peripheral/gpio/cy_gpio.h **** * Constants to be used for setting the drive strength of the pin.
 367:Generated_Source\PSoC6\pdl\drivers/peripheral/gpio/cy_gpio.h **** */
 368:Generated_Source\PSoC6\pdl\drivers/peripheral/gpio/cy_gpio.h **** #define CY_GPIO_DRIVE_FULL                     (0x00UL) /**< \brief Full drive strength: Max drive 
 369:Generated_Source\PSoC6\pdl\drivers/peripheral/gpio/cy_gpio.h **** #define CY_GPIO_DRIVE_1_2                      (0x01UL) /**< \brief 1/2 drive strength: 1/2 drive c
 370:Generated_Source\PSoC6\pdl\drivers/peripheral/gpio/cy_gpio.h **** #define CY_GPIO_DRIVE_1_4                      (0x02UL) /**< \brief 1/4 drive strength: 1/4 drive c
 371:Generated_Source\PSoC6\pdl\drivers/peripheral/gpio/cy_gpio.h **** #define CY_GPIO_DRIVE_1_8                      (0x03UL) /**< \brief 1/8 drive strength: 1/8 drive c
 372:Generated_Source\PSoC6\pdl\drivers/peripheral/gpio/cy_gpio.h **** /** \} */
 373:Generated_Source\PSoC6\pdl\drivers/peripheral/gpio/cy_gpio.h **** 
 374:Generated_Source\PSoC6\pdl\drivers/peripheral/gpio/cy_gpio.h **** /**
 375:Generated_Source\PSoC6\pdl\drivers/peripheral/gpio/cy_gpio.h **** * \defgroup group_gpio_interruptTrigger Interrupt trigger type
 376:Generated_Source\PSoC6\pdl\drivers/peripheral/gpio/cy_gpio.h **** * \{
 377:Generated_Source\PSoC6\pdl\drivers/peripheral/gpio/cy_gpio.h **** * Constants to be used for setting the interrupt trigger type on the pin.
 378:Generated_Source\PSoC6\pdl\drivers/peripheral/gpio/cy_gpio.h **** */
 379:Generated_Source\PSoC6\pdl\drivers/peripheral/gpio/cy_gpio.h **** #define CY_GPIO_INTR_DISABLE                   (0x00UL) /**< \brief Disable the pin interrupt gener
 380:Generated_Source\PSoC6\pdl\drivers/peripheral/gpio/cy_gpio.h **** #define CY_GPIO_INTR_RISING                    (0x01UL) /**< \brief Rising-Edge interrupt */
 381:Generated_Source\PSoC6\pdl\drivers/peripheral/gpio/cy_gpio.h **** #define CY_GPIO_INTR_FALLING                   (0x02UL) /**< \brief Falling-Edge interrupt */
 382:Generated_Source\PSoC6\pdl\drivers/peripheral/gpio/cy_gpio.h **** #define CY_GPIO_INTR_BOTH                      (0x03UL) /**< \brief Both-Edge interrupt */
 383:Generated_Source\PSoC6\pdl\drivers/peripheral/gpio/cy_gpio.h **** /** \} */
 384:Generated_Source\PSoC6\pdl\drivers/peripheral/gpio/cy_gpio.h **** 
 385:Generated_Source\PSoC6\pdl\drivers/peripheral/gpio/cy_gpio.h **** /**
 386:Generated_Source\PSoC6\pdl\drivers/peripheral/gpio/cy_gpio.h **** * \defgroup group_gpio_sioVreg SIO output buffer mode
 387:Generated_Source\PSoC6\pdl\drivers/peripheral/gpio/cy_gpio.h **** * \{
 388:Generated_Source\PSoC6\pdl\drivers/peripheral/gpio/cy_gpio.h **** * Constants to be used for setting the SIO output buffer mode on the pin.
 389:Generated_Source\PSoC6\pdl\drivers/peripheral/gpio/cy_gpio.h **** */
 390:Generated_Source\PSoC6\pdl\drivers/peripheral/gpio/cy_gpio.h **** #define CY_SIO_VREG_UNREGULATED                (0x00UL) /**< \brief Unregulated output buffer */
 391:Generated_Source\PSoC6\pdl\drivers/peripheral/gpio/cy_gpio.h **** #define CY_SIO_VREG_REGULATED                  (0x01UL) /**< \brief Regulated output buffer */
 392:Generated_Source\PSoC6\pdl\drivers/peripheral/gpio/cy_gpio.h **** /** \} */
 393:Generated_Source\PSoC6\pdl\drivers/peripheral/gpio/cy_gpio.h **** 
 394:Generated_Source\PSoC6\pdl\drivers/peripheral/gpio/cy_gpio.h **** /**
 395:Generated_Source\PSoC6\pdl\drivers/peripheral/gpio/cy_gpio.h **** * \defgroup group_gpio_sioIbuf SIO input buffer mode
 396:Generated_Source\PSoC6\pdl\drivers/peripheral/gpio/cy_gpio.h **** * \{
 397:Generated_Source\PSoC6\pdl\drivers/peripheral/gpio/cy_gpio.h **** * Constants to be used for setting the SIO input buffer mode on the pin.
 398:Generated_Source\PSoC6\pdl\drivers/peripheral/gpio/cy_gpio.h **** */
 399:Generated_Source\PSoC6\pdl\drivers/peripheral/gpio/cy_gpio.h **** #define CY_SIO_IBUF_SINGLEENDED                (0x00UL) /**< \brief Single ended input buffer */
 400:Generated_Source\PSoC6\pdl\drivers/peripheral/gpio/cy_gpio.h **** #define CY_SIO_IBUF_DIFFERENTIAL               (0x01UL) /**< \brief Differential input buffer */
 401:Generated_Source\PSoC6\pdl\drivers/peripheral/gpio/cy_gpio.h **** /** \} */
ARM GAS  C:\Users\codyg\AppData\Local\Temp\ccQipZVL.s 			page 11


 402:Generated_Source\PSoC6\pdl\drivers/peripheral/gpio/cy_gpio.h **** 
 403:Generated_Source\PSoC6\pdl\drivers/peripheral/gpio/cy_gpio.h **** /**
 404:Generated_Source\PSoC6\pdl\drivers/peripheral/gpio/cy_gpio.h **** * \defgroup group_gpio_sioVtrip SIO input buffer trip-point
 405:Generated_Source\PSoC6\pdl\drivers/peripheral/gpio/cy_gpio.h **** * \{
 406:Generated_Source\PSoC6\pdl\drivers/peripheral/gpio/cy_gpio.h **** * Constants to be used for setting the SIO input buffer trip-point of the pin.
 407:Generated_Source\PSoC6\pdl\drivers/peripheral/gpio/cy_gpio.h **** */
 408:Generated_Source\PSoC6\pdl\drivers/peripheral/gpio/cy_gpio.h **** #define CY_SIO_VTRIP_CMOS                      (0x00UL) /**< \brief CMOS input buffer (single-ended
 409:Generated_Source\PSoC6\pdl\drivers/peripheral/gpio/cy_gpio.h **** #define CY_SIO_VTRIP_TTL                       (0x01UL) /**< \brief TTL input buffer (single-ended)
 410:Generated_Source\PSoC6\pdl\drivers/peripheral/gpio/cy_gpio.h **** #define CY_SIO_VTRIP_0_5VDDIO_0_5VOH           (0x00UL) /**< \brief 0.5xVddio or 0.5xVoh (different
 411:Generated_Source\PSoC6\pdl\drivers/peripheral/gpio/cy_gpio.h **** #define CY_SIO_VTRIP_0_4VDDIO_1_0VREF          (0x01UL) /**< \brief 0.4xVddio or 0.4xVoh (different
 412:Generated_Source\PSoC6\pdl\drivers/peripheral/gpio/cy_gpio.h **** /** \} */
 413:Generated_Source\PSoC6\pdl\drivers/peripheral/gpio/cy_gpio.h **** 
 414:Generated_Source\PSoC6\pdl\drivers/peripheral/gpio/cy_gpio.h **** /**
 415:Generated_Source\PSoC6\pdl\drivers/peripheral/gpio/cy_gpio.h **** * \defgroup group_gpio_sioVref SIO reference voltage for input buffer trip-point
 416:Generated_Source\PSoC6\pdl\drivers/peripheral/gpio/cy_gpio.h **** * \{
 417:Generated_Source\PSoC6\pdl\drivers/peripheral/gpio/cy_gpio.h **** * Constants to be used for setting the reference voltage of SIO input buffer trip-point.
 418:Generated_Source\PSoC6\pdl\drivers/peripheral/gpio/cy_gpio.h **** */
 419:Generated_Source\PSoC6\pdl\drivers/peripheral/gpio/cy_gpio.h **** #define CY_SIO_VREF_PINREF                     (0x00UL) /**< \brief Vref from analog pin */
 420:Generated_Source\PSoC6\pdl\drivers/peripheral/gpio/cy_gpio.h **** #define CY_SIO_VREF_1_2V                       (0x01UL) /**< \brief Vref from internal 1.2V referen
 421:Generated_Source\PSoC6\pdl\drivers/peripheral/gpio/cy_gpio.h **** #define CY_SIO_VREF_AMUX_A                     (0x02UL) /**< \brief Vref from AMUXBUS_A */
 422:Generated_Source\PSoC6\pdl\drivers/peripheral/gpio/cy_gpio.h **** #define CY_SIO_VREF_AMUX_B                     (0x03UL) /**< \brief Vref from AMUXBUS_B */
 423:Generated_Source\PSoC6\pdl\drivers/peripheral/gpio/cy_gpio.h **** /** \} */
 424:Generated_Source\PSoC6\pdl\drivers/peripheral/gpio/cy_gpio.h **** 
 425:Generated_Source\PSoC6\pdl\drivers/peripheral/gpio/cy_gpio.h **** /**
 426:Generated_Source\PSoC6\pdl\drivers/peripheral/gpio/cy_gpio.h **** * \defgroup group_gpio_sioVoh Regulated output voltage level (Voh) and input buffer trip-point of a
 427:Generated_Source\PSoC6\pdl\drivers/peripheral/gpio/cy_gpio.h **** * \{
 428:Generated_Source\PSoC6\pdl\drivers/peripheral/gpio/cy_gpio.h **** * Constants to be used for setting the Voh and input buffer trip-point of an SIO pair
 429:Generated_Source\PSoC6\pdl\drivers/peripheral/gpio/cy_gpio.h **** */
 430:Generated_Source\PSoC6\pdl\drivers/peripheral/gpio/cy_gpio.h **** #define CY_SIO_VOH_1_00                        (0x00UL) /**< \brief Voh = 1 x Reference */
 431:Generated_Source\PSoC6\pdl\drivers/peripheral/gpio/cy_gpio.h **** #define CY_SIO_VOH_1_25                        (0x01UL) /**< \brief Voh = 1.25 x Reference */
 432:Generated_Source\PSoC6\pdl\drivers/peripheral/gpio/cy_gpio.h **** #define CY_SIO_VOH_1_49                        (0x02UL) /**< \brief Voh = 1.49 x Reference */
 433:Generated_Source\PSoC6\pdl\drivers/peripheral/gpio/cy_gpio.h **** #define CY_SIO_VOH_1_67                        (0x03UL) /**< \brief Voh = 1.67 x Reference */
 434:Generated_Source\PSoC6\pdl\drivers/peripheral/gpio/cy_gpio.h **** #define CY_SIO_VOH_2_08                        (0x04UL) /**< \brief Voh = 2.08 x Reference */
 435:Generated_Source\PSoC6\pdl\drivers/peripheral/gpio/cy_gpio.h **** #define CY_SIO_VOH_2_50                        (0x05UL) /**< \brief Voh = 2.50 x Reference */
 436:Generated_Source\PSoC6\pdl\drivers/peripheral/gpio/cy_gpio.h **** #define CY_SIO_VOH_2_78                        (0x06UL) /**< \brief Voh = 2.78 x Reference */
 437:Generated_Source\PSoC6\pdl\drivers/peripheral/gpio/cy_gpio.h **** #define CY_SIO_VOH_4_16                        (0x07UL) /**< \brief Voh = 4.16 x Reference */
 438:Generated_Source\PSoC6\pdl\drivers/peripheral/gpio/cy_gpio.h **** /** \} */
 439:Generated_Source\PSoC6\pdl\drivers/peripheral/gpio/cy_gpio.h **** 
 440:Generated_Source\PSoC6\pdl\drivers/peripheral/gpio/cy_gpio.h **** /** \} group_gpio_macros */
 441:Generated_Source\PSoC6\pdl\drivers/peripheral/gpio/cy_gpio.h **** 
 442:Generated_Source\PSoC6\pdl\drivers/peripheral/gpio/cy_gpio.h **** /***************************************
 443:Generated_Source\PSoC6\pdl\drivers/peripheral/gpio/cy_gpio.h **** *        Function Prototypes
 444:Generated_Source\PSoC6\pdl\drivers/peripheral/gpio/cy_gpio.h **** ***************************************/
 445:Generated_Source\PSoC6\pdl\drivers/peripheral/gpio/cy_gpio.h **** 
 446:Generated_Source\PSoC6\pdl\drivers/peripheral/gpio/cy_gpio.h **** /**
 447:Generated_Source\PSoC6\pdl\drivers/peripheral/gpio/cy_gpio.h **** * \addtogroup group_gpio_functions
 448:Generated_Source\PSoC6\pdl\drivers/peripheral/gpio/cy_gpio.h **** * \{
 449:Generated_Source\PSoC6\pdl\drivers/peripheral/gpio/cy_gpio.h **** */
 450:Generated_Source\PSoC6\pdl\drivers/peripheral/gpio/cy_gpio.h **** 
 451:Generated_Source\PSoC6\pdl\drivers/peripheral/gpio/cy_gpio.h **** /**
 452:Generated_Source\PSoC6\pdl\drivers/peripheral/gpio/cy_gpio.h **** * \addtogroup group_gpio_functions_init
 453:Generated_Source\PSoC6\pdl\drivers/peripheral/gpio/cy_gpio.h **** * \{
 454:Generated_Source\PSoC6\pdl\drivers/peripheral/gpio/cy_gpio.h **** */
 455:Generated_Source\PSoC6\pdl\drivers/peripheral/gpio/cy_gpio.h **** 
 456:Generated_Source\PSoC6\pdl\drivers/peripheral/gpio/cy_gpio.h **** cy_en_gpio_status_t Cy_GPIO_Pin_Init(GPIO_PRT_Type* base, uint32_t pinNum, const cy_stc_gpio_pin_co
 457:Generated_Source\PSoC6\pdl\drivers/peripheral/gpio/cy_gpio.h **** cy_en_gpio_status_t Cy_GPIO_Port_Init(GPIO_PRT_Type* base, const cy_stc_gpio_prt_config_t *config);
 458:Generated_Source\PSoC6\pdl\drivers/peripheral/gpio/cy_gpio.h **** void Cy_GPIO_Pin_FastInit(GPIO_PRT_Type* base, uint32_t pinNum, uint32_t driveMode, uint32_t outVal
ARM GAS  C:\Users\codyg\AppData\Local\Temp\ccQipZVL.s 			page 12


 459:Generated_Source\PSoC6\pdl\drivers/peripheral/gpio/cy_gpio.h **** void Cy_GPIO_Port_Deinit(GPIO_PRT_Type* base);
 460:Generated_Source\PSoC6\pdl\drivers/peripheral/gpio/cy_gpio.h **** __STATIC_INLINE void Cy_GPIO_SetHSIOM(GPIO_PRT_Type* base, uint32_t pinNum, en_hsiom_sel_t value);
 461:Generated_Source\PSoC6\pdl\drivers/peripheral/gpio/cy_gpio.h **** __STATIC_INLINE en_hsiom_sel_t Cy_GPIO_GetHSIOM(GPIO_PRT_Type* base, uint32_t pinNum);
 462:Generated_Source\PSoC6\pdl\drivers/peripheral/gpio/cy_gpio.h **** __STATIC_INLINE GPIO_PRT_Type* Cy_GPIO_PortToAddr(uint32_t portNum);
 463:Generated_Source\PSoC6\pdl\drivers/peripheral/gpio/cy_gpio.h **** 
 464:Generated_Source\PSoC6\pdl\drivers/peripheral/gpio/cy_gpio.h **** /** \} group_gpio_functions_init */
 465:Generated_Source\PSoC6\pdl\drivers/peripheral/gpio/cy_gpio.h **** 
 466:Generated_Source\PSoC6\pdl\drivers/peripheral/gpio/cy_gpio.h **** /**
 467:Generated_Source\PSoC6\pdl\drivers/peripheral/gpio/cy_gpio.h **** * \addtogroup group_gpio_functions_gpio
 468:Generated_Source\PSoC6\pdl\drivers/peripheral/gpio/cy_gpio.h **** * \{
 469:Generated_Source\PSoC6\pdl\drivers/peripheral/gpio/cy_gpio.h **** */
 470:Generated_Source\PSoC6\pdl\drivers/peripheral/gpio/cy_gpio.h **** 
 471:Generated_Source\PSoC6\pdl\drivers/peripheral/gpio/cy_gpio.h **** __STATIC_INLINE uint32_t Cy_GPIO_Read(GPIO_PRT_Type* base, uint32_t pinNum);
 472:Generated_Source\PSoC6\pdl\drivers/peripheral/gpio/cy_gpio.h **** __STATIC_INLINE void Cy_GPIO_Write(GPIO_PRT_Type* base, uint32_t pinNum, uint32_t value);
 473:Generated_Source\PSoC6\pdl\drivers/peripheral/gpio/cy_gpio.h **** __STATIC_INLINE uint32_t Cy_GPIO_ReadOut(GPIO_PRT_Type* base, uint32_t pinNum);
 474:Generated_Source\PSoC6\pdl\drivers/peripheral/gpio/cy_gpio.h **** __STATIC_INLINE void Cy_GPIO_Set(GPIO_PRT_Type* base, uint32_t pinNum);
 475:Generated_Source\PSoC6\pdl\drivers/peripheral/gpio/cy_gpio.h **** __STATIC_INLINE void Cy_GPIO_Clr(GPIO_PRT_Type* base, uint32_t pinNum);
 476:Generated_Source\PSoC6\pdl\drivers/peripheral/gpio/cy_gpio.h **** __STATIC_INLINE void Cy_GPIO_Inv(GPIO_PRT_Type* base, uint32_t pinNum);
 477:Generated_Source\PSoC6\pdl\drivers/peripheral/gpio/cy_gpio.h **** __STATIC_INLINE void Cy_GPIO_SetDrivemode(GPIO_PRT_Type* base, uint32_t pinNum, uint32_t value);
 478:Generated_Source\PSoC6\pdl\drivers/peripheral/gpio/cy_gpio.h **** __STATIC_INLINE uint32_t Cy_GPIO_GetDrivemode(GPIO_PRT_Type* base, uint32_t pinNum);
 479:Generated_Source\PSoC6\pdl\drivers/peripheral/gpio/cy_gpio.h **** __STATIC_INLINE void Cy_GPIO_SetVtrip(GPIO_PRT_Type* base, uint32_t pinNum, uint32_t value);
 480:Generated_Source\PSoC6\pdl\drivers/peripheral/gpio/cy_gpio.h **** __STATIC_INLINE uint32_t Cy_GPIO_GetVtrip(GPIO_PRT_Type* base, uint32_t pinNum);
 481:Generated_Source\PSoC6\pdl\drivers/peripheral/gpio/cy_gpio.h **** __STATIC_INLINE void Cy_GPIO_SetSlewRate(GPIO_PRT_Type* base, uint32_t pinNum, uint32_t value);
 482:Generated_Source\PSoC6\pdl\drivers/peripheral/gpio/cy_gpio.h **** __STATIC_INLINE uint32_t Cy_GPIO_GetSlewRate(GPIO_PRT_Type* base, uint32_t pinNum);
 483:Generated_Source\PSoC6\pdl\drivers/peripheral/gpio/cy_gpio.h **** __STATIC_INLINE void Cy_GPIO_SetDriveSel(GPIO_PRT_Type* base, uint32_t pinNum, uint32_t value);
 484:Generated_Source\PSoC6\pdl\drivers/peripheral/gpio/cy_gpio.h **** __STATIC_INLINE uint32_t Cy_GPIO_GetDriveSel(GPIO_PRT_Type* base, uint32_t pinNum);
 485:Generated_Source\PSoC6\pdl\drivers/peripheral/gpio/cy_gpio.h **** 
 486:Generated_Source\PSoC6\pdl\drivers/peripheral/gpio/cy_gpio.h **** /** \} group_gpio_functions_gpio */
 487:Generated_Source\PSoC6\pdl\drivers/peripheral/gpio/cy_gpio.h **** 
 488:Generated_Source\PSoC6\pdl\drivers/peripheral/gpio/cy_gpio.h **** /**
 489:Generated_Source\PSoC6\pdl\drivers/peripheral/gpio/cy_gpio.h **** * \addtogroup group_gpio_functions_sio
 490:Generated_Source\PSoC6\pdl\drivers/peripheral/gpio/cy_gpio.h **** * \{
 491:Generated_Source\PSoC6\pdl\drivers/peripheral/gpio/cy_gpio.h **** */
 492:Generated_Source\PSoC6\pdl\drivers/peripheral/gpio/cy_gpio.h **** 
 493:Generated_Source\PSoC6\pdl\drivers/peripheral/gpio/cy_gpio.h **** __STATIC_INLINE void Cy_GPIO_SetVregEn(GPIO_PRT_Type* base, uint32_t pinNum, uint32_t value);
 494:Generated_Source\PSoC6\pdl\drivers/peripheral/gpio/cy_gpio.h **** __STATIC_INLINE uint32_t Cy_GPIO_GetVregEn(GPIO_PRT_Type* base, uint32_t pinNum);
 495:Generated_Source\PSoC6\pdl\drivers/peripheral/gpio/cy_gpio.h **** __STATIC_INLINE void Cy_GPIO_SetIbufMode(GPIO_PRT_Type* base, uint32_t pinNum, uint32_t value);
 496:Generated_Source\PSoC6\pdl\drivers/peripheral/gpio/cy_gpio.h **** __STATIC_INLINE uint32_t Cy_GPIO_GetIbufMode(GPIO_PRT_Type* base, uint32_t pinNum);
 497:Generated_Source\PSoC6\pdl\drivers/peripheral/gpio/cy_gpio.h **** __STATIC_INLINE void Cy_GPIO_SetVtripSel(GPIO_PRT_Type* base, uint32_t pinNum, uint32_t value);
 498:Generated_Source\PSoC6\pdl\drivers/peripheral/gpio/cy_gpio.h **** __STATIC_INLINE uint32_t Cy_GPIO_GetVtripSel(GPIO_PRT_Type* base, uint32_t pinNum);
 499:Generated_Source\PSoC6\pdl\drivers/peripheral/gpio/cy_gpio.h **** __STATIC_INLINE void Cy_GPIO_SetVrefSel(GPIO_PRT_Type* base, uint32_t pinNum, uint32_t value);
 500:Generated_Source\PSoC6\pdl\drivers/peripheral/gpio/cy_gpio.h **** __STATIC_INLINE uint32_t Cy_GPIO_GetVrefSel(GPIO_PRT_Type* base, uint32_t pinNum);
 501:Generated_Source\PSoC6\pdl\drivers/peripheral/gpio/cy_gpio.h **** __STATIC_INLINE void Cy_GPIO_SetVohSel(GPIO_PRT_Type* base, uint32_t pinNum, uint32_t value);
 502:Generated_Source\PSoC6\pdl\drivers/peripheral/gpio/cy_gpio.h **** __STATIC_INLINE uint32_t Cy_GPIO_GetVohSel(GPIO_PRT_Type* base, uint32_t pinNum);
 503:Generated_Source\PSoC6\pdl\drivers/peripheral/gpio/cy_gpio.h **** 
 504:Generated_Source\PSoC6\pdl\drivers/peripheral/gpio/cy_gpio.h **** /** \} group_gpio_functions_sio */
 505:Generated_Source\PSoC6\pdl\drivers/peripheral/gpio/cy_gpio.h **** 
 506:Generated_Source\PSoC6\pdl\drivers/peripheral/gpio/cy_gpio.h **** /**
 507:Generated_Source\PSoC6\pdl\drivers/peripheral/gpio/cy_gpio.h **** * \addtogroup group_gpio_functions_interrupt
 508:Generated_Source\PSoC6\pdl\drivers/peripheral/gpio/cy_gpio.h **** * \{
 509:Generated_Source\PSoC6\pdl\drivers/peripheral/gpio/cy_gpio.h **** */
 510:Generated_Source\PSoC6\pdl\drivers/peripheral/gpio/cy_gpio.h **** 
 511:Generated_Source\PSoC6\pdl\drivers/peripheral/gpio/cy_gpio.h **** __STATIC_INLINE uint32_t Cy_GPIO_GetInterruptStatus(GPIO_PRT_Type* base, uint32_t pinNum);
 512:Generated_Source\PSoC6\pdl\drivers/peripheral/gpio/cy_gpio.h **** __STATIC_INLINE void Cy_GPIO_ClearInterrupt(GPIO_PRT_Type* base, uint32_t pinNum);
 513:Generated_Source\PSoC6\pdl\drivers/peripheral/gpio/cy_gpio.h **** __STATIC_INLINE void Cy_GPIO_SetInterruptMask(GPIO_PRT_Type* base, uint32_t pinNum, uint32_t value)
 514:Generated_Source\PSoC6\pdl\drivers/peripheral/gpio/cy_gpio.h **** __STATIC_INLINE uint32_t Cy_GPIO_GetInterruptMask(GPIO_PRT_Type* base, uint32_t pinNum);
 515:Generated_Source\PSoC6\pdl\drivers/peripheral/gpio/cy_gpio.h **** __STATIC_INLINE uint32_t Cy_GPIO_GetInterruptStatusMasked(GPIO_PRT_Type* base, uint32_t pinNum);
ARM GAS  C:\Users\codyg\AppData\Local\Temp\ccQipZVL.s 			page 13


 516:Generated_Source\PSoC6\pdl\drivers/peripheral/gpio/cy_gpio.h **** __STATIC_INLINE void Cy_GPIO_SetSwInterrupt(GPIO_PRT_Type* base, uint32_t pinNum);
 517:Generated_Source\PSoC6\pdl\drivers/peripheral/gpio/cy_gpio.h **** __STATIC_INLINE void Cy_GPIO_SetInterruptEdge(GPIO_PRT_Type* base, uint32_t pinNum, uint32_t value)
 518:Generated_Source\PSoC6\pdl\drivers/peripheral/gpio/cy_gpio.h **** __STATIC_INLINE uint32_t Cy_GPIO_GetInterruptEdge(GPIO_PRT_Type* base, uint32_t pinNum);
 519:Generated_Source\PSoC6\pdl\drivers/peripheral/gpio/cy_gpio.h **** __STATIC_INLINE void Cy_GPIO_SetFilter(GPIO_PRT_Type* base, uint32_t value);
 520:Generated_Source\PSoC6\pdl\drivers/peripheral/gpio/cy_gpio.h **** __STATIC_INLINE uint32_t Cy_GPIO_GetFilter(GPIO_PRT_Type* base);
 521:Generated_Source\PSoC6\pdl\drivers/peripheral/gpio/cy_gpio.h **** 
 522:Generated_Source\PSoC6\pdl\drivers/peripheral/gpio/cy_gpio.h **** #if (IOSS_GPIO_GPIO_PORT_NR_0_31 != 0) || defined (CY_DOXYGEN)
 523:Generated_Source\PSoC6\pdl\drivers/peripheral/gpio/cy_gpio.h **** __STATIC_INLINE uint32_t Cy_GPIO_GetInterruptCause0(void);
 524:Generated_Source\PSoC6\pdl\drivers/peripheral/gpio/cy_gpio.h **** #endif /* (IOSS_GPIO_GPIO_PORT_NR_0_31 != 0) */
 525:Generated_Source\PSoC6\pdl\drivers/peripheral/gpio/cy_gpio.h **** 
 526:Generated_Source\PSoC6\pdl\drivers/peripheral/gpio/cy_gpio.h **** #if (IOSS_GPIO_GPIO_PORT_NR_32_63 != 0) || defined (CY_DOXYGEN)
 527:Generated_Source\PSoC6\pdl\drivers/peripheral/gpio/cy_gpio.h **** __STATIC_INLINE uint32_t Cy_GPIO_GetInterruptCause1(void);
 528:Generated_Source\PSoC6\pdl\drivers/peripheral/gpio/cy_gpio.h **** #endif /* (IOSS_GPIO_GPIO_PORT_NR_32_63 != 0) */
 529:Generated_Source\PSoC6\pdl\drivers/peripheral/gpio/cy_gpio.h **** 
 530:Generated_Source\PSoC6\pdl\drivers/peripheral/gpio/cy_gpio.h **** #if (IOSS_GPIO_GPIO_PORT_NR_64_95 != 0) || defined (CY_DOXYGEN)
 531:Generated_Source\PSoC6\pdl\drivers/peripheral/gpio/cy_gpio.h **** __STATIC_INLINE uint32_t Cy_GPIO_GetInterruptCause2(void);
 532:Generated_Source\PSoC6\pdl\drivers/peripheral/gpio/cy_gpio.h **** #endif /* (IOSS_GPIO_GPIO_PORT_NR_64_95 != 0) */
 533:Generated_Source\PSoC6\pdl\drivers/peripheral/gpio/cy_gpio.h **** 
 534:Generated_Source\PSoC6\pdl\drivers/peripheral/gpio/cy_gpio.h **** #if (IOSS_GPIO_GPIO_PORT_NR_96_127 != 0) || defined (CY_DOXYGEN)
 535:Generated_Source\PSoC6\pdl\drivers/peripheral/gpio/cy_gpio.h **** __STATIC_INLINE uint32_t Cy_GPIO_GetInterruptCause3(void);
 536:Generated_Source\PSoC6\pdl\drivers/peripheral/gpio/cy_gpio.h **** #endif /* (IOSS_GPIO_GPIO_PORT_NR_96_127 != 0) */
 537:Generated_Source\PSoC6\pdl\drivers/peripheral/gpio/cy_gpio.h **** 
 538:Generated_Source\PSoC6\pdl\drivers/peripheral/gpio/cy_gpio.h **** /** \} group_gpio_functions_interrupt */
 539:Generated_Source\PSoC6\pdl\drivers/peripheral/gpio/cy_gpio.h **** 
 540:Generated_Source\PSoC6\pdl\drivers/peripheral/gpio/cy_gpio.h **** 
 541:Generated_Source\PSoC6\pdl\drivers/peripheral/gpio/cy_gpio.h **** /**
 542:Generated_Source\PSoC6\pdl\drivers/peripheral/gpio/cy_gpio.h **** * \addtogroup group_gpio_functions_init
 543:Generated_Source\PSoC6\pdl\drivers/peripheral/gpio/cy_gpio.h **** * \{
 544:Generated_Source\PSoC6\pdl\drivers/peripheral/gpio/cy_gpio.h **** */
 545:Generated_Source\PSoC6\pdl\drivers/peripheral/gpio/cy_gpio.h **** 
 546:Generated_Source\PSoC6\pdl\drivers/peripheral/gpio/cy_gpio.h **** /*******************************************************************************
 547:Generated_Source\PSoC6\pdl\drivers/peripheral/gpio/cy_gpio.h **** * Function Name: Cy_GPIO_SetHSIOM
 548:Generated_Source\PSoC6\pdl\drivers/peripheral/gpio/cy_gpio.h **** ****************************************************************************//**
 549:Generated_Source\PSoC6\pdl\drivers/peripheral/gpio/cy_gpio.h **** *
 550:Generated_Source\PSoC6\pdl\drivers/peripheral/gpio/cy_gpio.h **** * \brief Configures the HSIOM connection to the pin.
 551:Generated_Source\PSoC6\pdl\drivers/peripheral/gpio/cy_gpio.h **** *
 552:Generated_Source\PSoC6\pdl\drivers/peripheral/gpio/cy_gpio.h **** * Connects the specified High-Speed Input Output Multiplexer (HSIOM) selection
 553:Generated_Source\PSoC6\pdl\drivers/peripheral/gpio/cy_gpio.h **** * to the pin.
 554:Generated_Source\PSoC6\pdl\drivers/peripheral/gpio/cy_gpio.h **** *
 555:Generated_Source\PSoC6\pdl\drivers/peripheral/gpio/cy_gpio.h **** * \param base
 556:Generated_Source\PSoC6\pdl\drivers/peripheral/gpio/cy_gpio.h **** * Pointer to the pin's port register base address
 557:Generated_Source\PSoC6\pdl\drivers/peripheral/gpio/cy_gpio.h **** *
 558:Generated_Source\PSoC6\pdl\drivers/peripheral/gpio/cy_gpio.h **** * \param pinNum
 559:Generated_Source\PSoC6\pdl\drivers/peripheral/gpio/cy_gpio.h **** * Position of the pin bit-field within the port register
 560:Generated_Source\PSoC6\pdl\drivers/peripheral/gpio/cy_gpio.h **** *
 561:Generated_Source\PSoC6\pdl\drivers/peripheral/gpio/cy_gpio.h **** * \param value
 562:Generated_Source\PSoC6\pdl\drivers/peripheral/gpio/cy_gpio.h **** * HSIOM input selection
 563:Generated_Source\PSoC6\pdl\drivers/peripheral/gpio/cy_gpio.h **** *
 564:Generated_Source\PSoC6\pdl\drivers/peripheral/gpio/cy_gpio.h **** * \return
 565:Generated_Source\PSoC6\pdl\drivers/peripheral/gpio/cy_gpio.h **** * void
 566:Generated_Source\PSoC6\pdl\drivers/peripheral/gpio/cy_gpio.h **** *
 567:Generated_Source\PSoC6\pdl\drivers/peripheral/gpio/cy_gpio.h **** * \note 
 568:Generated_Source\PSoC6\pdl\drivers/peripheral/gpio/cy_gpio.h **** * This function modifies a port register in a read-modify-write operation. It is
 569:Generated_Source\PSoC6\pdl\drivers/peripheral/gpio/cy_gpio.h **** * not thread safe as the resource is shared among multiple pins on a port.
 570:Generated_Source\PSoC6\pdl\drivers/peripheral/gpio/cy_gpio.h **** *
 571:Generated_Source\PSoC6\pdl\drivers/peripheral/gpio/cy_gpio.h **** * \funcusage
 572:Generated_Source\PSoC6\pdl\drivers/peripheral/gpio/cy_gpio.h **** * \snippet gpio/gpio_v1_10_sut_01.cydsn/main_cm4.c snippet_Cy_GPIO_SetHSIOM
ARM GAS  C:\Users\codyg\AppData\Local\Temp\ccQipZVL.s 			page 14


 573:Generated_Source\PSoC6\pdl\drivers/peripheral/gpio/cy_gpio.h **** *
 574:Generated_Source\PSoC6\pdl\drivers/peripheral/gpio/cy_gpio.h **** *******************************************************************************/
 575:Generated_Source\PSoC6\pdl\drivers/peripheral/gpio/cy_gpio.h **** __STATIC_INLINE void Cy_GPIO_SetHSIOM(GPIO_PRT_Type* base, uint32_t pinNum, en_hsiom_sel_t value)
 576:Generated_Source\PSoC6\pdl\drivers/peripheral/gpio/cy_gpio.h **** {
 577:Generated_Source\PSoC6\pdl\drivers/peripheral/gpio/cy_gpio.h ****     uint32_t portNum;
 578:Generated_Source\PSoC6\pdl\drivers/peripheral/gpio/cy_gpio.h ****     uint32_t tempReg;
 579:Generated_Source\PSoC6\pdl\drivers/peripheral/gpio/cy_gpio.h ****     HSIOM_PRT_Type* portAddrHSIOM;
 580:Generated_Source\PSoC6\pdl\drivers/peripheral/gpio/cy_gpio.h **** 
 581:Generated_Source\PSoC6\pdl\drivers/peripheral/gpio/cy_gpio.h ****     CY_ASSERT_L2(CY_GPIO_IS_PIN_VALID(pinNum));
 582:Generated_Source\PSoC6\pdl\drivers/peripheral/gpio/cy_gpio.h ****     CY_ASSERT_L2(CY_GPIO_IS_HSIOM_VALID(value));
 583:Generated_Source\PSoC6\pdl\drivers/peripheral/gpio/cy_gpio.h **** 
 584:Generated_Source\PSoC6\pdl\drivers/peripheral/gpio/cy_gpio.h ****     portNum = ((uint32_t)(base) - GPIO_BASE) / GPIO_PRT_SECTION_SIZE;
 585:Generated_Source\PSoC6\pdl\drivers/peripheral/gpio/cy_gpio.h ****     portAddrHSIOM = (HSIOM_PRT_Type*)(HSIOM_BASE + (HSIOM_PRT_SECTION_SIZE * portNum));
 586:Generated_Source\PSoC6\pdl\drivers/peripheral/gpio/cy_gpio.h **** 
 587:Generated_Source\PSoC6\pdl\drivers/peripheral/gpio/cy_gpio.h ****     if(pinNum < CY_GPIO_PRT_HALF)
 588:Generated_Source\PSoC6\pdl\drivers/peripheral/gpio/cy_gpio.h ****     {
 589:Generated_Source\PSoC6\pdl\drivers/peripheral/gpio/cy_gpio.h ****         tempReg = portAddrHSIOM->PORT_SEL0 & ~(CY_GPIO_HSIOM_MASK << (pinNum << CY_GPIO_HSIOM_OFFSE
 590:Generated_Source\PSoC6\pdl\drivers/peripheral/gpio/cy_gpio.h ****         portAddrHSIOM->PORT_SEL0 = tempReg | ((value & CY_GPIO_HSIOM_MASK) << (pinNum << CY_GPIO_HS
 591:Generated_Source\PSoC6\pdl\drivers/peripheral/gpio/cy_gpio.h ****     }
 592:Generated_Source\PSoC6\pdl\drivers/peripheral/gpio/cy_gpio.h ****     else
 593:Generated_Source\PSoC6\pdl\drivers/peripheral/gpio/cy_gpio.h ****     {
 594:Generated_Source\PSoC6\pdl\drivers/peripheral/gpio/cy_gpio.h ****         pinNum -= CY_GPIO_PRT_HALF;
 595:Generated_Source\PSoC6\pdl\drivers/peripheral/gpio/cy_gpio.h ****         tempReg = portAddrHSIOM->PORT_SEL1 & ~(CY_GPIO_HSIOM_MASK << (pinNum << CY_GPIO_HSIOM_OFFSE
 596:Generated_Source\PSoC6\pdl\drivers/peripheral/gpio/cy_gpio.h ****         portAddrHSIOM->PORT_SEL1 = tempReg | ((value & CY_GPIO_HSIOM_MASK) << (pinNum << CY_GPIO_HS
 597:Generated_Source\PSoC6\pdl\drivers/peripheral/gpio/cy_gpio.h ****     }
 598:Generated_Source\PSoC6\pdl\drivers/peripheral/gpio/cy_gpio.h **** }
 599:Generated_Source\PSoC6\pdl\drivers/peripheral/gpio/cy_gpio.h **** 
 600:Generated_Source\PSoC6\pdl\drivers/peripheral/gpio/cy_gpio.h **** 
 601:Generated_Source\PSoC6\pdl\drivers/peripheral/gpio/cy_gpio.h **** /*******************************************************************************
 602:Generated_Source\PSoC6\pdl\drivers/peripheral/gpio/cy_gpio.h **** * Function Name: Cy_GPIO_GetHSIOM
 603:Generated_Source\PSoC6\pdl\drivers/peripheral/gpio/cy_gpio.h **** ****************************************************************************//**
 604:Generated_Source\PSoC6\pdl\drivers/peripheral/gpio/cy_gpio.h **** *
 605:Generated_Source\PSoC6\pdl\drivers/peripheral/gpio/cy_gpio.h **** * \brief Returns the current HSIOM multiplexer connection to the pin.
 606:Generated_Source\PSoC6\pdl\drivers/peripheral/gpio/cy_gpio.h **** *
 607:Generated_Source\PSoC6\pdl\drivers/peripheral/gpio/cy_gpio.h **** * \param base
 608:Generated_Source\PSoC6\pdl\drivers/peripheral/gpio/cy_gpio.h **** * Pointer to the pin's port register base address
 609:Generated_Source\PSoC6\pdl\drivers/peripheral/gpio/cy_gpio.h **** *
 610:Generated_Source\PSoC6\pdl\drivers/peripheral/gpio/cy_gpio.h **** * \param pinNum
 611:Generated_Source\PSoC6\pdl\drivers/peripheral/gpio/cy_gpio.h **** * Position of the pin bit-field within the port register
 612:Generated_Source\PSoC6\pdl\drivers/peripheral/gpio/cy_gpio.h **** *
 613:Generated_Source\PSoC6\pdl\drivers/peripheral/gpio/cy_gpio.h **** * \return
 614:Generated_Source\PSoC6\pdl\drivers/peripheral/gpio/cy_gpio.h **** * HSIOM input selection
 615:Generated_Source\PSoC6\pdl\drivers/peripheral/gpio/cy_gpio.h **** *
 616:Generated_Source\PSoC6\pdl\drivers/peripheral/gpio/cy_gpio.h **** * \funcusage
 617:Generated_Source\PSoC6\pdl\drivers/peripheral/gpio/cy_gpio.h **** * \snippet gpio/gpio_v1_10_sut_01.cydsn/main_cm4.c snippet_Cy_GPIO_SetHSIOM
 618:Generated_Source\PSoC6\pdl\drivers/peripheral/gpio/cy_gpio.h **** *
 619:Generated_Source\PSoC6\pdl\drivers/peripheral/gpio/cy_gpio.h **** *******************************************************************************/
 620:Generated_Source\PSoC6\pdl\drivers/peripheral/gpio/cy_gpio.h **** __STATIC_INLINE en_hsiom_sel_t Cy_GPIO_GetHSIOM(GPIO_PRT_Type* base, uint32_t pinNum)
 621:Generated_Source\PSoC6\pdl\drivers/peripheral/gpio/cy_gpio.h **** {
 622:Generated_Source\PSoC6\pdl\drivers/peripheral/gpio/cy_gpio.h ****     uint32_t returnValue;
 623:Generated_Source\PSoC6\pdl\drivers/peripheral/gpio/cy_gpio.h ****     uint32_t portNum;
 624:Generated_Source\PSoC6\pdl\drivers/peripheral/gpio/cy_gpio.h ****     HSIOM_PRT_Type* portAddrHSIOM;
 625:Generated_Source\PSoC6\pdl\drivers/peripheral/gpio/cy_gpio.h ****     
 626:Generated_Source\PSoC6\pdl\drivers/peripheral/gpio/cy_gpio.h ****     CY_ASSERT_L2(CY_GPIO_IS_PIN_VALID(pinNum));
 627:Generated_Source\PSoC6\pdl\drivers/peripheral/gpio/cy_gpio.h **** 
 628:Generated_Source\PSoC6\pdl\drivers/peripheral/gpio/cy_gpio.h ****     portNum = ((uint32_t)(base) - GPIO_BASE) / GPIO_PRT_SECTION_SIZE;
 629:Generated_Source\PSoC6\pdl\drivers/peripheral/gpio/cy_gpio.h ****     portAddrHSIOM = (HSIOM_PRT_Type*)(HSIOM_BASE + (HSIOM_PRT_SECTION_SIZE * portNum));
ARM GAS  C:\Users\codyg\AppData\Local\Temp\ccQipZVL.s 			page 15


 630:Generated_Source\PSoC6\pdl\drivers/peripheral/gpio/cy_gpio.h **** 
 631:Generated_Source\PSoC6\pdl\drivers/peripheral/gpio/cy_gpio.h ****     if(pinNum < CY_GPIO_PRT_HALF)
 632:Generated_Source\PSoC6\pdl\drivers/peripheral/gpio/cy_gpio.h ****     {
 633:Generated_Source\PSoC6\pdl\drivers/peripheral/gpio/cy_gpio.h ****         returnValue = (portAddrHSIOM->PORT_SEL0 >> (pinNum << CY_GPIO_HSIOM_OFFSET)) & CY_GPIO_HSIO
 634:Generated_Source\PSoC6\pdl\drivers/peripheral/gpio/cy_gpio.h ****     }
 635:Generated_Source\PSoC6\pdl\drivers/peripheral/gpio/cy_gpio.h ****     else
 636:Generated_Source\PSoC6\pdl\drivers/peripheral/gpio/cy_gpio.h ****     {
 637:Generated_Source\PSoC6\pdl\drivers/peripheral/gpio/cy_gpio.h ****         pinNum -= CY_GPIO_PRT_HALF;
 638:Generated_Source\PSoC6\pdl\drivers/peripheral/gpio/cy_gpio.h ****         returnValue = (portAddrHSIOM->PORT_SEL1 >> (pinNum << CY_GPIO_HSIOM_OFFSET)) & CY_GPIO_HSIO
 639:Generated_Source\PSoC6\pdl\drivers/peripheral/gpio/cy_gpio.h ****     }
 640:Generated_Source\PSoC6\pdl\drivers/peripheral/gpio/cy_gpio.h **** 
 641:Generated_Source\PSoC6\pdl\drivers/peripheral/gpio/cy_gpio.h ****     return (en_hsiom_sel_t)returnValue;
 642:Generated_Source\PSoC6\pdl\drivers/peripheral/gpio/cy_gpio.h **** }
 643:Generated_Source\PSoC6\pdl\drivers/peripheral/gpio/cy_gpio.h **** 
 644:Generated_Source\PSoC6\pdl\drivers/peripheral/gpio/cy_gpio.h **** 
 645:Generated_Source\PSoC6\pdl\drivers/peripheral/gpio/cy_gpio.h **** /*******************************************************************************
 646:Generated_Source\PSoC6\pdl\drivers/peripheral/gpio/cy_gpio.h **** * Function Name: Cy_GPIO_PortToAddr
 647:Generated_Source\PSoC6\pdl\drivers/peripheral/gpio/cy_gpio.h **** ****************************************************************************//**
 648:Generated_Source\PSoC6\pdl\drivers/peripheral/gpio/cy_gpio.h **** *
 649:Generated_Source\PSoC6\pdl\drivers/peripheral/gpio/cy_gpio.h **** * \brief Retrieves the port address based on the given port number.
 650:Generated_Source\PSoC6\pdl\drivers/peripheral/gpio/cy_gpio.h **** *
 651:Generated_Source\PSoC6\pdl\drivers/peripheral/gpio/cy_gpio.h **** * This is a helper function to calculate the port base address when given a port
 652:Generated_Source\PSoC6\pdl\drivers/peripheral/gpio/cy_gpio.h **** * number. It is to be used when pin access needs to be calculated at runtime.
 653:Generated_Source\PSoC6\pdl\drivers/peripheral/gpio/cy_gpio.h **** *
 654:Generated_Source\PSoC6\pdl\drivers/peripheral/gpio/cy_gpio.h **** * \param portNum
 655:Generated_Source\PSoC6\pdl\drivers/peripheral/gpio/cy_gpio.h **** * Port number
 656:Generated_Source\PSoC6\pdl\drivers/peripheral/gpio/cy_gpio.h **** *
 657:Generated_Source\PSoC6\pdl\drivers/peripheral/gpio/cy_gpio.h **** * \return
 658:Generated_Source\PSoC6\pdl\drivers/peripheral/gpio/cy_gpio.h **** * Base address of the port register structure
 659:Generated_Source\PSoC6\pdl\drivers/peripheral/gpio/cy_gpio.h **** *
 660:Generated_Source\PSoC6\pdl\drivers/peripheral/gpio/cy_gpio.h **** * \funcusage
 661:Generated_Source\PSoC6\pdl\drivers/peripheral/gpio/cy_gpio.h **** * \snippet gpio/gpio_v1_10_sut_01.cydsn/main_cm4.c snippet_Cy_GPIO_PortToAddr
 662:Generated_Source\PSoC6\pdl\drivers/peripheral/gpio/cy_gpio.h **** *
 663:Generated_Source\PSoC6\pdl\drivers/peripheral/gpio/cy_gpio.h **** *******************************************************************************/
 664:Generated_Source\PSoC6\pdl\drivers/peripheral/gpio/cy_gpio.h **** __STATIC_INLINE GPIO_PRT_Type* Cy_GPIO_PortToAddr(uint32_t portNum)
 665:Generated_Source\PSoC6\pdl\drivers/peripheral/gpio/cy_gpio.h **** {
 666:Generated_Source\PSoC6\pdl\drivers/peripheral/gpio/cy_gpio.h ****     GPIO_PRT_Type* base;
 667:Generated_Source\PSoC6\pdl\drivers/peripheral/gpio/cy_gpio.h ****     
 668:Generated_Source\PSoC6\pdl\drivers/peripheral/gpio/cy_gpio.h ****     if(portNum < (uint32_t)IOSS_GPIO_GPIO_PORT_NR)
 669:Generated_Source\PSoC6\pdl\drivers/peripheral/gpio/cy_gpio.h ****     {
 670:Generated_Source\PSoC6\pdl\drivers/peripheral/gpio/cy_gpio.h ****          base = (GPIO_PRT_Type *)(GPIO_BASE + (GPIO_PRT_SECTION_SIZE * portNum));
 671:Generated_Source\PSoC6\pdl\drivers/peripheral/gpio/cy_gpio.h ****     }
 672:Generated_Source\PSoC6\pdl\drivers/peripheral/gpio/cy_gpio.h ****     else
 673:Generated_Source\PSoC6\pdl\drivers/peripheral/gpio/cy_gpio.h ****     {
 674:Generated_Source\PSoC6\pdl\drivers/peripheral/gpio/cy_gpio.h ****         /* Error: Return default base address */
 675:Generated_Source\PSoC6\pdl\drivers/peripheral/gpio/cy_gpio.h ****         base = (GPIO_PRT_Type *)(GPIO_BASE);
 676:Generated_Source\PSoC6\pdl\drivers/peripheral/gpio/cy_gpio.h ****     }
 677:Generated_Source\PSoC6\pdl\drivers/peripheral/gpio/cy_gpio.h **** 
 678:Generated_Source\PSoC6\pdl\drivers/peripheral/gpio/cy_gpio.h ****     return (base);
 679:Generated_Source\PSoC6\pdl\drivers/peripheral/gpio/cy_gpio.h **** }
 680:Generated_Source\PSoC6\pdl\drivers/peripheral/gpio/cy_gpio.h **** 
 681:Generated_Source\PSoC6\pdl\drivers/peripheral/gpio/cy_gpio.h **** /** \} group_gpio_functions_init */
 682:Generated_Source\PSoC6\pdl\drivers/peripheral/gpio/cy_gpio.h **** 
 683:Generated_Source\PSoC6\pdl\drivers/peripheral/gpio/cy_gpio.h **** /**
 684:Generated_Source\PSoC6\pdl\drivers/peripheral/gpio/cy_gpio.h **** * \addtogroup group_gpio_functions_gpio
 685:Generated_Source\PSoC6\pdl\drivers/peripheral/gpio/cy_gpio.h **** * \{
 686:Generated_Source\PSoC6\pdl\drivers/peripheral/gpio/cy_gpio.h **** */
ARM GAS  C:\Users\codyg\AppData\Local\Temp\ccQipZVL.s 			page 16


 687:Generated_Source\PSoC6\pdl\drivers/peripheral/gpio/cy_gpio.h **** 
 688:Generated_Source\PSoC6\pdl\drivers/peripheral/gpio/cy_gpio.h **** /*******************************************************************************
 689:Generated_Source\PSoC6\pdl\drivers/peripheral/gpio/cy_gpio.h **** * Function Name: Cy_GPIO_Read
 690:Generated_Source\PSoC6\pdl\drivers/peripheral/gpio/cy_gpio.h **** ****************************************************************************//**
 691:Generated_Source\PSoC6\pdl\drivers/peripheral/gpio/cy_gpio.h **** *
 692:Generated_Source\PSoC6\pdl\drivers/peripheral/gpio/cy_gpio.h **** * \brief Reads the current logic level on the input buffer of the pin.
 693:Generated_Source\PSoC6\pdl\drivers/peripheral/gpio/cy_gpio.h **** *
 694:Generated_Source\PSoC6\pdl\drivers/peripheral/gpio/cy_gpio.h **** * \param base
 695:Generated_Source\PSoC6\pdl\drivers/peripheral/gpio/cy_gpio.h **** * Pointer to the pin's port register base address
 696:Generated_Source\PSoC6\pdl\drivers/peripheral/gpio/cy_gpio.h **** *
 697:Generated_Source\PSoC6\pdl\drivers/peripheral/gpio/cy_gpio.h **** * \param pinNum
 698:Generated_Source\PSoC6\pdl\drivers/peripheral/gpio/cy_gpio.h **** * Position of the pin bit-field within the port register.
 699:Generated_Source\PSoC6\pdl\drivers/peripheral/gpio/cy_gpio.h **** * Bit position 8 is the routed pin through the port glitch filter.
 700:Generated_Source\PSoC6\pdl\drivers/peripheral/gpio/cy_gpio.h **** *
 701:Generated_Source\PSoC6\pdl\drivers/peripheral/gpio/cy_gpio.h **** * \return
 702:Generated_Source\PSoC6\pdl\drivers/peripheral/gpio/cy_gpio.h **** * Logic level present on the pin
 703:Generated_Source\PSoC6\pdl\drivers/peripheral/gpio/cy_gpio.h **** *
 704:Generated_Source\PSoC6\pdl\drivers/peripheral/gpio/cy_gpio.h **** * \funcusage
 705:Generated_Source\PSoC6\pdl\drivers/peripheral/gpio/cy_gpio.h **** * \snippet gpio/gpio_v1_10_sut_01.cydsn/main_cm4.c snippet_Cy_GPIO_Read
 706:Generated_Source\PSoC6\pdl\drivers/peripheral/gpio/cy_gpio.h **** *
 707:Generated_Source\PSoC6\pdl\drivers/peripheral/gpio/cy_gpio.h **** *******************************************************************************/
 708:Generated_Source\PSoC6\pdl\drivers/peripheral/gpio/cy_gpio.h **** __STATIC_INLINE uint32_t Cy_GPIO_Read(GPIO_PRT_Type* base, uint32_t pinNum)
 709:Generated_Source\PSoC6\pdl\drivers/peripheral/gpio/cy_gpio.h **** {
 710:Generated_Source\PSoC6\pdl\drivers/peripheral/gpio/cy_gpio.h ****     CY_ASSERT_L2(CY_GPIO_IS_FILTER_PIN_VALID(pinNum));
 711:Generated_Source\PSoC6\pdl\drivers/peripheral/gpio/cy_gpio.h ****     
 712:Generated_Source\PSoC6\pdl\drivers/peripheral/gpio/cy_gpio.h ****     return (base->IN >> (pinNum)) & CY_GPIO_IN_MASK;
 713:Generated_Source\PSoC6\pdl\drivers/peripheral/gpio/cy_gpio.h **** }
 714:Generated_Source\PSoC6\pdl\drivers/peripheral/gpio/cy_gpio.h **** 
 715:Generated_Source\PSoC6\pdl\drivers/peripheral/gpio/cy_gpio.h **** 
 716:Generated_Source\PSoC6\pdl\drivers/peripheral/gpio/cy_gpio.h **** /*******************************************************************************
 717:Generated_Source\PSoC6\pdl\drivers/peripheral/gpio/cy_gpio.h **** * Function Name: Cy_GPIO_Write
 718:Generated_Source\PSoC6\pdl\drivers/peripheral/gpio/cy_gpio.h **** ****************************************************************************//**
 719:Generated_Source\PSoC6\pdl\drivers/peripheral/gpio/cy_gpio.h **** *
 720:Generated_Source\PSoC6\pdl\drivers/peripheral/gpio/cy_gpio.h **** * \brief Write a logic 0 or logic 1 state to the output driver.
 721:Generated_Source\PSoC6\pdl\drivers/peripheral/gpio/cy_gpio.h **** *
 722:Generated_Source\PSoC6\pdl\drivers/peripheral/gpio/cy_gpio.h **** * This function should be used only for software driven pins. It does not have
 723:Generated_Source\PSoC6\pdl\drivers/peripheral/gpio/cy_gpio.h **** * any effect on peripheral driven pins.
 724:Generated_Source\PSoC6\pdl\drivers/peripheral/gpio/cy_gpio.h **** *
 725:Generated_Source\PSoC6\pdl\drivers/peripheral/gpio/cy_gpio.h **** * \param base
 726:Generated_Source\PSoC6\pdl\drivers/peripheral/gpio/cy_gpio.h **** * Pointer to the pin's port register base address
 727:Generated_Source\PSoC6\pdl\drivers/peripheral/gpio/cy_gpio.h **** *
 728:Generated_Source\PSoC6\pdl\drivers/peripheral/gpio/cy_gpio.h **** * \param pinNum
 729:Generated_Source\PSoC6\pdl\drivers/peripheral/gpio/cy_gpio.h **** * Position of the pin bit-field within the port register
 730:Generated_Source\PSoC6\pdl\drivers/peripheral/gpio/cy_gpio.h **** *
 731:Generated_Source\PSoC6\pdl\drivers/peripheral/gpio/cy_gpio.h **** * \param value
 732:Generated_Source\PSoC6\pdl\drivers/peripheral/gpio/cy_gpio.h **** * Logic level to drive out on the pin
 733:Generated_Source\PSoC6\pdl\drivers/peripheral/gpio/cy_gpio.h **** *
 734:Generated_Source\PSoC6\pdl\drivers/peripheral/gpio/cy_gpio.h **** * \return
 735:Generated_Source\PSoC6\pdl\drivers/peripheral/gpio/cy_gpio.h **** * void
 736:Generated_Source\PSoC6\pdl\drivers/peripheral/gpio/cy_gpio.h **** *
 737:Generated_Source\PSoC6\pdl\drivers/peripheral/gpio/cy_gpio.h **** * \funcusage
 738:Generated_Source\PSoC6\pdl\drivers/peripheral/gpio/cy_gpio.h **** * \snippet gpio/gpio_v1_10_sut_01.cydsn/main_cm4.c snippet_Cy_GPIO_Write
 739:Generated_Source\PSoC6\pdl\drivers/peripheral/gpio/cy_gpio.h **** *
 740:Generated_Source\PSoC6\pdl\drivers/peripheral/gpio/cy_gpio.h **** *******************************************************************************/
 741:Generated_Source\PSoC6\pdl\drivers/peripheral/gpio/cy_gpio.h **** __STATIC_INLINE void Cy_GPIO_Write(GPIO_PRT_Type* base, uint32_t pinNum, uint32_t value)
 742:Generated_Source\PSoC6\pdl\drivers/peripheral/gpio/cy_gpio.h **** {
 743:Generated_Source\PSoC6\pdl\drivers/peripheral/gpio/cy_gpio.h ****     CY_ASSERT_L2(CY_GPIO_IS_PIN_VALID(pinNum));
ARM GAS  C:\Users\codyg\AppData\Local\Temp\ccQipZVL.s 			page 17


 744:Generated_Source\PSoC6\pdl\drivers/peripheral/gpio/cy_gpio.h ****     CY_ASSERT_L2(CY_GPIO_IS_VALUE_VALID(value));
 745:Generated_Source\PSoC6\pdl\drivers/peripheral/gpio/cy_gpio.h **** 
 746:Generated_Source\PSoC6\pdl\drivers/peripheral/gpio/cy_gpio.h ****     /* Thread-safe: Directly access the pin registers instead of base->OUT */
 747:Generated_Source\PSoC6\pdl\drivers/peripheral/gpio/cy_gpio.h ****     if(0UL == value)
 748:Generated_Source\PSoC6\pdl\drivers/peripheral/gpio/cy_gpio.h ****     {
 749:Generated_Source\PSoC6\pdl\drivers/peripheral/gpio/cy_gpio.h ****         base->OUT_CLR = CY_GPIO_OUT_MASK << pinNum;
 750:Generated_Source\PSoC6\pdl\drivers/peripheral/gpio/cy_gpio.h ****     }
 751:Generated_Source\PSoC6\pdl\drivers/peripheral/gpio/cy_gpio.h ****     else
 752:Generated_Source\PSoC6\pdl\drivers/peripheral/gpio/cy_gpio.h ****     {
 753:Generated_Source\PSoC6\pdl\drivers/peripheral/gpio/cy_gpio.h ****         base->OUT_SET = CY_GPIO_OUT_MASK << pinNum;
 754:Generated_Source\PSoC6\pdl\drivers/peripheral/gpio/cy_gpio.h ****     }
 755:Generated_Source\PSoC6\pdl\drivers/peripheral/gpio/cy_gpio.h **** }
 756:Generated_Source\PSoC6\pdl\drivers/peripheral/gpio/cy_gpio.h **** 
 757:Generated_Source\PSoC6\pdl\drivers/peripheral/gpio/cy_gpio.h **** 
 758:Generated_Source\PSoC6\pdl\drivers/peripheral/gpio/cy_gpio.h **** /*******************************************************************************
 759:Generated_Source\PSoC6\pdl\drivers/peripheral/gpio/cy_gpio.h **** * Function Name: Cy_GPIO_ReadOut
 760:Generated_Source\PSoC6\pdl\drivers/peripheral/gpio/cy_gpio.h **** ****************************************************************************//**
 761:Generated_Source\PSoC6\pdl\drivers/peripheral/gpio/cy_gpio.h **** *
 762:Generated_Source\PSoC6\pdl\drivers/peripheral/gpio/cy_gpio.h **** * \brief Reads the current logic level on the pin output driver.
 763:Generated_Source\PSoC6\pdl\drivers/peripheral/gpio/cy_gpio.h **** *
 764:Generated_Source\PSoC6\pdl\drivers/peripheral/gpio/cy_gpio.h **** * \param base
 765:Generated_Source\PSoC6\pdl\drivers/peripheral/gpio/cy_gpio.h **** * Pointer to the pin's port register base address
 766:Generated_Source\PSoC6\pdl\drivers/peripheral/gpio/cy_gpio.h **** *
 767:Generated_Source\PSoC6\pdl\drivers/peripheral/gpio/cy_gpio.h **** * \param pinNum
 768:Generated_Source\PSoC6\pdl\drivers/peripheral/gpio/cy_gpio.h **** * Position of the pin bit-field within the port register
 769:Generated_Source\PSoC6\pdl\drivers/peripheral/gpio/cy_gpio.h **** *
 770:Generated_Source\PSoC6\pdl\drivers/peripheral/gpio/cy_gpio.h **** * \return
 771:Generated_Source\PSoC6\pdl\drivers/peripheral/gpio/cy_gpio.h **** * Logic level on the pin output driver
 772:Generated_Source\PSoC6\pdl\drivers/peripheral/gpio/cy_gpio.h **** *
 773:Generated_Source\PSoC6\pdl\drivers/peripheral/gpio/cy_gpio.h **** * \funcusage
 774:Generated_Source\PSoC6\pdl\drivers/peripheral/gpio/cy_gpio.h **** * \snippet gpio/gpio_v1_10_sut_01.cydsn/main_cm4.c snippet_Cy_GPIO_ReadOut
 775:Generated_Source\PSoC6\pdl\drivers/peripheral/gpio/cy_gpio.h **** *
 776:Generated_Source\PSoC6\pdl\drivers/peripheral/gpio/cy_gpio.h **** *******************************************************************************/
 777:Generated_Source\PSoC6\pdl\drivers/peripheral/gpio/cy_gpio.h **** __STATIC_INLINE uint32_t Cy_GPIO_ReadOut(GPIO_PRT_Type* base, uint32_t pinNum)
 778:Generated_Source\PSoC6\pdl\drivers/peripheral/gpio/cy_gpio.h **** {
 779:Generated_Source\PSoC6\pdl\drivers/peripheral/gpio/cy_gpio.h ****     CY_ASSERT_L2(CY_GPIO_IS_PIN_VALID(pinNum));
 780:Generated_Source\PSoC6\pdl\drivers/peripheral/gpio/cy_gpio.h **** 
 781:Generated_Source\PSoC6\pdl\drivers/peripheral/gpio/cy_gpio.h ****     return (base->OUT >> pinNum) & CY_GPIO_OUT_MASK;
 782:Generated_Source\PSoC6\pdl\drivers/peripheral/gpio/cy_gpio.h **** }
 783:Generated_Source\PSoC6\pdl\drivers/peripheral/gpio/cy_gpio.h **** 
 784:Generated_Source\PSoC6\pdl\drivers/peripheral/gpio/cy_gpio.h **** 
 785:Generated_Source\PSoC6\pdl\drivers/peripheral/gpio/cy_gpio.h **** /*******************************************************************************
 786:Generated_Source\PSoC6\pdl\drivers/peripheral/gpio/cy_gpio.h **** * Function Name: Cy_GPIO_Set
 787:Generated_Source\PSoC6\pdl\drivers/peripheral/gpio/cy_gpio.h **** ****************************************************************************//**
 788:Generated_Source\PSoC6\pdl\drivers/peripheral/gpio/cy_gpio.h **** *
 789:Generated_Source\PSoC6\pdl\drivers/peripheral/gpio/cy_gpio.h **** * \brief Set a pin output to logic state high.
 790:Generated_Source\PSoC6\pdl\drivers/peripheral/gpio/cy_gpio.h **** *
 791:Generated_Source\PSoC6\pdl\drivers/peripheral/gpio/cy_gpio.h **** * This function should be used only for software driven pins. It does not have
 792:Generated_Source\PSoC6\pdl\drivers/peripheral/gpio/cy_gpio.h **** * any effect on peripheral driven pins.
 793:Generated_Source\PSoC6\pdl\drivers/peripheral/gpio/cy_gpio.h **** *
 794:Generated_Source\PSoC6\pdl\drivers/peripheral/gpio/cy_gpio.h **** * \param base
 795:Generated_Source\PSoC6\pdl\drivers/peripheral/gpio/cy_gpio.h **** * Pointer to the pin's port register base address
 796:Generated_Source\PSoC6\pdl\drivers/peripheral/gpio/cy_gpio.h **** *
 797:Generated_Source\PSoC6\pdl\drivers/peripheral/gpio/cy_gpio.h **** * \param pinNum
 798:Generated_Source\PSoC6\pdl\drivers/peripheral/gpio/cy_gpio.h **** * Position of the pin bit-field within the port register
 799:Generated_Source\PSoC6\pdl\drivers/peripheral/gpio/cy_gpio.h **** *
 800:Generated_Source\PSoC6\pdl\drivers/peripheral/gpio/cy_gpio.h **** * \return
ARM GAS  C:\Users\codyg\AppData\Local\Temp\ccQipZVL.s 			page 18


 801:Generated_Source\PSoC6\pdl\drivers/peripheral/gpio/cy_gpio.h **** * void
 802:Generated_Source\PSoC6\pdl\drivers/peripheral/gpio/cy_gpio.h **** *
 803:Generated_Source\PSoC6\pdl\drivers/peripheral/gpio/cy_gpio.h **** * \funcusage
 804:Generated_Source\PSoC6\pdl\drivers/peripheral/gpio/cy_gpio.h **** * \snippet gpio/gpio_v1_10_sut_01.cydsn/main_cm4.c snippet_Cy_GPIO_Set
 805:Generated_Source\PSoC6\pdl\drivers/peripheral/gpio/cy_gpio.h **** *
 806:Generated_Source\PSoC6\pdl\drivers/peripheral/gpio/cy_gpio.h **** *******************************************************************************/
 807:Generated_Source\PSoC6\pdl\drivers/peripheral/gpio/cy_gpio.h **** __STATIC_INLINE void Cy_GPIO_Set(GPIO_PRT_Type* base, uint32_t pinNum)
 808:Generated_Source\PSoC6\pdl\drivers/peripheral/gpio/cy_gpio.h **** {
 809:Generated_Source\PSoC6\pdl\drivers/peripheral/gpio/cy_gpio.h ****     CY_ASSERT_L2(CY_GPIO_IS_PIN_VALID(pinNum));
 810:Generated_Source\PSoC6\pdl\drivers/peripheral/gpio/cy_gpio.h ****     
 811:Generated_Source\PSoC6\pdl\drivers/peripheral/gpio/cy_gpio.h ****     base->OUT_SET = CY_GPIO_OUT_MASK << pinNum;
 812:Generated_Source\PSoC6\pdl\drivers/peripheral/gpio/cy_gpio.h **** }
 813:Generated_Source\PSoC6\pdl\drivers/peripheral/gpio/cy_gpio.h **** 
 814:Generated_Source\PSoC6\pdl\drivers/peripheral/gpio/cy_gpio.h **** 
 815:Generated_Source\PSoC6\pdl\drivers/peripheral/gpio/cy_gpio.h **** /*******************************************************************************
 816:Generated_Source\PSoC6\pdl\drivers/peripheral/gpio/cy_gpio.h **** * Function Name: Cy_GPIO_Clr
 817:Generated_Source\PSoC6\pdl\drivers/peripheral/gpio/cy_gpio.h **** ****************************************************************************//**
 818:Generated_Source\PSoC6\pdl\drivers/peripheral/gpio/cy_gpio.h **** *
 819:Generated_Source\PSoC6\pdl\drivers/peripheral/gpio/cy_gpio.h **** * \brief Set a pin output to logic state Low.
 820:Generated_Source\PSoC6\pdl\drivers/peripheral/gpio/cy_gpio.h **** *
 821:Generated_Source\PSoC6\pdl\drivers/peripheral/gpio/cy_gpio.h **** * This function should be used only for software driven pins. It does not have
 822:Generated_Source\PSoC6\pdl\drivers/peripheral/gpio/cy_gpio.h **** * any effect on peripheral driven pins.
 823:Generated_Source\PSoC6\pdl\drivers/peripheral/gpio/cy_gpio.h **** *
 824:Generated_Source\PSoC6\pdl\drivers/peripheral/gpio/cy_gpio.h **** * \param base
 825:Generated_Source\PSoC6\pdl\drivers/peripheral/gpio/cy_gpio.h **** * Pointer to the pin's port register base address
 826:Generated_Source\PSoC6\pdl\drivers/peripheral/gpio/cy_gpio.h **** *
 827:Generated_Source\PSoC6\pdl\drivers/peripheral/gpio/cy_gpio.h **** * \param pinNum
 828:Generated_Source\PSoC6\pdl\drivers/peripheral/gpio/cy_gpio.h **** * Position of the pin bit-field within the port register
 829:Generated_Source\PSoC6\pdl\drivers/peripheral/gpio/cy_gpio.h **** *
 830:Generated_Source\PSoC6\pdl\drivers/peripheral/gpio/cy_gpio.h **** * \return
 831:Generated_Source\PSoC6\pdl\drivers/peripheral/gpio/cy_gpio.h **** * void
 832:Generated_Source\PSoC6\pdl\drivers/peripheral/gpio/cy_gpio.h **** *
 833:Generated_Source\PSoC6\pdl\drivers/peripheral/gpio/cy_gpio.h **** * \funcusage
 834:Generated_Source\PSoC6\pdl\drivers/peripheral/gpio/cy_gpio.h **** * \snippet gpio/gpio_v1_10_sut_01.cydsn/main_cm4.c snippet_Cy_GPIO_Clr
 835:Generated_Source\PSoC6\pdl\drivers/peripheral/gpio/cy_gpio.h **** *
 836:Generated_Source\PSoC6\pdl\drivers/peripheral/gpio/cy_gpio.h **** *******************************************************************************/
 837:Generated_Source\PSoC6\pdl\drivers/peripheral/gpio/cy_gpio.h **** __STATIC_INLINE void Cy_GPIO_Clr(GPIO_PRT_Type* base, uint32_t pinNum)
 838:Generated_Source\PSoC6\pdl\drivers/peripheral/gpio/cy_gpio.h **** {
 839:Generated_Source\PSoC6\pdl\drivers/peripheral/gpio/cy_gpio.h ****     CY_ASSERT_L2(CY_GPIO_IS_PIN_VALID(pinNum));
 840:Generated_Source\PSoC6\pdl\drivers/peripheral/gpio/cy_gpio.h ****     
 841:Generated_Source\PSoC6\pdl\drivers/peripheral/gpio/cy_gpio.h ****     base->OUT_CLR = CY_GPIO_OUT_MASK << pinNum;
  49              		.loc 2 841 0
  50 000a 0F4C     		ldr	r4, .L5
  51 000c 0827     		movs	r7, #8
  52 000e 6760     		str	r7, [r4, #4]
  53              	.LVL2:
  54              	.LBE59:
  55              	.LBE58:
 122:cy_eink_library/pervasive_eink_hardware_driver.c ****     /* Pull the chip select line LOW to begin communication */
 123:cy_eink_library/pervasive_eink_hardware_driver.c ****     CY_EINK_CsLow;
 124:cy_eink_library/pervasive_eink_hardware_driver.c ****     /* Send the header of register address index */
 125:cy_eink_library/pervasive_eink_hardware_driver.c ****     Cy_EINK_WriteSPI(PV_EINK_REG_INDEX_HEADER);
  56              		.loc 1 125 0
  57 0010 7020     		movs	r0, #112
  58              	.LVL3:
  59 0012 FFF7FEFF 		bl	Cy_EINK_WriteSPI
  60              	.LVL4:
ARM GAS  C:\Users\codyg\AppData\Local\Temp\ccQipZVL.s 			page 19


 126:cy_eink_library/pervasive_eink_hardware_driver.c ****     /* Send the register address */
 127:cy_eink_library/pervasive_eink_hardware_driver.c ****     Cy_EINK_WriteSPI(regAddr);
  61              		.loc 1 127 0
  62 0016 4046     		mov	r0, r8
  63 0018 FFF7FEFF 		bl	Cy_EINK_WriteSPI
  64              	.LVL5:
  65              	.LBB60:
  66              	.LBB61:
 811:Generated_Source\PSoC6\pdl\drivers/peripheral/gpio/cy_gpio.h **** }
  67              		.loc 2 811 0
  68 001c A760     		str	r7, [r4, #8]
  69              	.LVL6:
  70              	.LBE61:
  71              	.LBE60:
  72              	.LBB62:
  73              	.LBB63:
  74              		.loc 2 841 0
  75 001e 6760     		str	r7, [r4, #4]
  76              	.LVL7:
  77              	.LBE63:
  78              	.LBE62:
 128:cy_eink_library/pervasive_eink_hardware_driver.c ****     /* Push the chip select line HIGH to end communication */
 129:cy_eink_library/pervasive_eink_hardware_driver.c ****     CY_EINK_CsHigh;
 130:cy_eink_library/pervasive_eink_hardware_driver.c ****     
 131:cy_eink_library/pervasive_eink_hardware_driver.c ****     /* Pull the chip select line LOW to begin communication */
 132:cy_eink_library/pervasive_eink_hardware_driver.c ****     CY_EINK_CsLow;
 133:cy_eink_library/pervasive_eink_hardware_driver.c ****     /* Send the header of data write index */
 134:cy_eink_library/pervasive_eink_hardware_driver.c ****     Cy_EINK_WriteSPI(PV_EINK_REG_DATA_WRITE);
  79              		.loc 1 134 0
  80 0020 7220     		movs	r0, #114
  81 0022 FFF7FEFF 		bl	Cy_EINK_WriteSPI
  82              	.LVL8:
 135:cy_eink_library/pervasive_eink_hardware_driver.c ****     
 136:cy_eink_library/pervasive_eink_hardware_driver.c ****     /* Send the array of data */
 137:cy_eink_library/pervasive_eink_hardware_driver.c ****     while (dataLength--)
  83              		.loc 1 137 0
  84 0026 05E0     		b	.L2
  85              	.LVL9:
  86              	.L3:
 138:cy_eink_library/pervasive_eink_hardware_driver.c ****     {
 139:cy_eink_library/pervasive_eink_hardware_driver.c ****         Cy_EINK_WriteSPI(*data++);
  87              		.loc 1 139 0
  88 0028 771C     		adds	r7, r6, #1
  89              	.LVL10:
  90 002a 3078     		ldrb	r0, [r6]	@ zero_extendqisi2
  91 002c FFF7FEFF 		bl	Cy_EINK_WriteSPI
  92              	.LVL11:
 137:cy_eink_library/pervasive_eink_hardware_driver.c ****     {
  93              		.loc 1 137 0
  94 0030 2546     		mov	r5, r4
  95              		.loc 1 139 0
  96 0032 3E46     		mov	r6, r7
  97              	.LVL12:
  98              	.L2:
 137:cy_eink_library/pervasive_eink_hardware_driver.c ****     {
  99              		.loc 1 137 0
 100 0034 6B1E     		subs	r3, r5, #1
ARM GAS  C:\Users\codyg\AppData\Local\Temp\ccQipZVL.s 			page 20


 101 0036 9CB2     		uxth	r4, r3
 102              	.LVL13:
 103 0038 002D     		cmp	r5, #0
 104 003a F5D1     		bne	.L3
 105              	.LVL14:
 106              	.LBB64:
 107              	.LBB65:
 811:Generated_Source\PSoC6\pdl\drivers/peripheral/gpio/cy_gpio.h **** }
 108              		.loc 2 811 0
 109 003c 0822     		movs	r2, #8
 110 003e 024B     		ldr	r3, .L5
 111 0040 9A60     		str	r2, [r3, #8]
 112              	.LVL15:
 113 0042 BDE8F081 		pop	{r4, r5, r6, r7, r8, pc}
 114              	.LVL16:
 115              	.L6:
 116 0046 00BF     		.align	2
 117              	.L5:
 118 0048 00063240 		.word	1077020160
 119              	.LBE65:
 120              	.LBE64:
 121              		.cfi_endproc
 122              	.LFE517:
 123              		.size	Pv_EINK_SendData, .-Pv_EINK_SendData
 124              		.section	.text.Pv_EINK_SendByte,"ax",%progbits
 125              		.align	2
 126              		.global	Pv_EINK_SendByte
 127              		.thumb
 128              		.thumb_func
 129              		.type	Pv_EINK_SendByte, %function
 130              	Pv_EINK_SendByte:
 131              	.LFB518:
 140:cy_eink_library/pervasive_eink_hardware_driver.c ****     }
 141:cy_eink_library/pervasive_eink_hardware_driver.c ****     /* Push the chip select line HIGH to end communication */
 142:cy_eink_library/pervasive_eink_hardware_driver.c ****     CY_EINK_CsHigh;
 143:cy_eink_library/pervasive_eink_hardware_driver.c **** }
 144:cy_eink_library/pervasive_eink_hardware_driver.c **** 
 145:cy_eink_library/pervasive_eink_hardware_driver.c **** /*******************************************************************************
 146:cy_eink_library/pervasive_eink_hardware_driver.c **** * Function Name: void Pv_EINK_SendByte(uint8_t regAddr, uint8_t data)
 147:cy_eink_library/pervasive_eink_hardware_driver.c **** ********************************************************************************
 148:cy_eink_library/pervasive_eink_hardware_driver.c **** *
 149:cy_eink_library/pervasive_eink_hardware_driver.c **** * Summary: Sends a byte of data to the E-INK driver.
 150:cy_eink_library/pervasive_eink_hardware_driver.c **** *
 151:cy_eink_library/pervasive_eink_hardware_driver.c **** * Parameters:
 152:cy_eink_library/pervasive_eink_hardware_driver.c **** *  uint8_t regAddr: Display driver register address
 153:cy_eink_library/pervasive_eink_hardware_driver.c **** *  uint8_t data   : Data byte that will be sent to the driver
 154:cy_eink_library/pervasive_eink_hardware_driver.c **** *
 155:cy_eink_library/pervasive_eink_hardware_driver.c **** * Return:
 156:cy_eink_library/pervasive_eink_hardware_driver.c **** *  None
 157:cy_eink_library/pervasive_eink_hardware_driver.c **** *
 158:cy_eink_library/pervasive_eink_hardware_driver.c **** * Side Effects:
 159:cy_eink_library/pervasive_eink_hardware_driver.c **** *  None
 160:cy_eink_library/pervasive_eink_hardware_driver.c **** *******************************************************************************/
 161:cy_eink_library/pervasive_eink_hardware_driver.c **** void Pv_EINK_SendByte(uint8_t regAddr, uint8_t data)
 162:cy_eink_library/pervasive_eink_hardware_driver.c **** {
 132              		.loc 1 162 0
 133              		.cfi_startproc
ARM GAS  C:\Users\codyg\AppData\Local\Temp\ccQipZVL.s 			page 21


 134              		@ args = 0, pretend = 0, frame = 8
 135              		@ frame_needed = 0, uses_anonymous_args = 0
 136              	.LVL17:
 137 0000 00B5     		push	{lr}
 138              		.cfi_def_cfa_offset 4
 139              		.cfi_offset 14, -4
 140 0002 83B0     		sub	sp, sp, #12
 141              		.cfi_def_cfa_offset 16
 142 0004 02AB     		add	r3, sp, #8
 143 0006 03F8011D 		strb	r1, [r3, #-1]!
 163:cy_eink_library/pervasive_eink_hardware_driver.c ****     /* Send a single byte of data */
 164:cy_eink_library/pervasive_eink_hardware_driver.c ****     Pv_EINK_SendData(regAddr, &data, CY_EINK_SINGLE_BYTE);
 144              		.loc 1 164 0
 145 000a 0122     		movs	r2, #1
 146 000c 1946     		mov	r1, r3
 147              	.LVL18:
 148 000e FFF7FEFF 		bl	Pv_EINK_SendData
 149              	.LVL19:
 165:cy_eink_library/pervasive_eink_hardware_driver.c **** }
 150              		.loc 1 165 0
 151 0012 03B0     		add	sp, sp, #12
 152              		.cfi_def_cfa_offset 4
 153              		@ sp needed
 154 0014 5DF804FB 		ldr	pc, [sp], #4
 155              		.cfi_endproc
 156              	.LFE518:
 157              		.size	Pv_EINK_SendByte, .-Pv_EINK_SendByte
 158              		.section	.text.Pv_EINK_ReadByte,"ax",%progbits
 159              		.align	2
 160              		.global	Pv_EINK_ReadByte
 161              		.thumb
 162              		.thumb_func
 163              		.type	Pv_EINK_ReadByte, %function
 164              	Pv_EINK_ReadByte:
 165              	.LFB519:
 166:cy_eink_library/pervasive_eink_hardware_driver.c **** 
 167:cy_eink_library/pervasive_eink_hardware_driver.c **** /*******************************************************************************
 168:cy_eink_library/pervasive_eink_hardware_driver.c **** * Function Name: uint8_t Pv_EINK_ReadByte(uint8_t regAddr, uint8_t data)
 169:cy_eink_library/pervasive_eink_hardware_driver.c **** ********************************************************************************
 170:cy_eink_library/pervasive_eink_hardware_driver.c **** *
 171:cy_eink_library/pervasive_eink_hardware_driver.c **** * Summary: Sends a read command to the E-INK driver and receives a byte of data
 172:cy_eink_library/pervasive_eink_hardware_driver.c **** *  from the driver.
 173:cy_eink_library/pervasive_eink_hardware_driver.c **** *
 174:cy_eink_library/pervasive_eink_hardware_driver.c **** * Parameters:
 175:cy_eink_library/pervasive_eink_hardware_driver.c **** *  uint8_t regAddr: Display driver register address
 176:cy_eink_library/pervasive_eink_hardware_driver.c **** *  uint8_t data   : Data command that will be sent to the driver
 177:cy_eink_library/pervasive_eink_hardware_driver.c **** *
 178:cy_eink_library/pervasive_eink_hardware_driver.c **** * Return:
 179:cy_eink_library/pervasive_eink_hardware_driver.c **** *  uint8_t :  Data received from the display driver
 180:cy_eink_library/pervasive_eink_hardware_driver.c **** *
 181:cy_eink_library/pervasive_eink_hardware_driver.c **** * Side Effects:
 182:cy_eink_library/pervasive_eink_hardware_driver.c **** *  None
 183:cy_eink_library/pervasive_eink_hardware_driver.c **** *******************************************************************************/
 184:cy_eink_library/pervasive_eink_hardware_driver.c **** uint8_t Pv_EINK_ReadByte(uint8_t regAddr, uint8_t data)
 185:cy_eink_library/pervasive_eink_hardware_driver.c **** {
 166              		.loc 1 185 0
 167              		.cfi_startproc
ARM GAS  C:\Users\codyg\AppData\Local\Temp\ccQipZVL.s 			page 22


 168              		@ args = 0, pretend = 0, frame = 0
 169              		@ frame_needed = 0, uses_anonymous_args = 0
 170              	.LVL20:
 171 0000 F8B5     		push	{r3, r4, r5, r6, r7, lr}
 172              		.cfi_def_cfa_offset 24
 173              		.cfi_offset 3, -24
 174              		.cfi_offset 4, -20
 175              		.cfi_offset 5, -16
 176              		.cfi_offset 6, -12
 177              		.cfi_offset 7, -8
 178              		.cfi_offset 14, -4
 179 0002 0746     		mov	r7, r0
 180 0004 0E46     		mov	r6, r1
 181              	.LVL21:
 182              	.LBB66:
 183              	.LBB67:
 184              		.loc 2 841 0
 185 0006 094C     		ldr	r4, .L11
 186 0008 0825     		movs	r5, #8
 187 000a 6560     		str	r5, [r4, #4]
 188              	.LVL22:
 189              	.LBE67:
 190              	.LBE66:
 186:cy_eink_library/pervasive_eink_hardware_driver.c ****     /* Variable that stores received data */
 187:cy_eink_library/pervasive_eink_hardware_driver.c ****     uint8_t dataRead;
 188:cy_eink_library/pervasive_eink_hardware_driver.c ****     
 189:cy_eink_library/pervasive_eink_hardware_driver.c ****     /* Pull the chip select line LOW to begin communication */
 190:cy_eink_library/pervasive_eink_hardware_driver.c ****     CY_EINK_CsLow;
 191:cy_eink_library/pervasive_eink_hardware_driver.c ****     /* Send the header of register address index */
 192:cy_eink_library/pervasive_eink_hardware_driver.c ****     Cy_EINK_WriteSPI(PV_EINK_REG_INDEX_HEADER);
 191              		.loc 1 192 0
 192 000c 7020     		movs	r0, #112
 193              	.LVL23:
 194 000e FFF7FEFF 		bl	Cy_EINK_WriteSPI
 195              	.LVL24:
 193:cy_eink_library/pervasive_eink_hardware_driver.c ****     /* Send the register address */
 194:cy_eink_library/pervasive_eink_hardware_driver.c ****     Cy_EINK_WriteSPI(regAddr);
 196              		.loc 1 194 0
 197 0012 3846     		mov	r0, r7
 198 0014 FFF7FEFF 		bl	Cy_EINK_WriteSPI
 199              	.LVL25:
 200              	.LBB68:
 201              	.LBB69:
 811:Generated_Source\PSoC6\pdl\drivers/peripheral/gpio/cy_gpio.h **** }
 202              		.loc 2 811 0
 203 0018 A560     		str	r5, [r4, #8]
 204              	.LVL26:
 205              	.LBE69:
 206              	.LBE68:
 207              	.LBB70:
 208              	.LBB71:
 209              		.loc 2 841 0
 210 001a 6560     		str	r5, [r4, #4]
 211              	.LVL27:
 212              	.LBE71:
 213              	.LBE70:
 195:cy_eink_library/pervasive_eink_hardware_driver.c ****     /* Push the chip select line HIGH to end communication */
ARM GAS  C:\Users\codyg\AppData\Local\Temp\ccQipZVL.s 			page 23


 196:cy_eink_library/pervasive_eink_hardware_driver.c ****     CY_EINK_CsHigh;
 197:cy_eink_library/pervasive_eink_hardware_driver.c ****     
 198:cy_eink_library/pervasive_eink_hardware_driver.c ****     /* Pull the chip select line LOW to begin communication */
 199:cy_eink_library/pervasive_eink_hardware_driver.c ****     CY_EINK_CsLow;
 200:cy_eink_library/pervasive_eink_hardware_driver.c ****     /* Send the header of data read index */
 201:cy_eink_library/pervasive_eink_hardware_driver.c ****     Cy_EINK_WriteSPI(PV_EINK_REG_DATA_READ);
 214              		.loc 1 201 0
 215 001c 7320     		movs	r0, #115
 216 001e FFF7FEFF 		bl	Cy_EINK_WriteSPI
 217              	.LVL28:
 202:cy_eink_library/pervasive_eink_hardware_driver.c ****     /* Send the command to receive a byte of data */
 203:cy_eink_library/pervasive_eink_hardware_driver.c ****     dataRead = Cy_EINK_ReadSPI(data);
 218              		.loc 1 203 0
 219 0022 3046     		mov	r0, r6
 220 0024 FFF7FEFF 		bl	Cy_EINK_ReadSPI
 221              	.LVL29:
 222              	.LBB72:
 223              	.LBB73:
 811:Generated_Source\PSoC6\pdl\drivers/peripheral/gpio/cy_gpio.h **** }
 224              		.loc 2 811 0
 225 0028 A560     		str	r5, [r4, #8]
 226              	.LVL30:
 227              	.LBE73:
 228              	.LBE72:
 204:cy_eink_library/pervasive_eink_hardware_driver.c ****     /* Push the chip select line HIGH to end communication*/
 205:cy_eink_library/pervasive_eink_hardware_driver.c ****     CY_EINK_CsHigh;
 206:cy_eink_library/pervasive_eink_hardware_driver.c ****     
 207:cy_eink_library/pervasive_eink_hardware_driver.c ****     /* Return the received data */
 208:cy_eink_library/pervasive_eink_hardware_driver.c ****     return(dataRead);
 209:cy_eink_library/pervasive_eink_hardware_driver.c **** }
 229              		.loc 1 209 0
 230 002a F8BD     		pop	{r3, r4, r5, r6, r7, pc}
 231              	.L12:
 232              		.align	2
 233              	.L11:
 234 002c 00063240 		.word	1077020160
 235              		.cfi_endproc
 236              	.LFE519:
 237              		.size	Pv_EINK_ReadByte, .-Pv_EINK_ReadByte
 238              		.section	.text.Pv_EINK_Init,"ax",%progbits
 239              		.align	2
 240              		.global	Pv_EINK_Init
 241              		.thumb
 242              		.thumb_func
 243              		.type	Pv_EINK_Init, %function
 244              	Pv_EINK_Init:
 245              	.LFB520:
 210:cy_eink_library/pervasive_eink_hardware_driver.c **** 
 211:cy_eink_library/pervasive_eink_hardware_driver.c **** /*******************************************************************************
 212:cy_eink_library/pervasive_eink_hardware_driver.c **** * Function Name: void  Pv_EINK_Init()
 213:cy_eink_library/pervasive_eink_hardware_driver.c **** ********************************************************************************
 214:cy_eink_library/pervasive_eink_hardware_driver.c **** *
 215:cy_eink_library/pervasive_eink_hardware_driver.c **** * Summary: Initialize the E-INK display hardware and associated PSoC components.
 216:cy_eink_library/pervasive_eink_hardware_driver.c **** *
 217:cy_eink_library/pervasive_eink_hardware_driver.c **** * Parameters:
 218:cy_eink_library/pervasive_eink_hardware_driver.c **** *  None
 219:cy_eink_library/pervasive_eink_hardware_driver.c **** *
ARM GAS  C:\Users\codyg\AppData\Local\Temp\ccQipZVL.s 			page 24


 220:cy_eink_library/pervasive_eink_hardware_driver.c **** * Return:
 221:cy_eink_library/pervasive_eink_hardware_driver.c **** *  None
 222:cy_eink_library/pervasive_eink_hardware_driver.c **** *
 223:cy_eink_library/pervasive_eink_hardware_driver.c **** * Side Effects:
 224:cy_eink_library/pervasive_eink_hardware_driver.c **** *  None
 225:cy_eink_library/pervasive_eink_hardware_driver.c **** *******************************************************************************/
 226:cy_eink_library/pervasive_eink_hardware_driver.c **** void Pv_EINK_Init(void)
 227:cy_eink_library/pervasive_eink_hardware_driver.c **** {
 246              		.loc 1 227 0
 247              		.cfi_startproc
 248              		@ args = 0, pretend = 0, frame = 0
 249              		@ frame_needed = 0, uses_anonymous_args = 0
 250 0000 38B5     		push	{r3, r4, r5, lr}
 251              		.cfi_def_cfa_offset 16
 252              		.cfi_offset 3, -16
 253              		.cfi_offset 4, -12
 254              		.cfi_offset 5, -8
 255              		.cfi_offset 14, -4
 256              	.LVL31:
 257              	.LBB74:
 258              	.LBB75:
 259              		.loc 2 841 0
 260 0002 0425     		movs	r5, #4
 261 0004 074B     		ldr	r3, .L15
 262 0006 5D60     		str	r5, [r3, #4]
 263              	.LVL32:
 264              	.LBE75:
 265              	.LBE74:
 266              	.LBB76:
 267              	.LBB77:
 268 0008 074C     		ldr	r4, .L15+4
 269 000a 4023     		movs	r3, #64
 270 000c 6360     		str	r3, [r4, #4]
 271              	.LVL33:
 272              	.LBE77:
 273              	.LBE76:
 274              	.LBB78:
 275              	.LBB79:
 276 000e 1023     		movs	r3, #16
 277 0010 6360     		str	r3, [r4, #4]
 278              	.LVL34:
 279              	.LBE79:
 280              	.LBE78:
 228:cy_eink_library/pervasive_eink_hardware_driver.c ****     /* Enable the level translator located between PSoC and the E-INK display */
 229:cy_eink_library/pervasive_eink_hardware_driver.c ****     CY_EINK_EnableIO;
 230:cy_eink_library/pervasive_eink_hardware_driver.c ****     /* Pull the Border pin to LOW */
 231:cy_eink_library/pervasive_eink_hardware_driver.c ****     CY_EINK_BorderLow;
 232:cy_eink_library/pervasive_eink_hardware_driver.c ****     /* Disable the load switch connected to E-INK display's Vcc */
 233:cy_eink_library/pervasive_eink_hardware_driver.c ****     CY_EINK_TurnOffVcc;
 234:cy_eink_library/pervasive_eink_hardware_driver.c ****     
 235:cy_eink_library/pervasive_eink_hardware_driver.c ****     /* Initialize the PSoC SPI */
 236:cy_eink_library/pervasive_eink_hardware_driver.c ****     Cy_EINK_InitSPI();
 281              		.loc 1 236 0
 282 0012 FFF7FEFF 		bl	Cy_EINK_InitSPI
 283              	.LVL35:
 284              	.LBB80:
 285              	.LBB81:
ARM GAS  C:\Users\codyg\AppData\Local\Temp\ccQipZVL.s 			page 25


 286              		.loc 2 841 0
 287 0016 0822     		movs	r2, #8
 288 0018 044B     		ldr	r3, .L15+8
 289 001a 5A60     		str	r2, [r3, #4]
 290              	.LVL36:
 291              	.LBE81:
 292              	.LBE80:
 293              	.LBB82:
 294              	.LBB83:
 295 001c 6560     		str	r5, [r4, #4]
 296              	.LVL37:
 297              	.LBE83:
 298              	.LBE82:
 299              	.LBB84:
 300              	.LBB85:
 301 001e 2023     		movs	r3, #32
 302 0020 6360     		str	r3, [r4, #4]
 303              	.LVL38:
 304 0022 38BD     		pop	{r3, r4, r5, pc}
 305              	.L16:
 306              		.align	2
 307              	.L15:
 308 0024 00003240 		.word	1077018624
 309 0028 80023240 		.word	1077019264
 310 002c 00063240 		.word	1077020160
 311              	.LBE85:
 312              	.LBE84:
 313              		.cfi_endproc
 314              	.LFE520:
 315              		.size	Pv_EINK_Init, .-Pv_EINK_Init
 316              		.section	.text.Pv_EINK_InitDriver,"ax",%progbits
 317              		.align	2
 318              		.global	Pv_EINK_InitDriver
 319              		.thumb
 320              		.thumb_func
 321              		.type	Pv_EINK_InitDriver, %function
 322              	Pv_EINK_InitDriver:
 323              	.LFB521:
 237:cy_eink_library/pervasive_eink_hardware_driver.c ****     /* Pull the chip select, reset and discharge pins to LOW */
 238:cy_eink_library/pervasive_eink_hardware_driver.c ****     CY_EINK_CsLow;
 239:cy_eink_library/pervasive_eink_hardware_driver.c ****     CY_EINK_RstLow;
 240:cy_eink_library/pervasive_eink_hardware_driver.c ****     CY_EINK_DischargeLow;
 241:cy_eink_library/pervasive_eink_hardware_driver.c **** }
 242:cy_eink_library/pervasive_eink_hardware_driver.c **** 
 243:cy_eink_library/pervasive_eink_hardware_driver.c **** /*******************************************************************************
 244:cy_eink_library/pervasive_eink_hardware_driver.c **** * Function Name: Cy_EINK_Status PV_EINK_InitDriver(void)
 245:cy_eink_library/pervasive_eink_hardware_driver.c **** ********************************************************************************
 246:cy_eink_library/pervasive_eink_hardware_driver.c **** *
 247:cy_eink_library/pervasive_eink_hardware_driver.c **** * Summary: Initialize E-INK Driver. For detailed flow and description, please 
 248:cy_eink_library/pervasive_eink_hardware_driver.c **** * refer to the driver G2 document Section 4.
 249:cy_eink_library/pervasive_eink_hardware_driver.c **** *
 250:cy_eink_library/pervasive_eink_hardware_driver.c **** * Parameters:
 251:cy_eink_library/pervasive_eink_hardware_driver.c **** *  None
 252:cy_eink_library/pervasive_eink_hardware_driver.c **** *
 253:cy_eink_library/pervasive_eink_hardware_driver.c **** * Return:
 254:cy_eink_library/pervasive_eink_hardware_driver.c **** *  pv_eink_status_t: Status of the initialization
 255:cy_eink_library/pervasive_eink_hardware_driver.c **** *
ARM GAS  C:\Users\codyg\AppData\Local\Temp\ccQipZVL.s 			page 26


 256:cy_eink_library/pervasive_eink_hardware_driver.c **** * Side Effects:
 257:cy_eink_library/pervasive_eink_hardware_driver.c **** *  None
 258:cy_eink_library/pervasive_eink_hardware_driver.c **** *******************************************************************************/
 259:cy_eink_library/pervasive_eink_hardware_driver.c **** pv_eink_status_t Pv_EINK_InitDriver(void)
 260:cy_eink_library/pervasive_eink_hardware_driver.c **** {
 324              		.loc 1 260 0
 325              		.cfi_startproc
 326              		@ args = 0, pretend = 0, frame = 0
 327              		@ frame_needed = 0, uses_anonymous_args = 0
 328 0000 38B5     		push	{r3, r4, r5, lr}
 329              		.cfi_def_cfa_offset 16
 330              		.cfi_offset 3, -16
 331              		.cfi_offset 4, -12
 332              		.cfi_offset 5, -8
 333              		.cfi_offset 14, -4
 334              	.LVL39:
 261:cy_eink_library/pervasive_eink_hardware_driver.c ****     /* Variable used to count the number of loops */
 262:cy_eink_library/pervasive_eink_hardware_driver.c ****     uint16_t    loopCounter = 0;
 263:cy_eink_library/pervasive_eink_hardware_driver.c ****     
 264:cy_eink_library/pervasive_eink_hardware_driver.c ****     /* Clear the line buffer with all zeros */
 265:cy_eink_library/pervasive_eink_hardware_driver.c ****     memset(&driverPacket.lineBuffer, 0, sizeof(driverPacket.lineBuffer)) ;
 335              		.loc 1 265 0
 336 0002 434C     		ldr	r4, .L29
 337 0004 6F22     		movs	r2, #111
 338 0006 0021     		movs	r1, #0
 339 0008 2046     		mov	r0, r4
 340 000a FFF7FEFF 		bl	memset
 341              	.LVL40:
 266:cy_eink_library/pervasive_eink_hardware_driver.c ****     
 267:cy_eink_library/pervasive_eink_hardware_driver.c ****     /* Initialize the even data, odd data and scan data pointers */
 268:cy_eink_library/pervasive_eink_hardware_driver.c ****     dataLineEven = &driverPacket.lineDataBySize.even[0];
 342              		.loc 1 268 0
 343 000e 631C     		adds	r3, r4, #1
 344 0010 2367     		str	r3, [r4, #112]
 269:cy_eink_library/pervasive_eink_hardware_driver.c ****     dataLineOdd  = &driverPacket.lineDataBySize.odd[0];
 345              		.loc 1 269 0
 346 0012 04F14E03 		add	r3, r4, #78
 347 0016 6367     		str	r3, [r4, #116]
 270:cy_eink_library/pervasive_eink_hardware_driver.c ****     dataLineScan = &driverPacket.lineDataBySize.scan[0];
 348              		.loc 1 270 0
 349 0018 04F12203 		add	r3, r4, #34
 350 001c A367     		str	r3, [r4, #120]
 271:cy_eink_library/pervasive_eink_hardware_driver.c **** 
 272:cy_eink_library/pervasive_eink_hardware_driver.c ****     /* Check if E-INK driver is busy */
 273:cy_eink_library/pervasive_eink_hardware_driver.c ****     if (Cy_EINK_IsBusy())
 351              		.loc 1 273 0
 352 001e FFF7FEFF 		bl	Cy_EINK_IsBusy
 353              	.LVL41:
 354 0022 38B1     		cbz	r0, .L18
 274:cy_eink_library/pervasive_eink_hardware_driver.c ****     {
 275:cy_eink_library/pervasive_eink_hardware_driver.c ****         /* If the E-INK driver is busy for more than maximum allowed time,
 276:cy_eink_library/pervasive_eink_hardware_driver.c ****            return an error message */
 277:cy_eink_library/pervasive_eink_hardware_driver.c ****         Cy_EINK_Delay (PV_EINK_MAX_PV_EINK_BUSY_TIME);
 355              		.loc 1 277 0
 356 0024 3B4B     		ldr	r3, .L29+4
 357 0026 1B68     		ldr	r3, [r3]
 358 0028 0A20     		movs	r0, #10
ARM GAS  C:\Users\codyg\AppData\Local\Temp\ccQipZVL.s 			page 27


 359 002a 9847     		blx	r3
 360              	.LVL42:
 278:cy_eink_library/pervasive_eink_hardware_driver.c ****         if (Cy_EINK_IsBusy())
 361              		.loc 1 278 0
 362 002c FFF7FEFF 		bl	Cy_EINK_IsBusy
 363              	.LVL43:
 364 0030 0028     		cmp	r0, #0
 365 0032 64D1     		bne	.L23
 366              	.L18:
 279:cy_eink_library/pervasive_eink_hardware_driver.c ****         {
 280:cy_eink_library/pervasive_eink_hardware_driver.c ****             return(PV_EINK_ERROR_BUSY);
 281:cy_eink_library/pervasive_eink_hardware_driver.c ****         }
 282:cy_eink_library/pervasive_eink_hardware_driver.c ****     }
 283:cy_eink_library/pervasive_eink_hardware_driver.c ****     
 284:cy_eink_library/pervasive_eink_hardware_driver.c ****     /* Check the driver ID */
 285:cy_eink_library/pervasive_eink_hardware_driver.c ****     if ((Pv_EINK_ReadByte(PV_EINK_DRIVER_ID_COMMAND_INDEX, 
 367              		.loc 1 285 0
 368 0034 0021     		movs	r1, #0
 369 0036 7220     		movs	r0, #114
 370 0038 FFF7FEFF 		bl	Pv_EINK_ReadByte
 371              	.LVL44:
 372 003c 00F00F00 		and	r0, r0, #15
 373 0040 0228     		cmp	r0, #2
 374 0042 5ED1     		bne	.L24
 286:cy_eink_library/pervasive_eink_hardware_driver.c ****                           PV_EINK_DRIVER_ID_COMMAND_DATA)
 287:cy_eink_library/pervasive_eink_hardware_driver.c ****                           & PV_EINK_DRIVER_ID_MASK)
 288:cy_eink_library/pervasive_eink_hardware_driver.c ****                           != PV_EINK_DRIVER_ID_CHECK)
 289:cy_eink_library/pervasive_eink_hardware_driver.c ****     {
 290:cy_eink_library/pervasive_eink_hardware_driver.c ****         /* Return an error message if incorrect driver ID is received */
 291:cy_eink_library/pervasive_eink_hardware_driver.c ****         return(PV_EINK_ERROR_ID);
 292:cy_eink_library/pervasive_eink_hardware_driver.c ****     }
 293:cy_eink_library/pervasive_eink_hardware_driver.c ****     /* Disable OE */
 294:cy_eink_library/pervasive_eink_hardware_driver.c ****     Pv_EINK_SendByte(PV_EINK_DISABLE_OE_COMMAND_INDEX, 
 375              		.loc 1 294 0
 376 0044 4021     		movs	r1, #64
 377 0046 FFF7FEFF 		bl	Pv_EINK_SendByte
 378              	.LVL45:
 295:cy_eink_library/pervasive_eink_hardware_driver.c ****                      PV_EINK_DISABLE_OE_COMMAND_DATA);
 296:cy_eink_library/pervasive_eink_hardware_driver.c ****     
 297:cy_eink_library/pervasive_eink_hardware_driver.c ****     /* Check Breakage */
 298:cy_eink_library/pervasive_eink_hardware_driver.c ****     if ((Pv_EINK_ReadByte(PV_EINK_TEST_BREAKAGE_COMMAND_INDEX,
 379              		.loc 1 298 0
 380 004a 0021     		movs	r1, #0
 381 004c 0F20     		movs	r0, #15
 382 004e FFF7FEFF 		bl	Pv_EINK_ReadByte
 383              	.LVL46:
 384 0052 10F0800F 		tst	r0, #128
 385 0056 56D0     		beq	.L25
 299:cy_eink_library/pervasive_eink_hardware_driver.c ****                           PV_EINK_TEST_BREAKAGE_COMMAND_DATA) & 
 300:cy_eink_library/pervasive_eink_hardware_driver.c ****                           PV_EINK_TEST_BREAKAGE_MASK)
 301:cy_eink_library/pervasive_eink_hardware_driver.c ****                           != PV_EINK_TEST_BREAKAGE_CHECK)
 302:cy_eink_library/pervasive_eink_hardware_driver.c ****     {
 303:cy_eink_library/pervasive_eink_hardware_driver.c ****         /* Send the error message for breakage */
 304:cy_eink_library/pervasive_eink_hardware_driver.c ****         return(PV_EINK_ERROR_BREAKAGE);
 305:cy_eink_library/pervasive_eink_hardware_driver.c ****     }
 306:cy_eink_library/pervasive_eink_hardware_driver.c ****     /* Power Saving Mode */
 307:cy_eink_library/pervasive_eink_hardware_driver.c ****     Pv_EINK_SendByte(PV_EINK_PWR_SAVING_COMMAND_INDEX, 
ARM GAS  C:\Users\codyg\AppData\Local\Temp\ccQipZVL.s 			page 28


 386              		.loc 1 307 0
 387 0058 0221     		movs	r1, #2
 388 005a 0B20     		movs	r0, #11
 389 005c FFF7FEFF 		bl	Pv_EINK_SendByte
 390              	.LVL47:
 308:cy_eink_library/pervasive_eink_hardware_driver.c ****                   PV_EINK_PWR1_SAVING_COMMAND_DATA);
 309:cy_eink_library/pervasive_eink_hardware_driver.c ****     
 310:cy_eink_library/pervasive_eink_hardware_driver.c ****     /* Channel Select */
 311:cy_eink_library/pervasive_eink_hardware_driver.c ****     Pv_EINK_SendData(PV_EINK_CHANNEL_SEL_COMMAND_INDEX, 
 391              		.loc 1 311 0
 392 0060 0822     		movs	r2, #8
 393 0062 2D49     		ldr	r1, .L29+8
 394 0064 0120     		movs	r0, #1
 395 0066 FFF7FEFF 		bl	Pv_EINK_SendData
 396              	.LVL48:
 312:cy_eink_library/pervasive_eink_hardware_driver.c ****                     (uint8_t*) &channelSelect,
 313:cy_eink_library/pervasive_eink_hardware_driver.c ****                      PV_EINK_CHANNEL_SEL_SIZE);
 314:cy_eink_library/pervasive_eink_hardware_driver.c ****     
 315:cy_eink_library/pervasive_eink_hardware_driver.c ****     /* High Power Mode Oscillator Setting */
 316:cy_eink_library/pervasive_eink_hardware_driver.c ****     Pv_EINK_SendByte(PV_EINK_OSC_SETTING_COMMAND_INDEX, 
 397              		.loc 1 316 0
 398 006a D121     		movs	r1, #209
 399 006c 0720     		movs	r0, #7
 400 006e FFF7FEFF 		bl	Pv_EINK_SendByte
 401              	.LVL49:
 317:cy_eink_library/pervasive_eink_hardware_driver.c ****                      PV_EINK_OSC_SETTING_COMMAND_DATA);
 318:cy_eink_library/pervasive_eink_hardware_driver.c ****     /* Power Setting */
 319:cy_eink_library/pervasive_eink_hardware_driver.c ****     Pv_EINK_SendByte(PV_EINK_PWR1_SETTING_COMMAND_INDEX,
 402              		.loc 1 319 0
 403 0072 0221     		movs	r1, #2
 404 0074 0820     		movs	r0, #8
 405 0076 FFF7FEFF 		bl	Pv_EINK_SendByte
 406              	.LVL50:
 320:cy_eink_library/pervasive_eink_hardware_driver.c ****                      PV_EINK_PWR1_SETTING_COMMAND_DATA);
 321:cy_eink_library/pervasive_eink_hardware_driver.c ****     /* Set Vcom level */
 322:cy_eink_library/pervasive_eink_hardware_driver.c ****     Pv_EINK_SendByte(PV_EINK_VCOM1_LEVEL_COMMAND_INDEX, 
 407              		.loc 1 322 0
 408 007a C221     		movs	r1, #194
 409 007c 0920     		movs	r0, #9
 410 007e FFF7FEFF 		bl	Pv_EINK_SendByte
 411              	.LVL51:
 323:cy_eink_library/pervasive_eink_hardware_driver.c ****                      PV_EINK_VCOM1_LEVEL_COMMAND_DATA);
 324:cy_eink_library/pervasive_eink_hardware_driver.c ****     /* Power Setting */
 325:cy_eink_library/pervasive_eink_hardware_driver.c ****     Pv_EINK_SendByte(PV_EINK_PWR2_SETTING_COMMAND_INDEX,
 412              		.loc 1 325 0
 413 0082 0321     		movs	r1, #3
 414 0084 0420     		movs	r0, #4
 415 0086 FFF7FEFF 		bl	Pv_EINK_SendByte
 416              	.LVL52:
 326:cy_eink_library/pervasive_eink_hardware_driver.c ****                      PV_EINK_PWR2_SETTING_COMMAND_DATA);
 327:cy_eink_library/pervasive_eink_hardware_driver.c ****                   
 328:cy_eink_library/pervasive_eink_hardware_driver.c ****     /* Driver latch on */
 329:cy_eink_library/pervasive_eink_hardware_driver.c ****     Pv_EINK_SendByte(PV_EINK_LATCH_OFF_COMMAND_INDEX,
 417              		.loc 1 329 0
 418 008a 0121     		movs	r1, #1
 419 008c 0320     		movs	r0, #3
 420 008e FFF7FEFF 		bl	Pv_EINK_SendByte
ARM GAS  C:\Users\codyg\AppData\Local\Temp\ccQipZVL.s 			page 29


 421              	.LVL53:
 330:cy_eink_library/pervasive_eink_hardware_driver.c ****                      PV_EINK_LATCH_ON_COMMAND_DATA);
 331:cy_eink_library/pervasive_eink_hardware_driver.c ****     /* Driver latch off */
 332:cy_eink_library/pervasive_eink_hardware_driver.c ****     Pv_EINK_SendByte(PV_EINK_LATCH_OFF_COMMAND_INDEX, 
 422              		.loc 1 332 0
 423 0092 0021     		movs	r1, #0
 424 0094 0320     		movs	r0, #3
 425 0096 FFF7FEFF 		bl	Pv_EINK_SendByte
 426              	.LVL54:
 333:cy_eink_library/pervasive_eink_hardware_driver.c ****                      PV_EINK_LATCH_OFF_COMMAND_DATA);
 334:cy_eink_library/pervasive_eink_hardware_driver.c ****     Cy_EINK_Delay(PV_EINK_PIN_DELAY);
 427              		.loc 1 334 0
 428 009a 1E4B     		ldr	r3, .L29+4
 429 009c 1B68     		ldr	r3, [r3]
 430 009e 0A20     		movs	r0, #10
 431 00a0 9847     		blx	r3
 432              	.LVL55:
 262:cy_eink_library/pervasive_eink_hardware_driver.c ****     
 433              		.loc 1 262 0
 434 00a2 0025     		movs	r5, #0
 435 00a4 00E0     		b	.L22
 436              	.LVL56:
 437              	.L26:
 335:cy_eink_library/pervasive_eink_hardware_driver.c ****     
 336:cy_eink_library/pervasive_eink_hardware_driver.c ****     /* Start the charge pump */
 337:cy_eink_library/pervasive_eink_hardware_driver.c ****     do
 338:cy_eink_library/pervasive_eink_hardware_driver.c ****     {
 339:cy_eink_library/pervasive_eink_hardware_driver.c ****         /* Start charge pump positive voltage (VGH & VDH on) */
 340:cy_eink_library/pervasive_eink_hardware_driver.c ****         Pv_EINK_SendByte(PV_EINK_VGH_VDH_ON_COMMAND_INDEX,
 341:cy_eink_library/pervasive_eink_hardware_driver.c ****                       PV_EINK_VGH_VDH_ON_COMMAND_DATA);
 342:cy_eink_library/pervasive_eink_hardware_driver.c ****         Cy_EINK_Delay(PV_EINK_POSITIVE_V_DELAY);
 343:cy_eink_library/pervasive_eink_hardware_driver.c ****         
 344:cy_eink_library/pervasive_eink_hardware_driver.c ****         /* Start charge pump negative voltage (VGL & VDL on) */
 345:cy_eink_library/pervasive_eink_hardware_driver.c ****         Pv_EINK_SendByte(PV_EINK_VGH_VDH_ON_COMMAND_INDEX,
 346:cy_eink_library/pervasive_eink_hardware_driver.c ****                       PV_EINK_VGL_VDL_ON_COMMAND_DATA);
 347:cy_eink_library/pervasive_eink_hardware_driver.c ****         Cy_EINK_Delay(PV_EINK_PWR_CTRL_DELAY);
 348:cy_eink_library/pervasive_eink_hardware_driver.c ****         
 349:cy_eink_library/pervasive_eink_hardware_driver.c ****         /* Set charge pump (Vcom_Driver on) */
 350:cy_eink_library/pervasive_eink_hardware_driver.c ****         Pv_EINK_SendByte(PV_EINK_VCOM_DRIVE_ON_COMMAND_INDEX,
 351:cy_eink_library/pervasive_eink_hardware_driver.c ****                       PV_EINK_VCOM_DRIVE_ON_COMMAND_DATA);
 352:cy_eink_library/pervasive_eink_hardware_driver.c ****         Cy_EINK_Delay(PV_EINK_PWR_CTRL_DELAY);
 353:cy_eink_library/pervasive_eink_hardware_driver.c ****         
 354:cy_eink_library/pervasive_eink_hardware_driver.c ****         /* Check DC level */
 355:cy_eink_library/pervasive_eink_hardware_driver.c ****         if ((Pv_EINK_ReadByte(PV_EINK_DC_LEVEL_READ_COMMAND_INDEX,
 356:cy_eink_library/pervasive_eink_hardware_driver.c ****                            PV_EINK_DC_LEVEL_READ_COMMAND_DATA) & 
 357:cy_eink_library/pervasive_eink_hardware_driver.c ****                            PV_EINK_DC_LEVEL_MASK)
 358:cy_eink_library/pervasive_eink_hardware_driver.c ****                            != PV_EINK_DC_LEVEL_CHECK)
 359:cy_eink_library/pervasive_eink_hardware_driver.c ****         {
 360:cy_eink_library/pervasive_eink_hardware_driver.c ****             /* Disable OLE */
 361:cy_eink_library/pervasive_eink_hardware_driver.c ****             Pv_EINK_SendByte(PV_EINK_DISABLE_OE_COMMAND_INDEX,
 362:cy_eink_library/pervasive_eink_hardware_driver.c ****                           PV_EINK_DISABLE_OE_COMMAND_DATA);
 363:cy_eink_library/pervasive_eink_hardware_driver.c ****             break;
 364:cy_eink_library/pervasive_eink_hardware_driver.c ****         }
 365:cy_eink_library/pervasive_eink_hardware_driver.c ****     }
 366:cy_eink_library/pervasive_eink_hardware_driver.c ****     /* Perform this operation for required charge pump write cycles */
 367:cy_eink_library/pervasive_eink_hardware_driver.c ****     while ((loopCounter++) != PV_EINK_CHARGE_PUMP_MAX_WRITE);
 438              		.loc 1 367 0
ARM GAS  C:\Users\codyg\AppData\Local\Temp\ccQipZVL.s 			page 30


 439 00a6 1D46     		mov	r5, r3
 440              	.LVL57:
 441              	.L22:
 340:cy_eink_library/pervasive_eink_hardware_driver.c ****                       PV_EINK_VGH_VDH_ON_COMMAND_DATA);
 442              		.loc 1 340 0
 443 00a8 0121     		movs	r1, #1
 444 00aa 0520     		movs	r0, #5
 445 00ac FFF7FEFF 		bl	Pv_EINK_SendByte
 446              	.LVL58:
 342:cy_eink_library/pervasive_eink_hardware_driver.c ****         
 447              		.loc 1 342 0
 448 00b0 184C     		ldr	r4, .L29+4
 449 00b2 2368     		ldr	r3, [r4]
 450 00b4 6420     		movs	r0, #100
 451 00b6 9847     		blx	r3
 452              	.LVL59:
 345:cy_eink_library/pervasive_eink_hardware_driver.c ****                       PV_EINK_VGL_VDL_ON_COMMAND_DATA);
 453              		.loc 1 345 0
 454 00b8 0321     		movs	r1, #3
 455 00ba 0520     		movs	r0, #5
 456 00bc FFF7FEFF 		bl	Pv_EINK_SendByte
 457              	.LVL60:
 347:cy_eink_library/pervasive_eink_hardware_driver.c ****         
 458              		.loc 1 347 0
 459 00c0 2368     		ldr	r3, [r4]
 460 00c2 3220     		movs	r0, #50
 461 00c4 9847     		blx	r3
 462              	.LVL61:
 350:cy_eink_library/pervasive_eink_hardware_driver.c ****                       PV_EINK_VCOM_DRIVE_ON_COMMAND_DATA);
 463              		.loc 1 350 0
 464 00c6 0F21     		movs	r1, #15
 465 00c8 0520     		movs	r0, #5
 466 00ca FFF7FEFF 		bl	Pv_EINK_SendByte
 467              	.LVL62:
 352:cy_eink_library/pervasive_eink_hardware_driver.c ****         
 468              		.loc 1 352 0
 469 00ce 2368     		ldr	r3, [r4]
 470 00d0 3220     		movs	r0, #50
 471 00d2 9847     		blx	r3
 472              	.LVL63:
 355:cy_eink_library/pervasive_eink_hardware_driver.c ****                            PV_EINK_DC_LEVEL_READ_COMMAND_DATA) & 
 473              		.loc 1 355 0
 474 00d4 0021     		movs	r1, #0
 475 00d6 0F20     		movs	r0, #15
 476 00d8 FFF7FEFF 		bl	Pv_EINK_ReadByte
 477              	.LVL64:
 478 00dc 10F0400F 		tst	r0, #64
 479 00e0 05D0     		beq	.L20
 361:cy_eink_library/pervasive_eink_hardware_driver.c ****                           PV_EINK_DISABLE_OE_COMMAND_DATA);
 480              		.loc 1 361 0
 481 00e2 4021     		movs	r1, #64
 482 00e4 0220     		movs	r0, #2
 483 00e6 FFF7FEFF 		bl	Pv_EINK_SendByte
 484              	.LVL65:
 363:cy_eink_library/pervasive_eink_hardware_driver.c ****         }
 485              		.loc 1 363 0
 486 00ea 2B46     		mov	r3, r5
ARM GAS  C:\Users\codyg\AppData\Local\Temp\ccQipZVL.s 			page 31


 487 00ec 03E0     		b	.L21
 488              	.L20:
 489              		.loc 1 367 0
 490 00ee 6B1C     		adds	r3, r5, #1
 491 00f0 9BB2     		uxth	r3, r3
 492              	.LVL66:
 493 00f2 042D     		cmp	r5, #4
 494 00f4 D7D1     		bne	.L26
 495              	.LVL67:
 496              	.L21:
 368:cy_eink_library/pervasive_eink_hardware_driver.c ****     
 369:cy_eink_library/pervasive_eink_hardware_driver.c ****     /* If the operation not completed within the required write cycles, send an 
 370:cy_eink_library/pervasive_eink_hardware_driver.c ****        error message */
 371:cy_eink_library/pervasive_eink_hardware_driver.c ****     if (loopCounter >= PV_EINK_CHARGE_PUMP_MAX_WRITE)
 497              		.loc 1 371 0
 498 00f6 032B     		cmp	r3, #3
 499 00f8 07D9     		bls	.L27
 372:cy_eink_library/pervasive_eink_hardware_driver.c ****     {
 373:cy_eink_library/pervasive_eink_hardware_driver.c ****         return(PV_EINK_ERROR_CHARGEPUMP);
 500              		.loc 1 373 0
 501 00fa 0520     		movs	r0, #5
 502 00fc 38BD     		pop	{r3, r4, r5, pc}
 503              	.LVL68:
 504              	.L23:
 280:cy_eink_library/pervasive_eink_hardware_driver.c ****         }
 505              		.loc 1 280 0
 506 00fe 0120     		movs	r0, #1
 507 0100 38BD     		pop	{r3, r4, r5, pc}
 508              	.L24:
 291:cy_eink_library/pervasive_eink_hardware_driver.c ****     }
 509              		.loc 1 291 0
 510 0102 0220     		movs	r0, #2
 511 0104 38BD     		pop	{r3, r4, r5, pc}
 512              	.L25:
 304:cy_eink_library/pervasive_eink_hardware_driver.c ****     }
 513              		.loc 1 304 0
 514 0106 0320     		movs	r0, #3
 515 0108 38BD     		pop	{r3, r4, r5, pc}
 516              	.LVL69:
 517              	.L27:
 374:cy_eink_library/pervasive_eink_hardware_driver.c ****     }
 375:cy_eink_library/pervasive_eink_hardware_driver.c ****     /* If all operations completed successfully, send the corresponding status 
 376:cy_eink_library/pervasive_eink_hardware_driver.c ****        message */
 377:cy_eink_library/pervasive_eink_hardware_driver.c ****     return(PV_EINK_RES_OK);
 518              		.loc 1 377 0
 519 010a 0020     		movs	r0, #0
 378:cy_eink_library/pervasive_eink_hardware_driver.c **** }
 520              		.loc 1 378 0
 521 010c 38BD     		pop	{r3, r4, r5, pc}
 522              	.LVL70:
 523              	.L30:
 524 010e 00BF     		.align	2
 525              	.L29:
 526 0110 00000000 		.word	.LANCHOR0
 527 0114 00000000 		.word	Cy_EINK_Delay
 528 0118 00000000 		.word	.LANCHOR1
 529              		.cfi_endproc
ARM GAS  C:\Users\codyg\AppData\Local\Temp\ccQipZVL.s 			page 32


 530              	.LFE521:
 531              		.size	Pv_EINK_InitDriver, .-Pv_EINK_InitDriver
 532              		.section	.text.Pv_EINK_SetTempFactor,"ax",%progbits
 533              		.align	2
 534              		.global	Pv_EINK_SetTempFactor
 535              		.thumb
 536              		.thumb_func
 537              		.type	Pv_EINK_SetTempFactor, %function
 538              	Pv_EINK_SetTempFactor:
 539              	.LFB522:
 379:cy_eink_library/pervasive_eink_hardware_driver.c **** 
 380:cy_eink_library/pervasive_eink_hardware_driver.c **** /*******************************************************************************
 381:cy_eink_library/pervasive_eink_hardware_driver.c **** * Function Name: void Pv_EINK_SetTempFactor(int8_t temperature)
 382:cy_eink_library/pervasive_eink_hardware_driver.c **** ********************************************************************************
 383:cy_eink_library/pervasive_eink_hardware_driver.c **** *
 384:cy_eink_library/pervasive_eink_hardware_driver.c **** * Summary: Set the E-INK update cycles per the ambient temperature. For detailed
 385:cy_eink_library/pervasive_eink_hardware_driver.c **** * flow and description, please refer to the driver G2 document Section 5.4.
 386:cy_eink_library/pervasive_eink_hardware_driver.c **** *
 387:cy_eink_library/pervasive_eink_hardware_driver.c **** * Parameters:
 388:cy_eink_library/pervasive_eink_hardware_driver.c **** * int8_t temperature: Ambient temperature in degree Celsius
 389:cy_eink_library/pervasive_eink_hardware_driver.c **** *
 390:cy_eink_library/pervasive_eink_hardware_driver.c **** * Return:
 391:cy_eink_library/pervasive_eink_hardware_driver.c **** *  None
 392:cy_eink_library/pervasive_eink_hardware_driver.c **** *
 393:cy_eink_library/pervasive_eink_hardware_driver.c **** * Side Effects:
 394:cy_eink_library/pervasive_eink_hardware_driver.c **** *  None
 395:cy_eink_library/pervasive_eink_hardware_driver.c **** *******************************************************************************/
 396:cy_eink_library/pervasive_eink_hardware_driver.c **** void Pv_EINK_SetTempFactor(int8_t temperature)
 397:cy_eink_library/pervasive_eink_hardware_driver.c **** {
 540              		.loc 1 397 0
 541              		.cfi_startproc
 542              		@ args = 0, pretend = 0, frame = 0
 543              		@ frame_needed = 0, uses_anonymous_args = 0
 544              		@ link register save eliminated.
 545              	.LVL71:
 398:cy_eink_library/pervasive_eink_hardware_driver.c ****     /* Variable used to store the update cycles */
 399:cy_eink_library/pervasive_eink_hardware_driver.c ****     uint16_t    updateCycles;
 400:cy_eink_library/pervasive_eink_hardware_driver.c ****     
 401:cy_eink_library/pervasive_eink_hardware_driver.c ****     /* Set the update cycles per the temperature table */
 402:cy_eink_library/pervasive_eink_hardware_driver.c ****     if (PV_EINK_TEMP_DEG_M10 >= temperature)
 546              		.loc 1 402 0
 547 0000 10F1090F 		cmn	r0, #9
 548 0004 0ADB     		blt	.L33
 403:cy_eink_library/pervasive_eink_hardware_driver.c ****     {
 404:cy_eink_library/pervasive_eink_hardware_driver.c ****         updateCycles = PV_EINK_TEMP_SEL0;
 405:cy_eink_library/pervasive_eink_hardware_driver.c ****     }
 406:cy_eink_library/pervasive_eink_hardware_driver.c ****     else if (PV_EINK_TEMP_DEG_M5 >= temperature)
 549              		.loc 1 406 0
 550 0006 10F1040F 		cmn	r0, #4
 551 000a 09DB     		blt	.L34
 407:cy_eink_library/pervasive_eink_hardware_driver.c ****     {
 408:cy_eink_library/pervasive_eink_hardware_driver.c ****         updateCycles = PV_EINK_TEMP_SEL1;
 409:cy_eink_library/pervasive_eink_hardware_driver.c ****     }
 410:cy_eink_library/pervasive_eink_hardware_driver.c ****     else if (PV_EINK_TEMP_DEG_5 >= temperature)
 552              		.loc 1 410 0
 553 000c 0528     		cmp	r0, #5
 554 000e 09DD     		ble	.L35
ARM GAS  C:\Users\codyg\AppData\Local\Temp\ccQipZVL.s 			page 33


 411:cy_eink_library/pervasive_eink_hardware_driver.c ****     {
 412:cy_eink_library/pervasive_eink_hardware_driver.c ****         updateCycles = PV_EINK_TEMP_SEL2;
 413:cy_eink_library/pervasive_eink_hardware_driver.c ****     }
 414:cy_eink_library/pervasive_eink_hardware_driver.c ****     else if (PV_EINK_TEMP_DEG_10 >= temperature)
 555              		.loc 1 414 0
 556 0010 0A28     		cmp	r0, #10
 557 0012 09DD     		ble	.L36
 415:cy_eink_library/pervasive_eink_hardware_driver.c ****     {
 416:cy_eink_library/pervasive_eink_hardware_driver.c ****         updateCycles = PV_EINK_TEMP_SEL3;
 417:cy_eink_library/pervasive_eink_hardware_driver.c ****     }
 418:cy_eink_library/pervasive_eink_hardware_driver.c ****     else if (PV_EINK_TEMP_DEG_15 >= temperature)
 558              		.loc 1 418 0
 559 0014 0F28     		cmp	r0, #15
 560 0016 09DC     		bgt	.L37
 419:cy_eink_library/pervasive_eink_hardware_driver.c ****     {
 420:cy_eink_library/pervasive_eink_hardware_driver.c ****         updateCycles = PV_EINK_TEMP_SEL4;
 561              		.loc 1 420 0
 562 0018 0322     		movs	r2, #3
 563 001a 08E0     		b	.L32
 564              	.L33:
 404:cy_eink_library/pervasive_eink_hardware_driver.c ****     }
 565              		.loc 1 404 0
 566 001c 0922     		movs	r2, #9
 567 001e 06E0     		b	.L32
 568              	.L34:
 408:cy_eink_library/pervasive_eink_hardware_driver.c ****     }
 569              		.loc 1 408 0
 570 0020 0722     		movs	r2, #7
 571 0022 04E0     		b	.L32
 572              	.L35:
 412:cy_eink_library/pervasive_eink_hardware_driver.c ****     }
 573              		.loc 1 412 0
 574 0024 0522     		movs	r2, #5
 575 0026 02E0     		b	.L32
 576              	.L36:
 416:cy_eink_library/pervasive_eink_hardware_driver.c ****     }
 577              		.loc 1 416 0
 578 0028 0422     		movs	r2, #4
 579 002a 00E0     		b	.L32
 580              	.L37:
 421:cy_eink_library/pervasive_eink_hardware_driver.c ****     }
 422:cy_eink_library/pervasive_eink_hardware_driver.c ****     else if (PV_EINK_TEMP_DEG_20 >= temperature)
 423:cy_eink_library/pervasive_eink_hardware_driver.c ****     {
 424:cy_eink_library/pervasive_eink_hardware_driver.c ****         updateCycles = PV_EINK_TEMP_SEL5;
 581              		.loc 1 424 0
 582 002c 0122     		movs	r2, #1
 583              	.L32:
 584              	.LVL72:
 425:cy_eink_library/pervasive_eink_hardware_driver.c ****     }
 426:cy_eink_library/pervasive_eink_hardware_driver.c ****     else if (PV_EINK_TEMP_DEG_40 >= temperature)
 427:cy_eink_library/pervasive_eink_hardware_driver.c ****     {
 428:cy_eink_library/pervasive_eink_hardware_driver.c ****         updateCycles = PV_EINK_TEMP_SEL6;
 429:cy_eink_library/pervasive_eink_hardware_driver.c ****     }
 430:cy_eink_library/pervasive_eink_hardware_driver.c ****     else
 431:cy_eink_library/pervasive_eink_hardware_driver.c ****     {
 432:cy_eink_library/pervasive_eink_hardware_driver.c ****         updateCycles = PV_EINK_TEMP_SEL7;
 433:cy_eink_library/pervasive_eink_hardware_driver.c ****     }
ARM GAS  C:\Users\codyg\AppData\Local\Temp\ccQipZVL.s 			page 34


 434:cy_eink_library/pervasive_eink_hardware_driver.c ****     
 435:cy_eink_library/pervasive_eink_hardware_driver.c ****     /* Scale the update cycles : this is a speed-contrast trade-off */
 436:cy_eink_library/pervasive_eink_hardware_driver.c ****     fullUpdateCycles = updateCycles * PV_EINK_SCALING_FULL;
 585              		.loc 1 436 0
 586 002e 034B     		ldr	r3, .L38
 587 0030 A3F87C20 		strh	r2, [r3, #124]	@ movhi
 437:cy_eink_library/pervasive_eink_hardware_driver.c ****     partialUpdateCycles = updateCycles * PV_EINK_SCALING_PARTIAL;
 588              		.loc 1 437 0
 589 0034 A3F87E20 		strh	r2, [r3, #126]	@ movhi
 590 0038 7047     		bx	lr
 591              	.L39:
 592 003a 00BF     		.align	2
 593              	.L38:
 594 003c 00000000 		.word	.LANCHOR0
 595              		.cfi_endproc
 596              	.LFE522:
 597              		.size	Pv_EINK_SetTempFactor, .-Pv_EINK_SetTempFactor
 598              		.section	.text.Pv_EINK_FullStageHandler,"ax",%progbits
 599              		.align	2
 600              		.global	Pv_EINK_FullStageHandler
 601              		.thumb
 602              		.thumb_func
 603              		.type	Pv_EINK_FullStageHandler, %function
 604              	Pv_EINK_FullStageHandler:
 605              	.LFB523:
 438:cy_eink_library/pervasive_eink_hardware_driver.c **** }
 439:cy_eink_library/pervasive_eink_hardware_driver.c **** 
 440:cy_eink_library/pervasive_eink_hardware_driver.c **** /*******************************************************************************
 441:cy_eink_library/pervasive_eink_hardware_driver.c **** * Function Name: void Pv_EINK_FullStageHandler(pv_eink_frame_data_t* imagePtr,
 442:cy_eink_library/pervasive_eink_hardware_driver.c **** *                                              pv_eink_stage_t stageNumber)
 443:cy_eink_library/pervasive_eink_hardware_driver.c **** ********************************************************************************
 444:cy_eink_library/pervasive_eink_hardware_driver.c **** *
 445:cy_eink_library/pervasive_eink_hardware_driver.c **** * Summary: The full update driving stages for getting Odd and Even bytes, and
 446:cy_eink_library/pervasive_eink_hardware_driver.c **** * then writing the data from memory array to E-INK driver.
 447:cy_eink_library/pervasive_eink_hardware_driver.c **** *
 448:cy_eink_library/pervasive_eink_hardware_driver.c **** * One dot/pixel is comprised of 2 bits that can be White(10), Black(11) or 
 449:cy_eink_library/pervasive_eink_hardware_driver.c **** * Nothing * (01 or 00). The image data bytes must be divided into Odd and Even 
 450:cy_eink_library/pervasive_eink_hardware_driver.c **** * bytes.
 451:cy_eink_library/pervasive_eink_hardware_driver.c **** * Line data flow is first half of data bytes -> scan bytes -> second half of 
 452:cy_eink_library/pervasive_eink_hardware_driver.c **** * data bytes. For more details on the driving stages, please refer to the driver
 453:cy_eink_library/pervasive_eink_hardware_driver.c **** * G2 document Section 5.
 454:cy_eink_library/pervasive_eink_hardware_driver.c **** *
 455:cy_eink_library/pervasive_eink_hardware_driver.c **** * Parameters:
 456:cy_eink_library/pervasive_eink_hardware_driver.c **** * pv_eink_frame_data_t* imagePtr    : The pointer to the memory that contains a
 457:cy_eink_library/pervasive_eink_hardware_driver.c **** *                                     frame
 458:cy_eink_library/pervasive_eink_hardware_driver.c **** * pv_eink_stage_t stageNumber       : The assigned stage number
 459:cy_eink_library/pervasive_eink_hardware_driver.c **** *
 460:cy_eink_library/pervasive_eink_hardware_driver.c **** * Return:
 461:cy_eink_library/pervasive_eink_hardware_driver.c **** *  None
 462:cy_eink_library/pervasive_eink_hardware_driver.c **** *
 463:cy_eink_library/pervasive_eink_hardware_driver.c **** * Side Effects:
 464:cy_eink_library/pervasive_eink_hardware_driver.c **** *  This is a blocking function. CPU will be busy during the entire operation,
 465:cy_eink_library/pervasive_eink_hardware_driver.c **** * which can be 1 to 2 seconds.
 466:cy_eink_library/pervasive_eink_hardware_driver.c **** *******************************************************************************/
 467:cy_eink_library/pervasive_eink_hardware_driver.c **** void Pv_EINK_FullStageHandler(pv_eink_frame_data_t* imagePtr, 
 468:cy_eink_library/pervasive_eink_hardware_driver.c ****                               pv_eink_stage_t stageNumber)
 469:cy_eink_library/pervasive_eink_hardware_driver.c **** {
ARM GAS  C:\Users\codyg\AppData\Local\Temp\ccQipZVL.s 			page 35


 606              		.loc 1 469 0
 607              		.cfi_startproc
 608              		@ args = 0, pretend = 0, frame = 0
 609              		@ frame_needed = 0, uses_anonymous_args = 0
 610              	.LVL73:
 611 0000 2DE9F84F 		push	{r3, r4, r5, r6, r7, r8, r9, r10, fp, lr}
 612              		.cfi_def_cfa_offset 40
 613              		.cfi_offset 3, -40
 614              		.cfi_offset 4, -36
 615              		.cfi_offset 5, -32
 616              		.cfi_offset 6, -28
 617              		.cfi_offset 7, -24
 618              		.cfi_offset 8, -20
 619              		.cfi_offset 9, -16
 620              		.cfi_offset 10, -12
 621              		.cfi_offset 11, -8
 622              		.cfi_offset 14, -4
 623 0004 0646     		mov	r6, r0
 624 0006 0D46     		mov	r5, r1
 625              	.LVL74:
 470:cy_eink_library/pervasive_eink_hardware_driver.c ****     /* Counter variable for the horizontal pixel loop */
 471:cy_eink_library/pervasive_eink_hardware_driver.c ****     uint16_t    x;
 472:cy_eink_library/pervasive_eink_hardware_driver.c ****     /* Counter variable for the vertical pixel loop */
 473:cy_eink_library/pervasive_eink_hardware_driver.c ****     uint16_t    y;
 474:cy_eink_library/pervasive_eink_hardware_driver.c ****     /* Counter variable for the horizontal byte loop */
 475:cy_eink_library/pervasive_eink_hardware_driver.c ****     uint16_t    k;
 476:cy_eink_library/pervasive_eink_hardware_driver.c ****     
 477:cy_eink_library/pervasive_eink_hardware_driver.c ****     /* Counter variable for write cycles */
 478:cy_eink_library/pervasive_eink_hardware_driver.c ****     uint16_t    currentWriteCycle;
 479:cy_eink_library/pervasive_eink_hardware_driver.c ****       
 480:cy_eink_library/pervasive_eink_hardware_driver.c ****     /* Variable for storing the line number under scan */
 481:cy_eink_library/pervasive_eink_hardware_driver.c ****     int16       scanlineNumber = 0;
 482:cy_eink_library/pervasive_eink_hardware_driver.c ****     
 483:cy_eink_library/pervasive_eink_hardware_driver.c ****     /* Temporary storage for image data byte */
 484:cy_eink_library/pervasive_eink_hardware_driver.c ****     uint8_t     tempByte = *imagePtr;
 626              		.loc 1 484 0
 627 0008 0478     		ldrb	r4, [r0]	@ zero_extendqisi2
 628              	.LVL75:
 485:cy_eink_library/pervasive_eink_hardware_driver.c ****     
 486:cy_eink_library/pervasive_eink_hardware_driver.c ****     /* Flag to check if the current pointer is a macro of white/black frame */
 487:cy_eink_library/pervasive_eink_hardware_driver.c ****     bool        blackOrWhiteFrame;
 488:cy_eink_library/pervasive_eink_hardware_driver.c ****     
 489:cy_eink_library/pervasive_eink_hardware_driver.c ****     /* If the current pointer is a macro of the white frame */
 490:cy_eink_library/pervasive_eink_hardware_driver.c ****     if (imagePtr == PV_EINK_WHITE_FRAME_ADDRESS)
 629              		.loc 1 490 0
 630 000a 28B1     		cbz	r0, .L89
 491:cy_eink_library/pervasive_eink_hardware_driver.c ****     {
 492:cy_eink_library/pervasive_eink_hardware_driver.c ****         /* Set the white/black frame flag */
 493:cy_eink_library/pervasive_eink_hardware_driver.c ****         blackOrWhiteFrame = true;
 494:cy_eink_library/pervasive_eink_hardware_driver.c ****         /* Set the tempByte to white pixel byte */
 495:cy_eink_library/pervasive_eink_hardware_driver.c ****         tempByte = PV_EINK_WHITE_PIXEL_BYTE;
 496:cy_eink_library/pervasive_eink_hardware_driver.c ****         
 497:cy_eink_library/pervasive_eink_hardware_driver.c ****     }
 498:cy_eink_library/pervasive_eink_hardware_driver.c ****     /* If the current pointer is a macro of the black frame */
 499:cy_eink_library/pervasive_eink_hardware_driver.c ****     else if (imagePtr == PV_EINK_BLACK_FRAME_ADDRESS)
 631              		.loc 1 499 0
 632 000c CE4B     		ldr	r3, .L125
ARM GAS  C:\Users\codyg\AppData\Local\Temp\ccQipZVL.s 			page 36


 633 000e 9842     		cmp	r0, r3
 634 0010 05D1     		bne	.L90
 500:cy_eink_library/pervasive_eink_hardware_driver.c ****     {
 501:cy_eink_library/pervasive_eink_hardware_driver.c ****          /* Set the white/black frame flag */
 502:cy_eink_library/pervasive_eink_hardware_driver.c ****         blackOrWhiteFrame = true;
 635              		.loc 1 502 0
 636 0012 0127     		movs	r7, #1
 503:cy_eink_library/pervasive_eink_hardware_driver.c ****         /* set the tempByte to black pixel byte */
 504:cy_eink_library/pervasive_eink_hardware_driver.c ****         tempByte = PV_EINK_BLACK_PIXEL_BYTE;
 637              		.loc 1 504 0
 638 0014 0024     		movs	r4, #0
 639              	.LVL76:
 640 0016 03E0     		b	.L41
 641              	.LVL77:
 642              	.L89:
 493:cy_eink_library/pervasive_eink_hardware_driver.c ****         /* Set the tempByte to white pixel byte */
 643              		.loc 1 493 0
 644 0018 0127     		movs	r7, #1
 495:cy_eink_library/pervasive_eink_hardware_driver.c ****         
 645              		.loc 1 495 0
 646 001a FF24     		movs	r4, #255
 647              	.LVL78:
 648 001c 00E0     		b	.L41
 649              	.LVL79:
 650              	.L90:
 505:cy_eink_library/pervasive_eink_hardware_driver.c ****     }
 506:cy_eink_library/pervasive_eink_hardware_driver.c ****     /* If the current pointer is of an image stored in flash */
 507:cy_eink_library/pervasive_eink_hardware_driver.c ****     else
 508:cy_eink_library/pervasive_eink_hardware_driver.c ****     {
 509:cy_eink_library/pervasive_eink_hardware_driver.c ****         /* Clear the white/black frame flag */
 510:cy_eink_library/pervasive_eink_hardware_driver.c ****         blackOrWhiteFrame = false;
 651              		.loc 1 510 0
 652 001e 0027     		movs	r7, #0
 653              	.LVL80:
 654              	.L41:
 511:cy_eink_library/pervasive_eink_hardware_driver.c ****     }
 512:cy_eink_library/pervasive_eink_hardware_driver.c **** 
 513:cy_eink_library/pervasive_eink_hardware_driver.c ****     /* Vertical pixel loop */
 514:cy_eink_library/pervasive_eink_hardware_driver.c ****     for (y = 0; y < PV_EINK_VERTICAL_SIZE; y++)
 655              		.loc 1 514 0
 656 0020 4FF00008 		mov	r8, #0
 657 0024 D0E1     		b	.L42
 658              	.LVL81:
 659              	.L85:
 515:cy_eink_library/pervasive_eink_hardware_driver.c ****     {
 516:cy_eink_library/pervasive_eink_hardware_driver.c ****         /* Clear the line buffer with all zeros */
 517:cy_eink_library/pervasive_eink_hardware_driver.c ****         memset(&bulkDriverPacket[y].lineBuffer, 0, 
 660              		.loc 1 517 0
 661 0026 C8EBC80A 		rsb	r10, r8, r8, lsl #3
 662 002a C8EB0A1A 		rsb	r10, r8, r10, lsl #4
 663 002e DFF82093 		ldr	r9, .L125+8
 664 0032 0AEB090B 		add	fp, r10, r9
 665 0036 6F22     		movs	r2, #111
 666 0038 0021     		movs	r1, #0
 667 003a 5846     		mov	r0, fp
 668 003c FFF7FEFF 		bl	memset
 669              	.LVL82:
ARM GAS  C:\Users\codyg\AppData\Local\Temp\ccQipZVL.s 			page 37


 518:cy_eink_library/pervasive_eink_hardware_driver.c ****                sizeof(bulkDriverPacket[y].lineBuffer)) ;
 519:cy_eink_library/pervasive_eink_hardware_driver.c **** 
 520:cy_eink_library/pervasive_eink_hardware_driver.c ****         /* Initialize the even data, odd data and scan data pointers */
 521:cy_eink_library/pervasive_eink_hardware_driver.c ****         dataLineEven = &bulkDriverPacket[y].lineDataBySize.even[0];
 670              		.loc 1 521 0
 671 0040 0BF1010E 		add	lr, fp, #1
 672 0044 C14B     		ldr	r3, .L125+4
 673 0046 C3F870E0 		str	lr, [r3, #112]
 522:cy_eink_library/pervasive_eink_hardware_driver.c ****         dataLineOdd  = &bulkDriverPacket[y].lineDataBySize.odd[0];
 674              		.loc 1 522 0
 675 004a 0AF14800 		add	r0, r10, #72
 676 004e 4844     		add	r0, r0, r9
 677 0050 0630     		adds	r0, r0, #6
 678 0052 5867     		str	r0, [r3, #116]
 523:cy_eink_library/pervasive_eink_hardware_driver.c ****         dataLineScan = &bulkDriverPacket[y].lineDataBySize.scan[0];
 679              		.loc 1 523 0
 680 0054 0AF1200A 		add	r10, r10, #32
 681 0058 D144     		add	r9, r9, r10
 682 005a 09F10209 		add	r9, r9, #2
 683 005e C3F87890 		str	r9, [r3, #120]
 684              	.LVL83:
 524:cy_eink_library/pervasive_eink_hardware_driver.c ****         
 525:cy_eink_library/pervasive_eink_hardware_driver.c ****         /* Horizontal bytes initialization */
 526:cy_eink_library/pervasive_eink_hardware_driver.c ****         k = PV_EINK_HORIZONTAL_SIZE;
 527:cy_eink_library/pervasive_eink_hardware_driver.c ****         k--;
 685              		.loc 1 527 0
 686 0062 2022     		movs	r2, #32
 528:cy_eink_library/pervasive_eink_hardware_driver.c ****         
 529:cy_eink_library/pervasive_eink_hardware_driver.c ****         /* Horizontal pixel loop */
 530:cy_eink_library/pervasive_eink_hardware_driver.c ****         for (x = 0; x < PV_EINK_HORIZONTAL_SIZE; x++)
 687              		.loc 1 530 0
 688 0064 0023     		movs	r3, #0
 689 0066 97E1     		b	.L43
 690              	.LVL84:
 691              	.L83:
 531:cy_eink_library/pervasive_eink_hardware_driver.c ****         {
 532:cy_eink_library/pervasive_eink_hardware_driver.c ****             /* If the current pointer is of an image stored in flash */
 533:cy_eink_library/pervasive_eink_hardware_driver.c ****             if(!blackOrWhiteFrame)
 692              		.loc 1 533 0
 693 0068 0FB9     		cbnz	r7, .L44
 694              	.LVL85:
 534:cy_eink_library/pervasive_eink_hardware_driver.c ****             {
 535:cy_eink_library/pervasive_eink_hardware_driver.c ****                 /* Fetch successive data bytes */
 536:cy_eink_library/pervasive_eink_hardware_driver.c ****                 tempByte = *imagePtr++;
 695              		.loc 1 536 0
 696 006a 3478     		ldrb	r4, [r6]	@ zero_extendqisi2
 697              	.LVL86:
 698 006c 0136     		adds	r6, r6, #1
 699              	.LVL87:
 700              	.L44:
 537:cy_eink_library/pervasive_eink_hardware_driver.c ****             }
 538:cy_eink_library/pervasive_eink_hardware_driver.c ****             /* Perform one of the four stage operations */
 539:cy_eink_library/pervasive_eink_hardware_driver.c ****             switch (stageNumber)
 701              		.loc 1 539 0
 702 006e 032D     		cmp	r5, #3
 703 0070 00F29081 		bhi	.L45
 704 0074 DFE815F0 		tbh	[pc, r5, lsl #1]
ARM GAS  C:\Users\codyg\AppData\Local\Temp\ccQipZVL.s 			page 38


 705              	.L47:
 706 0078 0400     		.2byte	(.L46-.L47)/2
 707 007a 6500     		.2byte	(.L48-.L47)/2
 708 007c C600     		.2byte	(.L49-.L47)/2
 709 007e 2701     		.2byte	(.L50-.L47)/2
 710              		.p2align 1
 711              	.L46:
 540:cy_eink_library/pervasive_eink_hardware_driver.c ****             {
 541:cy_eink_library/pervasive_eink_hardware_driver.c ****             /* Stage 1: Calculate the inverted Even and Odd bytes of 
 542:cy_eink_library/pervasive_eink_hardware_driver.c ****                the previous image data */
 543:cy_eink_library/pervasive_eink_hardware_driver.c ****             case PV_EINK_STAGE1:
 544:cy_eink_library/pervasive_eink_hardware_driver.c ****                 dataLineOdd[x]       = ((tempByte & PV_EINK_ODD_MASK_A)  ? 
 712              		.loc 1 544 0
 713 0080 00EB030C 		add	ip, r0, r3
 714 0084 14F0400F 		tst	r4, #64
 715 0088 01D0     		beq	.L91
 716 008a C021     		movs	r1, #192
 717 008c 00E0     		b	.L51
 718              	.L91:
 719 008e 8021     		movs	r1, #128
 720              	.L51:
 721              		.loc 1 544 0 is_stmt 0 discriminator 4
 722 0090 8CF80010 		strb	r1, [ip]
 545:cy_eink_library/pervasive_eink_hardware_driver.c ****                                         PV_EINK_BLACK3 : PV_EINK_WHITE3);
 546:cy_eink_library/pervasive_eink_hardware_driver.c ****                 dataLineOdd[x]      |= ((tempByte & PV_EINK_ODD_MASK_B)  ? 
 723              		.loc 1 546 0 is_stmt 1 discriminator 4
 724 0094 49B2     		sxtb	r1, r1
 725 0096 14F0100F 		tst	r4, #16
 726 009a 02D0     		beq	.L92
 727              		.loc 1 546 0 is_stmt 0
 728 009c 4FF0300A 		mov	r10, #48
 729 00a0 01E0     		b	.L52
 730              	.L92:
 731 00a2 4FF0200A 		mov	r10, #32
 732              	.L52:
 733              		.loc 1 546 0 discriminator 4
 734 00a6 4AEA0101 		orr	r1, r10, r1
 735 00aa 8CF80010 		strb	r1, [ip]
 547:cy_eink_library/pervasive_eink_hardware_driver.c ****                                         PV_EINK_BLACK2 : PV_EINK_WHITE2);
 548:cy_eink_library/pervasive_eink_hardware_driver.c ****                 dataLineOdd[x]      |= ((tempByte & PV_EINK_ODD_MASK_C)  ? 
 736              		.loc 1 548 0 is_stmt 1 discriminator 4
 737 00ae 14F0040F 		tst	r4, #4
 738 00b2 02D0     		beq	.L93
 739              		.loc 1 548 0 is_stmt 0
 740 00b4 4FF00C0A 		mov	r10, #12
 741 00b8 01E0     		b	.L53
 742              	.L93:
 743 00ba 4FF0080A 		mov	r10, #8
 744              	.L53:
 745              		.loc 1 548 0 discriminator 4
 746 00be 4AEA0101 		orr	r1, r10, r1
 747 00c2 8CF80010 		strb	r1, [ip]
 549:cy_eink_library/pervasive_eink_hardware_driver.c ****                                         PV_EINK_BLACK1 : PV_EINK_WHITE1);
 550:cy_eink_library/pervasive_eink_hardware_driver.c ****                 dataLineOdd[x]      |= ((tempByte & PV_EINK_ODD_MASK_D)  ? 
 748              		.loc 1 550 0 is_stmt 1 discriminator 4
 749 00c6 14F0010F 		tst	r4, #1
 750 00ca 02D0     		beq	.L94
ARM GAS  C:\Users\codyg\AppData\Local\Temp\ccQipZVL.s 			page 39


 751              		.loc 1 550 0 is_stmt 0
 752 00cc 4FF0030A 		mov	r10, #3
 753 00d0 01E0     		b	.L54
 754              	.L94:
 755 00d2 4FF0020A 		mov	r10, #2
 756              	.L54:
 757              		.loc 1 550 0 discriminator 4
 758 00d6 4AEA0101 		orr	r1, r10, r1
 759 00da 8CF80010 		strb	r1, [ip]
 551:cy_eink_library/pervasive_eink_hardware_driver.c ****                                         PV_EINK_BLACK0 : PV_EINK_WHITE0);
 552:cy_eink_library/pervasive_eink_hardware_driver.c ****                 dataLineEven[k]      = ((tempByte & PV_EINK_EVEN_MASK_A) ? 
 760              		.loc 1 552 0 is_stmt 1 discriminator 4
 761 00de 0EEB020C 		add	ip, lr, r2
 762 00e2 14F0800F 		tst	r4, #128
 763 00e6 01D0     		beq	.L95
 764              		.loc 1 552 0 is_stmt 0
 765 00e8 0321     		movs	r1, #3
 766 00ea 00E0     		b	.L55
 767              	.L95:
 768 00ec 0221     		movs	r1, #2
 769              	.L55:
 770              		.loc 1 552 0 discriminator 4
 771 00ee 8CF80010 		strb	r1, [ip]
 553:cy_eink_library/pervasive_eink_hardware_driver.c ****                                         PV_EINK_BLACK0 : PV_EINK_WHITE0);
 554:cy_eink_library/pervasive_eink_hardware_driver.c ****                 dataLineEven[k]     |= ((tempByte & PV_EINK_EVEN_MASK_B) ? 
 772              		.loc 1 554 0 is_stmt 1 discriminator 4
 773 00f2 49B2     		sxtb	r1, r1
 774 00f4 14F0200F 		tst	r4, #32
 775 00f8 02D0     		beq	.L96
 776              		.loc 1 554 0 is_stmt 0
 777 00fa 4FF00C0A 		mov	r10, #12
 778 00fe 01E0     		b	.L56
 779              	.L96:
 780 0100 4FF0080A 		mov	r10, #8
 781              	.L56:
 782              		.loc 1 554 0 discriminator 4
 783 0104 4AEA0101 		orr	r1, r10, r1
 784 0108 8CF80010 		strb	r1, [ip]
 555:cy_eink_library/pervasive_eink_hardware_driver.c ****                                         PV_EINK_BLACK1 : PV_EINK_WHITE1);
 556:cy_eink_library/pervasive_eink_hardware_driver.c ****                 dataLineEven[k]     |= ((tempByte & PV_EINK_EVEN_MASK_C) ? 
 785              		.loc 1 556 0 is_stmt 1 discriminator 4
 786 010c 14F0080F 		tst	r4, #8
 787 0110 02D0     		beq	.L97
 788              		.loc 1 556 0 is_stmt 0
 789 0112 4FF0300A 		mov	r10, #48
 790 0116 01E0     		b	.L57
 791              	.L97:
 792 0118 4FF0200A 		mov	r10, #32
 793              	.L57:
 794              		.loc 1 556 0 discriminator 4
 795 011c 4AEA0101 		orr	r1, r10, r1
 796 0120 8CF80010 		strb	r1, [ip]
 557:cy_eink_library/pervasive_eink_hardware_driver.c ****                                         PV_EINK_BLACK2 : PV_EINK_WHITE2);
 558:cy_eink_library/pervasive_eink_hardware_driver.c ****                 dataLineEven[k--]   |= ((tempByte & PV_EINK_EVEN_MASK_D) ? 
 797              		.loc 1 558 0 is_stmt 1 discriminator 4
 798 0124 013A     		subs	r2, r2, #1
 799              	.LVL88:
ARM GAS  C:\Users\codyg\AppData\Local\Temp\ccQipZVL.s 			page 40


 800 0126 92B2     		uxth	r2, r2
 801              	.LVL89:
 802 0128 14F0020F 		tst	r4, #2
 803 012c 02D0     		beq	.L98
 804              		.loc 1 558 0 is_stmt 0
 805 012e 6FF03F0A 		mvn	r10, #63
 806 0132 01E0     		b	.L58
 807              	.L98:
 808 0134 6FF07F0A 		mvn	r10, #127
 809              	.L58:
 810              		.loc 1 558 0 discriminator 4
 811 0138 4AEA0101 		orr	r1, r10, r1
 812 013c 8CF80010 		strb	r1, [ip]
 559:cy_eink_library/pervasive_eink_hardware_driver.c ****                                         PV_EINK_BLACK3 : PV_EINK_WHITE3);
 560:cy_eink_library/pervasive_eink_hardware_driver.c ****                 break;
 813              		.loc 1 560 0 is_stmt 1 discriminator 4
 814 0140 28E1     		b	.L45
 815              	.L48:
 561:cy_eink_library/pervasive_eink_hardware_driver.c ****             /* Stage 2: Calculate the Even and Odd bytes of an all-white
 562:cy_eink_library/pervasive_eink_hardware_driver.c ****                frame */
 563:cy_eink_library/pervasive_eink_hardware_driver.c ****             case PV_EINK_STAGE2:
 564:cy_eink_library/pervasive_eink_hardware_driver.c ****                 dataLineOdd[x]       = ((tempByte & PV_EINK_ODD_MASK_A)  ? 
 816              		.loc 1 564 0
 817 0142 00EB030C 		add	ip, r0, r3
 818 0146 14F0400F 		tst	r4, #64
 819 014a 01D0     		beq	.L99
 820 014c 8021     		movs	r1, #128
 821 014e 00E0     		b	.L59
 822              	.L99:
 823 0150 4021     		movs	r1, #64
 824              	.L59:
 825              		.loc 1 564 0 is_stmt 0 discriminator 4
 826 0152 8CF80010 		strb	r1, [ip]
 565:cy_eink_library/pervasive_eink_hardware_driver.c ****                                         PV_EINK_WHITE3 : PV_EINK_NOTHING3);
 566:cy_eink_library/pervasive_eink_hardware_driver.c ****                 dataLineOdd[x]      |= ((tempByte & PV_EINK_ODD_MASK_B)  ? 
 827              		.loc 1 566 0 is_stmt 1 discriminator 4
 828 0156 49B2     		sxtb	r1, r1
 829 0158 14F0100F 		tst	r4, #16
 830 015c 02D0     		beq	.L100
 831              		.loc 1 566 0 is_stmt 0
 832 015e 4FF0200A 		mov	r10, #32
 833 0162 01E0     		b	.L60
 834              	.L100:
 835 0164 4FF0100A 		mov	r10, #16
 836              	.L60:
 837              		.loc 1 566 0 discriminator 4
 838 0168 4AEA0101 		orr	r1, r10, r1
 839 016c 8CF80010 		strb	r1, [ip]
 567:cy_eink_library/pervasive_eink_hardware_driver.c ****                                         PV_EINK_WHITE2 : PV_EINK_NOTHING2);
 568:cy_eink_library/pervasive_eink_hardware_driver.c ****                 dataLineOdd[x]      |= ((tempByte & PV_EINK_ODD_MASK_C)  ? 
 840              		.loc 1 568 0 is_stmt 1 discriminator 4
 841 0170 14F0040F 		tst	r4, #4
 842 0174 02D0     		beq	.L101
 843              		.loc 1 568 0 is_stmt 0
 844 0176 4FF0080A 		mov	r10, #8
 845 017a 01E0     		b	.L61
 846              	.L101:
ARM GAS  C:\Users\codyg\AppData\Local\Temp\ccQipZVL.s 			page 41


 847 017c 4FF0040A 		mov	r10, #4
 848              	.L61:
 849              		.loc 1 568 0 discriminator 4
 850 0180 4AEA0101 		orr	r1, r10, r1
 851 0184 8CF80010 		strb	r1, [ip]
 569:cy_eink_library/pervasive_eink_hardware_driver.c ****                                         PV_EINK_WHITE1 : PV_EINK_NOTHING1);
 570:cy_eink_library/pervasive_eink_hardware_driver.c ****                 dataLineOdd[x]      |= ((tempByte & PV_EINK_ODD_MASK_D)  ? 
 852              		.loc 1 570 0 is_stmt 1 discriminator 4
 853 0188 14F0010F 		tst	r4, #1
 854 018c 02D0     		beq	.L102
 855              		.loc 1 570 0 is_stmt 0
 856 018e 4FF0020A 		mov	r10, #2
 857 0192 01E0     		b	.L62
 858              	.L102:
 859 0194 4FF0010A 		mov	r10, #1
 860              	.L62:
 861              		.loc 1 570 0 discriminator 4
 862 0198 4AEA0101 		orr	r1, r10, r1
 863 019c 8CF80010 		strb	r1, [ip]
 571:cy_eink_library/pervasive_eink_hardware_driver.c ****                                         PV_EINK_WHITE0 : PV_EINK_NOTHING0);
 572:cy_eink_library/pervasive_eink_hardware_driver.c ****                 dataLineEven[k]      = ((tempByte & PV_EINK_EVEN_MASK_A) ?
 864              		.loc 1 572 0 is_stmt 1 discriminator 4
 865 01a0 0EEB020C 		add	ip, lr, r2
 866 01a4 14F0800F 		tst	r4, #128
 867 01a8 01D0     		beq	.L103
 868              		.loc 1 572 0 is_stmt 0
 869 01aa 0221     		movs	r1, #2
 870 01ac 00E0     		b	.L63
 871              	.L103:
 872 01ae 0121     		movs	r1, #1
 873              	.L63:
 874              		.loc 1 572 0 discriminator 4
 875 01b0 8CF80010 		strb	r1, [ip]
 573:cy_eink_library/pervasive_eink_hardware_driver.c ****                                         PV_EINK_WHITE0 : PV_EINK_NOTHING0);
 574:cy_eink_library/pervasive_eink_hardware_driver.c ****                 dataLineEven[k]     |= ((tempByte & PV_EINK_EVEN_MASK_B) ? 
 876              		.loc 1 574 0 is_stmt 1 discriminator 4
 877 01b4 49B2     		sxtb	r1, r1
 878 01b6 14F0200F 		tst	r4, #32
 879 01ba 02D0     		beq	.L104
 880              		.loc 1 574 0 is_stmt 0
 881 01bc 4FF0080A 		mov	r10, #8
 882 01c0 01E0     		b	.L64
 883              	.L104:
 884 01c2 4FF0040A 		mov	r10, #4
 885              	.L64:
 886              		.loc 1 574 0 discriminator 4
 887 01c6 4AEA0101 		orr	r1, r10, r1
 888 01ca 8CF80010 		strb	r1, [ip]
 575:cy_eink_library/pervasive_eink_hardware_driver.c ****                                         PV_EINK_WHITE1 : PV_EINK_NOTHING1);
 576:cy_eink_library/pervasive_eink_hardware_driver.c ****                 dataLineEven[k]     |= ((tempByte & PV_EINK_EVEN_MASK_C) ? 
 889              		.loc 1 576 0 is_stmt 1 discriminator 4
 890 01ce 14F0080F 		tst	r4, #8
 891 01d2 02D0     		beq	.L105
 892              		.loc 1 576 0 is_stmt 0
 893 01d4 4FF0200A 		mov	r10, #32
 894 01d8 01E0     		b	.L65
 895              	.L105:
ARM GAS  C:\Users\codyg\AppData\Local\Temp\ccQipZVL.s 			page 42


 896 01da 4FF0100A 		mov	r10, #16
 897              	.L65:
 898              		.loc 1 576 0 discriminator 4
 899 01de 4AEA0101 		orr	r1, r10, r1
 900 01e2 8CF80010 		strb	r1, [ip]
 577:cy_eink_library/pervasive_eink_hardware_driver.c ****                                         PV_EINK_WHITE2 : PV_EINK_NOTHING2);
 578:cy_eink_library/pervasive_eink_hardware_driver.c ****                 dataLineEven[k--]   |= ((tempByte & PV_EINK_EVEN_MASK_D) ? 
 901              		.loc 1 578 0 is_stmt 1 discriminator 4
 902 01e6 013A     		subs	r2, r2, #1
 903              	.LVL90:
 904 01e8 92B2     		uxth	r2, r2
 905              	.LVL91:
 906 01ea 14F0020F 		tst	r4, #2
 907 01ee 02D0     		beq	.L106
 908              		.loc 1 578 0 is_stmt 0
 909 01f0 6FF07F0A 		mvn	r10, #127
 910 01f4 01E0     		b	.L66
 911              	.L106:
 912 01f6 4FF0400A 		mov	r10, #64
 913              	.L66:
 914              		.loc 1 578 0 discriminator 4
 915 01fa 4AEA0101 		orr	r1, r10, r1
 916 01fe 8CF80010 		strb	r1, [ip]
 579:cy_eink_library/pervasive_eink_hardware_driver.c ****                                         PV_EINK_WHITE3 : PV_EINK_NOTHING3);
 580:cy_eink_library/pervasive_eink_hardware_driver.c ****                 break;
 917              		.loc 1 580 0 is_stmt 1 discriminator 4
 918 0202 C7E0     		b	.L45
 919              	.L49:
 581:cy_eink_library/pervasive_eink_hardware_driver.c ****             /* Stage 3: Calculate the inverted Even and Odd bytes of the
 582:cy_eink_library/pervasive_eink_hardware_driver.c ****                new image data */
 583:cy_eink_library/pervasive_eink_hardware_driver.c ****             case PV_EINK_STAGE3:
 584:cy_eink_library/pervasive_eink_hardware_driver.c ****                 dataLineOdd[x]       = ((tempByte & PV_EINK_ODD_MASK_A)  ? 
 920              		.loc 1 584 0
 921 0204 00EB030C 		add	ip, r0, r3
 922 0208 14F0400F 		tst	r4, #64
 923 020c 01D0     		beq	.L107
 924 020e C021     		movs	r1, #192
 925 0210 00E0     		b	.L67
 926              	.L107:
 927 0212 4021     		movs	r1, #64
 928              	.L67:
 929              		.loc 1 584 0 is_stmt 0 discriminator 4
 930 0214 8CF80010 		strb	r1, [ip]
 585:cy_eink_library/pervasive_eink_hardware_driver.c ****                                         PV_EINK_BLACK3 : PV_EINK_NOTHING3);
 586:cy_eink_library/pervasive_eink_hardware_driver.c ****                 dataLineOdd[x]      |= ((tempByte & PV_EINK_ODD_MASK_B)  ? 
 931              		.loc 1 586 0 is_stmt 1 discriminator 4
 932 0218 49B2     		sxtb	r1, r1
 933 021a 14F0100F 		tst	r4, #16
 934 021e 02D0     		beq	.L108
 935              		.loc 1 586 0 is_stmt 0
 936 0220 4FF0300A 		mov	r10, #48
 937 0224 01E0     		b	.L68
 938              	.L108:
 939 0226 4FF0100A 		mov	r10, #16
 940              	.L68:
 941              		.loc 1 586 0 discriminator 4
 942 022a 4AEA0101 		orr	r1, r10, r1
ARM GAS  C:\Users\codyg\AppData\Local\Temp\ccQipZVL.s 			page 43


 943 022e 8CF80010 		strb	r1, [ip]
 587:cy_eink_library/pervasive_eink_hardware_driver.c ****                                         PV_EINK_BLACK2 : PV_EINK_NOTHING2);
 588:cy_eink_library/pervasive_eink_hardware_driver.c ****                 dataLineOdd[x]      |= ((tempByte & PV_EINK_ODD_MASK_C)  ?
 944              		.loc 1 588 0 is_stmt 1 discriminator 4
 945 0232 14F0040F 		tst	r4, #4
 946 0236 02D0     		beq	.L109
 947              		.loc 1 588 0 is_stmt 0
 948 0238 4FF00C0A 		mov	r10, #12
 949 023c 01E0     		b	.L69
 950              	.L109:
 951 023e 4FF0040A 		mov	r10, #4
 952              	.L69:
 953              		.loc 1 588 0 discriminator 4
 954 0242 4AEA0101 		orr	r1, r10, r1
 955 0246 8CF80010 		strb	r1, [ip]
 589:cy_eink_library/pervasive_eink_hardware_driver.c ****                                         PV_EINK_BLACK1 : PV_EINK_NOTHING1);
 590:cy_eink_library/pervasive_eink_hardware_driver.c ****                 dataLineOdd[x]      |= ((tempByte & PV_EINK_ODD_MASK_D)  ?
 956              		.loc 1 590 0 is_stmt 1 discriminator 4
 957 024a 14F0010F 		tst	r4, #1
 958 024e 02D0     		beq	.L110
 959              		.loc 1 590 0 is_stmt 0
 960 0250 4FF0030A 		mov	r10, #3
 961 0254 01E0     		b	.L70
 962              	.L110:
 963 0256 4FF0010A 		mov	r10, #1
 964              	.L70:
 965              		.loc 1 590 0 discriminator 4
 966 025a 4AEA0101 		orr	r1, r10, r1
 967 025e 8CF80010 		strb	r1, [ip]
 591:cy_eink_library/pervasive_eink_hardware_driver.c ****                                         PV_EINK_BLACK0 : PV_EINK_NOTHING0);
 592:cy_eink_library/pervasive_eink_hardware_driver.c ****                 dataLineEven[k]      = ((tempByte & PV_EINK_EVEN_MASK_A) ?
 968              		.loc 1 592 0 is_stmt 1 discriminator 4
 969 0262 0EEB020C 		add	ip, lr, r2
 970 0266 14F0800F 		tst	r4, #128
 971 026a 01D0     		beq	.L111
 972              		.loc 1 592 0 is_stmt 0
 973 026c 0321     		movs	r1, #3
 974 026e 00E0     		b	.L71
 975              	.L111:
 976 0270 0121     		movs	r1, #1
 977              	.L71:
 978              		.loc 1 592 0 discriminator 4
 979 0272 8CF80010 		strb	r1, [ip]
 593:cy_eink_library/pervasive_eink_hardware_driver.c ****                                         PV_EINK_BLACK0 : PV_EINK_NOTHING0);
 594:cy_eink_library/pervasive_eink_hardware_driver.c ****                 dataLineEven[k]     |= ((tempByte & PV_EINK_EVEN_MASK_B) ? 
 980              		.loc 1 594 0 is_stmt 1 discriminator 4
 981 0276 49B2     		sxtb	r1, r1
 982 0278 14F0200F 		tst	r4, #32
 983 027c 02D0     		beq	.L112
 984              		.loc 1 594 0 is_stmt 0
 985 027e 4FF00C0A 		mov	r10, #12
 986 0282 01E0     		b	.L72
 987              	.L112:
 988 0284 4FF0040A 		mov	r10, #4
 989              	.L72:
 990              		.loc 1 594 0 discriminator 4
 991 0288 4AEA0101 		orr	r1, r10, r1
ARM GAS  C:\Users\codyg\AppData\Local\Temp\ccQipZVL.s 			page 44


 992 028c 8CF80010 		strb	r1, [ip]
 595:cy_eink_library/pervasive_eink_hardware_driver.c ****                                         PV_EINK_BLACK1 : PV_EINK_NOTHING1);
 596:cy_eink_library/pervasive_eink_hardware_driver.c ****                 dataLineEven[k]     |= ((tempByte & PV_EINK_EVEN_MASK_C) ? 
 993              		.loc 1 596 0 is_stmt 1 discriminator 4
 994 0290 14F0080F 		tst	r4, #8
 995 0294 02D0     		beq	.L113
 996              		.loc 1 596 0 is_stmt 0
 997 0296 4FF0300A 		mov	r10, #48
 998 029a 01E0     		b	.L73
 999              	.L113:
 1000 029c 4FF0100A 		mov	r10, #16
 1001              	.L73:
 1002              		.loc 1 596 0 discriminator 4
 1003 02a0 4AEA0101 		orr	r1, r10, r1
 1004 02a4 8CF80010 		strb	r1, [ip]
 597:cy_eink_library/pervasive_eink_hardware_driver.c ****                                         PV_EINK_BLACK2 : PV_EINK_NOTHING2);
 598:cy_eink_library/pervasive_eink_hardware_driver.c ****                 dataLineEven[k--]   |= ((tempByte & PV_EINK_EVEN_MASK_D) ? 
 1005              		.loc 1 598 0 is_stmt 1 discriminator 4
 1006 02a8 013A     		subs	r2, r2, #1
 1007              	.LVL92:
 1008 02aa 92B2     		uxth	r2, r2
 1009              	.LVL93:
 1010 02ac 14F0020F 		tst	r4, #2
 1011 02b0 02D0     		beq	.L114
 1012              		.loc 1 598 0 is_stmt 0
 1013 02b2 6FF03F0A 		mvn	r10, #63
 1014 02b6 01E0     		b	.L74
 1015              	.L114:
 1016 02b8 4FF0400A 		mov	r10, #64
 1017              	.L74:
 1018              		.loc 1 598 0 discriminator 4
 1019 02bc 4AEA0101 		orr	r1, r10, r1
 1020 02c0 8CF80010 		strb	r1, [ip]
 599:cy_eink_library/pervasive_eink_hardware_driver.c ****                                         PV_EINK_BLACK3 : PV_EINK_NOTHING3);
 600:cy_eink_library/pervasive_eink_hardware_driver.c ****                 break;
 1021              		.loc 1 600 0 is_stmt 1 discriminator 4
 1022 02c4 66E0     		b	.L45
 1023              	.L50:
 601:cy_eink_library/pervasive_eink_hardware_driver.c ****             /* Stage 4: Calculate the Even and Odd bytes of new image 
 602:cy_eink_library/pervasive_eink_hardware_driver.c ****                data */
 603:cy_eink_library/pervasive_eink_hardware_driver.c ****             case PV_EINK_STAGE4:
 604:cy_eink_library/pervasive_eink_hardware_driver.c ****                 dataLineOdd[x]       = ((tempByte & PV_EINK_ODD_MASK_A)  ? 
 1024              		.loc 1 604 0
 1025 02c6 00EB030C 		add	ip, r0, r3
 1026 02ca 14F0400F 		tst	r4, #64
 1027 02ce 01D0     		beq	.L115
 1028 02d0 8021     		movs	r1, #128
 1029 02d2 00E0     		b	.L75
 1030              	.L115:
 1031 02d4 C021     		movs	r1, #192
 1032              	.L75:
 1033              		.loc 1 604 0 is_stmt 0 discriminator 4
 1034 02d6 8CF80010 		strb	r1, [ip]
 605:cy_eink_library/pervasive_eink_hardware_driver.c ****                                         PV_EINK_WHITE3 : PV_EINK_BLACK3);
 606:cy_eink_library/pervasive_eink_hardware_driver.c ****                 dataLineOdd[x]      |= ((tempByte & PV_EINK_ODD_MASK_B)  ?
 1035              		.loc 1 606 0 is_stmt 1 discriminator 4
 1036 02da 49B2     		sxtb	r1, r1
ARM GAS  C:\Users\codyg\AppData\Local\Temp\ccQipZVL.s 			page 45


 1037 02dc 14F0100F 		tst	r4, #16
 1038 02e0 02D0     		beq	.L116
 1039              		.loc 1 606 0 is_stmt 0
 1040 02e2 4FF0200A 		mov	r10, #32
 1041 02e6 01E0     		b	.L76
 1042              	.L116:
 1043 02e8 4FF0300A 		mov	r10, #48
 1044              	.L76:
 1045              		.loc 1 606 0 discriminator 4
 1046 02ec 4AEA0101 		orr	r1, r10, r1
 1047 02f0 8CF80010 		strb	r1, [ip]
 607:cy_eink_library/pervasive_eink_hardware_driver.c ****                                         PV_EINK_WHITE2 : PV_EINK_BLACK2);
 608:cy_eink_library/pervasive_eink_hardware_driver.c ****                 dataLineOdd[x]      |= ((tempByte & PV_EINK_ODD_MASK_C)  ? 
 1048              		.loc 1 608 0 is_stmt 1 discriminator 4
 1049 02f4 14F0040F 		tst	r4, #4
 1050 02f8 02D0     		beq	.L117
 1051              		.loc 1 608 0 is_stmt 0
 1052 02fa 4FF0080A 		mov	r10, #8
 1053 02fe 01E0     		b	.L77
 1054              	.L117:
 1055 0300 4FF00C0A 		mov	r10, #12
 1056              	.L77:
 1057              		.loc 1 608 0 discriminator 4
 1058 0304 4AEA0101 		orr	r1, r10, r1
 1059 0308 8CF80010 		strb	r1, [ip]
 609:cy_eink_library/pervasive_eink_hardware_driver.c ****                                         PV_EINK_WHITE1 : PV_EINK_BLACK1);
 610:cy_eink_library/pervasive_eink_hardware_driver.c ****                 dataLineOdd[x]      |= ((tempByte & PV_EINK_ODD_MASK_D)  ? 
 1060              		.loc 1 610 0 is_stmt 1 discriminator 4
 1061 030c 14F0010F 		tst	r4, #1
 1062 0310 02D0     		beq	.L118
 1063              		.loc 1 610 0 is_stmt 0
 1064 0312 4FF0020A 		mov	r10, #2
 1065 0316 01E0     		b	.L78
 1066              	.L118:
 1067 0318 4FF0030A 		mov	r10, #3
 1068              	.L78:
 1069              		.loc 1 610 0 discriminator 4
 1070 031c 4AEA0101 		orr	r1, r10, r1
 1071 0320 8CF80010 		strb	r1, [ip]
 611:cy_eink_library/pervasive_eink_hardware_driver.c ****                                         PV_EINK_WHITE0 : PV_EINK_BLACK0);
 612:cy_eink_library/pervasive_eink_hardware_driver.c ****                 dataLineEven[k]     = ((tempByte & PV_EINK_EVEN_MASK_A)  ? 
 1072              		.loc 1 612 0 is_stmt 1 discriminator 4
 1073 0324 0EEB020C 		add	ip, lr, r2
 1074 0328 14F0800F 		tst	r4, #128
 1075 032c 01D0     		beq	.L119
 1076              		.loc 1 612 0 is_stmt 0
 1077 032e 0221     		movs	r1, #2
 1078 0330 00E0     		b	.L79
 1079              	.L119:
 1080 0332 0321     		movs	r1, #3
 1081              	.L79:
 1082              		.loc 1 612 0 discriminator 4
 1083 0334 8CF80010 		strb	r1, [ip]
 613:cy_eink_library/pervasive_eink_hardware_driver.c ****                                         PV_EINK_WHITE0 : PV_EINK_BLACK0);
 614:cy_eink_library/pervasive_eink_hardware_driver.c ****                 dataLineEven[k]     |= ((tempByte & PV_EINK_EVEN_MASK_B) ? 
 1084              		.loc 1 614 0 is_stmt 1 discriminator 4
 1085 0338 49B2     		sxtb	r1, r1
ARM GAS  C:\Users\codyg\AppData\Local\Temp\ccQipZVL.s 			page 46


 1086 033a 14F0200F 		tst	r4, #32
 1087 033e 09D0     		beq	.L120
 1088              		.loc 1 614 0 is_stmt 0
 1089 0340 4FF0080A 		mov	r10, #8
 1090 0344 08E0     		b	.L80
 1091              	.L126:
 1092 0346 00BF     		.align	2
 1093              	.L125:
 1094 0348 FFFF0F10 		.word	269484031
 1095 034c 00000000 		.word	.LANCHOR0
 1096 0350 00000000 		.word	bulkDriverPacket
 1097              	.L120:
 1098 0354 4FF00C0A 		mov	r10, #12
 1099              	.L80:
 1100              		.loc 1 614 0 discriminator 4
 1101 0358 4AEA0101 		orr	r1, r10, r1
 1102 035c 8CF80010 		strb	r1, [ip]
 615:cy_eink_library/pervasive_eink_hardware_driver.c ****                                         PV_EINK_WHITE1 : PV_EINK_BLACK1);
 616:cy_eink_library/pervasive_eink_hardware_driver.c ****                 dataLineEven[k]     |= ((tempByte & PV_EINK_EVEN_MASK_C) ?
 1103              		.loc 1 616 0 is_stmt 1 discriminator 4
 1104 0360 14F0080F 		tst	r4, #8
 1105 0364 02D0     		beq	.L121
 1106              		.loc 1 616 0 is_stmt 0
 1107 0366 4FF0200A 		mov	r10, #32
 1108 036a 01E0     		b	.L81
 1109              	.L121:
 1110 036c 4FF0300A 		mov	r10, #48
 1111              	.L81:
 1112              		.loc 1 616 0 discriminator 4
 1113 0370 4AEA0101 		orr	r1, r10, r1
 1114 0374 8CF80010 		strb	r1, [ip]
 617:cy_eink_library/pervasive_eink_hardware_driver.c ****                                         PV_EINK_WHITE2 : PV_EINK_BLACK2);
 618:cy_eink_library/pervasive_eink_hardware_driver.c ****                 dataLineEven[k--]   |= ((tempByte & PV_EINK_EVEN_MASK_D) ? 
 1115              		.loc 1 618 0 is_stmt 1 discriminator 4
 1116 0378 013A     		subs	r2, r2, #1
 1117              	.LVL94:
 1118 037a 92B2     		uxth	r2, r2
 1119              	.LVL95:
 1120 037c 14F0020F 		tst	r4, #2
 1121 0380 02D0     		beq	.L122
 1122              		.loc 1 618 0 is_stmt 0
 1123 0382 6FF07F0A 		mvn	r10, #127
 1124 0386 01E0     		b	.L82
 1125              	.L122:
 1126 0388 6FF03F0A 		mvn	r10, #63
 1127              	.L82:
 1128              		.loc 1 618 0 discriminator 4
 1129 038c 4AEA0101 		orr	r1, r10, r1
 1130 0390 8CF80010 		strb	r1, [ip]
 1131              	.L45:
 530:cy_eink_library/pervasive_eink_hardware_driver.c ****         {
 1132              		.loc 1 530 0 is_stmt 1 discriminator 2
 1133 0394 0133     		adds	r3, r3, #1
 1134              	.LVL96:
 1135 0396 9BB2     		uxth	r3, r3
 1136              	.LVL97:
 1137              	.L43:
ARM GAS  C:\Users\codyg\AppData\Local\Temp\ccQipZVL.s 			page 47


 530:cy_eink_library/pervasive_eink_hardware_driver.c ****         {
 1138              		.loc 1 530 0 is_stmt 0 discriminator 1
 1139 0398 202B     		cmp	r3, #32
 1140 039a 7FF665AE 		bls	.L83
 1141              	.LVL98:
 619:cy_eink_library/pervasive_eink_hardware_driver.c ****                                         PV_EINK_WHITE3 : PV_EINK_BLACK3);
 620:cy_eink_library/pervasive_eink_hardware_driver.c ****                 break;
 621:cy_eink_library/pervasive_eink_hardware_driver.c ****             }
 622:cy_eink_library/pervasive_eink_hardware_driver.c ****         }
 623:cy_eink_library/pervasive_eink_hardware_driver.c ****         /* Move onto the next line */
 624:cy_eink_library/pervasive_eink_hardware_driver.c ****         scanlineNumber = PV_EINK_VERTICAL_SIZE - y;
 625:cy_eink_library/pervasive_eink_hardware_driver.c ****         scanlineNumber--;
 1142              		.loc 1 625 0 is_stmt 1 discriminator 2
 1143 039e C8F1AF03 		rsb	r3, r8, #175
 1144              	.LVL99:
 1145 03a2 1BB2     		sxth	r3, r3
 1146              	.LVL100:
 626:cy_eink_library/pervasive_eink_hardware_driver.c ****         
 627:cy_eink_library/pervasive_eink_hardware_driver.c ****         /* Shift Scan byte according to the data line */
 628:cy_eink_library/pervasive_eink_hardware_driver.c ****         dataLineScan[(scanlineNumber >> PV_EINK_PIXEL_SIZE)] = scanTable
 1147              		.loc 1 628 0 discriminator 2
 1148 03a4 9910     		asrs	r1, r3, #2
 629:cy_eink_library/pervasive_eink_hardware_driver.c ****                             [(scanlineNumber % PV_EINK_SCAN_TABLE_SIZE)];
 1149              		.loc 1 629 0 discriminator 2
 1150 03a6 1A4A     		ldr	r2, .L127
 1151              	.LVL101:
 1152 03a8 1340     		ands	r3, r3, r2
 1153              	.LVL102:
 1154 03aa 03D5     		bpl	.L84
 1155 03ac 013B     		subs	r3, r3, #1
 1156 03ae 63F00303 		orn	r3, r3, #3
 1157 03b2 0133     		adds	r3, r3, #1
 1158              	.L84:
 1159 03b4 174A     		ldr	r2, .L127+4
 1160 03b6 02FA83F3 		sxtah	r3, r2, r3
 1161 03ba 1B7A     		ldrb	r3, [r3, #8]	@ zero_extendqisi2
 628:cy_eink_library/pervasive_eink_hardware_driver.c ****                             [(scanlineNumber % PV_EINK_SCAN_TABLE_SIZE)];
 1162              		.loc 1 628 0 discriminator 2
 1163 03bc 09F80130 		strb	r3, [r9, r1]
 514:cy_eink_library/pervasive_eink_hardware_driver.c ****     {
 1164              		.loc 1 514 0 discriminator 2
 1165 03c0 08F10108 		add	r8, r8, #1
 1166              	.LVL103:
 1167 03c4 1FFA88F8 		uxth	r8, r8
 1168              	.LVL104:
 1169              	.L42:
 514:cy_eink_library/pervasive_eink_hardware_driver.c ****     {
 1170              		.loc 1 514 0 is_stmt 0 discriminator 1
 1171 03c8 B8F1AF0F 		cmp	r8, #175
 1172 03cc 7FF62BAE 		bls	.L85
 1173 03d0 0025     		movs	r5, #0
 1174 03d2 15E0     		b	.L86
 1175              	.LVL105:
 1176              	.L87:
 630:cy_eink_library/pervasive_eink_hardware_driver.c ****             
 631:cy_eink_library/pervasive_eink_hardware_driver.c ****     }
 632:cy_eink_library/pervasive_eink_hardware_driver.c ****             
ARM GAS  C:\Users\codyg\AppData\Local\Temp\ccQipZVL.s 			page 48


 633:cy_eink_library/pervasive_eink_hardware_driver.c ****     /* Perform update operation until the total number of write cycles equals 
 634:cy_eink_library/pervasive_eink_hardware_driver.c ****        the value calculated based on temperature */
 635:cy_eink_library/pervasive_eink_hardware_driver.c ****     for (currentWriteCycle = 0; currentWriteCycle < fullUpdateCycles;
 636:cy_eink_library/pervasive_eink_hardware_driver.c ****          currentWriteCycle++)
 637:cy_eink_library/pervasive_eink_hardware_driver.c ****     {
 638:cy_eink_library/pervasive_eink_hardware_driver.c ****         /* Perform a line by line update */
 639:cy_eink_library/pervasive_eink_hardware_driver.c ****         for (y = 0; y < PV_EINK_VERTICAL_SIZE; y++)
 640:cy_eink_library/pervasive_eink_hardware_driver.c ****         {
 641:cy_eink_library/pervasive_eink_hardware_driver.c ****             /* Send the prepared data to the E-INK display */
 642:cy_eink_library/pervasive_eink_hardware_driver.c ****             Pv_EINK_SendData(PV_EINK_PIXEL_DATA_COMMAND_INDEX,
 643:cy_eink_library/pervasive_eink_hardware_driver.c ****                           (uint8_t*) &bulkDriverPacket[y].lineBuffer,
 1177              		.loc 1 643 0 is_stmt 1 discriminator 3
 1178 03d4 C4EBC403 		rsb	r3, r4, r4, lsl #3
 1179 03d8 C4EB0313 		rsb	r3, r4, r3, lsl #4
 642:cy_eink_library/pervasive_eink_hardware_driver.c ****                           (uint8_t*) &bulkDriverPacket[y].lineBuffer,
 1180              		.loc 1 642 0 discriminator 3
 1181 03dc 6F22     		movs	r2, #111
 1182 03de 0E49     		ldr	r1, .L127+8
 1183 03e0 1944     		add	r1, r1, r3
 1184 03e2 0A20     		movs	r0, #10
 1185 03e4 FFF7FEFF 		bl	Pv_EINK_SendData
 1186              	.LVL106:
 644:cy_eink_library/pervasive_eink_hardware_driver.c ****                           PV_EINK_DATA_LINE_SIZE);
 645:cy_eink_library/pervasive_eink_hardware_driver.c ****                           
 646:cy_eink_library/pervasive_eink_hardware_driver.c ****             /* Turn on Output Enable to latch the frame */
 647:cy_eink_library/pervasive_eink_hardware_driver.c ****             Pv_EINK_SendByte(PV_EINK_ENABLE_OE_COMMAND_INDEX,
 1187              		.loc 1 647 0 discriminator 3
 1188 03e8 0721     		movs	r1, #7
 1189 03ea 0220     		movs	r0, #2
 1190 03ec FFF7FEFF 		bl	Pv_EINK_SendByte
 1191              	.LVL107:
 639:cy_eink_library/pervasive_eink_hardware_driver.c ****         {
 1192              		.loc 1 639 0 discriminator 3
 1193 03f0 0134     		adds	r4, r4, #1
 1194              	.LVL108:
 1195 03f2 A4B2     		uxth	r4, r4
 1196              	.LVL109:
 1197 03f4 00E0     		b	.L88
 1198              	.LVL110:
 1199              	.L123:
 1200 03f6 0024     		movs	r4, #0
 1201              	.L88:
 1202              	.LVL111:
 639:cy_eink_library/pervasive_eink_hardware_driver.c ****         {
 1203              		.loc 1 639 0 is_stmt 0 discriminator 1
 1204 03f8 AF2C     		cmp	r4, #175
 1205 03fa EBD9     		bls	.L87
 636:cy_eink_library/pervasive_eink_hardware_driver.c ****     {
 1206              		.loc 1 636 0 is_stmt 1
 1207 03fc 0135     		adds	r5, r5, #1
 1208              	.LVL112:
 1209 03fe ADB2     		uxth	r5, r5
 1210              	.LVL113:
 1211              	.L86:
 635:cy_eink_library/pervasive_eink_hardware_driver.c ****          currentWriteCycle++)
 1212              		.loc 1 635 0 discriminator 1
 1213 0400 064B     		ldr	r3, .L127+12
ARM GAS  C:\Users\codyg\AppData\Local\Temp\ccQipZVL.s 			page 49


 1214 0402 B3F87C30 		ldrh	r3, [r3, #124]
 1215 0406 9D42     		cmp	r5, r3
 1216 0408 F5D3     		bcc	.L123
 648:cy_eink_library/pervasive_eink_hardware_driver.c ****                           PV_EINK_ENABLE_OE_COMMAND_DATA);
 649:cy_eink_library/pervasive_eink_hardware_driver.c ****         }
 650:cy_eink_library/pervasive_eink_hardware_driver.c ****     
 651:cy_eink_library/pervasive_eink_hardware_driver.c ****     }
 652:cy_eink_library/pervasive_eink_hardware_driver.c **** }
 1217              		.loc 1 652 0
 1218 040a BDE8F88F 		pop	{r3, r4, r5, r6, r7, r8, r9, r10, fp, pc}
 1219              	.LVL114:
 1220              	.L128:
 1221 040e 00BF     		.align	2
 1222              	.L127:
 1223 0410 03000080 		.word	-2147483645
 1224 0414 00000000 		.word	.LANCHOR1
 1225 0418 00000000 		.word	bulkDriverPacket
 1226 041c 00000000 		.word	.LANCHOR0
 1227              		.cfi_endproc
 1228              	.LFE523:
 1229              		.size	Pv_EINK_FullStageHandler, .-Pv_EINK_FullStageHandler
 1230              		.section	.text.Pv_EINK_PartialStageHandler,"ax",%progbits
 1231              		.align	2
 1232              		.global	Pv_EINK_PartialStageHandler
 1233              		.thumb
 1234              		.thumb_func
 1235              		.type	Pv_EINK_PartialStageHandler, %function
 1236              	Pv_EINK_PartialStageHandler:
 1237              	.LFB524:
 653:cy_eink_library/pervasive_eink_hardware_driver.c **** 
 654:cy_eink_library/pervasive_eink_hardware_driver.c **** /*******************************************************************************
 655:cy_eink_library/pervasive_eink_hardware_driver.c **** * Function Name:  void Pv_EINK_PartialStageHandler(pv_eink_frame_data_t* 
 656:cy_eink_library/pervasive_eink_hardware_driver.c ****                             previousImagePtr, pv_eink_frame_data_t* newImagePtr)
 657:cy_eink_library/pervasive_eink_hardware_driver.c **** ********************************************************************************
 658:cy_eink_library/pervasive_eink_hardware_driver.c **** *
 659:cy_eink_library/pervasive_eink_hardware_driver.c **** * Summary: The partial update driving stage for getting Odd and Even bytes, and
 660:cy_eink_library/pervasive_eink_hardware_driver.c **** * then writing the data from memory array to E-INK driver.
 661:cy_eink_library/pervasive_eink_hardware_driver.c **** *
 662:cy_eink_library/pervasive_eink_hardware_driver.c **** * Partial update is similar to the last stage of full update. If the new data 
 663:cy_eink_library/pervasive_eink_hardware_driver.c **** * byte is same as previous data byte, send a "nothing" pixel, so that E-INK 
 664:cy_eink_library/pervasive_eink_hardware_driver.c **** * pixel won't be altered. If the new data byte is different from the previous 
 665:cy_eink_library/pervasive_eink_hardware_driver.c **** * data byte, send the new data byte.
 666:cy_eink_library/pervasive_eink_hardware_driver.c **** * For more details on the driving stages, please refer to the driver G2 document
 667:cy_eink_library/pervasive_eink_hardware_driver.c **** * Section 5.
 668:cy_eink_library/pervasive_eink_hardware_driver.c **** *
 669:cy_eink_library/pervasive_eink_hardware_driver.c **** * Parameters:
 670:cy_eink_library/pervasive_eink_hardware_driver.c **** * pv_eink_frame_data_t* previousImagePtr : Pointer to the memory that contains 
 671:cy_eink_library/pervasive_eink_hardware_driver.c **** *                                    previous frame written to the E-INK display
 672:cy_eink_library/pervasive_eink_hardware_driver.c **** * pv_eink_frame_data_t* newImagePtr      : Pointer to the memory that contains a 
 673:cy_eink_library/pervasive_eink_hardware_driver.c **** *                       new frame which needs to be written to the E-INK display
 674:cy_eink_library/pervasive_eink_hardware_driver.c **** *
 675:cy_eink_library/pervasive_eink_hardware_driver.c **** * Return:
 676:cy_eink_library/pervasive_eink_hardware_driver.c **** *  None
 677:cy_eink_library/pervasive_eink_hardware_driver.c **** *
 678:cy_eink_library/pervasive_eink_hardware_driver.c **** * Side Effects:
 679:cy_eink_library/pervasive_eink_hardware_driver.c **** *  This is a blocking function. CPU will be busy during the entire operation,
 680:cy_eink_library/pervasive_eink_hardware_driver.c **** *  which can be 1 to 2 seconds. 
ARM GAS  C:\Users\codyg\AppData\Local\Temp\ccQipZVL.s 			page 50


 681:cy_eink_library/pervasive_eink_hardware_driver.c **** *******************************************************************************/
 682:cy_eink_library/pervasive_eink_hardware_driver.c **** void Pv_EINK_PartialStageHandler(pv_eink_frame_data_t* previousImagePtr, 
 683:cy_eink_library/pervasive_eink_hardware_driver.c ****                                  pv_eink_frame_data_t* newImagePtr)
 684:cy_eink_library/pervasive_eink_hardware_driver.c **** {
 1238              		.loc 1 684 0
 1239              		.cfi_startproc
 1240              		@ args = 0, pretend = 0, frame = 0
 1241              		@ frame_needed = 0, uses_anonymous_args = 0
 1242              	.LVL115:
 1243 0000 2DE9F047 		push	{r4, r5, r6, r7, r8, r9, r10, lr}
 1244              		.cfi_def_cfa_offset 32
 1245              		.cfi_offset 4, -32
 1246              		.cfi_offset 5, -28
 1247              		.cfi_offset 6, -24
 1248              		.cfi_offset 7, -20
 1249              		.cfi_offset 8, -16
 1250              		.cfi_offset 9, -12
 1251              		.cfi_offset 10, -8
 1252              		.cfi_offset 14, -4
 1253 0004 0646     		mov	r6, r0
 1254 0006 0D46     		mov	r5, r1
 1255              	.LVL116:
 685:cy_eink_library/pervasive_eink_hardware_driver.c ****     /* Counter variable for the horizontal pixel loop */
 686:cy_eink_library/pervasive_eink_hardware_driver.c ****     uint16_t    x;
 687:cy_eink_library/pervasive_eink_hardware_driver.c ****     /* Counter variable for the vertical pixel loop */
 688:cy_eink_library/pervasive_eink_hardware_driver.c ****     uint16_t    y;
 689:cy_eink_library/pervasive_eink_hardware_driver.c ****     /* Counter variable for the horizontal byte loop */
 690:cy_eink_library/pervasive_eink_hardware_driver.c ****     uint16_t    k;
 691:cy_eink_library/pervasive_eink_hardware_driver.c ****     
 692:cy_eink_library/pervasive_eink_hardware_driver.c ****     /* Counter variable for write cycles */
 693:cy_eink_library/pervasive_eink_hardware_driver.c ****     uint16_t    currentWriteCycle;
 694:cy_eink_library/pervasive_eink_hardware_driver.c ****     
 695:cy_eink_library/pervasive_eink_hardware_driver.c ****     /* Temporary storage for image data bytes */
 696:cy_eink_library/pervasive_eink_hardware_driver.c ****     uint8_t     oldByte;
 697:cy_eink_library/pervasive_eink_hardware_driver.c ****     /* Temporary storage for image data bytes */
 698:cy_eink_library/pervasive_eink_hardware_driver.c ****     uint8_t     newByte;
 699:cy_eink_library/pervasive_eink_hardware_driver.c ****     
 700:cy_eink_library/pervasive_eink_hardware_driver.c ****     /* Variable for storing the line number under scan */
 701:cy_eink_library/pervasive_eink_hardware_driver.c ****     int16       scanlineNumber = 0;
 702:cy_eink_library/pervasive_eink_hardware_driver.c ****     
 703:cy_eink_library/pervasive_eink_hardware_driver.c ****     /* Vcom level adjust */
 704:cy_eink_library/pervasive_eink_hardware_driver.c ****     Pv_EINK_SendByte(PV_EINK_VCOM2_LEVEL_COMMAND_INDEX,
 1256              		.loc 1 704 0
 1257 0008 D221     		movs	r1, #210
 1258              	.LVL117:
 1259 000a 0920     		movs	r0, #9
 1260              	.LVL118:
 1261 000c FFF7FEFF 		bl	Pv_EINK_SendByte
 1262              	.LVL119:
 705:cy_eink_library/pervasive_eink_hardware_driver.c ****                      PV_EINK_VCOM2_LEVEL_COMMAND_DATA);
 706:cy_eink_library/pervasive_eink_hardware_driver.c ****      
 707:cy_eink_library/pervasive_eink_hardware_driver.c ****     /* Vertical pixel loop */
 708:cy_eink_library/pervasive_eink_hardware_driver.c ****     for (y = 0; y < PV_EINK_VERTICAL_SIZE; y++)
 1263              		.loc 1 708 0
 1264 0010 0024     		movs	r4, #0
 1265 0012 C6E0     		b	.L130
 1266              	.LVL120:
ARM GAS  C:\Users\codyg\AppData\Local\Temp\ccQipZVL.s 			page 51


 1267              	.L142:
 709:cy_eink_library/pervasive_eink_hardware_driver.c ****     {
 710:cy_eink_library/pervasive_eink_hardware_driver.c ****         /* Clear the line buffer with all zeros */
 711:cy_eink_library/pervasive_eink_hardware_driver.c ****         memset(&bulkDriverPacket[y].lineBuffer, 0, 
 1268              		.loc 1 711 0
 1269 0014 C4EBC407 		rsb	r7, r4, r4, lsl #3
 1270 0018 C4EB0717 		rsb	r7, r4, r7, lsl #4
 1271 001c DFF80082 		ldr	r8, .L164+12
 1272 0020 07EB0809 		add	r9, r7, r8
 1273 0024 6F22     		movs	r2, #111
 1274 0026 0021     		movs	r1, #0
 1275 0028 4846     		mov	r0, r9
 1276 002a FFF7FEFF 		bl	memset
 1277              	.LVL121:
 712:cy_eink_library/pervasive_eink_hardware_driver.c ****                sizeof(bulkDriverPacket[y].lineBuffer)) ;
 713:cy_eink_library/pervasive_eink_hardware_driver.c **** 
 714:cy_eink_library/pervasive_eink_hardware_driver.c ****         /* Initialize the even data, odd data and scan data pointers */
 715:cy_eink_library/pervasive_eink_hardware_driver.c ****         dataLineEven = &bulkDriverPacket[y].lineDataBySize.even[0];
 1278              		.loc 1 715 0
 1279 002e 09F1010C 		add	ip, r9, #1
 1280 0032 784B     		ldr	r3, .L164
 1281 0034 C3F870C0 		str	ip, [r3, #112]
 716:cy_eink_library/pervasive_eink_hardware_driver.c ****         dataLineOdd  = &bulkDriverPacket[y].lineDataBySize.odd[0];
 1282              		.loc 1 716 0
 1283 0038 07F1480E 		add	lr, r7, #72
 1284 003c C644     		add	lr, lr, r8
 1285 003e 0EF1060E 		add	lr, lr, #6
 1286 0042 C3F874E0 		str	lr, [r3, #116]
 717:cy_eink_library/pervasive_eink_hardware_driver.c ****         dataLineScan = &bulkDriverPacket[y].lineDataBySize.scan[0];
 1287              		.loc 1 717 0
 1288 0046 2037     		adds	r7, r7, #32
 1289 0048 B844     		add	r8, r8, r7
 1290 004a 08F10208 		add	r8, r8, #2
 1291 004e C3F87880 		str	r8, [r3, #120]
 1292              	.LVL122:
 718:cy_eink_library/pervasive_eink_hardware_driver.c **** 
 719:cy_eink_library/pervasive_eink_hardware_driver.c ****         /* Horizontal bytes initialization */
 720:cy_eink_library/pervasive_eink_hardware_driver.c ****         k = PV_EINK_HORIZONTAL_SIZE;
 721:cy_eink_library/pervasive_eink_hardware_driver.c ****         k--;
 1293              		.loc 1 721 0
 1294 0052 2020     		movs	r0, #32
 722:cy_eink_library/pervasive_eink_hardware_driver.c ****         
 723:cy_eink_library/pervasive_eink_hardware_driver.c ****         /* Horizontal pixel loop */
 724:cy_eink_library/pervasive_eink_hardware_driver.c ****         for (x = 0; x < PV_EINK_HORIZONTAL_SIZE; x++)
 1295              		.loc 1 724 0
 1296 0054 0021     		movs	r1, #0
 1297 0056 8EE0     		b	.L131
 1298              	.LVL123:
 1299              	.L140:
 725:cy_eink_library/pervasive_eink_hardware_driver.c ****         {
 726:cy_eink_library/pervasive_eink_hardware_driver.c ****             /* Fetch successive data bytes */
 727:cy_eink_library/pervasive_eink_hardware_driver.c ****             oldByte = *previousImagePtr++;
 1300              		.loc 1 727 0
 1301 0058 771C     		adds	r7, r6, #1
 1302              	.LVL124:
 1303 005a 3278     		ldrb	r2, [r6]	@ zero_extendqisi2
 1304              	.LVL125:
ARM GAS  C:\Users\codyg\AppData\Local\Temp\ccQipZVL.s 			page 52


 728:cy_eink_library/pervasive_eink_hardware_driver.c ****             newByte = *newImagePtr++;
 1305              		.loc 1 728 0
 1306 005c 6E1C     		adds	r6, r5, #1
 1307              	.LVL126:
 1308 005e 95F80090 		ldrb	r9, [r5]	@ zero_extendqisi2
 1309              	.LVL127:
 729:cy_eink_library/pervasive_eink_hardware_driver.c ****             
 730:cy_eink_library/pervasive_eink_hardware_driver.c ****             /* Calculate the Even and Odd bytes for partial update stage. Also, 
 731:cy_eink_library/pervasive_eink_hardware_driver.c ****                if the new data byte is same as the previous data byte, store a 
 732:cy_eink_library/pervasive_eink_hardware_driver.c ****                "nothing" pixel, so that the E-INK pixel won't be altered.
 733:cy_eink_library/pervasive_eink_hardware_driver.c ****                If the new data byte is different from the previous data byte, 
 734:cy_eink_library/pervasive_eink_hardware_driver.c ****                store the new data byte */
 735:cy_eink_library/pervasive_eink_hardware_driver.c ****             dataLineOdd[x]       = ((oldByte ^ newByte) & PV_EINK_ODD_MASK_A)
 1310              		.loc 1 735 0
 1311 0062 0EEB0105 		add	r5, lr, r1
 1312 0066 82EA0902 		eor	r2, r2, r9
 1313              	.LVL128:
 1314 006a 12F0400F 		tst	r2, #64
 1315 006e 04D0     		beq	.L146
 1316              		.loc 1 735 0 is_stmt 0 discriminator 1
 1317 0070 19F0400F 		tst	r9, #64
 1318 0074 03D0     		beq	.L147
 1319              		.loc 1 735 0
 1320 0076 8023     		movs	r3, #128
 1321 0078 02E0     		b	.L132
 1322              	.L146:
 1323 007a 4023     		movs	r3, #64
 1324 007c 00E0     		b	.L132
 1325              	.L147:
 1326 007e C023     		movs	r3, #192
 1327              	.L132:
 1328              		.loc 1 735 0 discriminator 8
 1329 0080 2B70     		strb	r3, [r5]
 1330              	.LVL129:
 736:cy_eink_library/pervasive_eink_hardware_driver.c ****                                     ?((newByte & PV_EINK_ODD_MASK_A)
 737:cy_eink_library/pervasive_eink_hardware_driver.c ****                                     ? PV_EINK_WHITE3
 738:cy_eink_library/pervasive_eink_hardware_driver.c ****                                     : PV_EINK_BLACK3) : PV_EINK_NOTHING3;
 739:cy_eink_library/pervasive_eink_hardware_driver.c ****             dataLineOdd[x]      |= ((oldByte ^ newByte) & PV_EINK_ODD_MASK_B)
 1331              		.loc 1 739 0 is_stmt 1 discriminator 8
 1332 0082 5BB2     		sxtb	r3, r3
 1333 0084 12F0100F 		tst	r2, #16
 1334 0088 05D0     		beq	.L148
 1335              		.loc 1 739 0 is_stmt 0 discriminator 1
 1336 008a 19F0100F 		tst	r9, #16
 1337 008e 05D0     		beq	.L149
 1338              		.loc 1 739 0
 1339 0090 4FF0200A 		mov	r10, #32
 1340 0094 04E0     		b	.L133
 1341              	.L148:
 1342 0096 4FF0100A 		mov	r10, #16
 1343 009a 01E0     		b	.L133
 1344              	.L149:
 1345 009c 4FF0300A 		mov	r10, #48
 1346              	.L133:
 1347              		.loc 1 739 0 discriminator 8
 1348 00a0 4AEA0303 		orr	r3, r10, r3
 1349 00a4 2B70     		strb	r3, [r5]
ARM GAS  C:\Users\codyg\AppData\Local\Temp\ccQipZVL.s 			page 53


 740:cy_eink_library/pervasive_eink_hardware_driver.c ****                                     ?((newByte & PV_EINK_ODD_MASK_B) 
 741:cy_eink_library/pervasive_eink_hardware_driver.c ****                                     ? PV_EINK_WHITE2 
 742:cy_eink_library/pervasive_eink_hardware_driver.c ****                                     : PV_EINK_BLACK2) : PV_EINK_NOTHING2;
 743:cy_eink_library/pervasive_eink_hardware_driver.c ****             dataLineOdd[x]      |= ((oldByte ^ newByte) & PV_EINK_ODD_MASK_C)
 1350              		.loc 1 743 0 is_stmt 1 discriminator 8
 1351 00a6 12F0040F 		tst	r2, #4
 1352 00aa 05D0     		beq	.L150
 1353              		.loc 1 743 0 is_stmt 0 discriminator 1
 1354 00ac 19F0040F 		tst	r9, #4
 1355 00b0 05D0     		beq	.L151
 1356              		.loc 1 743 0
 1357 00b2 4FF0080A 		mov	r10, #8
 1358 00b6 04E0     		b	.L134
 1359              	.L150:
 1360 00b8 4FF0040A 		mov	r10, #4
 1361 00bc 01E0     		b	.L134
 1362              	.L151:
 1363 00be 4FF00C0A 		mov	r10, #12
 1364              	.L134:
 1365              		.loc 1 743 0 discriminator 8
 1366 00c2 4AEA0303 		orr	r3, r10, r3
 1367 00c6 2B70     		strb	r3, [r5]
 744:cy_eink_library/pervasive_eink_hardware_driver.c ****                                     ?((newByte & PV_EINK_ODD_MASK_C) 
 745:cy_eink_library/pervasive_eink_hardware_driver.c ****                                     ? PV_EINK_WHITE1
 746:cy_eink_library/pervasive_eink_hardware_driver.c ****                                     : PV_EINK_BLACK1) : PV_EINK_NOTHING1;
 747:cy_eink_library/pervasive_eink_hardware_driver.c ****             dataLineOdd[x]      |= ((oldByte ^ newByte) & PV_EINK_ODD_MASK_D)
 1368              		.loc 1 747 0 is_stmt 1 discriminator 8
 1369 00c8 12F0010F 		tst	r2, #1
 1370 00cc 05D0     		beq	.L152
 1371              		.loc 1 747 0 is_stmt 0 discriminator 1
 1372 00ce 19F0010F 		tst	r9, #1
 1373 00d2 05D0     		beq	.L153
 1374              		.loc 1 747 0
 1375 00d4 4FF0020A 		mov	r10, #2
 1376 00d8 04E0     		b	.L135
 1377              	.L152:
 1378 00da 4FF0010A 		mov	r10, #1
 1379 00de 01E0     		b	.L135
 1380              	.L153:
 1381 00e0 4FF0030A 		mov	r10, #3
 1382              	.L135:
 1383              		.loc 1 747 0 discriminator 8
 1384 00e4 4AEA0303 		orr	r3, r10, r3
 1385 00e8 2B70     		strb	r3, [r5]
 748:cy_eink_library/pervasive_eink_hardware_driver.c ****                                     ?((newByte & PV_EINK_ODD_MASK_D) 
 749:cy_eink_library/pervasive_eink_hardware_driver.c ****                                     ? PV_EINK_WHITE0 
 750:cy_eink_library/pervasive_eink_hardware_driver.c ****                                     : PV_EINK_BLACK0) : PV_EINK_NOTHING0;
 751:cy_eink_library/pervasive_eink_hardware_driver.c ****             dataLineEven[k]      = ((oldByte ^ newByte) & PV_EINK_EVEN_MASK_A)
 1386              		.loc 1 751 0 is_stmt 1 discriminator 8
 1387 00ea 0CEB0005 		add	r5, ip, r0
 1388 00ee 12F0800F 		tst	r2, #128
 1389 00f2 04D0     		beq	.L154
 1390              		.loc 1 751 0 is_stmt 0 discriminator 1
 1391 00f4 19F0800F 		tst	r9, #128
 1392 00f8 03D0     		beq	.L155
 1393              		.loc 1 751 0
 1394 00fa 0223     		movs	r3, #2
ARM GAS  C:\Users\codyg\AppData\Local\Temp\ccQipZVL.s 			page 54


 1395 00fc 02E0     		b	.L136
 1396              	.L154:
 1397 00fe 0123     		movs	r3, #1
 1398 0100 00E0     		b	.L136
 1399              	.L155:
 1400 0102 0323     		movs	r3, #3
 1401              	.L136:
 1402              		.loc 1 751 0 discriminator 8
 1403 0104 2B70     		strb	r3, [r5]
 752:cy_eink_library/pervasive_eink_hardware_driver.c ****                                     ?((newByte & PV_EINK_EVEN_MASK_A) 
 753:cy_eink_library/pervasive_eink_hardware_driver.c ****                                     ? PV_EINK_WHITE0
 754:cy_eink_library/pervasive_eink_hardware_driver.c ****                                     : PV_EINK_BLACK0) : PV_EINK_NOTHING0;
 755:cy_eink_library/pervasive_eink_hardware_driver.c ****             dataLineEven[k]     |= ((oldByte ^ newByte) & PV_EINK_EVEN_MASK_B) 
 1404              		.loc 1 755 0 is_stmt 1 discriminator 8
 1405 0106 5BB2     		sxtb	r3, r3
 1406 0108 12F0200F 		tst	r2, #32
 1407 010c 05D0     		beq	.L156
 1408              		.loc 1 755 0 is_stmt 0 discriminator 1
 1409 010e 19F0200F 		tst	r9, #32
 1410 0112 05D0     		beq	.L157
 1411              		.loc 1 755 0
 1412 0114 4FF0080A 		mov	r10, #8
 1413 0118 04E0     		b	.L137
 1414              	.L156:
 1415 011a 4FF0040A 		mov	r10, #4
 1416 011e 01E0     		b	.L137
 1417              	.L157:
 1418 0120 4FF00C0A 		mov	r10, #12
 1419              	.L137:
 1420              		.loc 1 755 0 discriminator 8
 1421 0124 4AEA0303 		orr	r3, r10, r3
 1422 0128 2B70     		strb	r3, [r5]
 756:cy_eink_library/pervasive_eink_hardware_driver.c ****                                     ?((newByte & PV_EINK_EVEN_MASK_B) 
 757:cy_eink_library/pervasive_eink_hardware_driver.c ****                                     ? PV_EINK_WHITE1
 758:cy_eink_library/pervasive_eink_hardware_driver.c ****                                     : PV_EINK_BLACK1) : PV_EINK_NOTHING1;
 759:cy_eink_library/pervasive_eink_hardware_driver.c ****             dataLineEven[k]     |= ((oldByte ^ newByte) & PV_EINK_EVEN_MASK_C)
 1423              		.loc 1 759 0 is_stmt 1 discriminator 8
 1424 012a 12F0080F 		tst	r2, #8
 1425 012e 05D0     		beq	.L158
 1426              		.loc 1 759 0 is_stmt 0 discriminator 1
 1427 0130 19F0080F 		tst	r9, #8
 1428 0134 05D0     		beq	.L159
 1429              		.loc 1 759 0
 1430 0136 4FF0200A 		mov	r10, #32
 1431 013a 04E0     		b	.L138
 1432              	.L158:
 1433 013c 4FF0100A 		mov	r10, #16
 1434 0140 01E0     		b	.L138
 1435              	.L159:
 1436 0142 4FF0300A 		mov	r10, #48
 1437              	.L138:
 1438              		.loc 1 759 0 discriminator 8
 1439 0146 4AEA0303 		orr	r3, r10, r3
 1440 014a 2B70     		strb	r3, [r5]
 760:cy_eink_library/pervasive_eink_hardware_driver.c ****                                     ?((newByte & PV_EINK_EVEN_MASK_C) 
 761:cy_eink_library/pervasive_eink_hardware_driver.c ****                                     ? PV_EINK_WHITE2 
 762:cy_eink_library/pervasive_eink_hardware_driver.c ****                                     : PV_EINK_BLACK2) : PV_EINK_NOTHING2;
ARM GAS  C:\Users\codyg\AppData\Local\Temp\ccQipZVL.s 			page 55


 763:cy_eink_library/pervasive_eink_hardware_driver.c ****             dataLineEven[k--]   |= ((oldByte ^ newByte) & PV_EINK_EVEN_MASK_D)
 1441              		.loc 1 763 0 is_stmt 1 discriminator 8
 1442 014c 0138     		subs	r0, r0, #1
 1443              	.LVL130:
 1444 014e 80B2     		uxth	r0, r0
 1445              	.LVL131:
 1446 0150 12F0020F 		tst	r2, #2
 1447 0154 05D0     		beq	.L160
 1448              		.loc 1 763 0 is_stmt 0 discriminator 1
 1449 0156 19F0020F 		tst	r9, #2
 1450 015a 04D0     		beq	.L161
 1451              		.loc 1 763 0
 1452 015c 6FF07F02 		mvn	r2, #127
 1453 0160 03E0     		b	.L139
 1454              	.L160:
 1455 0162 4022     		movs	r2, #64
 1456 0164 01E0     		b	.L139
 1457              	.L161:
 1458 0166 6FF03F02 		mvn	r2, #63
 1459              	.L139:
 1460              		.loc 1 763 0 discriminator 8
 1461 016a 1343     		orrs	r3, r3, r2
 1462 016c 2B70     		strb	r3, [r5]
 724:cy_eink_library/pervasive_eink_hardware_driver.c ****         {
 1463              		.loc 1 724 0 is_stmt 1 discriminator 8
 1464 016e 0131     		adds	r1, r1, #1
 1465              	.LVL132:
 1466 0170 89B2     		uxth	r1, r1
 1467              	.LVL133:
 728:cy_eink_library/pervasive_eink_hardware_driver.c ****             
 1468              		.loc 1 728 0 discriminator 8
 1469 0172 3546     		mov	r5, r6
 727:cy_eink_library/pervasive_eink_hardware_driver.c ****             newByte = *newImagePtr++;
 1470              		.loc 1 727 0 discriminator 8
 1471 0174 3E46     		mov	r6, r7
 1472              	.LVL134:
 1473              	.L131:
 724:cy_eink_library/pervasive_eink_hardware_driver.c ****         {
 1474              		.loc 1 724 0 discriminator 2
 1475 0176 2029     		cmp	r1, #32
 1476 0178 7FF66EAF 		bls	.L140
 1477              	.LVL135:
 764:cy_eink_library/pervasive_eink_hardware_driver.c ****                                     ?((newByte & PV_EINK_EVEN_MASK_D) 
 765:cy_eink_library/pervasive_eink_hardware_driver.c ****                                     ? PV_EINK_WHITE3 
 766:cy_eink_library/pervasive_eink_hardware_driver.c ****                                     : PV_EINK_BLACK3) : PV_EINK_NOTHING3;
 767:cy_eink_library/pervasive_eink_hardware_driver.c ****         }
 768:cy_eink_library/pervasive_eink_hardware_driver.c ****         /* Move onto the next line */
 769:cy_eink_library/pervasive_eink_hardware_driver.c ****         scanlineNumber = PV_EINK_VERTICAL_SIZE - y;
 770:cy_eink_library/pervasive_eink_hardware_driver.c ****         scanlineNumber--;
 1478              		.loc 1 770 0 discriminator 2
 1479 017c C4F1AF03 		rsb	r3, r4, #175
 1480 0180 1BB2     		sxth	r3, r3
 1481              	.LVL136:
 771:cy_eink_library/pervasive_eink_hardware_driver.c ****         
 772:cy_eink_library/pervasive_eink_hardware_driver.c ****         /* Shift Scan byte according to the data line */
 773:cy_eink_library/pervasive_eink_hardware_driver.c ****         dataLineScan[(scanlineNumber >> PV_EINK_PIXEL_SIZE)] = scanTable
 1482              		.loc 1 773 0 discriminator 2
ARM GAS  C:\Users\codyg\AppData\Local\Temp\ccQipZVL.s 			page 56


 1483 0182 9910     		asrs	r1, r3, #2
 1484              	.LVL137:
 774:cy_eink_library/pervasive_eink_hardware_driver.c ****                             [(scanlineNumber % PV_EINK_SCAN_TABLE_SIZE)];
 1485              		.loc 1 774 0 discriminator 2
 1486 0184 244A     		ldr	r2, .L164+4
 1487 0186 1340     		ands	r3, r3, r2
 1488              	.LVL138:
 1489 0188 03D5     		bpl	.L141
 1490 018a 013B     		subs	r3, r3, #1
 1491 018c 63F00303 		orn	r3, r3, #3
 1492 0190 0133     		adds	r3, r3, #1
 1493              	.L141:
 1494 0192 224A     		ldr	r2, .L164+8
 1495 0194 02FA83F3 		sxtah	r3, r2, r3
 1496 0198 1B7A     		ldrb	r3, [r3, #8]	@ zero_extendqisi2
 773:cy_eink_library/pervasive_eink_hardware_driver.c ****                             [(scanlineNumber % PV_EINK_SCAN_TABLE_SIZE)];
 1497              		.loc 1 773 0 discriminator 2
 1498 019a 08F80130 		strb	r3, [r8, r1]
 708:cy_eink_library/pervasive_eink_hardware_driver.c ****     {
 1499              		.loc 1 708 0 discriminator 2
 1500 019e 0134     		adds	r4, r4, #1
 1501              	.LVL139:
 1502 01a0 A4B2     		uxth	r4, r4
 1503              	.LVL140:
 1504              	.L130:
 708:cy_eink_library/pervasive_eink_hardware_driver.c ****     {
 1505              		.loc 1 708 0 is_stmt 0 discriminator 1
 1506 01a2 AF2C     		cmp	r4, #175
 1507 01a4 7FF636AF 		bls	.L142
 1508 01a8 0026     		movs	r6, #0
 1509              	.LVL141:
 1510 01aa 27E0     		b	.L143
 1511              	.LVL142:
 1512              	.L144:
 775:cy_eink_library/pervasive_eink_hardware_driver.c ****     }
 776:cy_eink_library/pervasive_eink_hardware_driver.c ****     
 777:cy_eink_library/pervasive_eink_hardware_driver.c ****     /* Perform update operation until the total number of write cycles equals 
 778:cy_eink_library/pervasive_eink_hardware_driver.c ****        the value calculated based on temperature */
 779:cy_eink_library/pervasive_eink_hardware_driver.c ****     for (currentWriteCycle = 0; currentWriteCycle < partialUpdateCycles;
 780:cy_eink_library/pervasive_eink_hardware_driver.c ****          currentWriteCycle++)
 781:cy_eink_library/pervasive_eink_hardware_driver.c ****     {
 782:cy_eink_library/pervasive_eink_hardware_driver.c ****         /* Perform a line by line update */
 783:cy_eink_library/pervasive_eink_hardware_driver.c ****         for (y = 0; y < PV_EINK_VERTICAL_SIZE; y++)
 784:cy_eink_library/pervasive_eink_hardware_driver.c ****         {
 785:cy_eink_library/pervasive_eink_hardware_driver.c ****             /* Send the prepared data to the E-INK display */
 786:cy_eink_library/pervasive_eink_hardware_driver.c ****             Pv_EINK_SendData(PV_EINK_PIXEL_DATA_COMMAND_INDEX,
 787:cy_eink_library/pervasive_eink_hardware_driver.c ****                             (uint8_t*) &bulkDriverPacket[y].lineBuffer,
 1513              		.loc 1 787 0 is_stmt 1 discriminator 3
 1514 01ac C4EBC405 		rsb	r5, r4, r4, lsl #3
 1515 01b0 C4EB0515 		rsb	r5, r4, r5, lsl #4
 1516 01b4 1A4B     		ldr	r3, .L164+12
 1517 01b6 1D44     		add	r5, r5, r3
 786:cy_eink_library/pervasive_eink_hardware_driver.c ****                             (uint8_t*) &bulkDriverPacket[y].lineBuffer,
 1518              		.loc 1 786 0 discriminator 3
 1519 01b8 6F22     		movs	r2, #111
 1520 01ba 2946     		mov	r1, r5
 1521 01bc 0A20     		movs	r0, #10
ARM GAS  C:\Users\codyg\AppData\Local\Temp\ccQipZVL.s 			page 57


 1522 01be FFF7FEFF 		bl	Pv_EINK_SendData
 1523              	.LVL143:
 788:cy_eink_library/pervasive_eink_hardware_driver.c ****                              PV_EINK_DATA_LINE_SIZE);
 789:cy_eink_library/pervasive_eink_hardware_driver.c ****             /* Turn on Output Enable to latch the frame */
 790:cy_eink_library/pervasive_eink_hardware_driver.c ****             Pv_EINK_SendByte(PV_EINK_ENABLE_OE_COMMAND_INDEX,
 1524              		.loc 1 790 0 discriminator 3
 1525 01c2 0721     		movs	r1, #7
 1526 01c4 0220     		movs	r0, #2
 1527 01c6 FFF7FEFF 		bl	Pv_EINK_SendByte
 1528              	.LVL144:
 791:cy_eink_library/pervasive_eink_hardware_driver.c ****                              PV_EINK_ENABLE_OE_COMMAND_DATA);
 792:cy_eink_library/pervasive_eink_hardware_driver.c ****             
 793:cy_eink_library/pervasive_eink_hardware_driver.c ****             /* Calculate the current line under scan */
 794:cy_eink_library/pervasive_eink_hardware_driver.c ****             scanlineNumber = PV_EINK_VERTICAL_SIZE - y;
 795:cy_eink_library/pervasive_eink_hardware_driver.c ****             scanlineNumber--;
 1529              		.loc 1 795 0 discriminator 3
 1530 01ca C4F1AF03 		rsb	r3, r4, #175
 1531              	.LVL145:
 796:cy_eink_library/pervasive_eink_hardware_driver.c ****             
 797:cy_eink_library/pervasive_eink_hardware_driver.c ****             /* Re-initialize the scan line (extra step for partial update) */
 798:cy_eink_library/pervasive_eink_hardware_driver.c ****             bulkDriverPacket[y].lineDataBySize.scan[(scanlineNumber 
 799:cy_eink_library/pervasive_eink_hardware_driver.c ****                                                      >> PV_EINK_PIXEL_SIZE)]
 1532              		.loc 1 799 0 discriminator 3
 1533 01ce 43F38D03 		sbfx	r3, r3, #2, #14
 1534              	.LVL146:
 800:cy_eink_library/pervasive_eink_hardware_driver.c ****                                                      = PV_EINK_SCAN_BYTE_INIT;
 1535              		.loc 1 800 0 discriminator 3
 1536 01d2 2B44     		add	r3, r3, r5
 1537 01d4 0022     		movs	r2, #0
 1538 01d6 83F82220 		strb	r2, [r3, #34]
 801:cy_eink_library/pervasive_eink_hardware_driver.c **** 
 802:cy_eink_library/pervasive_eink_hardware_driver.c ****             Pv_EINK_SendData(PV_EINK_PIXEL_DATA_COMMAND_INDEX,
 1539              		.loc 1 802 0 discriminator 3
 1540 01da 6F22     		movs	r2, #111
 1541 01dc 2946     		mov	r1, r5
 1542 01de 0A20     		movs	r0, #10
 1543 01e0 FFF7FEFF 		bl	Pv_EINK_SendData
 1544              	.LVL147:
 803:cy_eink_library/pervasive_eink_hardware_driver.c ****                             (uint8_t*) &bulkDriverPacket[y].lineBuffer,
 804:cy_eink_library/pervasive_eink_hardware_driver.c ****                              PV_EINK_DATA_LINE_SIZE);
 805:cy_eink_library/pervasive_eink_hardware_driver.c ****             Pv_EINK_SendByte(PV_EINK_ENABLE_OE_COMMAND_INDEX,
 1545              		.loc 1 805 0 discriminator 3
 1546 01e4 0721     		movs	r1, #7
 1547 01e6 0220     		movs	r0, #2
 1548 01e8 FFF7FEFF 		bl	Pv_EINK_SendByte
 1549              	.LVL148:
 783:cy_eink_library/pervasive_eink_hardware_driver.c ****         {
 1550              		.loc 1 783 0 discriminator 3
 1551 01ec 0134     		adds	r4, r4, #1
 1552              	.LVL149:
 1553 01ee A4B2     		uxth	r4, r4
 1554              	.LVL150:
 1555 01f0 00E0     		b	.L145
 1556              	.L162:
 1557 01f2 0024     		movs	r4, #0
 1558              	.LVL151:
 1559              	.L145:
ARM GAS  C:\Users\codyg\AppData\Local\Temp\ccQipZVL.s 			page 58


 783:cy_eink_library/pervasive_eink_hardware_driver.c ****         {
 1560              		.loc 1 783 0 is_stmt 0 discriminator 1
 1561 01f4 AF2C     		cmp	r4, #175
 1562 01f6 D9D9     		bls	.L144
 780:cy_eink_library/pervasive_eink_hardware_driver.c ****     {
 1563              		.loc 1 780 0 is_stmt 1
 1564 01f8 0136     		adds	r6, r6, #1
 1565              	.LVL152:
 1566 01fa B6B2     		uxth	r6, r6
 1567              	.LVL153:
 1568              	.L143:
 779:cy_eink_library/pervasive_eink_hardware_driver.c ****          currentWriteCycle++)
 1569              		.loc 1 779 0 discriminator 1
 1570 01fc 054B     		ldr	r3, .L164
 1571 01fe B3F87E30 		ldrh	r3, [r3, #126]
 1572 0202 9E42     		cmp	r6, r3
 1573 0204 F5D3     		bcc	.L162
 806:cy_eink_library/pervasive_eink_hardware_driver.c ****                              PV_EINK_ENABLE_OE_COMMAND_DATA);
 807:cy_eink_library/pervasive_eink_hardware_driver.c ****         }
 808:cy_eink_library/pervasive_eink_hardware_driver.c ****     }
 809:cy_eink_library/pervasive_eink_hardware_driver.c ****  
 810:cy_eink_library/pervasive_eink_hardware_driver.c ****     /* Re-adjust Vcom level */
 811:cy_eink_library/pervasive_eink_hardware_driver.c ****     Pv_EINK_SendByte(PV_EINK_VCOM1_LEVEL_COMMAND_INDEX, 
 1574              		.loc 1 811 0
 1575 0206 C221     		movs	r1, #194
 1576 0208 0920     		movs	r0, #9
 1577 020a FFF7FEFF 		bl	Pv_EINK_SendByte
 1578              	.LVL154:
 1579 020e BDE8F087 		pop	{r4, r5, r6, r7, r8, r9, r10, pc}
 1580              	.LVL155:
 1581              	.L165:
 1582 0212 00BF     		.align	2
 1583              	.L164:
 1584 0214 00000000 		.word	.LANCHOR0
 1585 0218 03000080 		.word	-2147483645
 1586 021c 00000000 		.word	.LANCHOR1
 1587 0220 00000000 		.word	bulkDriverPacket
 1588              		.cfi_endproc
 1589              	.LFE524:
 1590              		.size	Pv_EINK_PartialStageHandler, .-Pv_EINK_PartialStageHandler
 1591              		.section	.text.Pv_EINK_NothingFrame,"ax",%progbits
 1592              		.align	2
 1593              		.global	Pv_EINK_NothingFrame
 1594              		.thumb
 1595              		.thumb_func
 1596              		.type	Pv_EINK_NothingFrame, %function
 1597              	Pv_EINK_NothingFrame:
 1598              	.LFB525:
 812:cy_eink_library/pervasive_eink_hardware_driver.c ****                      PV_EINK_VCOM1_LEVEL_COMMAND_DATA);
 813:cy_eink_library/pervasive_eink_hardware_driver.c **** }
 814:cy_eink_library/pervasive_eink_hardware_driver.c **** 
 815:cy_eink_library/pervasive_eink_hardware_driver.c **** /*******************************************************************************
 816:cy_eink_library/pervasive_eink_hardware_driver.c **** * Function Name:  void Pv_EINK_NothingFrame(void)
 817:cy_eink_library/pervasive_eink_hardware_driver.c **** ********************************************************************************
 818:cy_eink_library/pervasive_eink_hardware_driver.c **** *
 819:cy_eink_library/pervasive_eink_hardware_driver.c **** * Summary: Write a "Nothing Frame" to driver. For a "Nothing Frame",
 820:cy_eink_library/pervasive_eink_hardware_driver.c **** * all pixel data D(x,y) are "01".
ARM GAS  C:\Users\codyg\AppData\Local\Temp\ccQipZVL.s 			page 59


 821:cy_eink_library/pervasive_eink_hardware_driver.c **** * For more details, please refer to the driver G2 document Section 6.
 822:cy_eink_library/pervasive_eink_hardware_driver.c **** *
 823:cy_eink_library/pervasive_eink_hardware_driver.c **** * Parameters:
 824:cy_eink_library/pervasive_eink_hardware_driver.c **** *  None
 825:cy_eink_library/pervasive_eink_hardware_driver.c **** *
 826:cy_eink_library/pervasive_eink_hardware_driver.c **** * Return:
 827:cy_eink_library/pervasive_eink_hardware_driver.c **** *  None
 828:cy_eink_library/pervasive_eink_hardware_driver.c **** *
 829:cy_eink_library/pervasive_eink_hardware_driver.c **** * Side Effects:
 830:cy_eink_library/pervasive_eink_hardware_driver.c **** *  None
 831:cy_eink_library/pervasive_eink_hardware_driver.c **** *******************************************************************************/
 832:cy_eink_library/pervasive_eink_hardware_driver.c **** void Pv_EINK_NothingFrame(void)
 833:cy_eink_library/pervasive_eink_hardware_driver.c **** {
 1599              		.loc 1 833 0
 1600              		.cfi_startproc
 1601              		@ args = 0, pretend = 0, frame = 0
 1602              		@ frame_needed = 0, uses_anonymous_args = 0
 1603              	.LVL156:
 834:cy_eink_library/pervasive_eink_hardware_driver.c ****     /* Counter variable for data line bytes */
 835:cy_eink_library/pervasive_eink_hardware_driver.c ****     uint16_t    byteCounter;
 836:cy_eink_library/pervasive_eink_hardware_driver.c ****     
 837:cy_eink_library/pervasive_eink_hardware_driver.c ****     /* Set all Even and Odd data bytes as "Nothing" bytes */
 838:cy_eink_library/pervasive_eink_hardware_driver.c ****     for (byteCounter = 0; byteCounter < PV_EINK_HORIZONTAL_SIZE; byteCounter++)
 1604              		.loc 1 838 0
 1605 0000 0023     		movs	r3, #0
 1606 0002 07E0     		b	.L167
 1607              	.LVL157:
 1608              	.L168:
 839:cy_eink_library/pervasive_eink_hardware_driver.c ****     {
 840:cy_eink_library/pervasive_eink_hardware_driver.c ****         dataLineEven[byteCounter] = PV_EINK_NOTHING;
 1609              		.loc 1 840 0 discriminator 3
 1610 0004 1349     		ldr	r1, .L172
 1611 0006 086F     		ldr	r0, [r1, #112]
 1612 0008 5522     		movs	r2, #85
 1613 000a C254     		strb	r2, [r0, r3]
 841:cy_eink_library/pervasive_eink_hardware_driver.c ****         dataLineOdd[byteCounter] = PV_EINK_NOTHING;
 1614              		.loc 1 841 0 discriminator 3
 1615 000c 496F     		ldr	r1, [r1, #116]
 1616 000e CA54     		strb	r2, [r1, r3]
 838:cy_eink_library/pervasive_eink_hardware_driver.c ****     {
 1617              		.loc 1 838 0 discriminator 3
 1618 0010 0133     		adds	r3, r3, #1
 1619              	.LVL158:
 1620 0012 9BB2     		uxth	r3, r3
 1621              	.LVL159:
 1622              	.L167:
 838:cy_eink_library/pervasive_eink_hardware_driver.c ****     {
 1623              		.loc 1 838 0 is_stmt 0 discriminator 1
 1624 0014 202B     		cmp	r3, #32
 1625 0016 F5D9     		bls	.L168
 833:cy_eink_library/pervasive_eink_hardware_driver.c ****     /* Counter variable for data line bytes */
 1626              		.loc 1 833 0 is_stmt 1
 1627 0018 70B5     		push	{r4, r5, r6, lr}
 1628              		.cfi_def_cfa_offset 16
 1629              		.cfi_offset 4, -16
 1630              		.cfi_offset 5, -12
 1631              		.cfi_offset 6, -8
ARM GAS  C:\Users\codyg\AppData\Local\Temp\ccQipZVL.s 			page 60


 1632              		.cfi_offset 14, -4
 1633 001a 0024     		movs	r4, #0
 1634 001c 16E0     		b	.L169
 1635              	.LVL160:
 1636              	.L170:
 842:cy_eink_library/pervasive_eink_hardware_driver.c ****     }
 843:cy_eink_library/pervasive_eink_hardware_driver.c ****     /* Send the same horizontal data for all vertical lines */
 844:cy_eink_library/pervasive_eink_hardware_driver.c ****     for (byteCounter = 0; byteCounter < PV_EINK_VERTICAL_SIZE; byteCounter++)
 845:cy_eink_library/pervasive_eink_hardware_driver.c ****     {
 846:cy_eink_library/pervasive_eink_hardware_driver.c ****         /* Scan byte shift per data line */
 847:cy_eink_library/pervasive_eink_hardware_driver.c ****         dataLineScan[(byteCounter >> PV_EINK_PIXEL_SIZE)] = scanTable
 1637              		.loc 1 847 0 discriminator 3
 1638 001e A608     		lsrs	r6, r4, #2
 1639 0020 0C4D     		ldr	r5, .L172
 1640 0022 AA6F     		ldr	r2, [r5, #120]
 848:cy_eink_library/pervasive_eink_hardware_driver.c ****                             [(byteCounter % PV_EINK_SCAN_TABLE_SIZE)];
 1641              		.loc 1 848 0 discriminator 3
 1642 0024 04F00303 		and	r3, r4, #3
 1643 0028 0B49     		ldr	r1, .L172+4
 1644 002a 0B44     		add	r3, r3, r1
 1645 002c 1B7A     		ldrb	r3, [r3, #8]	@ zero_extendqisi2
 847:cy_eink_library/pervasive_eink_hardware_driver.c ****                             [(byteCounter % PV_EINK_SCAN_TABLE_SIZE)];
 1646              		.loc 1 847 0 discriminator 3
 1647 002e 9355     		strb	r3, [r2, r6]
 849:cy_eink_library/pervasive_eink_hardware_driver.c ****         
 850:cy_eink_library/pervasive_eink_hardware_driver.c ****         /* Send the prepared data to the E-INK display */
 851:cy_eink_library/pervasive_eink_hardware_driver.c ****         Pv_EINK_SendData(PV_EINK_PIXEL_DATA_COMMAND_INDEX,
 1648              		.loc 1 851 0 discriminator 3
 1649 0030 6F22     		movs	r2, #111
 1650 0032 2946     		mov	r1, r5
 1651 0034 0A20     		movs	r0, #10
 1652 0036 FFF7FEFF 		bl	Pv_EINK_SendData
 1653              	.LVL161:
 852:cy_eink_library/pervasive_eink_hardware_driver.c ****                         (uint8_t*) &driverPacket.lineBuffer,
 853:cy_eink_library/pervasive_eink_hardware_driver.c ****                          PV_EINK_DATA_LINE_SIZE);
 854:cy_eink_library/pervasive_eink_hardware_driver.c ****         /* Turn on Output Enable to latch the frame */
 855:cy_eink_library/pervasive_eink_hardware_driver.c ****         Pv_EINK_SendByte(PV_EINK_ENABLE_OE_COMMAND_INDEX, 
 1654              		.loc 1 855 0 discriminator 3
 1655 003a 0721     		movs	r1, #7
 1656 003c 0220     		movs	r0, #2
 1657 003e FFF7FEFF 		bl	Pv_EINK_SendByte
 1658              	.LVL162:
 856:cy_eink_library/pervasive_eink_hardware_driver.c ****                          PV_EINK_ENABLE_OE_COMMAND_DATA);
 857:cy_eink_library/pervasive_eink_hardware_driver.c ****         
 858:cy_eink_library/pervasive_eink_hardware_driver.c ****         /* Initialize the next scan byte */
 859:cy_eink_library/pervasive_eink_hardware_driver.c ****         dataLineScan[(byteCounter >> PV_EINK_PIXEL_SIZE)] = 0u;
 1659              		.loc 1 859 0 discriminator 3
 1660 0042 AB6F     		ldr	r3, [r5, #120]
 1661 0044 0022     		movs	r2, #0
 1662 0046 9A55     		strb	r2, [r3, r6]
 844:cy_eink_library/pervasive_eink_hardware_driver.c ****     {
 1663              		.loc 1 844 0 discriminator 3
 1664 0048 0134     		adds	r4, r4, #1
 1665              	.LVL163:
 1666 004a A4B2     		uxth	r4, r4
 1667              	.LVL164:
 1668              	.L169:
ARM GAS  C:\Users\codyg\AppData\Local\Temp\ccQipZVL.s 			page 61


 844:cy_eink_library/pervasive_eink_hardware_driver.c ****     {
 1669              		.loc 1 844 0 is_stmt 0 discriminator 1
 1670 004c AF2C     		cmp	r4, #175
 1671 004e E6D9     		bls	.L170
 860:cy_eink_library/pervasive_eink_hardware_driver.c ****     }
 861:cy_eink_library/pervasive_eink_hardware_driver.c **** }
 1672              		.loc 1 861 0 is_stmt 1
 1673 0050 70BD     		pop	{r4, r5, r6, pc}
 1674              	.LVL165:
 1675              	.L173:
 1676 0052 00BF     		.align	2
 1677              	.L172:
 1678 0054 00000000 		.word	.LANCHOR0
 1679 0058 00000000 		.word	.LANCHOR1
 1680              		.cfi_endproc
 1681              	.LFE525:
 1682              		.size	Pv_EINK_NothingFrame, .-Pv_EINK_NothingFrame
