ARM GAS  C:\Users\codyg\AppData\Local\Temp\ccQipZVL.s 			page 1


   1              		.syntax unified
   2              		.cpu cortex-m4
   3              		.eabi_attribute 27, 1
   4              		.fpu fpv4-sp-d16
   5              		.eabi_attribute 20, 1
   6              		.eabi_attribute 21, 1
   7              		.eabi_attribute 23, 3
   8              		.eabi_attribute 24, 1
   9              		.eabi_attribute 25, 1
  10              		.eabi_attribute 26, 1
  11              		.eabi_attribute 30, 1
  12              		.eabi_attribute 34, 1
  13              		.eabi_attribute 18, 4
  14              		.thumb
  15              		.syntax unified
  16              		.file	"pervasive_eink_hardware_driver.c"
  17              		.text
  18              	.Ltext0:
  19              		.cfi_sections	.debug_frame
  20              		.section	.text.Pv_EINK_SendData,"ax",%progbits
  21              		.align	2
  22              		.global	Pv_EINK_SendData
  23              		.thumb
  24              		.thumb_func
  25              		.type	Pv_EINK_SendData, %function
  26              	Pv_EINK_SendData:
  27              	.LFB517:
  28              		.file 1 "cy_eink_library\\pervasive_eink_hardware_driver.c"
   1:cy_eink_library/pervasive_eink_hardware_driver.c **** /*******************************************************************************
   2:cy_eink_library/pervasive_eink_hardware_driver.c **** * Copyright (2018), Pervasive Displays Inc.
   3:cy_eink_library/pervasive_eink_hardware_driver.c **** *******************************************************************************
   4:cy_eink_library/pervasive_eink_hardware_driver.c **** *
   5:cy_eink_library/pervasive_eink_hardware_driver.c **** *  Authors: Pervasive Displays Inc.
   6:cy_eink_library/pervasive_eink_hardware_driver.c **** *
   7:cy_eink_library/pervasive_eink_hardware_driver.c **** *  Redistribution and use in source and binary forms, with or without
   8:cy_eink_library/pervasive_eink_hardware_driver.c **** *  modification, are permitted provided that the following conditions
   9:cy_eink_library/pervasive_eink_hardware_driver.c **** *  are met:
  10:cy_eink_library/pervasive_eink_hardware_driver.c **** *
  11:cy_eink_library/pervasive_eink_hardware_driver.c **** *  1. Redistributions of source code must retain the above copyright
  12:cy_eink_library/pervasive_eink_hardware_driver.c **** *     notice, this list of conditions and the following disclaimer.
  13:cy_eink_library/pervasive_eink_hardware_driver.c **** *  2. Redistributions in binary form must reproduce the above copyright
  14:cy_eink_library/pervasive_eink_hardware_driver.c **** *     notice, this list of conditions and the following disclaimer in
  15:cy_eink_library/pervasive_eink_hardware_driver.c **** *     the documentation and/or other materials provided with the
  16:cy_eink_library/pervasive_eink_hardware_driver.c **** *     distribution.
  17:cy_eink_library/pervasive_eink_hardware_driver.c **** *
  18:cy_eink_library/pervasive_eink_hardware_driver.c **** *  THIS SOFTWARE IS PROVIDED BY THE COPYRIGHT HOLDERS AND CONTRIBUTORS
  19:cy_eink_library/pervasive_eink_hardware_driver.c **** *  "AS IS" AND ANY EXPRESS OR IMPLIED WARRANTIES, INCLUDING, BUT NOT
  20:cy_eink_library/pervasive_eink_hardware_driver.c **** *  LIMITED TO, THE IMPLIED WARRANTIES OF MERCHANTABILITY AND FITNESS FOR
  21:cy_eink_library/pervasive_eink_hardware_driver.c **** *  A PARTICULAR PURPOSE ARE DISCLAIMED. IN NO EVENT SHALL THE COPYRIGHT
  22:cy_eink_library/pervasive_eink_hardware_driver.c **** *  OWNER OR CONTRIBUTORS BE LIABLE FOR ANY DIRECT, INDIRECT, INCIDENTAL,
  23:cy_eink_library/pervasive_eink_hardware_driver.c **** *  SPECIAL, EXEMPLARY, OR CONSEQUENTIAL DAMAGES (INCLUDING, BUT NOT
  24:cy_eink_library/pervasive_eink_hardware_driver.c **** *  LIMITED TO, PROCUREMENT OF SUBSTITUTE GOODS OR SERVICES; LOSS OF USE,
  25:cy_eink_library/pervasive_eink_hardware_driver.c **** *  DATA, OR PROFITS; OR BUSINESS INTERRUPTION) HOWEVER CAUSED AND ON ANY
  26:cy_eink_library/pervasive_eink_hardware_driver.c **** *  THEORY OF LIABILITY, WHETHER IN CONTRACT, STRICT LIABILITY, OR TORT
  27:cy_eink_library/pervasive_eink_hardware_driver.c **** *  (INCLUDING NEGLIGENCE OR OTHERWISE) ARISING IN ANY WAY OUT OF THE USE
  28:cy_eink_library/pervasive_eink_hardware_driver.c **** *  OF THIS SOFTWARE, EVEN IF ADVISED OF THE POSSIBILITY OF SUCH DAMAGE.
  29:cy_eink_library/pervasive_eink_hardware_driver.c **** *******************************************************************************/
ARM GAS  C:\Users\codyg\AppData\Local\Temp\ccQipZVL.s 			page 2


  30:cy_eink_library/pervasive_eink_hardware_driver.c **** /*****************************************************************************
  31:cy_eink_library/pervasive_eink_hardware_driver.c **** * For the details of E-INK display hardware and driver, see the 2.7 inch display
  32:cy_eink_library/pervasive_eink_hardware_driver.c **** * product specification and G2 COG driver interface documents available at the
  33:cy_eink_library/pervasive_eink_hardware_driver.c **** * following location:
  34:cy_eink_library/pervasive_eink_hardware_driver.c **** * http://www.pervasivedisplays.com/products/271
  35:cy_eink_library/pervasive_eink_hardware_driver.c **** *******************************************************************************/
  36:cy_eink_library/pervasive_eink_hardware_driver.c **** 
  37:cy_eink_library/pervasive_eink_hardware_driver.c **** /* Header file includes */
  38:cy_eink_library/pervasive_eink_hardware_driver.c **** #include <string.h>
  39:cy_eink_library/pervasive_eink_hardware_driver.c **** #include "pervasive_eink_hardware_driver.h"
  40:cy_eink_library/pervasive_eink_hardware_driver.c **** 
  41:cy_eink_library/pervasive_eink_hardware_driver.c **** /* Macro for the dummy byte used in the line data */
  42:cy_eink_library/pervasive_eink_hardware_driver.c **** #define PV_EINK_DUMMY_BYTE     (uint8_t)(0x00u)
  43:cy_eink_library/pervasive_eink_hardware_driver.c **** 
  44:cy_eink_library/pervasive_eink_hardware_driver.c **** /* Data used to initialize the scan bytes */
  45:cy_eink_library/pervasive_eink_hardware_driver.c **** #define PV_EINK_SCAN_BYTE_INIT (uint8_t)(0x00u)
  46:cy_eink_library/pervasive_eink_hardware_driver.c **** 
  47:cy_eink_library/pervasive_eink_hardware_driver.c **** /* Line data structure of 2.7" display. Refer to driver document Section 5.1 
  48:cy_eink_library/pervasive_eink_hardware_driver.c ****    for details */
  49:cy_eink_library/pervasive_eink_hardware_driver.c **** struct eink_lineData
  50:cy_eink_library/pervasive_eink_hardware_driver.c **** {
  51:cy_eink_library/pervasive_eink_hardware_driver.c ****     /*  Dummy byte (0x00) */
  52:cy_eink_library/pervasive_eink_hardware_driver.c ****     uint8_t dummyData;
  53:cy_eink_library/pervasive_eink_hardware_driver.c **** 
  54:cy_eink_library/pervasive_eink_hardware_driver.c ****     /*  2.7" even byte array */
  55:cy_eink_library/pervasive_eink_hardware_driver.c ****     uint8_t even[PV_EINK_HORIZONTAL_SIZE];
  56:cy_eink_library/pervasive_eink_hardware_driver.c **** 
  57:cy_eink_library/pervasive_eink_hardware_driver.c ****     /*  2.7" scan byte array */
  58:cy_eink_library/pervasive_eink_hardware_driver.c ****     uint8_t scan[PV_EINK_SCAN_LINE_SIZE];
  59:cy_eink_library/pervasive_eink_hardware_driver.c **** 
  60:cy_eink_library/pervasive_eink_hardware_driver.c ****     /*  2.7" odd byte array */
  61:cy_eink_library/pervasive_eink_hardware_driver.c ****     uint8_t odd[PV_EINK_HORIZONTAL_SIZE];
  62:cy_eink_library/pervasive_eink_hardware_driver.c **** };
  63:cy_eink_library/pervasive_eink_hardware_driver.c **** 
  64:cy_eink_library/pervasive_eink_hardware_driver.c **** /* Packet structure of a line data */
  65:cy_eink_library/pervasive_eink_hardware_driver.c **** typedef union
  66:cy_eink_library/pervasive_eink_hardware_driver.c **** {
  67:cy_eink_library/pervasive_eink_hardware_driver.c ****     /* Line data structure of 2.7" E-INK display */
  68:cy_eink_library/pervasive_eink_hardware_driver.c ****     struct eink_lineData    lineDataBySize;
  69:cy_eink_library/pervasive_eink_hardware_driver.c **** 
  70:cy_eink_library/pervasive_eink_hardware_driver.c ****     /* Line buffer equal to the data line size */
  71:cy_eink_library/pervasive_eink_hardware_driver.c ****     uint8_t                 lineBuffer[PV_EINK_DATA_LINE_SIZE];
  72:cy_eink_library/pervasive_eink_hardware_driver.c **** 
  73:cy_eink_library/pervasive_eink_hardware_driver.c ****     /* The maximum line buffer data size as length */
  74:cy_eink_library/pervasive_eink_hardware_driver.c **** }   driver_data_packet_t;
  75:cy_eink_library/pervasive_eink_hardware_driver.c **** 
  76:cy_eink_library/pervasive_eink_hardware_driver.c **** /* Variable that stores the packets for one full drive frame. This variable
  77:cy_eink_library/pervasive_eink_hardware_driver.c ****    is used for full and partial updates */
  78:cy_eink_library/pervasive_eink_hardware_driver.c **** driver_data_packet_t        bulkDriverPacket[PV_EINK_VERTICAL_SIZE];
  79:cy_eink_library/pervasive_eink_hardware_driver.c **** 
  80:cy_eink_library/pervasive_eink_hardware_driver.c **** /* Variable that stores a single line data. This variable is used to prepare 
  81:cy_eink_library/pervasive_eink_hardware_driver.c ****    dummy frames */
  82:cy_eink_library/pervasive_eink_hardware_driver.c **** driver_data_packet_t  static driverPacket;
  83:cy_eink_library/pervasive_eink_hardware_driver.c **** 
  84:cy_eink_library/pervasive_eink_hardware_driver.c **** /* Scan table for the four stages of display update*/
  85:cy_eink_library/pervasive_eink_hardware_driver.c **** uint8_t const               scanTable[PV_EINK_SCAN_TABLE_SIZE] =
  86:cy_eink_library/pervasive_eink_hardware_driver.c ****                             PV_EINK_SCAN_TABLE_DATA;
ARM GAS  C:\Users\codyg\AppData\Local\Temp\ccQipZVL.s 			page 3


  87:cy_eink_library/pervasive_eink_hardware_driver.c **** 
  88:cy_eink_library/pervasive_eink_hardware_driver.c **** /* The SPI register addresses for Channel Select */
  89:cy_eink_library/pervasive_eink_hardware_driver.c **** uint8_t const               channelSelect[PV_EINK_CHANNEL_SEL_SIZE] =
  90:cy_eink_library/pervasive_eink_hardware_driver.c ****                             PV_EINK_CHANNEL_SEL_DATA;
  91:cy_eink_library/pervasive_eink_hardware_driver.c **** 
  92:cy_eink_library/pervasive_eink_hardware_driver.c **** /* Variables that store the driver timing information */
  93:cy_eink_library/pervasive_eink_hardware_driver.c **** uint16_t static             fullUpdateCycles;
  94:cy_eink_library/pervasive_eink_hardware_driver.c **** uint16_t static             partialUpdateCycles;
  95:cy_eink_library/pervasive_eink_hardware_driver.c **** 
  96:cy_eink_library/pervasive_eink_hardware_driver.c **** /* Pointers for the data structures used by the driver */
  97:cy_eink_library/pervasive_eink_hardware_driver.c **** uint8_t static*             dataLineEven;
  98:cy_eink_library/pervasive_eink_hardware_driver.c **** uint8_t static*             dataLineOdd;
  99:cy_eink_library/pervasive_eink_hardware_driver.c **** uint8_t static*             dataLineScan;
 100:cy_eink_library/pervasive_eink_hardware_driver.c **** 
 101:cy_eink_library/pervasive_eink_hardware_driver.c **** /*******************************************************************************
 102:cy_eink_library/pervasive_eink_hardware_driver.c **** * Function Name: void Pv_EINK_SendData(uint8_t regAddr, uint8_t* data, 
 103:cy_eink_library/pervasive_eink_hardware_driver.c **** *                                   uint16_t dataLength)
 104:cy_eink_library/pervasive_eink_hardware_driver.c **** ********************************************************************************
 105:cy_eink_library/pervasive_eink_hardware_driver.c **** *
 106:cy_eink_library/pervasive_eink_hardware_driver.c **** * Summary: Sends an array of data to the E-INK driver.
 107:cy_eink_library/pervasive_eink_hardware_driver.c **** *
 108:cy_eink_library/pervasive_eink_hardware_driver.c **** * Parameters:
 109:cy_eink_library/pervasive_eink_hardware_driver.c **** *  uint8_t regAddr    : Display driver register address
 110:cy_eink_library/pervasive_eink_hardware_driver.c **** *  uint8_t* data      : Pointer to the data array that will be sent to the
 111:cy_eink_library/pervasive_eink_hardware_driver.c **** *                       driver
 112:cy_eink_library/pervasive_eink_hardware_driver.c **** *  uint16_t dataLength: Length of the data array
 113:cy_eink_library/pervasive_eink_hardware_driver.c **** *
 114:cy_eink_library/pervasive_eink_hardware_driver.c **** * Return:
 115:cy_eink_library/pervasive_eink_hardware_driver.c **** *  None
 116:cy_eink_library/pervasive_eink_hardware_driver.c **** *
 117:cy_eink_library/pervasive_eink_hardware_driver.c **** * Side Effects:
 118:cy_eink_library/pervasive_eink_hardware_driver.c **** *  None
 119:cy_eink_library/pervasive_eink_hardware_driver.c **** *******************************************************************************/
 120:cy_eink_library/pervasive_eink_hardware_driver.c **** void Pv_EINK_SendData(uint8_t regAddr, uint8_t* data, uint16_t dataLength)
 121:cy_eink_library/pervasive_eink_hardware_driver.c **** {
  29              		.loc 1 121 0
  30              		.cfi_startproc
  31              		@ args = 0, pretend = 0, frame = 0
  32              		@ frame_needed = 0, uses_anonymous_args = 0
  33              	.LVL0:
  34 0000 2DE9F041 		push	{r4, r5, r6, r7, r8, lr}
  35              		.cfi_def_cfa_offset 24
  36              		.cfi_offset 4, -24
  37              		.cfi_offset 5, -20
  38              		.cfi_offset 6, -16
  39              		.cfi_offset 7, -12
  40              		.cfi_offset 8, -8
  41              		.cfi_offset 14, -4
  42 0004 8046     		mov	r8, r0
  43 0006 0E46     		mov	r6, r1
  44 0008 1546     		mov	r5, r2
  45              	.LVL1:
  46              	.LBB58:
  47              	.LBB59:
  48              		.file 2 "Generated_Source\\PSoC6\\pdl\\drivers/peripheral/gpio/cy_gpio.h"
   1:Generated_Source\PSoC6\pdl\drivers/peripheral/gpio/cy_gpio.h **** /***************************************************************************//**
   2:Generated_Source\PSoC6\pdl\drivers/peripheral/gpio/cy_gpio.h **** * \file cy_gpio.h
ARM GAS  C:\Users\codyg\AppData\Local\Temp\ccQipZVL.s 			page 4


   3:Generated_Source\PSoC6\pdl\drivers/peripheral/gpio/cy_gpio.h **** * \version 1.10.1
   4:Generated_Source\PSoC6\pdl\drivers/peripheral/gpio/cy_gpio.h **** *
   5:Generated_Source\PSoC6\pdl\drivers/peripheral/gpio/cy_gpio.h **** * \brief
   6:Generated_Source\PSoC6\pdl\drivers/peripheral/gpio/cy_gpio.h **** * Provides an API declaration of the GPIO driver
   7:Generated_Source\PSoC6\pdl\drivers/peripheral/gpio/cy_gpio.h **** *
   8:Generated_Source\PSoC6\pdl\drivers/peripheral/gpio/cy_gpio.h **** ********************************************************************************
   9:Generated_Source\PSoC6\pdl\drivers/peripheral/gpio/cy_gpio.h **** * \copyright
  10:Generated_Source\PSoC6\pdl\drivers/peripheral/gpio/cy_gpio.h **** * Copyright 2016-2018, Cypress Semiconductor Corporation. All rights reserved.
  11:Generated_Source\PSoC6\pdl\drivers/peripheral/gpio/cy_gpio.h **** * You may use this file only in accordance with the license, terms, conditions,
  12:Generated_Source\PSoC6\pdl\drivers/peripheral/gpio/cy_gpio.h **** * disclaimers, and limitations in the end user license agreement accompanying
  13:Generated_Source\PSoC6\pdl\drivers/peripheral/gpio/cy_gpio.h **** * the software package with which this file was provided.
  14:Generated_Source\PSoC6\pdl\drivers/peripheral/gpio/cy_gpio.h **** *******************************************************************************/
  15:Generated_Source\PSoC6\pdl\drivers/peripheral/gpio/cy_gpio.h **** 
  16:Generated_Source\PSoC6\pdl\drivers/peripheral/gpio/cy_gpio.h **** /**
  17:Generated_Source\PSoC6\pdl\drivers/peripheral/gpio/cy_gpio.h **** * \defgroup group_gpio General Purpose Input Output (GPIO)
  18:Generated_Source\PSoC6\pdl\drivers/peripheral/gpio/cy_gpio.h **** * \{
  19:Generated_Source\PSoC6\pdl\drivers/peripheral/gpio/cy_gpio.h **** * The GPIO driver provides an API to configure and access device Input/Output pins.
  20:Generated_Source\PSoC6\pdl\drivers/peripheral/gpio/cy_gpio.h **** * IO pins include all general purpose types such as GPIO, SIO, HSIO, AUXIO, and
  21:Generated_Source\PSoC6\pdl\drivers/peripheral/gpio/cy_gpio.h **** * their variants.
  22:Generated_Source\PSoC6\pdl\drivers/peripheral/gpio/cy_gpio.h **** *
  23:Generated_Source\PSoC6\pdl\drivers/peripheral/gpio/cy_gpio.h **** * Initialization can be performed either at the port level or by configuring the
  24:Generated_Source\PSoC6\pdl\drivers/peripheral/gpio/cy_gpio.h **** * individual pins. For efficient use of code space, port
  25:Generated_Source\PSoC6\pdl\drivers/peripheral/gpio/cy_gpio.h **** * configuration should be used in the field. Refer to the product device header files 
  26:Generated_Source\PSoC6\pdl\drivers/peripheral/gpio/cy_gpio.h **** * for the list of supported ports and pins.
  27:Generated_Source\PSoC6\pdl\drivers/peripheral/gpio/cy_gpio.h **** * 
  28:Generated_Source\PSoC6\pdl\drivers/peripheral/gpio/cy_gpio.h **** * - Single pin configuration is performed by using \ref Cy_GPIO_Pin_FastInit 
  29:Generated_Source\PSoC6\pdl\drivers/peripheral/gpio/cy_gpio.h **** *   (provide specific values) or \ref Cy_GPIO_Pin_Init (provide a filled
  30:Generated_Source\PSoC6\pdl\drivers/peripheral/gpio/cy_gpio.h **** *   cy_stc_gpio_pin_config_t structure).
  31:Generated_Source\PSoC6\pdl\drivers/peripheral/gpio/cy_gpio.h **** * - An entire port can be configured using \ref Cy_GPIO_Port_Init. Provide a filled 
  32:Generated_Source\PSoC6\pdl\drivers/peripheral/gpio/cy_gpio.h **** *   cy_stc_gpio_prt_config_t structure. The values in the structure are 
  33:Generated_Source\PSoC6\pdl\drivers/peripheral/gpio/cy_gpio.h **** *   bitfields representing the desired value for each pin in the port.
  34:Generated_Source\PSoC6\pdl\drivers/peripheral/gpio/cy_gpio.h **** * - Pin configuration and management is based on the port address and pin number.
  35:Generated_Source\PSoC6\pdl\drivers/peripheral/gpio/cy_gpio.h **** *   \ref Cy_GPIO_PortToAddr function can optionally be used to calculate the port
  36:Generated_Source\PSoC6\pdl\drivers/peripheral/gpio/cy_gpio.h **** *   address from the port number at run-time.
  37:Generated_Source\PSoC6\pdl\drivers/peripheral/gpio/cy_gpio.h **** *
  38:Generated_Source\PSoC6\pdl\drivers/peripheral/gpio/cy_gpio.h **** * Once the pin/port initialization is complete, each pin can be accessed by 
  39:Generated_Source\PSoC6\pdl\drivers/peripheral/gpio/cy_gpio.h **** * specifying the port (GPIO_PRT_Type) and the pin (0-7) in the provided API 
  40:Generated_Source\PSoC6\pdl\drivers/peripheral/gpio/cy_gpio.h **** * functions.
  41:Generated_Source\PSoC6\pdl\drivers/peripheral/gpio/cy_gpio.h **** *
  42:Generated_Source\PSoC6\pdl\drivers/peripheral/gpio/cy_gpio.h **** * \section group_gpio_configuration Configuration Considerations
  43:Generated_Source\PSoC6\pdl\drivers/peripheral/gpio/cy_gpio.h **** *
  44:Generated_Source\PSoC6\pdl\drivers/peripheral/gpio/cy_gpio.h **** * 1. Pin multiplexing is controlled through the High-Speed IO Matrix (HSIOM) selection.
  45:Generated_Source\PSoC6\pdl\drivers/peripheral/gpio/cy_gpio.h **** *    This allows the pin to connect to signal sources/sinks throughout the device,
  46:Generated_Source\PSoC6\pdl\drivers/peripheral/gpio/cy_gpio.h **** *    as defined by the pin HSIOM selection options (en_hsiom_sel_t).
  47:Generated_Source\PSoC6\pdl\drivers/peripheral/gpio/cy_gpio.h **** * 2. All pins are initialized to High-Z drive mode with HSIOM connected to CPU (SW
  48:Generated_Source\PSoC6\pdl\drivers/peripheral/gpio/cy_gpio.h **** *    control digital pin only) at Power-On-Reset(POR).
  49:Generated_Source\PSoC6\pdl\drivers/peripheral/gpio/cy_gpio.h **** * 3. Some API functions perform read-modify-write operations on shared port
  50:Generated_Source\PSoC6\pdl\drivers/peripheral/gpio/cy_gpio.h **** *    registers. These functions are not thread safe and care must be taken when
  51:Generated_Source\PSoC6\pdl\drivers/peripheral/gpio/cy_gpio.h **** *    called by the application.
  52:Generated_Source\PSoC6\pdl\drivers/peripheral/gpio/cy_gpio.h **** *
  53:Generated_Source\PSoC6\pdl\drivers/peripheral/gpio/cy_gpio.h **** * Multiple pins on a port can be updated using direct port register writes with an
  54:Generated_Source\PSoC6\pdl\drivers/peripheral/gpio/cy_gpio.h **** * appropriate port mask. An example is shown below, highlighting the different ways of 
  55:Generated_Source\PSoC6\pdl\drivers/peripheral/gpio/cy_gpio.h **** * configuring Port 1 pins using,
  56:Generated_Source\PSoC6\pdl\drivers/peripheral/gpio/cy_gpio.h **** * 
  57:Generated_Source\PSoC6\pdl\drivers/peripheral/gpio/cy_gpio.h **** * - Port output data register
  58:Generated_Source\PSoC6\pdl\drivers/peripheral/gpio/cy_gpio.h **** * - Port output data set register
  59:Generated_Source\PSoC6\pdl\drivers/peripheral/gpio/cy_gpio.h **** * - Port output data clear register
ARM GAS  C:\Users\codyg\AppData\Local\Temp\ccQipZVL.s 			page 5


  60:Generated_Source\PSoC6\pdl\drivers/peripheral/gpio/cy_gpio.h **** *
  61:Generated_Source\PSoC6\pdl\drivers/peripheral/gpio/cy_gpio.h **** * \snippet gpio/gpio_v1_10_sut_01.cydsn/main_cm4.c Cy_GPIO_Snippet
  62:Generated_Source\PSoC6\pdl\drivers/peripheral/gpio/cy_gpio.h **** *
  63:Generated_Source\PSoC6\pdl\drivers/peripheral/gpio/cy_gpio.h **** * \section group_gpio_more_information More Information
  64:Generated_Source\PSoC6\pdl\drivers/peripheral/gpio/cy_gpio.h **** *
  65:Generated_Source\PSoC6\pdl\drivers/peripheral/gpio/cy_gpio.h **** * Refer to the technical reference manual (TRM) and the device datasheet.
  66:Generated_Source\PSoC6\pdl\drivers/peripheral/gpio/cy_gpio.h **** *
  67:Generated_Source\PSoC6\pdl\drivers/peripheral/gpio/cy_gpio.h **** * \section group_gpio_MISRA MISRA-C Compliance]
  68:Generated_Source\PSoC6\pdl\drivers/peripheral/gpio/cy_gpio.h **** * <table class="doxtable">
  69:Generated_Source\PSoC6\pdl\drivers/peripheral/gpio/cy_gpio.h **** *   <tr>
  70:Generated_Source\PSoC6\pdl\drivers/peripheral/gpio/cy_gpio.h **** *     <th>MISRA Rule</th>
  71:Generated_Source\PSoC6\pdl\drivers/peripheral/gpio/cy_gpio.h **** *     <th>Rule Class (Required/Advisory)</th>
  72:Generated_Source\PSoC6\pdl\drivers/peripheral/gpio/cy_gpio.h **** *     <th>Rule Description</th>
  73:Generated_Source\PSoC6\pdl\drivers/peripheral/gpio/cy_gpio.h **** *     <th>Description of Deviation(s)</th>
  74:Generated_Source\PSoC6\pdl\drivers/peripheral/gpio/cy_gpio.h **** *   </tr>
  75:Generated_Source\PSoC6\pdl\drivers/peripheral/gpio/cy_gpio.h **** *   <tr>
  76:Generated_Source\PSoC6\pdl\drivers/peripheral/gpio/cy_gpio.h **** *     <td>16.7</td>
  77:Generated_Source\PSoC6\pdl\drivers/peripheral/gpio/cy_gpio.h **** *     <td>A</td>
  78:Generated_Source\PSoC6\pdl\drivers/peripheral/gpio/cy_gpio.h **** *     <td>A pointer parameter in a function prototype should be declared as pointer 
  79:Generated_Source\PSoC6\pdl\drivers/peripheral/gpio/cy_gpio.h **** *         to const if the pointer is not used to modify the addressed object.</td>
  80:Generated_Source\PSoC6\pdl\drivers/peripheral/gpio/cy_gpio.h **** *     <td>The objects pointed to by the base addresses of the GPIO port are not always modified.
  81:Generated_Source\PSoC6\pdl\drivers/peripheral/gpio/cy_gpio.h **** *         While a const qualifier can be used in select scenarios, it brings little benefit
  82:Generated_Source\PSoC6\pdl\drivers/peripheral/gpio/cy_gpio.h **** *         in adding this to the affected functions. </td>
  83:Generated_Source\PSoC6\pdl\drivers/peripheral/gpio/cy_gpio.h **** *   </tr>
  84:Generated_Source\PSoC6\pdl\drivers/peripheral/gpio/cy_gpio.h **** * </table>
  85:Generated_Source\PSoC6\pdl\drivers/peripheral/gpio/cy_gpio.h **** *
  86:Generated_Source\PSoC6\pdl\drivers/peripheral/gpio/cy_gpio.h **** * \section group_gpio_changelog Changelog
  87:Generated_Source\PSoC6\pdl\drivers/peripheral/gpio/cy_gpio.h **** * <table class="doxtable">
  88:Generated_Source\PSoC6\pdl\drivers/peripheral/gpio/cy_gpio.h **** *   <tr><th>Version</th><th>Changes</th><th>Reason for Change</th></tr>
  89:Generated_Source\PSoC6\pdl\drivers/peripheral/gpio/cy_gpio.h **** *   <tr>
  90:Generated_Source\PSoC6\pdl\drivers/peripheral/gpio/cy_gpio.h **** *     <td>1.10.1</td>
  91:Generated_Source\PSoC6\pdl\drivers/peripheral/gpio/cy_gpio.h **** *     <td>Updated description for the functions: \ref Cy_GPIO_GetInterruptStatus, 
  92:Generated_Source\PSoC6\pdl\drivers/peripheral/gpio/cy_gpio.h **** *         \ref Cy_GPIO_GetInterruptMask, \ref Cy_GPIO_GetInterruptStatusMasked.
  93:Generated_Source\PSoC6\pdl\drivers/peripheral/gpio/cy_gpio.h **** *         Minor documentation edits.
  94:Generated_Source\PSoC6\pdl\drivers/peripheral/gpio/cy_gpio.h **** *     </td>
  95:Generated_Source\PSoC6\pdl\drivers/peripheral/gpio/cy_gpio.h **** *     <td>Documentation update and clarification</td>
  96:Generated_Source\PSoC6\pdl\drivers/peripheral/gpio/cy_gpio.h **** *   </tr>
  97:Generated_Source\PSoC6\pdl\drivers/peripheral/gpio/cy_gpio.h **** *   <tr>
  98:Generated_Source\PSoC6\pdl\drivers/peripheral/gpio/cy_gpio.h **** *     <td>1.10</td>
  99:Generated_Source\PSoC6\pdl\drivers/peripheral/gpio/cy_gpio.h **** *     <td>Added input parameter validation to the API functions</td>
 100:Generated_Source\PSoC6\pdl\drivers/peripheral/gpio/cy_gpio.h **** *     <td></td>
 101:Generated_Source\PSoC6\pdl\drivers/peripheral/gpio/cy_gpio.h **** *   </tr>
 102:Generated_Source\PSoC6\pdl\drivers/peripheral/gpio/cy_gpio.h **** *   <tr>
 103:Generated_Source\PSoC6\pdl\drivers/peripheral/gpio/cy_gpio.h **** *     <td>1.0</td>
 104:Generated_Source\PSoC6\pdl\drivers/peripheral/gpio/cy_gpio.h **** *     <td>Initial version</td>
 105:Generated_Source\PSoC6\pdl\drivers/peripheral/gpio/cy_gpio.h **** *     <td></td>
 106:Generated_Source\PSoC6\pdl\drivers/peripheral/gpio/cy_gpio.h **** *   </tr>
 107:Generated_Source\PSoC6\pdl\drivers/peripheral/gpio/cy_gpio.h **** * </table>
 108:Generated_Source\PSoC6\pdl\drivers/peripheral/gpio/cy_gpio.h **** *
 109:Generated_Source\PSoC6\pdl\drivers/peripheral/gpio/cy_gpio.h **** * \defgroup group_gpio_macros Macros
 110:Generated_Source\PSoC6\pdl\drivers/peripheral/gpio/cy_gpio.h **** * \defgroup group_gpio_functions Functions
 111:Generated_Source\PSoC6\pdl\drivers/peripheral/gpio/cy_gpio.h **** * \{
 112:Generated_Source\PSoC6\pdl\drivers/peripheral/gpio/cy_gpio.h **** *   \defgroup group_gpio_functions_init       Initialization Functions
 113:Generated_Source\PSoC6\pdl\drivers/peripheral/gpio/cy_gpio.h **** *   \defgroup group_gpio_functions_gpio       GPIO Functions
 114:Generated_Source\PSoC6\pdl\drivers/peripheral/gpio/cy_gpio.h **** *   \defgroup group_gpio_functions_sio        SIO Functions
 115:Generated_Source\PSoC6\pdl\drivers/peripheral/gpio/cy_gpio.h **** *   \defgroup group_gpio_functions_interrupt  Port Interrupt Functions
 116:Generated_Source\PSoC6\pdl\drivers/peripheral/gpio/cy_gpio.h **** * \}
ARM GAS  C:\Users\codyg\AppData\Local\Temp\ccQipZVL.s 			page 6


 117:Generated_Source\PSoC6\pdl\drivers/peripheral/gpio/cy_gpio.h **** * \defgroup group_gpio_data_structures Data Structures
 118:Generated_Source\PSoC6\pdl\drivers/peripheral/gpio/cy_gpio.h **** * \defgroup group_gpio_enums Enumerated Types
 119:Generated_Source\PSoC6\pdl\drivers/peripheral/gpio/cy_gpio.h **** */
 120:Generated_Source\PSoC6\pdl\drivers/peripheral/gpio/cy_gpio.h **** 
 121:Generated_Source\PSoC6\pdl\drivers/peripheral/gpio/cy_gpio.h **** #if !defined(CY_GPIO_H)
 122:Generated_Source\PSoC6\pdl\drivers/peripheral/gpio/cy_gpio.h **** #define CY_GPIO_H
 123:Generated_Source\PSoC6\pdl\drivers/peripheral/gpio/cy_gpio.h **** 
 124:Generated_Source\PSoC6\pdl\drivers/peripheral/gpio/cy_gpio.h **** #include <stddef.h>
 125:Generated_Source\PSoC6\pdl\drivers/peripheral/gpio/cy_gpio.h **** #include "syslib/cy_syslib.h"
 126:Generated_Source\PSoC6\pdl\drivers/peripheral/gpio/cy_gpio.h **** #include "cy_device_headers.h"
 127:Generated_Source\PSoC6\pdl\drivers/peripheral/gpio/cy_gpio.h **** 
 128:Generated_Source\PSoC6\pdl\drivers/peripheral/gpio/cy_gpio.h **** #if defined(__cplusplus)
 129:Generated_Source\PSoC6\pdl\drivers/peripheral/gpio/cy_gpio.h **** extern "C" {
 130:Generated_Source\PSoC6\pdl\drivers/peripheral/gpio/cy_gpio.h **** #endif
 131:Generated_Source\PSoC6\pdl\drivers/peripheral/gpio/cy_gpio.h **** 
 132:Generated_Source\PSoC6\pdl\drivers/peripheral/gpio/cy_gpio.h **** /** \addtogroup group_gpio_macros
 133:Generated_Source\PSoC6\pdl\drivers/peripheral/gpio/cy_gpio.h **** * \{
 134:Generated_Source\PSoC6\pdl\drivers/peripheral/gpio/cy_gpio.h **** */
 135:Generated_Source\PSoC6\pdl\drivers/peripheral/gpio/cy_gpio.h **** 
 136:Generated_Source\PSoC6\pdl\drivers/peripheral/gpio/cy_gpio.h **** /** Driver major version */
 137:Generated_Source\PSoC6\pdl\drivers/peripheral/gpio/cy_gpio.h **** #define CY_GPIO_DRV_VERSION_MAJOR       1
 138:Generated_Source\PSoC6\pdl\drivers/peripheral/gpio/cy_gpio.h **** 
 139:Generated_Source\PSoC6\pdl\drivers/peripheral/gpio/cy_gpio.h **** /** Driver minor version */
 140:Generated_Source\PSoC6\pdl\drivers/peripheral/gpio/cy_gpio.h **** #define CY_GPIO_DRV_VERSION_MINOR       10
 141:Generated_Source\PSoC6\pdl\drivers/peripheral/gpio/cy_gpio.h **** 
 142:Generated_Source\PSoC6\pdl\drivers/peripheral/gpio/cy_gpio.h **** /** GPIO driver ID */
 143:Generated_Source\PSoC6\pdl\drivers/peripheral/gpio/cy_gpio.h **** #define CY_GPIO_ID CY_PDL_DRV_ID(0x16u)
 144:Generated_Source\PSoC6\pdl\drivers/peripheral/gpio/cy_gpio.h **** 
 145:Generated_Source\PSoC6\pdl\drivers/peripheral/gpio/cy_gpio.h **** /** \} group_gpio_macros */
 146:Generated_Source\PSoC6\pdl\drivers/peripheral/gpio/cy_gpio.h **** 
 147:Generated_Source\PSoC6\pdl\drivers/peripheral/gpio/cy_gpio.h **** 
 148:Generated_Source\PSoC6\pdl\drivers/peripheral/gpio/cy_gpio.h **** /***************************************
 149:Generated_Source\PSoC6\pdl\drivers/peripheral/gpio/cy_gpio.h **** *       Enumerations
 150:Generated_Source\PSoC6\pdl\drivers/peripheral/gpio/cy_gpio.h **** ***************************************/
 151:Generated_Source\PSoC6\pdl\drivers/peripheral/gpio/cy_gpio.h **** /**
 152:Generated_Source\PSoC6\pdl\drivers/peripheral/gpio/cy_gpio.h **** * \addtogroup group_gpio_enums
 153:Generated_Source\PSoC6\pdl\drivers/peripheral/gpio/cy_gpio.h **** * \{
 154:Generated_Source\PSoC6\pdl\drivers/peripheral/gpio/cy_gpio.h **** */
 155:Generated_Source\PSoC6\pdl\drivers/peripheral/gpio/cy_gpio.h **** 
 156:Generated_Source\PSoC6\pdl\drivers/peripheral/gpio/cy_gpio.h **** /**
 157:Generated_Source\PSoC6\pdl\drivers/peripheral/gpio/cy_gpio.h **** * GPIO Driver error codes
 158:Generated_Source\PSoC6\pdl\drivers/peripheral/gpio/cy_gpio.h **** */
 159:Generated_Source\PSoC6\pdl\drivers/peripheral/gpio/cy_gpio.h **** typedef enum 
 160:Generated_Source\PSoC6\pdl\drivers/peripheral/gpio/cy_gpio.h **** {
 161:Generated_Source\PSoC6\pdl\drivers/peripheral/gpio/cy_gpio.h ****     CY_GPIO_SUCCESS   = 0x00u,                                    /**< Returned successful */
 162:Generated_Source\PSoC6\pdl\drivers/peripheral/gpio/cy_gpio.h ****     CY_GPIO_BAD_PARAM = CY_GPIO_ID | CY_PDL_STATUS_ERROR | 0x01u, /**< Bad parameter was passed */
 163:Generated_Source\PSoC6\pdl\drivers/peripheral/gpio/cy_gpio.h **** } cy_en_gpio_status_t;
 164:Generated_Source\PSoC6\pdl\drivers/peripheral/gpio/cy_gpio.h **** 
 165:Generated_Source\PSoC6\pdl\drivers/peripheral/gpio/cy_gpio.h **** /** \} group_gpio_enums */
 166:Generated_Source\PSoC6\pdl\drivers/peripheral/gpio/cy_gpio.h **** 
 167:Generated_Source\PSoC6\pdl\drivers/peripheral/gpio/cy_gpio.h **** 
 168:Generated_Source\PSoC6\pdl\drivers/peripheral/gpio/cy_gpio.h **** /***************************************
 169:Generated_Source\PSoC6\pdl\drivers/peripheral/gpio/cy_gpio.h **** *       Configuration Structures
 170:Generated_Source\PSoC6\pdl\drivers/peripheral/gpio/cy_gpio.h **** ***************************************/
 171:Generated_Source\PSoC6\pdl\drivers/peripheral/gpio/cy_gpio.h **** 
 172:Generated_Source\PSoC6\pdl\drivers/peripheral/gpio/cy_gpio.h **** /**
 173:Generated_Source\PSoC6\pdl\drivers/peripheral/gpio/cy_gpio.h **** * \addtogroup group_gpio_data_structures
ARM GAS  C:\Users\codyg\AppData\Local\Temp\ccQipZVL.s 			page 7


 174:Generated_Source\PSoC6\pdl\drivers/peripheral/gpio/cy_gpio.h **** * \{
 175:Generated_Source\PSoC6\pdl\drivers/peripheral/gpio/cy_gpio.h **** */
 176:Generated_Source\PSoC6\pdl\drivers/peripheral/gpio/cy_gpio.h **** 
 177:Generated_Source\PSoC6\pdl\drivers/peripheral/gpio/cy_gpio.h **** /** This structure is used to initialize a port of GPIO pins */
 178:Generated_Source\PSoC6\pdl\drivers/peripheral/gpio/cy_gpio.h **** typedef struct {
 179:Generated_Source\PSoC6\pdl\drivers/peripheral/gpio/cy_gpio.h ****     uint32_t out;           /**< Initial output data for the IO pins in the port */
 180:Generated_Source\PSoC6\pdl\drivers/peripheral/gpio/cy_gpio.h ****     uint32_t intrMask;      /**< Interrupt enable mask for the port interrupt */
 181:Generated_Source\PSoC6\pdl\drivers/peripheral/gpio/cy_gpio.h ****     uint32_t intrCfg;       /**< Port pin interrupt edge detection configuration */
 182:Generated_Source\PSoC6\pdl\drivers/peripheral/gpio/cy_gpio.h ****     uint32_t cfg;           /**< Port pin drive modes and input buffer enable configuration */
 183:Generated_Source\PSoC6\pdl\drivers/peripheral/gpio/cy_gpio.h ****     uint32_t cfgIn;         /**< Port pin input buffer configuration */
 184:Generated_Source\PSoC6\pdl\drivers/peripheral/gpio/cy_gpio.h ****     uint32_t cfgOut;        /**< Port pin output buffer configuration */
 185:Generated_Source\PSoC6\pdl\drivers/peripheral/gpio/cy_gpio.h ****     uint32_t cfgSIO;        /**< Port SIO pins configuration */
 186:Generated_Source\PSoC6\pdl\drivers/peripheral/gpio/cy_gpio.h ****     uint32_t sel0Active;    /**< HSIOM selection for port pins 0,1,2,3 */
 187:Generated_Source\PSoC6\pdl\drivers/peripheral/gpio/cy_gpio.h ****     uint32_t sel1Active;    /**< HSIOM selection for port pins 4,5,6,7 */
 188:Generated_Source\PSoC6\pdl\drivers/peripheral/gpio/cy_gpio.h **** } cy_stc_gpio_prt_config_t;
 189:Generated_Source\PSoC6\pdl\drivers/peripheral/gpio/cy_gpio.h **** 
 190:Generated_Source\PSoC6\pdl\drivers/peripheral/gpio/cy_gpio.h **** /** This structure is used to initialize a single GPIO pin */
 191:Generated_Source\PSoC6\pdl\drivers/peripheral/gpio/cy_gpio.h **** typedef struct {
 192:Generated_Source\PSoC6\pdl\drivers/peripheral/gpio/cy_gpio.h ****     uint32_t outVal;         /**< Pin output state */
 193:Generated_Source\PSoC6\pdl\drivers/peripheral/gpio/cy_gpio.h ****     uint32_t driveMode;      /**< Drive mode */
 194:Generated_Source\PSoC6\pdl\drivers/peripheral/gpio/cy_gpio.h ****     en_hsiom_sel_t hsiom;   /**< HSIOM selection */
 195:Generated_Source\PSoC6\pdl\drivers/peripheral/gpio/cy_gpio.h ****     uint32_t intEdge;        /**< Interrupt Edge type */
 196:Generated_Source\PSoC6\pdl\drivers/peripheral/gpio/cy_gpio.h ****     uint32_t intMask;        /**< Interrupt enable mask */
 197:Generated_Source\PSoC6\pdl\drivers/peripheral/gpio/cy_gpio.h ****     uint32_t vtrip;          /**< Input buffer voltage trip type */
 198:Generated_Source\PSoC6\pdl\drivers/peripheral/gpio/cy_gpio.h ****     uint32_t slewRate;       /**< Output buffer slew rate */
 199:Generated_Source\PSoC6\pdl\drivers/peripheral/gpio/cy_gpio.h ****     uint32_t driveSel;       /**< Drive strength */
 200:Generated_Source\PSoC6\pdl\drivers/peripheral/gpio/cy_gpio.h ****     uint32_t vregEn;         /**< SIO pair output buffer mode */
 201:Generated_Source\PSoC6\pdl\drivers/peripheral/gpio/cy_gpio.h ****     uint32_t ibufMode;       /**< SIO pair input buffer mode */
 202:Generated_Source\PSoC6\pdl\drivers/peripheral/gpio/cy_gpio.h ****     uint32_t vtripSel;       /**< SIO pair input buffer trip point */
 203:Generated_Source\PSoC6\pdl\drivers/peripheral/gpio/cy_gpio.h ****     uint32_t vrefSel;        /**< SIO pair reference voltage for input buffer trip point */
 204:Generated_Source\PSoC6\pdl\drivers/peripheral/gpio/cy_gpio.h ****     uint32_t vohSel;         /**< SIO pair regulated voltage output level */
 205:Generated_Source\PSoC6\pdl\drivers/peripheral/gpio/cy_gpio.h **** } cy_stc_gpio_pin_config_t;
 206:Generated_Source\PSoC6\pdl\drivers/peripheral/gpio/cy_gpio.h **** 
 207:Generated_Source\PSoC6\pdl\drivers/peripheral/gpio/cy_gpio.h **** /** \} group_gpio_data_structures */
 208:Generated_Source\PSoC6\pdl\drivers/peripheral/gpio/cy_gpio.h **** 
 209:Generated_Source\PSoC6\pdl\drivers/peripheral/gpio/cy_gpio.h **** /***************************************
 210:Generated_Source\PSoC6\pdl\drivers/peripheral/gpio/cy_gpio.h **** *        Constants
 211:Generated_Source\PSoC6\pdl\drivers/peripheral/gpio/cy_gpio.h **** ***************************************/
 212:Generated_Source\PSoC6\pdl\drivers/peripheral/gpio/cy_gpio.h **** 
 213:Generated_Source\PSoC6\pdl\drivers/peripheral/gpio/cy_gpio.h **** /** \cond INTERNAL */
 214:Generated_Source\PSoC6\pdl\drivers/peripheral/gpio/cy_gpio.h **** 
 215:Generated_Source\PSoC6\pdl\drivers/peripheral/gpio/cy_gpio.h **** /* General Constants */
 216:Generated_Source\PSoC6\pdl\drivers/peripheral/gpio/cy_gpio.h **** #define CY_GPIO_PRT_HALF                       (4UL)      /**< Half-way point of a GPIO port */
 217:Generated_Source\PSoC6\pdl\drivers/peripheral/gpio/cy_gpio.h **** #define CY_GPIO_PRT_DEINIT                     (0UL)      /**< De-init value for port registers */
 218:Generated_Source\PSoC6\pdl\drivers/peripheral/gpio/cy_gpio.h **** 
 219:Generated_Source\PSoC6\pdl\drivers/peripheral/gpio/cy_gpio.h **** /* GPIO Masks */
 220:Generated_Source\PSoC6\pdl\drivers/peripheral/gpio/cy_gpio.h **** #define CY_GPIO_HSIOM_MASK                     (0x1FUL)   /**< HSIOM selection mask */
 221:Generated_Source\PSoC6\pdl\drivers/peripheral/gpio/cy_gpio.h **** #define CY_GPIO_OUT_MASK                       (0x01UL)   /**< Single pin mask for OUT register */
 222:Generated_Source\PSoC6\pdl\drivers/peripheral/gpio/cy_gpio.h **** #define CY_GPIO_IN_MASK                        (0x01UL)   /**< Single pin mask for IN register */
 223:Generated_Source\PSoC6\pdl\drivers/peripheral/gpio/cy_gpio.h **** #define CY_GPIO_CFG_DM_MASK                    (0x0FUL)   /**< Single pin mask for drive mode in CF
 224:Generated_Source\PSoC6\pdl\drivers/peripheral/gpio/cy_gpio.h **** #define CY_GPIO_CFG_IN_VTRIP_SEL_MASK          (0x01UL)   /**< Single pin mask for VTRIP selection 
 225:Generated_Source\PSoC6\pdl\drivers/peripheral/gpio/cy_gpio.h **** #define CY_GPIO_CFG_OUT_SLOW_MASK              (0x01UL)   /**< Single pin mask for slew rate in CFG
 226:Generated_Source\PSoC6\pdl\drivers/peripheral/gpio/cy_gpio.h **** #define CY_GPIO_CFG_OUT_DRIVE_SEL_MASK         (0x03UL)   /**< Single pin mask for drive strength i
 227:Generated_Source\PSoC6\pdl\drivers/peripheral/gpio/cy_gpio.h **** #define CY_GPIO_INTR_STATUS_MASK               (0x01UL)   /**< Single pin mask for interrupt status
 228:Generated_Source\PSoC6\pdl\drivers/peripheral/gpio/cy_gpio.h **** #define CY_GPIO_INTR_EN_MASK                   (0x01UL)   /**< Single pin mask for interrupt status
 229:Generated_Source\PSoC6\pdl\drivers/peripheral/gpio/cy_gpio.h **** #define CY_GPIO_INTR_MASKED_MASK               (0x01UL)   /**< Single pin mask for masked interrupt
 230:Generated_Source\PSoC6\pdl\drivers/peripheral/gpio/cy_gpio.h **** #define CY_GPIO_INTR_SET_MASK                  (0x01UL)   /**< Single pin mask for setting the inte
ARM GAS  C:\Users\codyg\AppData\Local\Temp\ccQipZVL.s 			page 8


 231:Generated_Source\PSoC6\pdl\drivers/peripheral/gpio/cy_gpio.h **** #define CY_GPIO_INTR_EDGE_MASK                 (0x03UL)   /**< Single pin mask for interrupt edge t
 232:Generated_Source\PSoC6\pdl\drivers/peripheral/gpio/cy_gpio.h **** #define CY_GPIO_INTR_FLT_EDGE_MASK             (0x07UL)   /**< Single pin mask for setting filtered
 233:Generated_Source\PSoC6\pdl\drivers/peripheral/gpio/cy_gpio.h **** 
 234:Generated_Source\PSoC6\pdl\drivers/peripheral/gpio/cy_gpio.h **** /* SIO Masks */
 235:Generated_Source\PSoC6\pdl\drivers/peripheral/gpio/cy_gpio.h **** #define CY_GPIO_VREG_EN_MASK                   (0x01UL)   /**< Single SIO pin mask for voltage regu
 236:Generated_Source\PSoC6\pdl\drivers/peripheral/gpio/cy_gpio.h **** #define CY_GPIO_IBUF_MASK                      (0x01UL)   /**< Single SIO pin mask for input buffer
 237:Generated_Source\PSoC6\pdl\drivers/peripheral/gpio/cy_gpio.h **** #define CY_GPIO_IBUF_SHIFT                     (0x01UL)   /**< Single SIO pin shift for input buffe
 238:Generated_Source\PSoC6\pdl\drivers/peripheral/gpio/cy_gpio.h **** #define CY_GPIO_VTRIP_SEL_MASK                 (0x01UL)   /**< Single SIO pin mask for the input bu
 239:Generated_Source\PSoC6\pdl\drivers/peripheral/gpio/cy_gpio.h **** #define CY_GPIO_VTRIP_SEL_SHIFT                (0x02UL)   /**< Single SIO pin shift for the input b
 240:Generated_Source\PSoC6\pdl\drivers/peripheral/gpio/cy_gpio.h **** #define CY_GPIO_VREF_SEL_MASK                  (0x03UL)   /**< Single SIO pin mask for voltage refe
 241:Generated_Source\PSoC6\pdl\drivers/peripheral/gpio/cy_gpio.h **** #define CY_GPIO_VREF_SEL_SHIFT                 (0x03UL)   /**< Single SIO pin shift for voltage ref
 242:Generated_Source\PSoC6\pdl\drivers/peripheral/gpio/cy_gpio.h **** #define CY_GPIO_VOH_SEL_MASK                   (0x07UL)   /**< Single SIO pin mask for VOH */
 243:Generated_Source\PSoC6\pdl\drivers/peripheral/gpio/cy_gpio.h **** #define CY_GPIO_VOH_SEL_SHIFT                  (0x05UL)   /**< Single SIO pin shift for VOH */
 244:Generated_Source\PSoC6\pdl\drivers/peripheral/gpio/cy_gpio.h **** 
 245:Generated_Source\PSoC6\pdl\drivers/peripheral/gpio/cy_gpio.h **** /* Special mask for SIO pin pair setting */
 246:Generated_Source\PSoC6\pdl\drivers/peripheral/gpio/cy_gpio.h **** #define CY_GPIO_SIO_ODD_PIN_MASK               (0x00FEUL) /**< SIO pin pair selection mask */
 247:Generated_Source\PSoC6\pdl\drivers/peripheral/gpio/cy_gpio.h **** #define CY_GPIO_SIO_PIN_MASK                   (0x00FFUL) /**< SIO pin pair mask */
 248:Generated_Source\PSoC6\pdl\drivers/peripheral/gpio/cy_gpio.h **** 
 249:Generated_Source\PSoC6\pdl\drivers/peripheral/gpio/cy_gpio.h **** /* Offsets */
 250:Generated_Source\PSoC6\pdl\drivers/peripheral/gpio/cy_gpio.h **** #define CY_GPIO_HSIOM_OFFSET                   (3UL)      /**< Offset for HSIOM */
 251:Generated_Source\PSoC6\pdl\drivers/peripheral/gpio/cy_gpio.h **** #define CY_GPIO_DRIVE_MODE_OFFSET              (2UL)      /**< Offset for Drive mode */
 252:Generated_Source\PSoC6\pdl\drivers/peripheral/gpio/cy_gpio.h **** #define CY_GPIO_INBUF_OFFSET                   (3UL)      /**< Offset for input buffer */
 253:Generated_Source\PSoC6\pdl\drivers/peripheral/gpio/cy_gpio.h **** #define CY_GPIO_CFG_OUT_DRIVE_OFFSET           (16UL)     /**< Offset for drive strength */
 254:Generated_Source\PSoC6\pdl\drivers/peripheral/gpio/cy_gpio.h **** #define CY_GPIO_INTR_CFG_OFFSET                (1UL)      /**< Offset for interrupt config */
 255:Generated_Source\PSoC6\pdl\drivers/peripheral/gpio/cy_gpio.h **** #define CY_GPIO_INTR_FILT_OFFSET               (18UL)     /**< Offset for filtered interrupt config
 256:Generated_Source\PSoC6\pdl\drivers/peripheral/gpio/cy_gpio.h **** #define CY_GPIO_CFG_SIO_OFFSET                 (2UL)      /**< Offset for SIO config */
 257:Generated_Source\PSoC6\pdl\drivers/peripheral/gpio/cy_gpio.h **** 
 258:Generated_Source\PSoC6\pdl\drivers/peripheral/gpio/cy_gpio.h **** /* Parameter validation constants */
 259:Generated_Source\PSoC6\pdl\drivers/peripheral/gpio/cy_gpio.h **** #define CY_GPIO_PINS_MAX                       (8UL)      /**< Number of pins in the port */
 260:Generated_Source\PSoC6\pdl\drivers/peripheral/gpio/cy_gpio.h **** #define CY_GPIO_PRT_PINS_MASK                  (0x0000000FFUL)
 261:Generated_Source\PSoC6\pdl\drivers/peripheral/gpio/cy_gpio.h **** #define CY_GPIO_PRT_INTR_CFG_EDGE_SEL_MASK     (GPIO_PRT_INTR_CFG_EDGE0_SEL_Msk | \
 262:Generated_Source\PSoC6\pdl\drivers/peripheral/gpio/cy_gpio.h ****                                                 GPIO_PRT_INTR_CFG_EDGE1_SEL_Msk | \
 263:Generated_Source\PSoC6\pdl\drivers/peripheral/gpio/cy_gpio.h ****                                                 GPIO_PRT_INTR_CFG_EDGE2_SEL_Msk | \
 264:Generated_Source\PSoC6\pdl\drivers/peripheral/gpio/cy_gpio.h ****                                                 GPIO_PRT_INTR_CFG_EDGE3_SEL_Msk | \
 265:Generated_Source\PSoC6\pdl\drivers/peripheral/gpio/cy_gpio.h ****                                                 GPIO_PRT_INTR_CFG_EDGE4_SEL_Msk | \
 266:Generated_Source\PSoC6\pdl\drivers/peripheral/gpio/cy_gpio.h ****                                                 GPIO_PRT_INTR_CFG_EDGE5_SEL_Msk | \
 267:Generated_Source\PSoC6\pdl\drivers/peripheral/gpio/cy_gpio.h ****                                                 GPIO_PRT_INTR_CFG_EDGE6_SEL_Msk | \
 268:Generated_Source\PSoC6\pdl\drivers/peripheral/gpio/cy_gpio.h ****                                                 GPIO_PRT_INTR_CFG_EDGE7_SEL_Msk)            
 269:Generated_Source\PSoC6\pdl\drivers/peripheral/gpio/cy_gpio.h **** #define CY_GPIO_PRT_INTR_CFG_RANGE_MASK        (CY_GPIO_PRT_INTR_CFG_EDGE_SEL_MASK | \
 270:Generated_Source\PSoC6\pdl\drivers/peripheral/gpio/cy_gpio.h ****                                                 GPIO_PRT_INTR_CFG_FLT_EDGE_SEL_Msk | \
 271:Generated_Source\PSoC6\pdl\drivers/peripheral/gpio/cy_gpio.h ****                                                 GPIO_PRT_INTR_CFG_FLT_SEL_Msk)
 272:Generated_Source\PSoC6\pdl\drivers/peripheral/gpio/cy_gpio.h **** #define CY_GPIO_PRT_INT_MASK_MASK              (0x0000001FFUL)
 273:Generated_Source\PSoC6\pdl\drivers/peripheral/gpio/cy_gpio.h **** #define CY_GPIO_PRT_SEL_ACTIVE_MASK            (0x1FFFFFFFUL)
 274:Generated_Source\PSoC6\pdl\drivers/peripheral/gpio/cy_gpio.h **** 
 275:Generated_Source\PSoC6\pdl\drivers/peripheral/gpio/cy_gpio.h **** /* Parameter validation macros */
 276:Generated_Source\PSoC6\pdl\drivers/peripheral/gpio/cy_gpio.h **** #define CY_GPIO_IS_PIN_VALID(pinNum)           (CY_GPIO_PINS_MAX > (pinNum))
 277:Generated_Source\PSoC6\pdl\drivers/peripheral/gpio/cy_gpio.h **** #define CY_GPIO_IS_FILTER_PIN_VALID(pinNum)    (CY_GPIO_PINS_MAX >= (pinNum))
 278:Generated_Source\PSoC6\pdl\drivers/peripheral/gpio/cy_gpio.h **** #define CY_GPIO_IS_VALUE_VALID(outVal)         (1UL >= (outVal))
 279:Generated_Source\PSoC6\pdl\drivers/peripheral/gpio/cy_gpio.h **** #define CY_GPIO_IS_DM_VALID(driveMode)         (0U == ((driveMode) & (uint32_t)~CY_GPIO_CFG_DM_MASK
 280:Generated_Source\PSoC6\pdl\drivers/peripheral/gpio/cy_gpio.h **** 
 281:Generated_Source\PSoC6\pdl\drivers/peripheral/gpio/cy_gpio.h **** #define CY_GPIO_IS_HSIOM_VALID(hsiom)          (0U == ((hsiom) & (uint32_t)~CY_GPIO_HSIOM_MASK))
 282:Generated_Source\PSoC6\pdl\drivers/peripheral/gpio/cy_gpio.h **** 
 283:Generated_Source\PSoC6\pdl\drivers/peripheral/gpio/cy_gpio.h **** #define CY_GPIO_IS_INT_EDGE_VALID(intEdge)     ((CY_GPIO_INTR_DISABLE  == (intEdge)) || \
 284:Generated_Source\PSoC6\pdl\drivers/peripheral/gpio/cy_gpio.h ****                                                 (CY_GPIO_INTR_RISING   == (intEdge)) || \
 285:Generated_Source\PSoC6\pdl\drivers/peripheral/gpio/cy_gpio.h ****                                                 (CY_GPIO_INTR_FALLING  == (intEdge)) || \
 286:Generated_Source\PSoC6\pdl\drivers/peripheral/gpio/cy_gpio.h ****                                                 (CY_GPIO_INTR_BOTH     == (intEdge)))
 287:Generated_Source\PSoC6\pdl\drivers/peripheral/gpio/cy_gpio.h **** 
ARM GAS  C:\Users\codyg\AppData\Local\Temp\ccQipZVL.s 			page 9


 288:Generated_Source\PSoC6\pdl\drivers/peripheral/gpio/cy_gpio.h **** #define CY_GPIO_IS_DRIVE_SEL_VALID(driveSel)   ((CY_GPIO_DRIVE_FULL    == (driveSel)) || \
 289:Generated_Source\PSoC6\pdl\drivers/peripheral/gpio/cy_gpio.h ****                                                 (CY_GPIO_DRIVE_1_2     == (driveSel)) || \
 290:Generated_Source\PSoC6\pdl\drivers/peripheral/gpio/cy_gpio.h ****                                                 (CY_GPIO_DRIVE_1_4     == (driveSel)) || \
 291:Generated_Source\PSoC6\pdl\drivers/peripheral/gpio/cy_gpio.h ****                                                 (CY_GPIO_DRIVE_1_8     == (driveSel)))
 292:Generated_Source\PSoC6\pdl\drivers/peripheral/gpio/cy_gpio.h **** 
 293:Generated_Source\PSoC6\pdl\drivers/peripheral/gpio/cy_gpio.h **** #define CY_GPIO_IS_VREF_SEL_VALID(vrefSel)     ((CY_SIO_VREF_PINREF    == (vrefSel)) || \
 294:Generated_Source\PSoC6\pdl\drivers/peripheral/gpio/cy_gpio.h ****                                                 (CY_SIO_VREF_1_2V      == (vrefSel)) || \
 295:Generated_Source\PSoC6\pdl\drivers/peripheral/gpio/cy_gpio.h ****                                                 (CY_SIO_VREF_AMUX_A    == (vrefSel)) || \
 296:Generated_Source\PSoC6\pdl\drivers/peripheral/gpio/cy_gpio.h ****                                                 (CY_SIO_VREF_AMUX_B    == (vrefSel)))
 297:Generated_Source\PSoC6\pdl\drivers/peripheral/gpio/cy_gpio.h **** 
 298:Generated_Source\PSoC6\pdl\drivers/peripheral/gpio/cy_gpio.h **** #define CY_GPIO_IS_VOH_SEL_VALID(vrefSel)      ((CY_SIO_VOH_1_00       == (vrefSel)) || \
 299:Generated_Source\PSoC6\pdl\drivers/peripheral/gpio/cy_gpio.h ****                                                 (CY_SIO_VOH_1_25       == (vrefSel)) || \
 300:Generated_Source\PSoC6\pdl\drivers/peripheral/gpio/cy_gpio.h ****                                                 (CY_SIO_VOH_1_49       == (vrefSel)) || \
 301:Generated_Source\PSoC6\pdl\drivers/peripheral/gpio/cy_gpio.h ****                                                 (CY_SIO_VOH_1_67       == (vrefSel)) || \
 302:Generated_Source\PSoC6\pdl\drivers/peripheral/gpio/cy_gpio.h ****                                                 (CY_SIO_VOH_2_08       == (vrefSel)) || \
 303:Generated_Source\PSoC6\pdl\drivers/peripheral/gpio/cy_gpio.h ****                                                 (CY_SIO_VOH_2_50       == (vrefSel)) || \
 304:Generated_Source\PSoC6\pdl\drivers/peripheral/gpio/cy_gpio.h ****                                                 (CY_SIO_VOH_2_78       == (vrefSel)) || \
 305:Generated_Source\PSoC6\pdl\drivers/peripheral/gpio/cy_gpio.h ****                                                 (CY_SIO_VOH_4_16       == (vrefSel)))
 306:Generated_Source\PSoC6\pdl\drivers/peripheral/gpio/cy_gpio.h ****                    
 307:Generated_Source\PSoC6\pdl\drivers/peripheral/gpio/cy_gpio.h **** #define CY_GPIO_IS_PIN_BIT_VALID(pinBit)       (0U == ((pinBit) & (uint32_t)~CY_GPIO_PRT_PINS_MASK)
 308:Generated_Source\PSoC6\pdl\drivers/peripheral/gpio/cy_gpio.h **** #define CY_GPIO_IS_INTR_CFG_VALID(intrCfg)     (0U == ((intrCfg) & (uint32_t)~CY_GPIO_PRT_INTR_CFG_
 309:Generated_Source\PSoC6\pdl\drivers/peripheral/gpio/cy_gpio.h **** #define CY_GPIO_IS_INTR_MASK_VALID(intrMask)   (0U == ((intrMask) & (uint32_t)~CY_GPIO_PRT_INT_MASK
 310:Generated_Source\PSoC6\pdl\drivers/peripheral/gpio/cy_gpio.h **** #define CY_GPIO_IS_SEL_ACT_VALID(selActive)    (0U == ((selActive) & (uint32_t)~CY_GPIO_PRT_SEL_ACT
 311:Generated_Source\PSoC6\pdl\drivers/peripheral/gpio/cy_gpio.h **** 
 312:Generated_Source\PSoC6\pdl\drivers/peripheral/gpio/cy_gpio.h **** /** \endcond */
 313:Generated_Source\PSoC6\pdl\drivers/peripheral/gpio/cy_gpio.h **** 
 314:Generated_Source\PSoC6\pdl\drivers/peripheral/gpio/cy_gpio.h **** 
 315:Generated_Source\PSoC6\pdl\drivers/peripheral/gpio/cy_gpio.h **** /***************************************
 316:Generated_Source\PSoC6\pdl\drivers/peripheral/gpio/cy_gpio.h **** *        Function Constants
 317:Generated_Source\PSoC6\pdl\drivers/peripheral/gpio/cy_gpio.h **** ***************************************/
 318:Generated_Source\PSoC6\pdl\drivers/peripheral/gpio/cy_gpio.h **** 
 319:Generated_Source\PSoC6\pdl\drivers/peripheral/gpio/cy_gpio.h **** /**
 320:Generated_Source\PSoC6\pdl\drivers/peripheral/gpio/cy_gpio.h **** * \addtogroup group_gpio_macros
 321:Generated_Source\PSoC6\pdl\drivers/peripheral/gpio/cy_gpio.h **** * \{
 322:Generated_Source\PSoC6\pdl\drivers/peripheral/gpio/cy_gpio.h **** */
 323:Generated_Source\PSoC6\pdl\drivers/peripheral/gpio/cy_gpio.h **** 
 324:Generated_Source\PSoC6\pdl\drivers/peripheral/gpio/cy_gpio.h **** /**
 325:Generated_Source\PSoC6\pdl\drivers/peripheral/gpio/cy_gpio.h **** * \defgroup group_gpio_driveModes Pin drive mode
 326:Generated_Source\PSoC6\pdl\drivers/peripheral/gpio/cy_gpio.h **** * \{
 327:Generated_Source\PSoC6\pdl\drivers/peripheral/gpio/cy_gpio.h **** * Constants to be used for setting the drive mode of the pin.
 328:Generated_Source\PSoC6\pdl\drivers/peripheral/gpio/cy_gpio.h **** */
 329:Generated_Source\PSoC6\pdl\drivers/peripheral/gpio/cy_gpio.h **** #define CY_GPIO_DM_ANALOG                      (0x00UL) /**< \brief Analog High-Z. Input buffer off
 330:Generated_Source\PSoC6\pdl\drivers/peripheral/gpio/cy_gpio.h **** #define CY_GPIO_DM_PULLUP_IN_OFF               (0x02UL) /**< \brief Resistive Pull-Up. Input buffer
 331:Generated_Source\PSoC6\pdl\drivers/peripheral/gpio/cy_gpio.h **** #define CY_GPIO_DM_PULLDOWN_IN_OFF             (0x03UL) /**< \brief Resistive Pull-Down. Input buff
 332:Generated_Source\PSoC6\pdl\drivers/peripheral/gpio/cy_gpio.h **** #define CY_GPIO_DM_OD_DRIVESLOW_IN_OFF         (0x04UL) /**< \brief Open Drain, Drives Low. Input b
 333:Generated_Source\PSoC6\pdl\drivers/peripheral/gpio/cy_gpio.h **** #define CY_GPIO_DM_OD_DRIVESHIGH_IN_OFF        (0x05UL) /**< \brief Open Drain, Drives High. Input 
 334:Generated_Source\PSoC6\pdl\drivers/peripheral/gpio/cy_gpio.h **** #define CY_GPIO_DM_STRONG_IN_OFF               (0x06UL) /**< \brief Strong Drive. Input buffer off 
 335:Generated_Source\PSoC6\pdl\drivers/peripheral/gpio/cy_gpio.h **** #define CY_GPIO_DM_PULLUP_DOWN_IN_OFF          (0x07UL) /**< \brief Resistive Pull-Up/Down. Input b
 336:Generated_Source\PSoC6\pdl\drivers/peripheral/gpio/cy_gpio.h **** #define CY_GPIO_DM_HIGHZ                       (0x08UL) /**< \brief Digital High-Z. Input buffer on
 337:Generated_Source\PSoC6\pdl\drivers/peripheral/gpio/cy_gpio.h **** #define CY_GPIO_DM_PULLUP                      (0x0AUL) /**< \brief Resistive Pull-Up. Input buffer
 338:Generated_Source\PSoC6\pdl\drivers/peripheral/gpio/cy_gpio.h **** #define CY_GPIO_DM_PULLDOWN                    (0x0BUL) /**< \brief Resistive Pull-Down. Input buff
 339:Generated_Source\PSoC6\pdl\drivers/peripheral/gpio/cy_gpio.h **** #define CY_GPIO_DM_OD_DRIVESLOW                (0x0CUL) /**< \brief Open Drain, Drives Low. Input b
 340:Generated_Source\PSoC6\pdl\drivers/peripheral/gpio/cy_gpio.h **** #define CY_GPIO_DM_OD_DRIVESHIGH               (0x0DUL) /**< \brief Open Drain, Drives High. Input 
 341:Generated_Source\PSoC6\pdl\drivers/peripheral/gpio/cy_gpio.h **** #define CY_GPIO_DM_STRONG                      (0x0EUL) /**< \brief Strong Drive. Input buffer on *
 342:Generated_Source\PSoC6\pdl\drivers/peripheral/gpio/cy_gpio.h **** #define CY_GPIO_DM_PULLUP_DOWN                 (0x0FUL) /**< \brief Resistive Pull-Up/Down. Input b
 343:Generated_Source\PSoC6\pdl\drivers/peripheral/gpio/cy_gpio.h **** /** \} */
 344:Generated_Source\PSoC6\pdl\drivers/peripheral/gpio/cy_gpio.h **** 
ARM GAS  C:\Users\codyg\AppData\Local\Temp\ccQipZVL.s 			page 10


 345:Generated_Source\PSoC6\pdl\drivers/peripheral/gpio/cy_gpio.h **** /**
 346:Generated_Source\PSoC6\pdl\drivers/peripheral/gpio/cy_gpio.h **** * \defgroup group_gpio_vtrip Voltage trip mode
 347:Generated_Source\PSoC6\pdl\drivers/peripheral/gpio/cy_gpio.h **** * \{
 348:Generated_Source\PSoC6\pdl\drivers/peripheral/gpio/cy_gpio.h **** * Constants to be used for setting the voltage trip type on the pin.
 349:Generated_Source\PSoC6\pdl\drivers/peripheral/gpio/cy_gpio.h **** */
 350:Generated_Source\PSoC6\pdl\drivers/peripheral/gpio/cy_gpio.h **** #define CY_GPIO_VTRIP_CMOS                     (0x00UL) /**< \brief Input buffer compatible with CM
 351:Generated_Source\PSoC6\pdl\drivers/peripheral/gpio/cy_gpio.h **** #define CY_GPIO_VTRIP_TTL                      (0x01UL) /**< \brief Input buffer compatible with TT
 352:Generated_Source\PSoC6\pdl\drivers/peripheral/gpio/cy_gpio.h **** /** \} */
 353:Generated_Source\PSoC6\pdl\drivers/peripheral/gpio/cy_gpio.h **** 
 354:Generated_Source\PSoC6\pdl\drivers/peripheral/gpio/cy_gpio.h **** /**
 355:Generated_Source\PSoC6\pdl\drivers/peripheral/gpio/cy_gpio.h **** * \defgroup group_gpio_slewRate Slew Rate Mode
 356:Generated_Source\PSoC6\pdl\drivers/peripheral/gpio/cy_gpio.h **** * \{
 357:Generated_Source\PSoC6\pdl\drivers/peripheral/gpio/cy_gpio.h **** * Constants to be used for setting the slew rate of the pin.
 358:Generated_Source\PSoC6\pdl\drivers/peripheral/gpio/cy_gpio.h **** */
 359:Generated_Source\PSoC6\pdl\drivers/peripheral/gpio/cy_gpio.h **** #define CY_GPIO_SLEW_FAST                      (0x00UL) /**< \brief Fast slew rate */
 360:Generated_Source\PSoC6\pdl\drivers/peripheral/gpio/cy_gpio.h **** #define CY_GPIO_SLEW_SLOW                      (0x01UL) /**< \brief Slow slew rate */
 361:Generated_Source\PSoC6\pdl\drivers/peripheral/gpio/cy_gpio.h **** /** \} */
 362:Generated_Source\PSoC6\pdl\drivers/peripheral/gpio/cy_gpio.h **** 
 363:Generated_Source\PSoC6\pdl\drivers/peripheral/gpio/cy_gpio.h **** /**
 364:Generated_Source\PSoC6\pdl\drivers/peripheral/gpio/cy_gpio.h **** * \defgroup group_gpio_driveStrength Pin drive strength
 365:Generated_Source\PSoC6\pdl\drivers/peripheral/gpio/cy_gpio.h **** * \{
 366:Generated_Source\PSoC6\pdl\drivers/peripheral/gpio/cy_gpio.h **** * Constants to be used for setting the drive strength of the pin.
 367:Generated_Source\PSoC6\pdl\drivers/peripheral/gpio/cy_gpio.h **** */
 368:Generated_Source\PSoC6\pdl\drivers/peripheral/gpio/cy_gpio.h **** #define CY_GPIO_DRIVE_FULL                     (0x00UL) /**< \brief Full drive strength: Max drive 
 369:Generated_Source\PSoC6\pdl\drivers/peripheral/gpio/cy_gpio.h **** #define CY_GPIO_DRIVE_1_2                      (0x01UL) /**< \brief 1/2 drive strength: 1/2 drive c
 370:Generated_Source\PSoC6\pdl\drivers/peripheral/gpio/cy_gpio.h **** #define CY_GPIO_DRIVE_1_4                      (0x02UL) /**< \brief 1/4 drive strength: 1/4 drive c
 371:Generated_Source\PSoC6\pdl\drivers/peripheral/gpio/cy_gpio.h **** #define CY_GPIO_DRIVE_1_8                      (0x03UL) /**< \brief 1/8 drive strength: 1/8 drive c
 372:Generated_Source\PSoC6\pdl\drivers/peripheral/gpio/cy_gpio.h **** /** \} */
 373:Generated_Source\PSoC6\pdl\drivers/peripheral/gpio/cy_gpio.h **** 
 374:Generated_Source\PSoC6\pdl\drivers/peripheral/gpio/cy_gpio.h **** /**
 375:Generated_Source\PSoC6\pdl\drivers/peripheral/gpio/cy_gpio.h **** * \defgroup group_gpio_interruptTrigger Interrupt trigger type
 376:Generated_Source\PSoC6\pdl\drivers/peripheral/gpio/cy_gpio.h **** * \{
 377:Generated_Source\PSoC6\pdl\drivers/peripheral/gpio/cy_gpio.h **** * Constants to be used for setting the interrupt trigger type on the pin.
 378:Generated_Source\PSoC6\pdl\drivers/peripheral/gpio/cy_gpio.h **** */
 379:Generated_Source\PSoC6\pdl\drivers/peripheral/gpio/cy_gpio.h **** #define CY_GPIO_INTR_DISABLE                   (0x00UL) /**< \brief Disable the pin interrupt gener
 380:Generated_Source\PSoC6\pdl\drivers/peripheral/gpio/cy_gpio.h **** #define CY_GPIO_INTR_RISING                    (0x01UL) /**< \brief Rising-Edge interrupt */
 381:Generated_Source\PSoC6\pdl\drivers/peripheral/gpio/cy_gpio.h **** #define CY_GPIO_INTR_FALLING                   (0x02UL) /**< \brief Falling-Edge interrupt */
 382:Generated_Source\PSoC6\pdl\drivers/peripheral/gpio/cy_gpio.h **** #define CY_GPIO_INTR_BOTH                      (0x03UL) /**< \brief Both-Edge interrupt */
 383:Generated_Source\PSoC6\pdl\drivers/peripheral/gpio/cy_gpio.h **** /** \} */
 384:Generated_Source\PSoC6\pdl\drivers/peripheral/gpio/cy_gpio.h **** 
 385:Generated_Source\PSoC6\pdl\drivers/peripheral/gpio/cy_gpio.h **** /**
 386:Generated_Source\PSoC6\pdl\drivers/peripheral/gpio/cy_gpio.h **** * \defgroup group_gpio_sioVreg SIO output buffer mode
 387:Generated_Source\PSoC6\pdl\drivers/peripheral/gpio/cy_gpio.h **** * \{
 388:Generated_Source\PSoC6\pdl\drivers/peripheral/gpio/cy_gpio.h **** * Constants to be used for setting the SIO output buffer mode on the pin.
 389:Generated_Source\PSoC6\pdl\drivers/peripheral/gpio/cy_gpio.h **** */
 390:Generated_Source\PSoC6\pdl\drivers/peripheral/gpio/cy_gpio.h **** #define CY_SIO_VREG_UNREGULATED                (0x00UL) /**< \brief Unregulated output buffer */
 391:Generated_Source\PSoC6\pdl\drivers/peripheral/gpio/cy_gpio.h **** #define CY_SIO_VREG_REGULATED                  (0x01UL) /**< \brief Regulated output buffer */
 392:Generated_Source\PSoC6\pdl\drivers/peripheral/gpio/cy_gpio.h **** /** \} */
 393:Generated_Source\PSoC6\pdl\drivers/peripheral/gpio/cy_gpio.h **** 
 394:Generated_Source\PSoC6\pdl\drivers/peripheral/gpio/cy_gpio.h **** /**
 395:Generated_Source\PSoC6\pdl\drivers/peripheral/gpio/cy_gpio.h **** * \defgroup group_gpio_sioIbuf SIO input buffer mode
 396:Generated_Source\PSoC6\pdl\drivers/peripheral/gpio/cy_gpio.h **** * \{
 397:Generated_Source\PSoC6\pdl\drivers/peripheral/gpio/cy_gpio.h **** * Constants to be used for setting the SIO input buffer mode on the pin.
 398:Generated_Source\PSoC6\pdl\drivers/peripheral/gpio/cy_gpio.h **** */
 399:Generated_Source\PSoC6\pdl\drivers/peripheral/gpio/cy_gpio.h **** #define CY_SIO_IBUF_SINGLEENDED                (0x00UL) /**< \brief Single ended input buffer */
 400:Generated_Source\PSoC6\pdl\drivers/peripheral/gpio/cy_gpio.h **** #define CY_SIO_IBUF_DIFFERENTIAL               (0x01UL) /**< \brief Differential input buffer */
 401:Generated_Source\PSoC6\pdl\drivers/peripheral/gpio/cy_gpio.h **** /** \} */
ARM GAS  C:\Users\codyg\AppData\Local\Temp\ccQipZVL.s 			page 11


 402:Generated_Source\PSoC6\pdl\drivers/peripheral/gpio/cy_gpio.h **** 
 403:Generated_Source\PSoC6\pdl\drivers/peripheral/gpio/cy_gpio.h **** /**
 404:Generated_Source\PSoC6\pdl\drivers/peripheral/gpio/cy_gpio.h **** * \defgroup group_gpio_sioVtrip SIO input buffer trip-point
 405:Generated_Source\PSoC6\pdl\drivers/peripheral/gpio/cy_gpio.h **** * \{
 406:Generated_Source\PSoC6\pdl\drivers/peripheral/gpio/cy_gpio.h **** * Constants to be used for setting the SIO input buffer trip-point of the pin.
 407:Generated_Source\PSoC6\pdl\drivers/peripheral/gpio/cy_gpio.h **** */
 408:Generated_Source\PSoC6\pdl\drivers/peripheral/gpio/cy_gpio.h **** #define CY_SIO_VTRIP_CMOS                      (0x00UL) /**< \brief CMOS input buffer (single-ended
 409:Generated_Source\PSoC6\pdl\drivers/peripheral/gpio/cy_gpio.h **** #define CY_SIO_VTRIP_TTL                       (0x01UL) /**< \brief TTL input buffer (single-ended)
 410:Generated_Source\PSoC6\pdl\drivers/peripheral/gpio/cy_gpio.h **** #define CY_SIO_VTRIP_0_5VDDIO_0_5VOH           (0x00UL) /**< \brief 0.5xVddio or 0.5xVoh (different
 411:Generated_Source\PSoC6\pdl\drivers/peripheral/gpio/cy_gpio.h **** #define CY_SIO_VTRIP_0_4VDDIO_1_0VREF          (0x01UL) /**< \brief 0.4xVddio or 0.4xVoh (different
 412:Generated_Source\PSoC6\pdl\drivers/peripheral/gpio/cy_gpio.h **** /** \} */
 413:Generated_Source\PSoC6\pdl\drivers/peripheral/gpio/cy_gpio.h **** 
 414:Generated_Source\PSoC6\pdl\drivers/peripheral/gpio/cy_gpio.h **** /**
 415:Generated_Source\PSoC6\pdl\drivers/peripheral/gpio/cy_gpio.h **** * \defgroup group_gpio_sioVref SIO reference voltage for input buffer trip-point
 416:Generated_Source\PSoC6\pdl\drivers/peripheral/gpio/cy_gpio.h **** * \{
 417:Generated_Source\PSoC6\pdl\drivers/peripheral/gpio/cy_gpio.h **** * Constants to be used for setting the reference voltage of SIO input buffer trip-point.
 418:Generated_Source\PSoC6\pdl\drivers/peripheral/gpio/cy_gpio.h **** */
 419:Generated_Source\PSoC6\pdl\drivers/peripheral/gpio/cy_gpio.h **** #define CY_SIO_VREF_PINREF                     (0x00UL) /**< \brief Vref from analog pin */
 420:Generated_Source\PSoC6\pdl\drivers/peripheral/gpio/cy_gpio.h **** #define CY_SIO_VREF_1_2V                       (0x01UL) /**< \brief Vref from internal 1.2V referen
 421:Generated_Source\PSoC6\pdl\drivers/peripheral/gpio/cy_gpio.h **** #define CY_SIO_VREF_AMUX_A                     (0x02UL) /**< \brief Vref from AMUXBUS_A */
 422:Generated_Source\PSoC6\pdl\drivers/peripheral/gpio/cy_gpio.h **** #define CY_SIO_VREF_AMUX_B                     (0x03UL) /**< \brief Vref from AMUXBUS_B */
 423:Generated_Source\PSoC6\pdl\drivers/peripheral/gpio/cy_gpio.h **** /** \} */
 424:Generated_Source\PSoC6\pdl\drivers/peripheral/gpio/cy_gpio.h **** 
 425:Generated_Source\PSoC6\pdl\drivers/peripheral/gpio/cy_gpio.h **** /**
 426:Generated_Source\PSoC6\pdl\drivers/peripheral/gpio/cy_gpio.h **** * \defgroup group_gpio_sioVoh Regulated output voltage level (Voh) and input buffer trip-point of a
 427:Generated_Source\PSoC6\pdl\drivers/peripheral/gpio/cy_gpio.h **** * \{
 428:Generated_Source\PSoC6\pdl\drivers/peripheral/gpio/cy_gpio.h **** * Constants to be used for setting the Voh and input buffer trip-point of an SIO pair
 429:Generated_Source\PSoC6\pdl\drivers/peripheral/gpio/cy_gpio.h **** */
 430:Generated_Source\PSoC6\pdl\drivers/peripheral/gpio/cy_gpio.h **** #define CY_SIO_VOH_1_00                        (0x00UL) /**< \brief Voh = 1 x Reference */
 431:Generated_Source\PSoC6\pdl\drivers/peripheral/gpio/cy_gpio.h **** #define CY_SIO_VOH_1_25                        (0x01UL) /**< \brief Voh = 1.25 x Reference */
 432:Generated_Source\PSoC6\pdl\drivers/peripheral/gpio/cy_gpio.h **** #define CY_SIO_VOH_1_49                        (0x02UL) /**< \brief Voh = 1.49 x Reference */
 433:Generated_Source\PSoC6\pdl\drivers/peripheral/gpio/cy_gpio.h **** #define CY_SIO_VOH_1_67                        (0x03UL) /**< \brief Voh = 1.67 x Reference */
 434:Generated_Source\PSoC6\pdl\drivers/peripheral/gpio/cy_gpio.h **** #define CY_SIO_VOH_2_08                        (0x04UL) /**< \brief Voh = 2.08 x Reference */
 435:Generated_Source\PSoC6\pdl\drivers/peripheral/gpio/cy_gpio.h **** #define CY_SIO_VOH_2_50                        (0x05UL) /**< \brief Voh = 2.50 x Reference */
 436:Generated_Source\PSoC6\pdl\drivers/peripheral/gpio/cy_gpio.h **** #define CY_SIO_VOH_2_78                        (0x06UL) /**< \brief Voh = 2.78 x Reference */
 437:Generated_Source\PSoC6\pdl\drivers/peripheral/gpio/cy_gpio.h **** #define CY_SIO_VOH_4_16                        (0x07UL) /**< \brief Voh = 4.16 x Reference */
 438:Generated_Source\PSoC6\pdl\drivers/peripheral/gpio/cy_gpio.h **** /** \} */
 439:Generated_Source\PSoC6\pdl\drivers/peripheral/gpio/cy_gpio.h **** 
 440:Generated_Source\PSoC6\pdl\drivers/peripheral/gpio/cy_gpio.h **** /** \} group_gpio_macros */
 441:Generated_Source\PSoC6\pdl\drivers/peripheral/gpio/cy_gpio.h **** 
 442:Generated_Source\PSoC6\pdl\drivers/peripheral/gpio/cy_gpio.h **** /***************************************
 443:Generated_Source\PSoC6\pdl\drivers/peripheral/gpio/cy_gpio.h **** *        Function Prototypes
 444:Generated_Source\PSoC6\pdl\drivers/peripheral/gpio/cy_gpio.h **** ***************************************/
 445:Generated_Source\PSoC6\pdl\drivers/peripheral/gpio/cy_gpio.h **** 
 446:Generated_Source\PSoC6\pdl\drivers/peripheral/gpio/cy_gpio.h **** /**
 447:Generated_Source\PSoC6\pdl\drivers/peripheral/gpio/cy_gpio.h **** * \addtogroup group_gpio_functions
 448:Generated_Source\PSoC6\pdl\drivers/peripheral/gpio/cy_gpio.h **** * \{
 449:Generated_Source\PSoC6\pdl\drivers/peripheral/gpio/cy_gpio.h **** */
 450:Generated_Source\PSoC6\pdl\drivers/peripheral/gpio/cy_gpio.h **** 
 451:Generated_Source\PSoC6\pdl\drivers/peripheral/gpio/cy_gpio.h **** /**
 452:Generated_Source\PSoC6\pdl\drivers/peripheral/gpio/cy_gpio.h **** * \addtogroup group_gpio_functions_init
 453:Generated_Source\PSoC6\pdl\drivers/peripheral/gpio/cy_gpio.h **** * \{
 454:Generated_Source\PSoC6\pdl\drivers/peripheral/gpio/cy_gpio.h **** */
 455:Generated_Source\PSoC6\pdl\drivers/peripheral/gpio/cy_gpio.h **** 
 456:Generated_Source\PSoC6\pdl\drivers/peripheral/gpio/cy_gpio.h **** cy_en_gpio_status_t Cy_GPIO_Pin_Init(GPIO_PRT_Type* base, uint32_t pinNum, const cy_stc_gpio_pin_co
 457:Generated_Source\PSoC6\pdl\drivers/peripheral/gpio/cy_gpio.h **** cy_en_gpio_status_t Cy_GPIO_Port_Init(GPIO_PRT_Type* base, const cy_stc_gpio_prt_config_t *config);
 458:Generated_Source\PSoC6\pdl\drivers/peripheral/gpio/cy_gpio.h **** void Cy_GPIO_Pin_FastInit(GPIO_PRT_Type* base, uint32_t pinNum, uint32_t driveMode, uint32_t outVal
ARM GAS  C:\Users\codyg\AppData\Local\Temp\ccQipZVL.s 			page 12


 459:Generated_Source\PSoC6\pdl\drivers/peripheral/gpio/cy_gpio.h **** void Cy_GPIO_Port_Deinit(GPIO_PRT_Type* base);
 460:Generated_Source\PSoC6\pdl\drivers/peripheral/gpio/cy_gpio.h **** __STATIC_INLINE void Cy_GPIO_SetHSIOM(GPIO_PRT_Type* base, uint32_t pinNum, en_hsiom_sel_t value);
 461:Generated_Source\PSoC6\pdl\drivers/peripheral/gpio/cy_gpio.h **** __STATIC_INLINE en_hsiom_sel_t Cy_GPIO_GetHSIOM(GPIO_PRT_Type* base, uint32_t pinNum);
 462:Generated_Source\PSoC6\pdl\drivers/peripheral/gpio/cy_gpio.h **** __STATIC_INLINE GPIO_PRT_Type* Cy_GPIO_PortToAddr(uint32_t portNum);
 463:Generated_Source\PSoC6\pdl\drivers/peripheral/gpio/cy_gpio.h **** 
 464:Generated_Source\PSoC6\pdl\drivers/peripheral/gpio/cy_gpio.h **** /** \} group_gpio_functions_init */
 465:Generated_Source\PSoC6\pdl\drivers/peripheral/gpio/cy_gpio.h **** 
 466:Generated_Source\PSoC6\pdl\drivers/peripheral/gpio/cy_gpio.h **** /**
 467:Generated_Source\PSoC6\pdl\drivers/peripheral/gpio/cy_gpio.h **** * \addtogroup group_gpio_functions_gpio
 468:Generated_Source\PSoC6\pdl\drivers/peripheral/gpio/cy_gpio.h **** * \{
 469:Generated_Source\PSoC6\pdl\drivers/peripheral/gpio/cy_gpio.h **** */
 470:Generated_Source\PSoC6\pdl\drivers/peripheral/gpio/cy_gpio.h **** 
 471:Generated_Source\PSoC6\pdl\drivers/peripheral/gpio/cy_gpio.h **** __STATIC_INLINE uint32_t Cy_GPIO_Read(GPIO_PRT_Type* base, uint32_t pinNum);
 472:Generated_Source\PSoC6\pdl\drivers/peripheral/gpio/cy_gpio.h **** __STATIC_INLINE void Cy_GPIO_Write(GPIO_PRT_Type* base, uint32_t pinNum, uint32_t value);
 473:Generated_Source\PSoC6\pdl\drivers/peripheral/gpio/cy_gpio.h **** __STATIC_INLINE uint32_t Cy_GPIO_ReadOut(GPIO_PRT_Type* base, uint32_t pinNum);
 474:Generated_Source\PSoC6\pdl\drivers/peripheral/gpio/cy_gpio.h **** __STATIC_INLINE void Cy_GPIO_Set(GPIO_PRT_Type* base, uint32_t pinNum);
 475:Generated_Source\PSoC6\pdl\drivers/peripheral/gpio/cy_gpio.h **** __STATIC_INLINE void Cy_GPIO_Clr(GPIO_PRT_Type* base, uint32_t pinNum);
 476:Generated_Source\PSoC6\pdl\drivers/peripheral/gpio/cy_gpio.h **** __STATIC_INLINE void Cy_GPIO_Inv(GPIO_PRT_Type* base, uint32_t pinNum);
 477:Generated_Source\PSoC6\pdl\drivers/peripheral/gpio/cy_gpio.h **** __STATIC_INLINE void Cy_GPIO_SetDrivemode(GPIO_PRT_Type* base, uint32_t pinNum, uint32_t value);
 478:Generated_Source\PSoC6\pdl\drivers/peripheral/gpio/cy_gpio.h **** __STATIC_INLINE uint32_t Cy_GPIO_GetDrivemode(GPIO_PRT_Type* base, uint32_t pinNum);
 479:Generated_Source\PSoC6\pdl\drivers/peripheral/gpio/cy_gpio.h **** __STATIC_INLINE void Cy_GPIO_SetVtrip(GPIO_PRT_Type* base, uint32_t pinNum, uint32_t value);
 480:Generated_Source\PSoC6\pdl\drivers/peripheral/gpio/cy_gpio.h **** __STATIC_INLINE uint32_t Cy_GPIO_GetVtrip(GPIO_PRT_Type* base, uint32_t pinNum);
 481:Generated_Source\PSoC6\pdl\drivers/peripheral/gpio/cy_gpio.h **** __STATIC_INLINE void Cy_GPIO_SetSlewRate(GPIO_PRT_Type* base, uint32_t pinNum, uint32_t value);
 482:Generated_Source\PSoC6\pdl\drivers/peripheral/gpio/cy_gpio.h **** __STATIC_INLINE uint32_t Cy_GPIO_GetSlewRate(GPIO_PRT_Type* base, uint32_t pinNum);
 483:Generated_Source\PSoC6\pdl\drivers/peripheral/gpio/cy_gpio.h **** __STATIC_INLINE void Cy_GPIO_SetDriveSel(GPIO_PRT_Type* base, uint32_t pinNum, uint32_t value);
 484:Generated_Source\PSoC6\pdl\drivers/peripheral/gpio/cy_gpio.h **** __STATIC_INLINE uint32_t Cy_GPIO_GetDriveSel(GPIO_PRT_Type* base, uint32_t pinNum);
 485:Generated_Source\PSoC6\pdl\drivers/peripheral/gpio/cy_gpio.h **** 
 486:Generated_Source\PSoC6\pdl\drivers/peripheral/gpio/cy_gpio.h **** /** \} group_gpio_functions_gpio */
 487:Generated_Source\PSoC6\pdl\drivers/peripheral/gpio/cy_gpio.h **** 
 488:Generated_Source\PSoC6\pdl\drivers/peripheral/gpio/cy_gpio.h **** /**
 489:Generated_Source\PSoC6\pdl\drivers/peripheral/gpio/cy_gpio.h **** * \addtogroup group_gpio_functions_sio
 490:Generated_Source\PSoC6\pdl\drivers/peripheral/gpio/cy_gpio.h **** * \{
 491:Generated_Source\PSoC6\pdl\drivers/peripheral/gpio/cy_gpio.h **** */
 492:Generated_Source\PSoC6\pdl\drivers/peripheral/gpio/cy_gpio.h **** 
 493:Generated_Source\PSoC6\pdl\drivers/peripheral/gpio/cy_gpio.h **** __STATIC_INLINE void Cy_GPIO_SetVregEn(GPIO_PRT_Type* base, uint32_t pinNum, uint32_t value);
 494:Generated_Source\PSoC6\pdl\drivers/peripheral/gpio/cy_gpio.h **** __STATIC_INLINE uint32_t Cy_GPIO_GetVregEn(GPIO_PRT_Type* base, uint32_t pinNum);
 495:Generated_Source\PSoC6\pdl\drivers/peripheral/gpio/cy_gpio.h **** __STATIC_INLINE void Cy_GPIO_SetIbufMode(GPIO_PRT_Type* base, uint32_t pinNum, uint32_t value);
 496:Generated_Source\PSoC6\pdl\drivers/peripheral/gpio/cy_gpio.h **** __STATIC_INLINE uint32_t Cy_GPIO_GetIbufMode(GPIO_PRT_Type* base, uint32_t pinNum);
 497:Generated_Source\PSoC6\pdl\drivers/peripheral/gpio/cy_gpio.h **** __STATIC_INLINE void Cy_GPIO_SetVtripSel(GPIO_PRT_Type* base, uint32_t pinNum, uint32_t value);
 498:Generated_Source\PSoC6\pdl\drivers/peripheral/gpio/cy_gpio.h **** __STATIC_INLINE uint32_t Cy_GPIO_GetVtripSel(GPIO_PRT_Type* base, uint32_t pinNum);
 499:Generated_Source\PSoC6\pdl\drivers/peripheral/gpio/cy_gpio.h **** __STATIC_INLINE void Cy_GPIO_SetVrefSel(GPIO_PRT_Type* base, uint32_t pinNum, uint32_t value);
 500:Generated_Source\PSoC6\pdl\drivers/peripheral/gpio/cy_gpio.h **** __STATIC_INLINE uint32_t Cy_GPIO_GetVrefSel(GPIO_PRT_Type* base, uint32_t pinNum);
 501:Generated_Source\PSoC6\pdl\drivers/peripheral/gpio/cy_gpio.h **** __STATIC_INLINE void Cy_GPIO_SetVohSel(GPIO_PRT_Type* base, uint32_t pinNum, uint32_t value);
 502:Generated_Source\PSoC6\pdl\drivers/peripheral/gpio/cy_gpio.h **** __STATIC_INLINE uint32_t Cy_GPIO_GetVohSel(GPIO_PRT_Type* base, uint32_t pinNum);
 503:Generated_Source\PSoC6\pdl\drivers/peripheral/gpio/cy_gpio.h **** 
 504:Generated_Source\PSoC6\pdl\drivers/peripheral/gpio/cy_gpio.h **** /** \} group_gpio_functions_sio */
 505:Generated_Source\PSoC6\pdl\drivers/peripheral/gpio/cy_gpio.h **** 
 506:Generated_Source\PSoC6\pdl\drivers/peripheral/gpio/cy_gpio.h **** /**
 507:Generated_Source\PSoC6\pdl\drivers/peripheral/gpio/cy_gpio.h **** * \addtogroup group_gpio_functions_interrupt
 508:Generated_Source\PSoC6\pdl\drivers/peripheral/gpio/cy_gpio.h **** * \{
 509:Generated_Source\PSoC6\pdl\drivers/peripheral/gpio/cy_gpio.h **** */
 510:Generated_Source\PSoC6\pdl\drivers/peripheral/gpio/cy_gpio.h **** 
 511:Generated_Source\PSoC6\pdl\drivers/peripheral/gpio/cy_gpio.h **** __STATIC_INLINE uint32_t Cy_GPIO_GetInterruptStatus(GPIO_PRT_Type* base, uint32_t pinNum);
 512:Generated_Source\PSoC6\pdl\drivers/peripheral/gpio/cy_gpio.h **** __STATIC_INLINE void Cy_GPIO_ClearInterrupt(GPIO_PRT_Type* base, uint32_t pinNum);
 513:Generated_Source\PSoC6\pdl\drivers/peripheral/gpio/cy_gpio.h **** __STATIC_INLINE void Cy_GPIO_SetInterruptMask(GPIO_PRT_Type* base, uint32_t pinNum, uint32_t value)
 514:Generated_Source\PSoC6\pdl\drivers/peripheral/gpio/cy_gpio.h **** __STATIC_INLINE uint32_t Cy_GPIO_GetInterruptMask(GPIO_PRT_Type* base, uint32_t pinNum);
 515:Generated_Source\PSoC6\pdl\drivers/peripheral/gpio/cy_gpio.h **** __STATIC_INLINE uint32_t Cy_GPIO_GetInterruptStatusMasked(GPIO_PRT_Type* base, uint32_t pinNum);
ARM GAS  C:\Users\codyg\AppData\Local\Temp\ccQipZVL.s 			page 13


 516:Generated_Source\PSoC6\pdl\drivers/peripheral/gpio/cy_gpio.h **** __STATIC_INLINE void Cy_GPIO_SetSwInterrupt(GPIO_PRT_Type* base, uint32_t pinNum);
 517:Generated_Source\PSoC6\pdl\drivers/peripheral/gpio/cy_gpio.h **** __STATIC_INLINE void Cy_GPIO_SetInterruptEdge(GPIO_PRT_Type* base, uint32_t pinNum, uint32_t value)
 518:Generated_Source\PSoC6\pdl\drivers/peripheral/gpio/cy_gpio.h **** __STATIC_INLINE uint32_t Cy_GPIO_GetInterruptEdge(GPIO_PRT_Type* base, uint32_t pinNum);
 519:Generated_Source\PSoC6\pdl\drivers/peripheral/gpio/cy_gpio.h **** __STATIC_INLINE void Cy_GPIO_SetFilter(GPIO_PRT_Type* base, uint32_t value);
 520:Generated_Source\PSoC6\pdl\drivers/peripheral/gpio/cy_gpio.h **** __STATIC_INLINE uint32_t Cy_GPIO_GetFilter(GPIO_PRT_Type* base);
 521:Generated_Source\PSoC6\pdl\drivers/peripheral/gpio/cy_gpio.h **** 
 522:Generated_Source\PSoC6\pdl\drivers/peripheral/gpio/cy_gpio.h **** #if (IOSS_GPIO_GPIO_PORT_NR_0_31 != 0) || defined (CY_DOXYGEN)
 523:Generated_Source\PSoC6\pdl\drivers/peripheral/gpio/cy_gpio.h **** __STATIC_INLINE uint32_t Cy_GPIO_GetInterruptCause0(void);
 524:Generated_Source\PSoC6\pdl\drivers/peripheral/gpio/cy_gpio.h **** #endif /* (IOSS_GPIO_GPIO_PORT_NR_0_31 != 0) */
 525:Generated_Source\PSoC6\pdl\drivers/peripheral/gpio/cy_gpio.h **** 
 526:Generated_Source\PSoC6\pdl\drivers/peripheral/gpio/cy_gpio.h **** #if (IOSS_GPIO_GPIO_PORT_NR_32_63 != 0) || defined (CY_DOXYGEN)
 527:Generated_Source\PSoC6\pdl\drivers/peripheral/gpio/cy_gpio.h **** __STATIC_INLINE uint32_t Cy_GPIO_GetInterruptCause1(void);
 528:Generated_Source\PSoC6\pdl\drivers/peripheral/gpio/cy_gpio.h **** #endif /* (IOSS_GPIO_GPIO_PORT_NR_32_63 != 0) */
 529:Generated_Source\PSoC6\pdl\drivers/peripheral/gpio/cy_gpio.h **** 
 530:Generated_Source\PSoC6\pdl\drivers/peripheral/gpio/cy_gpio.h **** #if (IOSS_GPIO_GPIO_PORT_NR_64_95 != 0) || defined (CY_DOXYGEN)
 531:Generated_Source\PSoC6\pdl\drivers/peripheral/gpio/cy_gpio.h **** __STATIC_INLINE uint32_t Cy_GPIO_GetInterruptCause2(void);
 532:Generated_Source\PSoC6\pdl\drivers/peripheral/gpio/cy_gpio.h **** #endif /* (IOSS_GPIO_GPIO_PORT_NR_64_95 != 0) */
 533:Generated_Source\PSoC6\pdl\drivers/peripheral/gpio/cy_gpio.h **** 
 534:Generated_Source\PSoC6\pdl\drivers/peripheral/gpio/cy_gpio.h **** #if (IOSS_GPIO_GPIO_PORT_NR_96_127 != 0) || defined (CY_DOXYGEN)
 535:Generated_Source\PSoC6\pdl\drivers/peripheral/gpio/cy_gpio.h **** __STATIC_INLINE uint32_t Cy_GPIO_GetInterruptCause3(void);
 536:Generated_Source\PSoC6\pdl\drivers/peripheral/gpio/cy_gpio.h **** #endif /* (IOSS_GPIO_GPIO_PORT_NR_96_127 != 0) */
 537:Generated_Source\PSoC6\pdl\drivers/peripheral/gpio/cy_gpio.h **** 
 538:Generated_Source\PSoC6\pdl\drivers/peripheral/gpio/cy_gpio.h **** /** \} group_gpio_functions_interrupt */
 539:Generated_Source\PSoC6\pdl\drivers/peripheral/gpio/cy_gpio.h **** 
 540:Generated_Source\PSoC6\pdl\drivers/peripheral/gpio/cy_gpio.h **** 
 541:Generated_Source\PSoC6\pdl\drivers/peripheral/gpio/cy_gpio.h **** /**
 542:Generated_Source\PSoC6\pdl\drivers/peripheral/gpio/cy_gpio.h **** * \addtogroup group_gpio_functions_init
 543:Generated_Source\PSoC6\pdl\drivers/peripheral/gpio/cy_gpio.h **** * \{
 544:Generated_Source\PSoC6\pdl\drivers/peripheral/gpio/cy_gpio.h **** */
 545:Generated_Source\PSoC6\pdl\drivers/peripheral/gpio/cy_gpio.h **** 
 546:Generated_Source\PSoC6\pdl\drivers/peripheral/gpio/cy_gpio.h **** /*******************************************************************************
 547:Generated_Source\PSoC6\pdl\drivers/peripheral/gpio/cy_gpio.h **** * Function Name: Cy_GPIO_SetHSIOM
 548:Generated_Source\PSoC6\pdl\drivers/peripheral/gpio/cy_gpio.h **** ****************************************************************************//**
 549:Generated_Source\PSoC6\pdl\drivers/peripheral/gpio/cy_gpio.h **** *
 550:Generated_Source\PSoC6\pdl\drivers/peripheral/gpio/cy_gpio.h **** * \brief Configures the HSIOM connection to the pin.
 551:Generated_Source\PSoC6\pdl\drivers/peripheral/gpio/cy_gpio.h **** *
 552:Generated_Source\PSoC6\pdl\drivers/peripheral/gpio/cy_gpio.h **** * Connects the specified High-Speed Input Output Multiplexer (HSIOM) selection
 553:Generated_Source\PSoC6\pdl\drivers/peripheral/gpio/cy_gpio.h **** * to the pin.
 554:Generated_Source\PSoC6\pdl\drivers/peripheral/gpio/cy_gpio.h **** *
 555:Generated_Source\PSoC6\pdl\drivers/peripheral/gpio/cy_gpio.h **** * \param base
 556:Generated_Source\PSoC6\pdl\drivers/peripheral/gpio/cy_gpio.h **** * Pointer to the pin's port register base address
 557:Generated_Source\PSoC6\pdl\drivers/peripheral/gpio/cy_gpio.h **** *
 558:Generated_Source\PSoC6\pdl\drivers/peripheral/gpio/cy_gpio.h **** * \param pinNum
 559:Generated_Source\PSoC6\pdl\drivers/peripheral/gpio/cy_gpio.h **** * Position of the pin bit-field within the port register
 560:Generated_Source\PSoC6\pdl\drivers/peripheral/gpio/cy_gpio.h **** *
 561:Generated_Source\PSoC6\pdl\drivers/peripheral/gpio/cy_gpio.h **** * \param value
 562:Generated_Source\PSoC6\pdl\drivers/peripheral/gpio/cy_gpio.h **** * HSIOM input selection
 563:Generated_Source\PSoC6\pdl\drivers/peripheral/gpio/cy_gpio.h **** *
 564:Generated_Source\PSoC6\pdl\drivers/peripheral/gpio/cy_gpio.h **** * \return
 565:Generated_Source\PSoC6\pdl\drivers/peripheral/gpio/cy_gpio.h **** * void
 566:Generated_Source\PSoC6\pdl\drivers/peripheral/gpio/cy_gpio.h **** *
 567:Generated_Source\PSoC6\pdl\drivers/peripheral/gpio/cy_gpio.h **** * \note 
 568:Generated_Source\PSoC6\pdl\drivers/peripheral/gpio/cy_gpio.h **** * This function modifies a port register in a read-modify-write operation. It is
 569:Generated_Source\PSoC6\pdl\drivers/peripheral/gpio/cy_gpio.h **** * not thread safe as the resource is shared among multiple pins on a port.
 570:Generated_Source\PSoC6\pdl\drivers/peripheral/gpio/cy_gpio.h **** *
 571:Generated_Source\PSoC6\pdl\drivers/peripheral/gpio/cy_gpio.h **** * \funcusage
 572:Generated_Source\PSoC6\pdl\drivers/peripheral/gpio/cy_gpio.h **** * \snippet gpio/gpio_v1_10_sut_01.cydsn/main_cm4.c snippet_Cy_GPIO_SetHSIOM
ARM GAS  C:\Users\codyg\AppData\Local\Temp\ccQipZVL.s 			page 14


 573:Generated_Source\PSoC6\pdl\drivers/peripheral/gpio/cy_gpio.h **** *
 574:Generated_Source\PSoC6\pdl\drivers/peripheral/gpio/cy_gpio.h **** *******************************************************************************/
 575:Generated_Source\PSoC6\pdl\drivers/peripheral/gpio/cy_gpio.h **** __STATIC_INLINE void Cy_GPIO_SetHSIOM(GPIO_PRT_Type* base, uint32_t pinNum, en_hsiom_sel_t value)
 576:Generated_Source\PSoC6\pdl\drivers/peripheral/gpio/cy_gpio.h **** {
 577:Generated_Source\PSoC6\pdl\drivers/peripheral/gpio/cy_gpio.h ****     uint32_t portNum;
 578:Generated_Source\PSoC6\pdl\drivers/peripheral/gpio/cy_gpio.h ****     uint32_t tempReg;
 579:Generated_Source\PSoC6\pdl\drivers/peripheral/gpio/cy_gpio.h ****     HSIOM_PRT_Type* portAddrHSIOM;
 580:Generated_Source\PSoC6\pdl\drivers/peripheral/gpio/cy_gpio.h **** 
 581:Generated_Source\PSoC6\pdl\drivers/peripheral/gpio/cy_gpio.h ****     CY_ASSERT_L2(CY_GPIO_IS_PIN_VALID(pinNum));
 582:Generated_Source\PSoC6\pdl\drivers/peripheral/gpio/cy_gpio.h ****     CY_ASSERT_L2(CY_GPIO_IS_HSIOM_VALID(value));
 583:Generated_Source\PSoC6\pdl\drivers/peripheral/gpio/cy_gpio.h **** 
 584:Generated_Source\PSoC6\pdl\drivers/peripheral/gpio/cy_gpio.h ****     portNum = ((uint32_t)(base) - GPIO_BASE) / GPIO_PRT_SECTION_SIZE;
 585:Generated_Source\PSoC6\pdl\drivers/peripheral/gpio/cy_gpio.h ****     portAddrHSIOM = (HSIOM_PRT_Type*)(HSIOM_BASE + (HSIOM_PRT_SECTION_SIZE * portNum));
 586:Generated_Source\PSoC6\pdl\drivers/peripheral/gpio/cy_gpio.h **** 
 587:Generated_Source\PSoC6\pdl\drivers/peripheral/gpio/cy_gpio.h ****     if(pinNum < CY_GPIO_PRT_HALF)
 588:Generated_Source\PSoC6\pdl\drivers/peripheral/gpio/cy_gpio.h ****     {
 589:Generated_Source\PSoC6\pdl\drivers/peripheral/gpio/cy_gpio.h ****         tempReg = portAddrHSIOM->PORT_SEL0 & ~(CY_GPIO_HSIOM_MASK << (pinNum << CY_GPIO_HSIOM_OFFSE
 590:Generated_Source\PSoC6\pdl\drivers/peripheral/gpio/cy_gpio.h ****         portAddrHSIOM->PORT_SEL0 = tempReg | ((value & CY_GPIO_HSIOM_MASK) << (pinNum << CY_GPIO_HS
 591:Generated_Source\PSoC6\pdl\drivers/peripheral/gpio/cy_gpio.h ****     }
 592:Generated_Source\PSoC6\pdl\drivers/peripheral/gpio/cy_gpio.h ****     else
 593:Generated_Source\PSoC6\pdl\drivers/peripheral/gpio/cy_gpio.h ****     {
 594:Generated_Source\PSoC6\pdl\drivers/peripheral/gpio/cy_gpio.h ****         pinNum -= CY_GPIO_PRT_HALF;
 595:Generated_Source\PSoC6\pdl\drivers/peripheral/gpio/cy_gpio.h ****         tempReg = portAddrHSIOM->PORT_SEL1 & ~(CY_GPIO_HSIOM_MASK << (pinNum << CY_GPIO_HSIOM_OFFSE
 596:Generated_Source\PSoC6\pdl\drivers/peripheral/gpio/cy_gpio.h ****         portAddrHSIOM->PORT_SEL1 = tempReg | ((value & CY_GPIO_HSIOM_MASK) << (pinNum << CY_GPIO_HS
 597:Generated_Source\PSoC6\pdl\drivers/peripheral/gpio/cy_gpio.h ****     }
 598:Generated_Source\PSoC6\pdl\drivers/peripheral/gpio/cy_gpio.h **** }
 599:Generated_Source\PSoC6\pdl\drivers/peripheral/gpio/cy_gpio.h **** 
 600:Generated_Source\PSoC6\pdl\drivers/peripheral/gpio/cy_gpio.h **** 
 601:Generated_Source\PSoC6\pdl\drivers/peripheral/gpio/cy_gpio.h **** /*******************************************************************************
 602:Generated_Source\PSoC6\pdl\drivers/peripheral/gpio/cy_gpio.h **** * Function Name: Cy_GPIO_GetHSIOM
 603:Generated_Source\PSoC6\pdl\drivers/peripheral/gpio/cy_gpio.h **** ****************************************************************************//**
 604:Generated_Source\PSoC6\pdl\drivers/peripheral/gpio/cy_gpio.h **** *
 605:Generated_Source\PSoC6\pdl\drivers/peripheral/gpio/cy_gpio.h **** * \brief Returns the current HSIOM multiplexer connection to the pin.
 606:Generated_Source\PSoC6\pdl\drivers/peripheral/gpio/cy_gpio.h **** *
 607:Generated_Source\PSoC6\pdl\drivers/peripheral/gpio/cy_gpio.h **** * \param base
 608:Generated_Source\PSoC6\pdl\drivers/peripheral/gpio/cy_gpio.h **** * Pointer to the pin's port register base address
 609:Generated_Source\PSoC6\pdl\drivers/peripheral/gpio/cy_gpio.h **** *
 610:Generated_Source\PSoC6\pdl\drivers/peripheral/gpio/cy_gpio.h **** * \param pinNum
 611:Generated_Source\PSoC6\pdl\drivers/peripheral/gpio/cy_gpio.h **** * Position of the pin bit-field within the port register
 612:Generated_Source\PSoC6\pdl\drivers/peripheral/gpio/cy_gpio.h **** *
 613:Generated_Source\PSoC6\pdl\drivers/peripheral/gpio/cy_gpio.h **** * \return
 614:Generated_Source\PSoC6\pdl\drivers/peripheral/gpio/cy_gpio.h **** * HSIOM input selection
 615:Generated_Source\PSoC6\pdl\drivers/peripheral/gpio/cy_gpio.h **** *
 616:Generated_Source\PSoC6\pdl\drivers/peripheral/gpio/cy_gpio.h **** * \funcusage
 617:Generated_Source\PSoC6\pdl\drivers/peripheral/gpio/cy_gpio.h **** * \snippet gpio/gpio_v1_10_sut_01.cydsn/main_cm4.c snippet_Cy_GPIO_SetHSIOM
 618:Generated_Source\PSoC6\pdl\drivers/peripheral/gpio/cy_gpio.h **** *
 619:Generated_Source\PSoC6\pdl\drivers/peripheral/gpio/cy_gpio.h **** *******************************************************************************/
 620:Generated_Source\PSoC6\pdl\drivers/peripheral/gpio/cy_gpio.h **** __STATIC_INLINE en_hsiom_sel_t Cy_GPIO_GetHSIOM(GPIO_PRT_Type* base, uint32_t pinNum)
 621:Generated_Source\PSoC6\pdl\drivers/peripheral/gpio/cy_gpio.h **** {
 622:Generated_Source\PSoC6\pdl\drivers/peripheral/gpio/cy_gpio.h ****     uint32_t returnValue;
 623:Generated_Source\PSoC6\pdl\drivers/peripheral/gpio/cy_gpio.h ****     uint32_t portNum;
 624:Generated_Source\PSoC6\pdl\drivers/peripheral/gpio/cy_gpio.h ****     HSIOM_PRT_Type* portAddrHSIOM;
 625:Generated_Source\PSoC6\pdl\drivers/peripheral/gpio/cy_gpio.h ****     
 626:Generated_Source\PSoC6\pdl\drivers/peripheral/gpio/cy_gpio.h ****     CY_ASSERT_L2(CY_GPIO_IS_PIN_VALID(pinNum));
 627:Generated_Source\PSoC6\pdl\drivers/peripheral/gpio/cy_gpio.h **** 
 628:Generated_Source\PSoC6\pdl\drivers/peripheral/gpio/cy_gpio.h ****     portNum = ((uint32_t)(base) - GPIO_BASE) / GPIO_PRT_SECTION_SIZE;
 629:Generated_Source\PSoC6\pdl\drivers/peripheral/gpio/cy_gpio.h ****     portAddrHSIOM = (HSIOM_PRT_Type*)(HSIOM_BASE + (HSIOM_PRT_SECTION_SIZE * portNum));
ARM GAS  C:\Users\codyg\AppData\Local\Temp\ccQipZVL.s 			page 15


 630:Generated_Source\PSoC6\pdl\drivers/peripheral/gpio/cy_gpio.h **** 
 631:Generated_Source\PSoC6\pdl\drivers/peripheral/gpio/cy_gpio.h ****     if(pinNum < CY_GPIO_PRT_HALF)
 632:Generated_Source\PSoC6\pdl\drivers/peripheral/gpio/cy_gpio.h ****     {
 633:Generated_Source\PSoC6\pdl\drivers/peripheral/gpio/cy_gpio.h ****         returnValue = (portAddrHSIOM->PORT_SEL0 >> (pinNum << CY_GPIO_HSIOM_OFFSET)) & CY_GPIO_HSIO
 634:Generated_Source\PSoC6\pdl\drivers/peripheral/gpio/cy_gpio.h ****     }
 635:Generated_Source\PSoC6\pdl\drivers/peripheral/gpio/cy_gpio.h ****     else
 636:Generated_Source\PSoC6\pdl\drivers/peripheral/gpio/cy_gpio.h ****     {
 637:Generated_Source\PSoC6\pdl\drivers/peripheral/gpio/cy_gpio.h ****         pinNum -= CY_GPIO_PRT_HALF;
 638:Generated_Source\PSoC6\pdl\drivers/peripheral/gpio/cy_gpio.h ****         returnValue = (portAddrHSIOM->PORT_SEL1 >> (pinNum << CY_GPIO_HSIOM_OFFSET)) & CY_GPIO_HSIO
 639:Generated_Source\PSoC6\pdl\drivers/peripheral/gpio/cy_gpio.h ****     }
 640:Generated_Source\PSoC6\pdl\drivers/peripheral/gpio/cy_gpio.h **** 
 641:Generated_Source\PSoC6\pdl\drivers/peripheral/gpio/cy_gpio.h ****     return (en_hsiom_sel_t)returnValue;
 642:Generated_Source\PSoC6\pdl\drivers/peripheral/gpio/cy_gpio.h **** }
 643:Generated_Source\PSoC6\pdl\drivers/peripheral/gpio/cy_gpio.h **** 
 644:Generated_Source\PSoC6\pdl\drivers/peripheral/gpio/cy_gpio.h **** 
 645:Generated_Source\PSoC6\pdl\drivers/peripheral/gpio/cy_gpio.h **** /*******************************************************************************
 646:Generated_Source\PSoC6\pdl\drivers/peripheral/gpio/cy_gpio.h **** * Function Name: Cy_GPIO_PortToAddr
 647:Generated_Source\PSoC6\pdl\drivers/peripheral/gpio/cy_gpio.h **** ****************************************************************************//**
 648:Generated_Source\PSoC6\pdl\drivers/peripheral/gpio/cy_gpio.h **** *
 649:Generated_Source\PSoC6\pdl\drivers/peripheral/gpio/cy_gpio.h **** * \brief Retrieves the port address based on the given port number.
 650:Generated_Source\PSoC6\pdl\drivers/peripheral/gpio/cy_gpio.h **** *
 651:Generated_Source\PSoC6\pdl\drivers/peripheral/gpio/cy_gpio.h **** * This is a helper function to calculate the port base address when given a port
 652:Generated_Source\PSoC6\pdl\drivers/peripheral/gpio/cy_gpio.h **** * number. It is to be used when pin access needs to be calculated at runtime.
 653:Generated_Source\PSoC6\pdl\drivers/peripheral/gpio/cy_gpio.h **** *
 654:Generated_Source\PSoC6\pdl\drivers/peripheral/gpio/cy_gpio.h **** * \param portNum
 655:Generated_Source\PSoC6\pdl\drivers/peripheral/gpio/cy_gpio.h **** * Port number
 656:Generated_Source\PSoC6\pdl\drivers/peripheral/gpio/cy_gpio.h **** *
 657:Generated_Source\PSoC6\pdl\drivers/peripheral/gpio/cy_gpio.h **** * \return
 658:Generated_Source\PSoC6\pdl\drivers/peripheral/gpio/cy_gpio.h **** * Base address of the port register structure
 659:Generated_Source\PSoC6\pdl\drivers/peripheral/gpio/cy_gpio.h **** *
 660:Generated_Source\PSoC6\pdl\drivers/peripheral/gpio/cy_gpio.h **** * \funcusage
 661:Generated_Source\PSoC6\pdl\drivers/peripheral/gpio/cy_gpio.h **** * \snippet gpio/gpio_v1_10_sut_01.cydsn/main_cm4.c snippet_Cy_GPIO_PortToAddr
 662:Generated_Source\PSoC6\pdl\drivers/peripheral/gpio/cy_gpio.h **** *
 663:Generated_Source\PSoC6\pdl\drivers/peripheral/gpio/cy_gpio.h **** *******************************************************************************/
 664:Generated_Source\PSoC6\pdl\drivers/peripheral/gpio/cy_gpio.h **** __STATIC_INLINE GPIO_PRT_Type* Cy_GPIO_PortToAddr(uint32_t portNum)
 665:Generated_Source\PSoC6\pdl\drivers/peripheral/gpio/cy_gpio.h **** {
 666:Generated_Source\PSoC6\pdl\drivers/peripheral/gpio/cy_gpio.h ****     GPIO_PRT_Type* base;
 667:Generated_Source\PSoC6\pdl\drivers/peripheral/gpio/cy_gpio.h ****     
 668:Generated_Source\PSoC6\pdl\drivers/peripheral/gpio/cy_gpio.h ****     if(portNum < (uint32_t)IOSS_GPIO_GPIO_PORT_NR)
 669:Generated_Source\PSoC6\pdl\drivers/peripheral/gpio/cy_gpio.h ****     {
 670:Generated_Source\PSoC6\pdl\drivers/peripheral/gpio/cy_gpio.h ****          base = (GPIO_PRT_Type *)(GPIO_BASE + (GPIO_PRT_SECTION_SIZE * portNum));
 671:Generated_Source\PSoC6\pdl\drivers/peripheral/gpio/cy_gpio.h ****     }
 672:Generated_Source\PSoC6\pdl\drivers/peripheral/gpio/cy_gpio.h ****     else
 673:Generated_Source\PSoC6\pdl\drivers/peripheral/gpio/cy_gpio.h ****     {
 674:Generated_Source\PSoC6\pdl\drivers/peripheral/gpio/cy_gpio.h ****         /* Error: Return default base address */
 675:Generated_Source\PSoC6\pdl\drivers/peripheral/gpio/cy_gpio.h ****         base = (GPIO_PRT_Type *)(GPIO_BASE);
 676:Generated_Source\PSoC6\pdl\drivers/peripheral/gpio/cy_gpio.h ****     }
 677:Generated_Source\PSoC6\pdl\drivers/peripheral/gpio/cy_gpio.h **** 
 678:Generated_Source\PSoC6\pdl\drivers/peripheral/gpio/cy_gpio.h ****     return (base);
 679:Generated_Source\PSoC6\pdl\drivers/peripheral/gpio/cy_gpio.h **** }
 680:Generated_Source\PSoC6\pdl\drivers/peripheral/gpio/cy_gpio.h **** 
 681:Generated_Source\PSoC6\pdl\drivers/peripheral/gpio/cy_gpio.h **** /** \} group_gpio_functions_init */
 682:Generated_Source\PSoC6\pdl\drivers/peripheral/gpio/cy_gpio.h **** 
 683:Generated_Source\PSoC6\pdl\drivers/peripheral/gpio/cy_gpio.h **** /**
 684:Generated_Source\PSoC6\pdl\drivers/peripheral/gpio/cy_gpio.h **** * \addtogroup group_gpio_functions_gpio
 685:Generated_Source\PSoC6\pdl\drivers/peripheral/gpio/cy_gpio.h **** * \{
 686:Generated_Source\PSoC6\pdl\drivers/peripheral/gpio/cy_gpio.h **** */
ARM GAS  C:\Users\codyg\AppData\Local\Temp\ccQipZVL.s 			page 16


 687:Generated_Source\PSoC6\pdl\drivers/peripheral/gpio/cy_gpio.h **** 
 688:Generated_Source\PSoC6\pdl\drivers/peripheral/gpio/cy_gpio.h **** /*******************************************************************************
 689:Generated_Source\PSoC6\pdl\drivers/peripheral/gpio/cy_gpio.h **** * Function Name: Cy_GPIO_Read
 690:Generated_Source\PSoC6\pdl\drivers/peripheral/gpio/cy_gpio.h **** ****************************************************************************//**
 691:Generated_Source\PSoC6\pdl\drivers/peripheral/gpio/cy_gpio.h **** *
 692:Generated_Source\PSoC6\pdl\drivers/peripheral/gpio/cy_gpio.h **** * \brief Reads the current logic level on the input buffer of the pin.
 693:Generated_Source\PSoC6\pdl\drivers/peripheral/gpio/cy_gpio.h **** *
 694:Generated_Source\PSoC6\pdl\drivers/peripheral/gpio/cy_gpio.h **** * \param base
 695:Generated_Source\PSoC6\pdl\drivers/peripheral/gpio/cy_gpio.h **** * Pointer to the pin's port register base address
 696:Generated_Source\PSoC6\pdl\drivers/peripheral/gpio/cy_gpio.h **** *
 697:Generated_Source\PSoC6\pdl\drivers/peripheral/gpio/cy_gpio.h **** * \param pinNum
 698:Generated_Source\PSoC6\pdl\drivers/peripheral/gpio/cy_gpio.h **** * Position of the pin bit-field within the port register.
 699:Generated_Source\PSoC6\pdl\drivers/peripheral/gpio/cy_gpio.h **** * Bit position 8 is the routed pin through the port glitch filter.
 700:Generated_Source\PSoC6\pdl\drivers/peripheral/gpio/cy_gpio.h **** *
 701:Generated_Source\PSoC6\pdl\drivers/peripheral/gpio/cy_gpio.h **** * \return
 702:Generated_Source\PSoC6\pdl\drivers/peripheral/gpio/cy_gpio.h **** * Logic level present on the pin
 703:Generated_Source\PSoC6\pdl\drivers/peripheral/gpio/cy_gpio.h **** *
 704:Generated_Source\PSoC6\pdl\drivers/peripheral/gpio/cy_gpio.h **** * \funcusage
 705:Generated_Source\PSoC6\pdl\drivers/peripheral/gpio/cy_gpio.h **** * \snippet gpio/gpio_v1_10_sut_01.cydsn/main_cm4.c snippet_Cy_GPIO_Read
 706:Generated_Source\PSoC6\pdl\drivers/peripheral/gpio/cy_gpio.h **** *
 707:Generated_Source\PSoC6\pdl\drivers/peripheral/gpio/cy_gpio.h **** *******************************************************************************/
 708:Generated_Source\PSoC6\pdl\drivers/peripheral/gpio/cy_gpio.h **** __STATIC_INLINE uint32_t Cy_GPIO_Read(GPIO_PRT_Type* base, uint32_t pinNum)
 709:Generated_Source\PSoC6\pdl\drivers/peripheral/gpio/cy_gpio.h **** {
 710:Generated_Source\PSoC6\pdl\drivers/peripheral/gpio/cy_gpio.h ****     CY_ASSERT_L2(CY_GPIO_IS_FILTER_PIN_VALID(pinNum));
 711:Generated_Source\PSoC6\pdl\drivers/peripheral/gpio/cy_gpio.h ****     
 712:Generated_Source\PSoC6\pdl\drivers/peripheral/gpio/cy_gpio.h ****     return (base->IN >> (pinNum)) & CY_GPIO_IN_MASK;
 713:Generated_Source\PSoC6\pdl\drivers/peripheral/gpio/cy_gpio.h **** }
 714:Generated_Source\PSoC6\pdl\drivers/peripheral/gpio/cy_gpio.h **** 
 715:Generated_Source\PSoC6\pdl\drivers/peripheral/gpio/cy_gpio.h **** 
 716:Generated_Source\PSoC6\pdl\drivers/peripheral/gpio/cy_gpio.h **** /*******************************************************************************
 717:Generated_Source\PSoC6\pdl\drivers/peripheral/gpio/cy_gpio.h **** * Function Name: Cy_GPIO_Write
 718:Generated_Source\PSoC6\pdl\drivers/peripheral/gpio/cy_gpio.h **** ****************************************************************************//**
 719:Generated_Source\PSoC6\pdl\drivers/peripheral/gpio/cy_gpio.h **** *
 720:Generated_Source\PSoC6\pdl\drivers/peripheral/gpio/cy_gpio.h **** * \brief Write a logic 0 or logic 1 state to the output driver.
 721:Generated_Source\PSoC6\pdl\drivers/peripheral/gpio/cy_gpio.h **** *
 722:Generated_Source\PSoC6\pdl\drivers/peripheral/gpio/cy_gpio.h **** * This function should be used only for software driven pins. It does not have
 723:Generated_Source\PSoC6\pdl\drivers/peripheral/gpio/cy_gpio.h **** * any effect on peripheral driven pins.
 724:Generated_Source\PSoC6\pdl\drivers/peripheral/gpio/cy_gpio.h **** *
 725:Generated_Source\PSoC6\pdl\drivers/peripheral/gpio/cy_gpio.h **** * \param base
 726:Generated_Source\PSoC6\pdl\drivers/peripheral/gpio/cy_gpio.h **** * Pointer to the pin's port register base address
 727:Generated_Source\PSoC6\pdl\drivers/peripheral/gpio/cy_gpio.h **** *
 728:Generated_Source\PSoC6\pdl\drivers/peripheral/gpio/cy_gpio.h **** * \param pinNum
 729:Generated_Source\PSoC6\pdl\drivers/peripheral/gpio/cy_gpio.h **** * Position of the pin bit-field within the port register
 730:Generated_Source\PSoC6\pdl\drivers/peripheral/gpio/cy_gpio.h **** *
 731:Generated_Source\PSoC6\pdl\drivers/peripheral/gpio/cy_gpio.h **** * \param value
 732:Generated_Source\PSoC6\pdl\drivers/peripheral/gpio/cy_gpio.h **** * Logic level to drive out on the pin
 733:Generated_Source\PSoC6\pdl\drivers/peripheral/gpio/cy_gpio.h **** *
 734:Generated_Source\PSoC6\pdl\drivers/peripheral/gpio/cy_gpio.h **** * \return
 735:Generated_Source\PSoC6\pdl\drivers/peripheral/gpio/cy_gpio.h **** * void
 736:Generated_Source\PSoC6\pdl\drivers/peripheral/gpio/cy_gpio.h **** *
 737:Generated_Source\PSoC6\pdl\drivers/peripheral/gpio/cy_gpio.h **** * \funcusage
 738:Generated_Source\PSoC6\pdl\drivers/peripheral/gpio/cy_gpio.h **** * \snippet gpio/gpio_v1_10_sut_01.cydsn/main_cm4.c snippet_Cy_GPIO_Write
 739:Generated_Source\PSoC6\pdl\drivers/peripheral/gpio/cy_gpio.h **** *
 740:Generated_Source\PSoC6\pdl\drivers/peripheral/gpio/cy_gpio.h **** *******************************************************************************/
 741:Generated_Source\PSoC6\pdl\drivers/peripheral/gpio/cy_gpio.h **** __STATIC_INLINE void Cy_GPIO_Write(GPIO_PRT_Type* base, uint32_t pinNum, uint32_t value)
 742:Generated_Source\PSoC6\pdl\drivers/peripheral/gpio/cy_gpio.h **** {
 743:Generated_Source\PSoC6\pdl\drivers/peripheral/gpio/cy_gpio.h ****     CY_ASSERT_L2(CY_GPIO_IS_PIN_VALID(pinNum));
ARM GAS  C:\Users\codyg\AppData\Local\Temp\ccQipZVL.s 			page 17


 744:Generated_Source\PSoC6\pdl\drivers/peripheral/gpio/cy_gpio.h ****     CY_ASSERT_L2(CY_GPIO_IS_VALUE_VALID(value));
 745:Generated_Source\PSoC6\pdl\drivers/peripheral/gpio/cy_gpio.h **** 
 746:Generated_Source\PSoC6\pdl\drivers/peripheral/gpio/cy_gpio.h ****     /* Thread-safe: Directly access the pin registers instead of base->OUT */
 747:Generated_Source\PSoC6\pdl\drivers/peripheral/gpio/cy_gpio.h ****     if(0UL == value)
 748:Generated_Source\PSoC6\pdl\drivers/peripheral/gpio/cy_gpio.h ****     {
 749:Generated_Source\PSoC6\pdl\drivers/peripheral/gpio/cy_gpio.h ****         base->OUT_CLR = CY_GPIO_OUT_MASK << pinNum;
 750:Generated_Source\PSoC6\pdl\drivers/peripheral/gpio/cy_gpio.h ****     }
 751:Generated_Source\PSoC6\pdl\drivers/peripheral/gpio/cy_gpio.h ****     else
 752:Generated_Source\PSoC6\pdl\drivers/peripheral/gpio/cy_gpio.h ****     {
 753:Generated_Source\PSoC6\pdl\drivers/peripheral/gpio/cy_gpio.h ****         base->OUT_SET = CY_GPIO_OUT_MASK << pinNum;
 754:Generated_Source\PSoC6\pdl\drivers/peripheral/gpio/cy_gpio.h ****     }
 755:Generated_Source\PSoC6\pdl\drivers/peripheral/gpio/cy_gpio.h **** }
 756:Generated_Source\PSoC6\pdl\drivers/peripheral/gpio/cy_gpio.h **** 
 757:Generated_Source\PSoC6\pdl\drivers/peripheral/gpio/cy_gpio.h **** 
 758:Generated_Source\PSoC6\pdl\drivers/peripheral/gpio/cy_gpio.h **** /*******************************************************************************
 759:Generated_Source\PSoC6\pdl\drivers/peripheral/gpio/cy_gpio.h **** * Function Name: Cy_GPIO_ReadOut
 760:Generated_Source\PSoC6\pdl\drivers/peripheral/gpio/cy_gpio.h **** ****************************************************************************//**
 761:Generated_Source\PSoC6\pdl\drivers/peripheral/gpio/cy_gpio.h **** *
 762:Generated_Source\PSoC6\pdl\drivers/peripheral/gpio/cy_gpio.h **** * \brief Reads the current logic level on the pin output driver.
 763:Generated_Source\PSoC6\pdl\drivers/peripheral/gpio/cy_gpio.h **** *
 764:Generated_Source\PSoC6\pdl\drivers/peripheral/gpio/cy_gpio.h **** * \param base
 765:Generated_Source\PSoC6\pdl\drivers/peripheral/gpio/cy_gpio.h **** * Pointer to the pin's port register base address
 766:Generated_Source\PSoC6\pdl\drivers/peripheral/gpio/cy_gpio.h **** *
 767:Generated_Source\PSoC6\pdl\drivers/peripheral/gpio/cy_gpio.h **** * \param pinNum
 768:Generated_Source\PSoC6\pdl\drivers/peripheral/gpio/cy_gpio.h **** * Position of the pin bit-field within the port register
 769:Generated_Source\PSoC6\pdl\drivers/peripheral/gpio/cy_gpio.h **** *
 770:Generated_Source\PSoC6\pdl\drivers/peripheral/gpio/cy_gpio.h **** * \return
 771:Generated_Source\PSoC6\pdl\drivers/peripheral/gpio/cy_gpio.h **** * Logic level on the pin output driver
 772:Generated_Source\PSoC6\pdl\drivers/peripheral/gpio/cy_gpio.h **** *
 773:Generated_Source\PSoC6\pdl\drivers/peripheral/gpio/cy_gpio.h **** * \funcusage
 774:Generated_Source\PSoC6\pdl\drivers/peripheral/gpio/cy_gpio.h **** * \snippet gpio/gpio_v1_10_sut_01.cydsn/main_cm4.c snippet_Cy_GPIO_ReadOut
 775:Generated_Source\PSoC6\pdl\drivers/peripheral/gpio/cy_gpio.h **** *
 776:Generated_Source\PSoC6\pdl\drivers/peripheral/gpio/cy_gpio.h **** *******************************************************************************/
 777:Generated_Source\PSoC6\pdl\drivers/peripheral/gpio/cy_gpio.h **** __STATIC_INLINE uint32_t Cy_GPIO_ReadOut(GPIO_PRT_Type* base, uint32_t pinNum)
 778:Generated_Source\PSoC6\pdl\drivers/peripheral/gpio/cy_gpio.h **** {
 779:Generated_Source\PSoC6\pdl\drivers/peripheral/gpio/cy_gpio.h ****     CY_ASSERT_L2(CY_GPIO_IS_PIN_VALID(pinNum));
 780:Generated_Source\PSoC6\pdl\drivers/peripheral/gpio/cy_gpio.h **** 
 781:Generated_Source\PSoC6\pdl\drivers/peripheral/gpio/cy_gpio.h ****     return (base->OUT >> pinNum) & CY_GPIO_OUT_MASK;
 782:Generated_Source\PSoC6\pdl\drivers/peripheral/gpio/cy_gpio.h **** }
 783:Generated_Source\PSoC6\pdl\drivers/peripheral/gpio/cy_gpio.h **** 
 784:Generated_Source\PSoC6\pdl\drivers/peripheral/gpio/cy_gpio.h **** 
 785:Generated_Source\PSoC6\pdl\drivers/peripheral/gpio/cy_gpio.h **** /*******************************************************************************
 786:Generated_Source\PSoC6\pdl\drivers/peripheral/gpio/cy_gpio.h **** * Function Name: Cy_GPIO_Set
 787:Generated_Source\PSoC6\pdl\drivers/peripheral/gpio/cy_gpio.h **** ****************************************************************************//**
 788:Generated_Source\PSoC6\pdl\drivers/peripheral/gpio/cy_gpio.h **** *
 789:Generated_Source\PSoC6\pdl\drivers/peripheral/gpio/cy_gpio.h **** * \brief Set a pin output to logic state high.
 790:Generated_Source\PSoC6\pdl\drivers/peripheral/gpio/cy_gpio.h **** *
 791:Generated_Source\PSoC6\pdl\drivers/peripheral/gpio/cy_gpio.h **** * This function should be used only for software driven pins. It does not have
 792:Generated_Source\PSoC6\pdl\drivers/peripheral/gpio/cy_gpio.h **** * any effect on peripheral driven pins.
 793:Generated_Source\PSoC6\pdl\drivers/peripheral/gpio/cy_gpio.h **** *
 794:Generated_Source\PSoC6\pdl\drivers/peripheral/gpio/cy_gpio.h **** * \param base
 795:Generated_Source\PSoC6\pdl\drivers/peripheral/gpio/cy_gpio.h **** * Pointer to the pin's port register base address
 796:Generated_Source\PSoC6\pdl\drivers/peripheral/gpio/cy_gpio.h **** *
 797:Generated_Source\PSoC6\pdl\drivers/peripheral/gpio/cy_gpio.h **** * \param pinNum
 798:Generated_Source\PSoC6\pdl\drivers/peripheral/gpio/cy_gpio.h **** * Position of the pin bit-field within the port register
 799:Generated_Source\PSoC6\pdl\drivers/peripheral/gpio/cy_gpio.h **** *
 800:Generated_Source\PSoC6\pdl\drivers/peripheral/gpio/cy_gpio.h **** * \return
ARM GAS  C:\Users\codyg\AppData\Local\Temp\ccQipZVL.s 			page 18


 801:Generated_Source\PSoC6\pdl\drivers/peripheral/gpio/cy_gpio.h **** * void
 802:Generated_Source\PSoC6\pdl\drivers/peripheral/gpio/cy_gpio.h **** *
 803:Generated_Source\PSoC6\pdl\drivers/peripheral/gpio/cy_gpio.h **** * \funcusage
 804:Generated_Source\PSoC6\pdl\drivers/peripheral/gpio/cy_gpio.h **** * \snippet gpio/gpio_v1_10_sut_01.cydsn/main_cm4.c snippet_Cy_GPIO_Set
 805:Generated_Source\PSoC6\pdl\drivers/peripheral/gpio/cy_gpio.h **** *
 806:Generated_Source\PSoC6\pdl\drivers/peripheral/gpio/cy_gpio.h **** *******************************************************************************/
 807:Generated_Source\PSoC6\pdl\drivers/peripheral/gpio/cy_gpio.h **** __STATIC_INLINE void Cy_GPIO_Set(GPIO_PRT_Type* base, uint32_t pinNum)
 808:Generated_Source\PSoC6\pdl\drivers/peripheral/gpio/cy_gpio.h **** {
 809:Generated_Source\PSoC6\pdl\drivers/peripheral/gpio/cy_gpio.h ****     CY_ASSERT_L2(CY_GPIO_IS_PIN_VALID(pinNum));
 810:Generated_Source\PSoC6\pdl\drivers/peripheral/gpio/cy_gpio.h ****     
 811:Generated_Source\PSoC6\pdl\drivers/peripheral/gpio/cy_gpio.h ****     base->OUT_SET = CY_GPIO_OUT_MASK << pinNum;
 812:Generated_Source\PSoC6\pdl\drivers/peripheral/gpio/cy_gpio.h **** }
 813:Generated_Source\PSoC6\pdl\drivers/peripheral/gpio/cy_gpio.h **** 
 814:Generated_Source\PSoC6\pdl\drivers/peripheral/gpio/cy_gpio.h **** 
 815:Generated_Source\PSoC6\pdl\drivers/peripheral/gpio/cy_gpio.h **** /*******************************************************************************
 816:Generated_Source\PSoC6\pdl\drivers/peripheral/gpio/cy_gpio.h **** * Function Name: Cy_GPIO_Clr
 817:Generated_Source\PSoC6\pdl\drivers/peripheral/gpio/cy_gpio.h **** ****************************************************************************//**
 818:Generated_Source\PSoC6\pdl\drivers/peripheral/gpio/cy_gpio.h **** *
 819:Generated_Source\PSoC6\pdl\drivers/peripheral/gpio/cy_gpio.h **** * \brief Set a pin output to logic state Low.
 820:Generated_Source\PSoC6\pdl\drivers/peripheral/gpio/cy_gpio.h **** *
 821:Generated_Source\PSoC6\pdl\drivers/peripheral/gpio/cy_gpio.h **** * This function should be used only for software driven pins. It does not have
 822:Generated_Source\PSoC6\pdl\drivers/peripheral/gpio/cy_gpio.h **** * any effect on peripheral driven pins.
 823:Generated_Source\PSoC6\pdl\drivers/peripheral/gpio/cy_gpio.h **** *
 824:Generated_Source\PSoC6\pdl\drivers/peripheral/gpio/cy_gpio.h **** * \param base
 825:Generated_Source\PSoC6\pdl\drivers/peripheral/gpio/cy_gpio.h **** * Pointer to the pin's port register base address
 826:Generated_Source\PSoC6\pdl\drivers/peripheral/gpio/cy_gpio.h **** *
 827:Generated_Source\PSoC6\pdl\drivers/peripheral/gpio/cy_gpio.h **** * \param pinNum
 828:Generated_Source\PSoC6\pdl\drivers/peripheral/gpio/cy_gpio.h **** * Position of the pin bit-field within the port register
 829:Generated_Source\PSoC6\pdl\drivers/peripheral/gpio/cy_gpio.h **** *
 830:Generated_Source\PSoC6\pdl\drivers/peripheral/gpio/cy_gpio.h **** * \return
 831:Generated_Source\PSoC6\pdl\drivers/peripheral/gpio/cy_gpio.h **** * void
 832:Generated_Source\PSoC6\pdl\drivers/peripheral/gpio/cy_gpio.h **** *
 833:Generated_Source\PSoC6\pdl\drivers/peripheral/gpio/cy_gpio.h **** * \funcusage
 834:Generated_Source\PSoC6\pdl\drivers/peripheral/gpio/cy_gpio.h **** * \snippet gpio/gpio_v1_10_sut_01.cydsn/main_cm4.c snippet_Cy_GPIO_Clr
 835:Generated_Source\PSoC6\pdl\drivers/peripheral/gpio/cy_gpio.h **** *
 836:Generated_Source\PSoC6\pdl\drivers/peripheral/gpio/cy_gpio.h **** *******************************************************************************/
 837:Generated_Source\PSoC6\pdl\drivers/peripheral/gpio/cy_gpio.h **** __STATIC_INLINE void Cy_GPIO_Clr(GPIO_PRT_Type* base, uint32_t pinNum)
 838:Generated_Source\PSoC6\pdl\drivers/peripheral/gpio/cy_gpio.h **** {
 839:Generated_Source\PSoC6\pdl\drivers/peripheral/gpio/cy_gpio.h ****     CY_ASSERT_L2(CY_GPIO_IS_PIN_VALID(pinNum));
 840:Generated_Source\PSoC6\pdl\drivers/peripheral/gpio/cy_gpio.h ****     
 841:Generated_Source\PSoC6\pdl\drivers/peripheral/gpio/cy_gpio.h ****     base->OUT_CLR = CY_GPIO_OUT_MASK << pinNum;
  49              		.loc 2 841 0
  50 000a 0F4C     		ldr	r4, .L5
  51 000c 0827     		movs	r7, #8
  52 000e 6760     		str	r7, [r4, #4]
  53              	.LVL2:
  54              	.LBE59:
  55              	.LBE58:
 122:cy_eink_library/pervasive_eink_hardware_driver.c ****     /* Pull the chip select line LOW to begin communication */
 123:cy_eink_library/pervasive_eink_hardware_driver.c ****     CY_EINK_CsLow;
 124:cy_eink_library/pervasive_eink_hardware_driver.c ****     /* Send the header of register address index */
 125:cy_eink_library/pervasive_eink_hardware_driver.c ****     Cy_EINK_WriteSPI(PV_EINK_REG_INDEX_HEADER);
  56              		.loc 1 125 0
  57 0010 7020     		movs	r0, #112
  58              	.LVL3:
  59 0012 FFF7FEFF 		bl	Cy_EINK_WriteSPI
  60              	.LVL4:
ARM GAS  C:\Users\codyg\AppData\Local\Temp\ccQipZVL.s 			page 19


 126:cy_eink_library/pervasive_eink_hardware_driver.c ****     /* Send the register address */
 127:cy_eink_library/pervasive_eink_hardware_driver.c ****     Cy_EINK_WriteSPI(regAddr);
  61              		.loc 1 127 0
  62 0016 4046     		mov	r0, r8
  63 0018 FFF7FEFF 		bl	Cy_EINK_WriteSPI
  64              	.LVL5:
  65              	.LBB60:
  66              	.LBB61:
 811:Generated_Source\PSoC6\pdl\drivers/peripheral/gpio/cy_gpio.h **** }
  67              		.loc 2 811 0
  68 001c A760     		str	r7, [r4, #8]
  69              	.LVL6:
  70              	.LBE61:
  71              	.LBE60:
  72              	.LBB62:
  73              	.LBB63:
  74              		.loc 2 841 0
  75 001e 6760     		str	r7, [r4, #4]
  76              	.LVL7:
  77              	.LBE63:
  78              	.LBE62:
 128:cy_eink_library/pervasive_eink_hardware_driver.c ****     /* Push the chip select line HIGH to end communication */
 129:cy_eink_library/pervasive_eink_hardware_driver.c ****     CY_EINK_CsHigh;
 130:cy_eink_library/pervasive_eink_hardware_driver.c ****     
 131:cy_eink_library/pervasive_eink_hardware_driver.c ****     /* Pull the chip select line LOW to begin communication */
 132:cy_eink_library/pervasive_eink_hardware_driver.c ****     CY_EINK_CsLow;
 133:cy_eink_library/pervasive_eink_hardware_driver.c ****     /* Send the header of data write index */
 134:cy_eink_library/pervasive_eink_hardware_driver.c ****     Cy_EINK_WriteSPI(PV_EINK_REG_DATA_WRITE);
  79              		.loc 1 134 0
  80 0020 7220     		movs	r0, #114
  81 0022 FFF7FEFF 		bl	Cy_EINK_WriteSPI
  82              	.LVL8:
 135:cy_eink_library/pervasive_eink_hardware_driver.c ****     
 136:cy_eink_library/pervasive_eink_hardware_driver.c ****     /* Send the array of data */
 137:cy_eink_library/pervasive_eink_hardware_driver.c ****     while (dataLength--)
  83              		.loc 1 137 0
  84 0026 05E0     		b	.L2
  85              	.LVL9:
  86              	.L3:
 138:cy_eink_library/pervasive_eink_hardware_driver.c ****     {
 139:cy_eink_library/pervasive_eink_hardware_driver.c ****         Cy_EINK_WriteSPI(*data++);
  87              		.loc 1 139 0
  88 0028 771C     		adds	r7, r6, #1
  89              	.LVL10:
  90 002a 3078     		ldrb	r0, [r6]	@ zero_extendqisi2
  91 002c FFF7FEFF 		bl	Cy_EINK_WriteSPI
  92              	.LVL11:
 137:cy_eink_library/pervasive_eink_hardware_driver.c ****     {
  93              		.loc 1 137 0
  94 0030 2546     		mov	r5, r4
  95              		.loc 1 139 0
  96 0032 3E46     		mov	r6, r7
  97              	.LVL12:
  98              	.L2:
 137:cy_eink_library/pervasive_eink_hardware_driver.c ****     {
  99              		.loc 1 137 0
 100 0034 6B1E     		subs	r3, r5, #1
ARM GAS  C:\Users\codyg\AppData\Local\Temp\ccQipZVL.s 			page 20


 101 0036 9CB2     		uxth	r4, r3
 102              	.LVL13:
 103 0038 002D     		cmp	r5, #0
 104 003a F5D1     		bne	.L3
 105              	.LVL14:
 106              	.LBB64:
 107              	.LBB65:
 811:Generated_Source\PSoC6\pdl\drivers/peripheral/gpio/cy_gpio.h **** }
 108              		.loc 2 811 0
 109 003c 0822     		movs	r2, #8
 110 003e 024B     		ldr	r3, .L5
 111 0040 9A60     		str	r2, [r3, #8]
 112              	.LVL15:
 113 0042 BDE8F081 		pop	{r4, r5, r6, r7, r8, pc}
 114              	.LVL16:
 115              	.L6:
 116 0046 00BF     		.align	2
 117              	.L5:
 118 0048 00063240 		.word	1077020160
 119              	.LBE65:
 120              	.LBE64:
 121              		.cfi_endproc
 122              	.LFE517:
 123              		.size	Pv_EINK_SendData, .-Pv_EINK_SendData
 124              		.section	.text.Pv_EINK_SendByte,"ax",%progbits
 125              		.align	2
 126              		.global	Pv_EINK_SendByte
 127              		.thumb
 128              		.thumb_func
 129              		.type	Pv_EINK_SendByte, %function
 130              	Pv_EINK_SendByte:
 131              	.LFB518:
 140:cy_eink_library/pervasive_eink_hardware_driver.c ****     }
 141:cy_eink_library/pervasive_eink_hardware_driver.c ****     /* Push the chip select line HIGH to end communication */
 142:cy_eink_library/pervasive_eink_hardware_driver.c ****     CY_EINK_CsHigh;
 143:cy_eink_library/pervasive_eink_hardware_driver.c **** }
 144:cy_eink_library/pervasive_eink_hardware_driver.c **** 
 145:cy_eink_library/pervasive_eink_hardware_driver.c **** /*******************************************************************************
 146:cy_eink_library/pervasive_eink_hardware_driver.c **** * Function Name: void Pv_EINK_SendByte(uint8_t regAddr, uint8_t data)
 147:cy_eink_library/pervasive_eink_hardware_driver.c **** ********************************************************************************
 148:cy_eink_library/pervasive_eink_hardware_driver.c **** *
 149:cy_eink_library/pervasive_eink_hardware_driver.c **** * Summary: Sends a byte of data to the E-INK driver.
 150:cy_eink_library/pervasive_eink_hardware_driver.c **** *
 151:cy_eink_library/pervasive_eink_hardware_driver.c **** * Parameters:
 152:cy_eink_library/pervasive_eink_hardware_driver.c **** *  uint8_t regAddr: Display driver register address
 153:cy_eink_library/pervasive_eink_hardware_driver.c **** *  uint8_t data   : Data byte that will be sent to the driver
 154:cy_eink_library/pervasive_eink_hardware_driver.c **** *
 155:cy_eink_library/pervasive_eink_hardware_driver.c **** * Return:
 156:cy_eink_library/pervasive_eink_hardware_driver.c **** *  None
 157:cy_eink_library/pervasive_eink_hardware_driver.c **** *
 158:cy_eink_library/pervasive_eink_hardware_driver.c **** * Side Effects:
 159:cy_eink_library/pervasive_eink_hardware_driver.c **** *  None
 160:cy_eink_library/pervasive_eink_hardware_driver.c **** *******************************************************************************/
 161:cy_eink_library/pervasive_eink_hardware_driver.c **** void Pv_EINK_SendByte(uint8_t regAddr, uint8_t data)
 162:cy_eink_library/pervasive_eink_hardware_driver.c **** {
 132              		.loc 1 162 0
 133              		.cfi_startproc
ARM GAS  C:\Users\codyg\AppData\Local\Temp\ccQipZVL.s 			page 21


 134              		@ args = 0, pretend = 0, frame = 8
 135              		@ frame_needed = 0, uses_anonymous_args = 0
 136              	.LVL17:
 137 0000 00B5     		push	{lr}
 138              		.cfi_def_cfa_offset 4
 139              		.cfi_offset 14, -4
 140 0002 83B0     		sub	sp, sp, #12
 141              		.cfi_def_cfa_offset 16
 142 0004 02AB     		add	r3, sp, #8
 143 0006 03F8011D 		strb	r1, [r3, #-1]!
 163:cy_eink_library/pervasive_eink_hardware_driver.c ****     /* Send a single byte of data */
 164:cy_eink_library/pervasive_eink_hardware_driver.c ****     Pv_EINK_SendData(regAddr, &data, CY_EINK_SINGLE_BYTE);
 144              		.loc 1 164 0
 145 000a 0122     		movs	r2, #1
 146 000c 1946     		mov	r1, r3
 147              	.LVL18:
 148 000e FFF7FEFF 		bl	Pv_EINK_SendData
 149              	.LVL19:
 165:cy_eink_library/pervasive_eink_hardware_driver.c **** }
 150              		.loc 1 165 0
 151 0012 03B0     		add	sp, sp, #12
 152              		.cfi_def_cfa_offset 4
 153              		@ sp needed
 154 0014 5DF804FB 		ldr	pc, [sp], #4
 155              		.cfi_endproc
 156              	.LFE518:
 157              		.size	Pv_EINK_SendByte, .-Pv_EINK_SendByte
 158              		.section	.text.Pv_EINK_ReadByte,"ax",%progbits
 159              		.align	2
 160              		.global	Pv_EINK_ReadByte
 161              		.thumb
 162              		.thumb_func
 163              		.type	Pv_EINK_ReadByte, %function
 164              	Pv_EINK_ReadByte:
 165              	.LFB519:
 166:cy_eink_library/pervasive_eink_hardware_driver.c **** 
 167:cy_eink_library/pervasive_eink_hardware_driver.c **** /*******************************************************************************
 168:cy_eink_library/pervasive_eink_hardware_driver.c **** * Function Name: uint8_t Pv_EINK_ReadByte(uint8_t regAddr, uint8_t data)
 169:cy_eink_library/pervasive_eink_hardware_driver.c **** ********************************************************************************
 170:cy_eink_library/pervasive_eink_hardware_driver.c **** *
 171:cy_eink_library/pervasive_eink_hardware_driver.c **** * Summary: Sends a read command to the E-INK driver and receives a byte of data
 172:cy_eink_library/pervasive_eink_hardware_driver.c **** *  from the driver.
 173:cy_eink_library/pervasive_eink_hardware_driver.c **** *
 174:cy_eink_library/pervasive_eink_hardware_driver.c **** * Parameters:
 175:cy_eink_library/pervasive_eink_hardware_driver.c **** *  uint8_t regAddr: Display driver register address
 176:cy_eink_library/pervasive_eink_hardware_driver.c **** *  uint8_t data   : Data command that will be sent to the driver
 177:cy_eink_library/pervasive_eink_hardware_driver.c **** *
 178:cy_eink_library/pervasive_eink_hardware_driver.c **** * Return:
 179:cy_eink_library/pervasive_eink_hardware_driver.c **** *  uint8_t :  Data received from the display driver
 180:cy_eink_library/pervasive_eink_hardware_driver.c **** *
 181:cy_eink_library/pervasive_eink_hardware_driver.c **** * Side Effects:
 182:cy_eink_library/pervasive_eink_hardware_driver.c **** *  None
 183:cy_eink_library/pervasive_eink_hardware_driver.c **** *******************************************************************************/
 184:cy_eink_library/pervasive_eink_hardware_driver.c **** uint8_t Pv_EINK_ReadByte(uint8_t regAddr, uint8_t data)
 185:cy_eink_library/pervasive_eink_hardware_driver.c **** {
 166              		.loc 1 185 0
 167              		.cfi_startproc
ARM GAS  C:\Users\codyg\AppData\Local\Temp\ccQipZVL.s 			page 22


 168              		@ args = 0, pretend = 0, frame = 0
 169              		@ frame_needed = 0, uses_anonymous_args = 0
 170              	.LVL20:
 171 0000 F8B5     		push	{r3, r4, r5, r6, r7, lr}
 172              		.cfi_def_cfa_offset 24
 173              		.cfi_offset 3, -24
 174              		.cfi_offset 4, -20
 175              		.cfi_offset 5, -16
 176              		.cfi_offset 6, -12
 177              		.cfi_offset 7, -8
 178              		.cfi_offset 14, -4
 179 0002 0746     		mov	r7, r0
 180 0004 0E46     		mov	r6, r1
 181              	.LVL21:
 182              	.LBB66:
 183              	.LBB67:
 184              		.loc 2 841 0
 185 0006 094C     		ldr	r4, .L11
 186 0008 0825     		movs	r5, #8
 187 000a 6560     		str	r5, [r4, #4]
 188              	.LVL22:
 189              	.LBE67:
 190              	.LBE66:
 186:cy_eink_library/pervasive_eink_hardware_driver.c ****     /* Variable that stores received data */
 187:cy_eink_library/pervasive_eink_hardware_driver.c ****     uint8_t dataRead;
 188:cy_eink_library/pervasive_eink_hardware_driver.c ****     
 189:cy_eink_library/pervasive_eink_hardware_driver.c ****     /* Pull the chip select line LOW to begin communication */
 190:cy_eink_library/pervasive_eink_hardware_driver.c ****     CY_EINK_CsLow;
 191:cy_eink_library/pervasive_eink_hardware_driver.c ****     /* Send the header of register address index */
 192:cy_eink_library/pervasive_eink_hardware_driver.c ****     Cy_EINK_WriteSPI(PV_EINK_REG_INDEX_HEADER);
 191              		.loc 1 192 0
 192 000c 7020     		movs	r0, #112
 193              	.LVL23:
 194 000e FFF7FEFF 		bl	Cy_EINK_WriteSPI
 195              	.LVL24:
 193:cy_eink_library/pervasive_eink_hardware_driver.c ****     /* Send the register address */
 194:cy_eink_library/pervasive_eink_hardware_driver.c ****     Cy_EINK_WriteSPI(regAddr);
 196              		.loc 1 194 0
 197 0012 3846     		mov	r0, r7
 198 0014 FFF7FEFF 		bl	Cy_EINK_WriteSPI
 199              	.LVL25:
 200              	.LBB68:
 201              	.LBB69:
 811:Generated_Source\PSoC6\pdl\drivers/peripheral/gpio/cy_gpio.h **** }
 202              		.loc 2 811 0
 203 0018 A560     		str	r5, [r4, #8]
 204              	.LVL26:
 205              	.LBE69:
 206              	.LBE68:
 207              	.LBB70:
 208              	.LBB71:
 209              		.loc 2 841 0
 210 001a 6560     		str	r5, [r4, #4]
 211              	.LVL27:
 212              	.LBE71:
 213              	.LBE70:
 195:cy_eink_library/pervasive_eink_hardware_driver.c ****     /* Push the chip select line HIGH to end communication */
ARM GAS  C:\Users\codyg\AppData\Local\Temp\ccQipZVL.s 			page 23


 196:cy_eink_library/pervasive_eink_hardware_driver.c ****     CY_EINK_CsHigh;
 197:cy_eink_library/pervasive_eink_hardware_driver.c ****     
 198:cy_eink_library/pervasive_eink_hardware_driver.c ****     /* Pull the chip select line LOW to begin communication */
 199:cy_eink_library/pervasive_eink_hardware_driver.c ****     CY_EINK_CsLow;
 200:cy_eink_library/pervasive_eink_hardware_driver.c ****     /* Send the header of data read index */
 201:cy_eink_library/pervasive_eink_hardware_driver.c ****     Cy_EINK_WriteSPI(PV_EINK_REG_DATA_READ);
 214              		.loc 1 201 0
 215 001c 7320     		movs	r0, #115
 216 001e FFF7FEFF 		bl	Cy_EINK_WriteSPI
 217              	.LVL28:
 202:cy_eink_library/pervasive_eink_hardware_driver.c ****     /* Send the command to receive a byte of data */
 203:cy_eink_library/pervasive_eink_hardware_driver.c ****     dataRead = Cy_EINK_ReadSPI(data);
 218              		.loc 1 203 0
 219 0022 3046     		mov	r0, r6
 220 0024 FFF7FEFF 		bl	Cy_EINK_ReadSPI
 221              	.LVL29:
 222              	.LBB72:
 223              	.LBB73:
 811:Generated_Source\PSoC6\pdl\drivers/peripheral/gpio/cy_gpio.h **** }
 224              		.loc 2 811 0
 225 0028 A560     		str	r5, [r4, #8]
 226              	.LVL30:
 227              	.LBE73:
 228              	.LBE72:
 204:cy_eink_library/pervasive_eink_hardware_driver.c ****     /* Push the chip select line HIGH to end communication*/
 205:cy_eink_library/pervasive_eink_hardware_driver.c ****     CY_EINK_CsHigh;
 206:cy_eink_library/pervasive_eink_hardware_driver.c ****     
 207:cy_eink_library/pervasive_eink_hardware_driver.c ****     /* Return the received data */
 208:cy_eink_library/pervasive_eink_hardware_driver.c ****     return(dataRead);
 209:cy_eink_library/pervasive_eink_hardware_driver.c **** }
 229              		.loc 1 209 0
 230 002a F8BD     		pop	{r3, r4, r5, r6, r7, pc}
 231              	.L12:
 232              		.align	2
 233              	.L11:
 234 002c 00063240 		.word	1077020160
 235              		.cfi_endproc
 236              	.LFE519:
 237              		.size	Pv_EINK_ReadByte, .-Pv_EINK_ReadByte
 238              		.section	.text.Pv_EINK_Init,"ax",%progbits
 239              		.align	2
 240              		.global	Pv_EINK_Init
 241              		.thumb
 242              		.thumb_func
 243              		.type	Pv_EINK_Init, %function
 244              	Pv_EINK_Init:
 245              	.LFB520:
 210:cy_eink_library/pervasive_eink_hardware_driver.c **** 
 211:cy_eink_library/pervasive_eink_hardware_driver.c **** /*******************************************************************************
 212:cy_eink_library/pervasive_eink_hardware_driver.c **** * Function Name: void  Pv_EINK_Init()
 213:cy_eink_library/pervasive_eink_hardware_driver.c **** ********************************************************************************
 214:cy_eink_library/pervasive_eink_hardware_driver.c **** *
 215:cy_eink_library/pervasive_eink_hardware_driver.c **** * Summary: Initialize the E-INK display hardware and associated PSoC components.
 216:cy_eink_library/pervasive_eink_hardware_driver.c **** *
 217:cy_eink_library/pervasive_eink_hardware_driver.c **** * Parameters:
 218:cy_eink_library/pervasive_eink_hardware_driver.c **** *  None
 219:cy_eink_library/pervasive_eink_hardware_driver.c **** *
ARM GAS  C:\Users\codyg\AppData\Local\Temp\ccQipZVL.s 			page 24


 220:cy_eink_library/pervasive_eink_hardware_driver.c **** * Return:
 221:cy_eink_library/pervasive_eink_hardware_driver.c **** *  None
 222:cy_eink_library/pervasive_eink_hardware_driver.c **** *
 223:cy_eink_library/pervasive_eink_hardware_driver.c **** * Side Effects:
 224:cy_eink_library/pervasive_eink_hardware_driver.c **** *  None
 225:cy_eink_library/pervasive_eink_hardware_driver.c **** *******************************************************************************/
 226:cy_eink_library/pervasive_eink_hardware_driver.c **** void Pv_EINK_Init(void)
 227:cy_eink_library/pervasive_eink_hardware_driver.c **** {
 246              		.loc 1 227 0
 247              		.cfi_startproc
 248              		@ args = 0, pretend = 0, frame = 0
 249              		@ frame_needed = 0, uses_anonymous_args = 0
 250 0000 38B5     		push	{r3, r4, r5, lr}
 251              		.cfi_def_cfa_offset 16
 252              		.cfi_offset 3, -16
 253              		.cfi_offset 4, -12
 254              		.cfi_offset 5, -8
 255              		.cfi_offset 14, -4
 256              	.LVL31:
 257              	.LBB74:
 258              	.LBB75:
 259              		.loc 2 841 0
 260 0002 0425     		movs	r5, #4
 261 0004 074B     		ldr	r3, .L15
 262 0006 5D60     		str	r5, [r3, #4]
 263              	.LVL32:
 264              	.LBE75:
 265              	.LBE74:
 266              	.LBB76:
 267              	.LBB77:
 268 0008 074C     		ldr	r4, .L15+4
 269 000a 4023     		movs	r3, #64
 270 000c 6360     		str	r3, [r4, #4]
 271              	.LVL33:
 272              	.LBE77:
 273              	.LBE76:
 274              	.LBB78:
 275              	.LBB79:
 276 000e 1023     		movs	r3, #16
 277 0010 6360     		str	r3, [r4, #4]
 278              	.LVL34:
 279              	.LBE79:
 280              	.LBE78:
 228:cy_eink_library/pervasive_eink_hardware_driver.c ****     /* Enable the level translator located between PSoC and the E-INK display */
 229:cy_eink_library/pervasive_eink_hardware_driver.c ****     CY_EINK_EnableIO;
 230:cy_eink_library/pervasive_eink_hardware_driver.c ****     /* Pull the Border pin to LOW */
 231:cy_eink_library/pervasive_eink_hardware_driver.c ****     CY_EINK_BorderLow;
 232:cy_eink_library/pervasive_eink_hardware_driver.c ****     /* Disable the load switch connected to E-INK display's Vcc */
 233:cy_eink_library/pervasive_eink_hardware_driver.c ****     CY_EINK_TurnOffVcc;
 234:cy_eink_library/pervasive_eink_hardware_driver.c ****     
 235:cy_eink_library/pervasive_eink_hardware_driver.c ****     /* Initialize the PSoC SPI */
 236:cy_eink_library/pervasive_eink_hardware_driver.c ****     Cy_EINK_InitSPI();
 281              		.loc 1 236 0
 282 0012 FFF7FEFF 		bl	Cy_EINK_InitSPI
 283              	.LVL35:
 284              	.LBB80:
 285              	.LBB81:
ARM GAS  C:\Users\codyg\AppData\Local\Temp\ccQipZVL.s 			page 25


 286              		.loc 2 841 0
 287 0016 0822     		movs	r2, #8
 288 0018 044B     		ldr	r3, .L15+8
 289 001a 5A60     		str	r2, [r3, #4]
 290              	.LVL36:
 291              	.LBE81:
 292              	.LBE80:
 293              	.LBB82:
 294              	.LBB83:
 295 001c 6560     		str	r5, [r4, #4]
 296              	.LVL37:
 297              	.LBE83:
 298              	.LBE82:
 299              	.LBB84:
 300              	.LBB85:
 301 001e 2023     		movs	r3, #32
 302 0020 6360     		str	r3, [r4, #4]
 303              	.LVL38:
 304 0022 38BD     		pop	{r3, r4, r5, pc}
 305              	.L16:
 306              		.align	2
 307              	.L15:
 308 0024 00003240 		.word	1077018624
 309 0028 80023240 		.word	1077019264
 310 002c 00063240 		.word	1077020160
 311              	.LBE85:
 312              	.LBE84:
 313              		.cfi_endproc
 314              	.LFE520:
 315              		.size	Pv_EINK_Init, .-Pv_EINK_Init
 316              		.section	.text.Pv_EINK_InitDriver,"ax",%progbits
 317              		.align	2
 318              		.global	Pv_EINK_InitDriver
 319              		.thumb
 320              		.thumb_func
 321              		.type	Pv_EINK_InitDriver, %function
 322              	Pv_EINK_InitDriver:
 323              	.LFB521:
 237:cy_eink_library/pervasive_eink_hardware_driver.c ****     /* Pull the chip select, reset and discharge pins to LOW */
 238:cy_eink_library/pervasive_eink_hardware_driver.c ****     CY_EINK_CsLow;
 239:cy_eink_library/pervasive_eink_hardware_driver.c ****     CY_EINK_RstLow;
 240:cy_eink_library/pervasive_eink_hardware_driver.c ****     CY_EINK_DischargeLow;
 241:cy_eink_library/pervasive_eink_hardware_driver.c **** }
 242:cy_eink_library/pervasive_eink_hardware_driver.c **** 
 243:cy_eink_library/pervasive_eink_hardware_driver.c **** /*******************************************************************************
 244:cy_eink_library/pervasive_eink_hardware_driver.c **** * Function Name: Cy_EINK_Status PV_EINK_InitDriver(void)
 245:cy_eink_library/pervasive_eink_hardware_driver.c **** ********************************************************************************
 246:cy_eink_library/pervasive_eink_hardware_driver.c **** *
 247:cy_eink_library/pervasive_eink_hardware_driver.c **** * Summary: Initialize E-INK Driver. For detailed flow and description, please 
 248:cy_eink_library/pervasive_eink_hardware_driver.c **** * refer to the driver G2 document Section 4.
 249:cy_eink_library/pervasive_eink_hardware_driver.c **** *
 250:cy_eink_library/pervasive_eink_hardware_driver.c **** * Parameters:
 251:cy_eink_library/pervasive_eink_hardware_driver.c **** *  None
 252:cy_eink_library/pervasive_eink_hardware_driver.c **** *
 253:cy_eink_library/pervasive_eink_hardware_driver.c **** * Return:
 254:cy_eink_library/pervasive_eink_hardware_driver.c **** *  pv_eink_status_t: Status of the initialization
 255:cy_eink_library/pervasive_eink_hardware_driver.c **** *
ARM GAS  C:\Users\codyg\AppData\Local\Temp\ccQipZVL.s 			page 26


 256:cy_eink_library/pervasive_eink_hardware_driver.c **** * Side Effects:
 257:cy_eink_library/pervasive_eink_hardware_driver.c **** *  None
 258:cy_eink_library/pervasive_eink_hardware_driver.c **** *******************************************************************************/
 259:cy_eink_library/pervasive_eink_hardware_driver.c **** pv_eink_status_t Pv_EINK_InitDriver(void)
 260:cy_eink_library/pervasive_eink_hardware_driver.c **** {
 324              		.loc 1 260 0
 325              		.cfi_startproc
 326              		@ args = 0, pretend = 0, frame = 0
 327              		@ frame_needed = 0, uses_anonymous_args = 0
 328 0000 38B5     		push	{r3, r4, r5, lr}
 329              		.cfi_def_cfa_offset 16
 330              		.cfi_offset 3, -16
 331              		.cfi_offset 4, -12
 332              		.cfi_offset 5, -8
 333              		.cfi_offset 14, -4
 334              	.LVL39:
 261:cy_eink_library/pervasive_eink_hardware_driver.c ****     /* Variable used to count the number of loops */
 262:cy_eink_library/pervasive_eink_hardware_driver.c ****     uint16_t    loopCounter = 0;
 263:cy_eink_library/pervasive_eink_hardware_driver.c ****     
 264:cy_eink_library/pervasive_eink_hardware_driver.c ****     /* Clear the line buffer with all zeros */
 265:cy_eink_library/pervasive_eink_hardware_driver.c ****     memset(&driverPacket.lineBuffer, 0, sizeof(driverPacket.lineBuffer)) ;
 335              		.loc 1 265 0
 336 0002 434C     		ldr	r4, .L29
 337 0004 6F22     		movs	r2, #111
 338 0006 0021     		movs	r1, #0
 339 0008 2046     		mov	r0, r4
 340 000a FFF7FEFF 		bl	memset
 341              	.LVL40:
 266:cy_eink_library/pervasive_eink_hardware_driver.c ****     
 267:cy_eink_library/pervasive_eink_hardware_driver.c ****     /* Initialize the even data, odd data and scan data pointers */
 268:cy_eink_library/pervasive_eink_hardware_driver.c ****     dataLineEven = &driverPacket.lineDataBySize.even[0];
 342              		.loc 1 268 0
 343 000e 631C     		adds	r3, r4, #1
 344 0010 2367     		str	r3, [r4, #112]
 269:cy_eink_library/pervasive_eink_hardware_driver.c ****     dataLineOdd  = &driverPacket.lineDataBySize.odd[0];
 345              		.loc 1 269 0
 346 0012 04F14E03 		add	r3, r4, #78
 347 0016 6367     		str	r3, [r4, #116]
 270:cy_eink_library/pervasive_eink_hardware_driver.c ****     dataLineScan = &driverPacket.lineDataBySize.scan[0];
 348              		.loc 1 270 0
 349 0018 04F12203 		add	r3, r4, #34
 350 001c A367     		str	r3, [r4, #120]
 271:cy_eink_library/pervasive_eink_hardware_driver.c **** 
 272:cy_eink_library/pervasive_eink_hardware_driver.c ****     /* Check if E-INK driver is busy */
 273:cy_eink_library/pervasive_eink_hardware_driver.c ****     if (Cy_EINK_IsBusy())
 351              		.loc 1 273 0
 352 001e FFF7FEFF 		bl	Cy_EINK_IsBusy
 353              	.LVL41:
 354 0022 38B1     		cbz	r0, .L18
 274:cy_eink_library/pervasive_eink_hardware_driver.c ****     {
 275:cy_eink_library/pervasive_eink_hardware_driver.c ****         /* If the E-INK driver is busy for more than maximum allowed time,
 276:cy_eink_library/pervasive_eink_hardware_driver.c ****            return an error message */
 277:cy_eink_library/pervasive_eink_hardware_driver.c ****         Cy_EINK_Delay (PV_EINK_MAX_PV_EINK_BUSY_TIME);
 355              		.loc 1 277 0
 356 0024 3B4B     		ldr	r3, .L29+4
 357 0026 1B68     		ldr	r3, [r3]
 358 0028 0A20     		movs	r0, #10
ARM GAS  C:\Users\codyg\AppData\Local\Temp\ccQipZVL.s 			page 27


 359 002a 9847     		blx	r3
 360              	.LVL42:
 278:cy_eink_library/pervasive_eink_hardware_driver.c ****         if (Cy_EINK_IsBusy())
 361              		.loc 1 278 0
 362 002c FFF7FEFF 		bl	Cy_EINK_IsBusy
 363              	.LVL43:
 364 0030 0028     		cmp	r0, #0
 365 0032 64D1     		bne	.L23
 366              	.L18:
 279:cy_eink_library/pervasive_eink_hardware_driver.c ****         {
 280:cy_eink_library/pervasive_eink_hardware_driver.c ****             return(PV_EINK_ERROR_BUSY);
 281:cy_eink_library/pervasive_eink_hardware_driver.c ****         }
 282:cy_eink_library/pervasive_eink_hardware_driver.c ****     }
 283:cy_eink_library/pervasive_eink_hardware_driver.c ****     
 284:cy_eink_library/pervasive_eink_hardware_driver.c ****     /* Check the driver ID */
 285:cy_eink_library/pervasive_eink_hardware_driver.c ****     if ((Pv_EINK_ReadByte(PV_EINK_DRIVER_ID_COMMAND_INDEX, 
 367              		.loc 1 285 0
 368 0034 0021     		movs	r1, #0
 369 0036 7220     		movs	r0, #114
 370 0038 FFF7FEFF 		bl	Pv_EINK_ReadByte
 371              	.LVL44:
 372 003c 00F00F00 		and	r0, r0, #15
 373 0040 0228     		cmp	r0, #2
 374 0042 5ED1     		bne	.L24
 286:cy_eink_library/pervasive_eink_hardware_driver.c ****                           PV_EINK_DRIVER_ID_COMMAND_DATA)
 287:cy_eink_library/pervasive_eink_hardware_driver.c ****                           & PV_EINK_DRIVER_ID_MASK)
 288:cy_eink_library/pervasive_eink_hardware_driver.c ****                           != PV_EINK_DRIVER_ID_CHECK)
 289:cy_eink_library/pervasive_eink_hardware_driver.c ****     {
 290:cy_eink_library/pervasive_eink_hardware_driver.c ****         /* Return an error message if incorrect driver ID is received */
 291:cy_eink_library/pervasive_eink_hardware_driver.c ****         return(PV_EINK_ERROR_ID);
 292:cy_eink_library/pervasive_eink_hardware_driver.c ****     }
 293:cy_eink_library/pervasive_eink_hardware_driver.c ****     /* Disable OE */
 294:cy_eink_library/pervasive_eink_hardware_driver.c ****     Pv_EINK_SendByte(PV_EINK_DISABLE_OE_COMMAND_INDEX, 
 375              		.loc 1 294 0
 376 0044 4021     		movs	r1, #64
 377 0046 FFF7FEFF 		bl	Pv_EINK_SendByte
 378              	.LVL45:
 295:cy_eink_library/pervasive_eink_hardware_driver.c ****                      PV_EINK_DISABLE_OE_COMMAND_DATA);
 296:cy_eink_library/pervasive_eink_hardware_driver.c ****     
 297:cy_eink_library/pervasive_eink_hardware_driver.c ****     /* Check Breakage */
 298:cy_eink_library/pervasive_eink_hardware_driver.c ****     if ((Pv_EINK_ReadByte(PV_EINK_TEST_BREAKAGE_COMMAND_INDEX,
 379              		.loc 1 298 0
 380 004a 0021     		movs	r1, #0
 381 004c 0F20     		movs	r0, #15
 382 004e FFF7FEFF 		bl	Pv_EINK_ReadByte
 383              	.LVL46:
 384 0052 10F0800F 		tst	r0, #128
 385 0056 56D0     		beq	.L25
 299:cy_eink_library/pervasive_eink_hardware_driver.c ****                           PV_EINK_TEST_BREAKAGE_COMMAND_DATA) & 
 300:cy_eink_library/pervasive_eink_hardware_driver.c ****                           PV_EINK_TEST_BREAKAGE_MASK)
 301:cy_eink_library/pervasive_eink_hardware_driver.c ****                           != PV_EINK_TEST_BREAKAGE_CHECK)
 302:cy_eink_library/pervasive_eink_hardware_driver.c ****     {
 303:cy_eink_library/pervasive_eink_hardware_driver.c ****         /* Send the error message for breakage */
 304:cy_eink_library/pervasive_eink_hardware_driver.c ****         return(PV_EINK_ERROR_BREAKAGE);
 305:cy_eink_library/pervasive_eink_hardware_driver.c ****     }
 306:cy_eink_library/pervasive_eink_hardware_driver.c ****     /* Power Saving Mode */
 307:cy_eink_library/pervasive_eink_hardware_driver.c ****     Pv_EINK_SendByte(PV_EINK_PWR_SAVING_COMMAND_INDEX, 
ARM GAS  C:\Users\codyg\AppData\Local\Temp\ccQipZVL.s 			page 28


 386              		.loc 1 307 0
 387 0058 0221     		movs	r1, #2
 388 005a 0B20     		movs	r0, #11
 389 005c FFF7FEFF 		bl	Pv_EINK_SendByte
 390              	.LVL47:
 308:cy_eink_library/pervasive_eink_hardware_driver.c ****                   PV_EINK_PWR1_SAVING_COMMAND_DATA);
 309:cy_eink_library/pervasive_eink_hardware_driver.c ****     
 310:cy_eink_library/pervasive_eink_hardware_driver.c ****     /* Channel Select */
 311:cy_eink_library/pervasive_eink_hardware_driver.c ****     Pv_EINK_SendData(PV_EINK_CHANNEL_SEL_COMMAND_INDEX, 
 391              		.loc 1 311 0
 392 0060 0822     		movs	r2, #8
 393 0062 2D49     		ldr	r1, .L29+8
 394 0064 0120     		movs	r0, #1
 395 0066 FFF7FEFF 		bl	Pv_EINK_SendData
 396              	.LVL48:
 312:cy_eink_library/pervasive_eink_hardware_driver.c ****                     (uint8_t*) &channelSelect,
 313:cy_eink_library/pervasive_eink_hardware_driver.c ****                      PV_EINK_CHANNEL_SEL_SIZE);
 314:cy_eink_library/pervasive_eink_hardware_driver.c ****     
 315:cy_eink_library/pervasive_eink_hardware_driver.c ****     /* High Power Mode Oscillator Setting */
 316:cy_eink_library/pervasive_eink_hardware_driver.c ****     Pv_EINK_SendByte(PV_EINK_OSC_SETTING_COMMAND_INDEX, 
 397              		.loc 1 316 0
 398 006a D121     		movs	r1, #209
 399 006c 0720     		movs	r0, #7
 400 006e FFF7FEFF 		bl	Pv_EINK_SendByte
 401              	.LVL49:
 317:cy_eink_library/pervasive_eink_hardware_driver.c ****                      PV_EINK_OSC_SETTING_COMMAND_DATA);
 318:cy_eink_library/pervasive_eink_hardware_driver.c ****     /* Power Setting */
 319:cy_eink_library/pervasive_eink_hardware_driver.c ****     Pv_EINK_SendByte(PV_EINK_PWR1_SETTING_COMMAND_INDEX,
 402              		.loc 1 319 0
 403 0072 0221     		movs	r1, #2
 404 0074 0820     		movs	r0, #8
 405 0076 FFF7FEFF 		bl	Pv_EINK_SendByte
 406              	.LVL50:
 320:cy_eink_library/pervasive_eink_hardware_driver.c ****                      PV_EINK_PWR1_SETTING_COMMAND_DATA);
 321:cy_eink_library/pervasive_eink_hardware_driver.c ****     /* Set Vcom level */
 322:cy_eink_library/pervasive_eink_hardware_driver.c ****     Pv_EINK_SendByte(PV_EINK_VCOM1_LEVEL_COMMAND_INDEX, 
 407              		.loc 1 322 0
 408 007a C221     		movs	r1, #194
 409 007c 0920     		movs	r0, #9
 410 007e FFF7FEFF 		bl	Pv_EINK_SendByte
 411              	.LVL51:
 323:cy_eink_library/pervasive_eink_hardware_driver.c ****                      PV_EINK_VCOM1_LEVEL_COMMAND_DATA);
 324:cy_eink_library/pervasive_eink_hardware_driver.c ****     /* Power Setting */
 325:cy_eink_library/pervasive_eink_hardware_driver.c ****     Pv_EINK_SendByte(PV_EINK_PWR2_SETTING_COMMAND_INDEX,
 412              		.loc 1 325 0
 413 0082 0321     		movs	r1, #3
 414 0084 0420     		movs	r0, #4
 415 0086 FFF7FEFF 		bl	Pv_EINK_SendByte
 416              	.LVL52:
 326:cy_eink_library/pervasive_eink_hardware_driver.c ****                      PV_EINK_PWR2_SETTING_COMMAND_DATA);
 327:cy_eink_library/pervasive_eink_hardware_driver.c ****                   
 328:cy_eink_library/pervasive_eink_hardware_driver.c ****     /* Driver latch on */
 329:cy_eink_library/pervasive_eink_hardware_driver.c ****     Pv_EINK_SendByte(PV_EINK_LATCH_OFF_COMMAND_INDEX,
 417              		.loc 1 329 0
 418 008a 0121     		movs	r1, #1
 419 008c 0320     		movs	r0, #3
 420 008e FFF7FEFF 		bl	Pv_EINK_SendByte
ARM GAS  C:\Users\codyg\AppData\Local\Temp\ccQipZVL.s 			page 29


 421              	.LVL53:
 330:cy_eink_library/pervasive_eink_hardware_driver.c ****                      PV_EINK_LATCH_ON_COMMAND_DATA);
 331:cy_eink_library/pervasive_eink_hardware_driver.c ****     /* Driver latch off */
 332:cy_eink_library/pervasive_eink_hardware_driver.c ****     Pv_EINK_SendByte(PV_EINK_LATCH_OFF_COMMAND_INDEX, 
 422              		.loc 1 332 0
 423 0092 0021     		movs	r1, #0
 424 0094 0320     		movs	r0, #3
 425 0096 FFF7FEFF 		bl	Pv_EINK_SendByte
 426              	.LVL54:
 333:cy_eink_library/pervasive_eink_hardware_driver.c ****                      PV_EINK_LATCH_OFF_COMMAND_DATA);
 334:cy_eink_library/pervasive_eink_hardware_driver.c ****     Cy_EINK_Delay(PV_EINK_PIN_DELAY);
 427              		.loc 1 334 0
 428 009a 1E4B     		ldr	r3, .L29+4
 429 009c 1B68     		ldr	r3, [r3]
 430 009e 0A20     		movs	r0, #10
 431 00a0 9847     		blx	r3
 432              	.LVL55:
 262:cy_eink_library/pervasive_eink_hardware_driver.c ****     
 433              		.loc 1 262 0
 434 00a2 0025     		movs	r5, #0
 435 00a4 00E0     		b	.L22
 436              	.LVL56:
 437              	.L26:
 335:cy_eink_library/pervasive_eink_hardware_driver.c ****     
 336:cy_eink_library/pervasive_eink_hardware_driver.c ****     /* Start the charge pump */
 337:cy_eink_library/pervasive_eink_hardware_driver.c ****     do
 338:cy_eink_library/pervasive_eink_hardware_driver.c ****     {
 339:cy_eink_library/pervasive_eink_hardware_driver.c ****         /* Start charge pump positive voltage (VGH & VDH on) */
 340:cy_eink_library/pervasive_eink_hardware_driver.c ****         Pv_EINK_SendByte(PV_EINK_VGH_VDH_ON_COMMAND_INDEX,
 341:cy_eink_library/pervasive_eink_hardware_driver.c ****                       PV_EINK_VGH_VDH_ON_COMMAND_DATA);
 342:cy_eink_library/pervasive_eink_hardware_driver.c ****         Cy_EINK_Delay(PV_EINK_POSITIVE_V_DELAY);
 343:cy_eink_library/pervasive_eink_hardware_driver.c ****         
 344:cy_eink_library/pervasive_eink_hardware_driver.c ****         /* Start charge pump negative voltage (VGL & VDL on) */
 345:cy_eink_library/pervasive_eink_hardware_driver.c ****         Pv_EINK_SendByte(PV_EINK_VGH_VDH_ON_COMMAND_INDEX,
 346:cy_eink_library/pervasive_eink_hardware_driver.c ****                       PV_EINK_VGL_VDL_ON_COMMAND_DATA);
 347:cy_eink_library/pervasive_eink_hardware_driver.c ****         Cy_EINK_Delay(PV_EINK_PWR_CTRL_DELAY);
 348:cy_eink_library/pervasive_eink_hardware_driver.c ****         
 349:cy_eink_library/pervasive_eink_hardware_driver.c ****         /* Set charge pump (Vcom_Driver on) */
 350:cy_eink_library/pervasive_eink_hardware_driver.c ****         Pv_EINK_SendByte(PV_EINK_VCOM_DRIVE_ON_COMMAND_INDEX,
 351:cy_eink_library/pervasive_eink_hardware_driver.c ****                       PV_EINK_VCOM_DRIVE_ON_COMMAND_DATA);
 352:cy_eink_library/pervasive_eink_hardware_driver.c ****         Cy_EINK_Delay(PV_EINK_PWR_CTRL_DELAY);
 353:cy_eink_library/pervasive_eink_hardware_driver.c ****         
 354:cy_eink_library/pervasive_eink_hardware_driver.c ****         /* Check DC level */
 355:cy_eink_library/pervasive_eink_hardware_driver.c ****         if ((Pv_EINK_ReadByte(PV_EINK_DC_LEVEL_READ_COMMAND_INDEX,
 356:cy_eink_library/pervasive_eink_hardware_driver.c ****                            PV_EINK_DC_LEVEL_READ_COMMAND_DATA) & 
 357:cy_eink_library/pervasive_eink_hardware_driver.c ****                            PV_EINK_DC_LEVEL_MASK)
 358:cy_eink_library/pervasive_eink_hardware_driver.c ****                            != PV_EINK_DC_LEVEL_CHECK)
 359:cy_eink_library/pervasive_eink_hardware_driver.c ****         {
 360:cy_eink_library/pervasive_eink_hardware_driver.c ****             /* Disable OLE */
 361:cy_eink_library/pervasive_eink_hardware_driver.c ****             Pv_EINK_SendByte(PV_EINK_DISABLE_OE_COMMAND_INDEX,
 362:cy_eink_library/pervasive_eink_hardware_driver.c ****                           PV_EINK_DISABLE_OE_COMMAND_DATA);
 363:cy_eink_library/pervasive_eink_hardware_driver.c ****             break;
 364:cy_eink_library/pervasive_eink_hardware_driver.c ****         }
 365:cy_eink_library/pervasive_eink_hardware_driver.c ****     }
 366:cy_eink_library/pervasive_eink_hardware_driver.c ****     /* Perform this operation for required charge pump write cycles */
 367:cy_eink_library/pervasive_eink_hardware_driver.c ****     while ((loopCounter++) != PV_EINK_CHARGE_PUMP_MAX_WRITE);
 438              		.loc 1 367 0
ARM GAS  C:\Users\codyg\AppData\Local\Temp\ccQipZVL.s 			page 30


 439 00a6 1D46     		mov	r5, r3
 440              	.LVL57:
 441              	.L22:
 340:cy_eink_library/pervasive_eink_hardware_driver.c ****                       PV_EINK_VGH_VDH_ON_COMMAND_DATA);
 442              		.loc 1 340 0
 443 00a8 0121     		movs	r1, #1
 444 00aa 0520     		movs	r0, #5
 445 00ac FFF7FEFF 		bl	Pv_EINK_SendByte
 446              	.LVL58:
 342:cy_eink_library/pervasive_eink_hardware_driver.c ****         
 447              		.loc 1 342 0
 448 00b0 184C     		ldr	r4, .L29+4
 449 00b2 2368     		ldr	r3, [r4]
 450 00b4 6420     		movs	r0, #100
 451 00b6 9847     		blx	r3
 452              	.LVL59:
 345:cy_eink_library/pervasive_eink_hardware_driver.c ****                       PV_EINK_VGL_VDL_ON_COMMAND_DATA);
 453              		.loc 1 345 0
 454 00b8 0321     		movs	r1, #3
 455 00ba 0520     		movs	r0, #5
 456 00bc FFF7FEFF 		bl	Pv_EINK_SendByte
 457              	.LVL60:
 347:cy_eink_library/pervasive_eink_hardware_driver.c ****         
 458              		.loc 1 347 0
 459 00c0 2368     		ldr	r3, [r4]
 460 00c2 3220     		movs	r0, #50
 461 00c4 9847     		blx	r3
 462              	.LVL61:
 350:cy_eink_library/pervasive_eink_hardware_driver.c ****                       PV_EINK_VCOM_DRIVE_ON_COMMAND_DATA);
 463              		.loc 1 350 0
 464 00c6 0F21     		movs	r1, #15
 465 00c8 0520     		movs	r0, #5
 466 00ca FFF7FEFF 		bl	Pv_EINK_SendByte
 467              	.LVL62:
 352:cy_eink_library/pervasive_eink_hardware_driver.c ****         
 468              		.loc 1 352 0
 469 00ce 2368     		ldr	r3, [r4]
 470 00d0 3220     		movs	r0, #50
 471 00d2 9847     		blx	r3
 472              	.LVL63:
 355:cy_eink_library/pervasive_eink_hardware_driver.c ****                            PV_EINK_DC_LEVEL_READ_COMMAND_DATA) & 
 473              		.loc 1 355 0
 474 00d4 0021     		movs	r1, #0
 475 00d6 0F20     		movs	r0, #15
 476 00d8 FFF7FEFF 		bl	Pv_EINK_ReadByte
 477              	.LVL64:
 478 00dc 10F0400F 		tst	r0, #64
 479 00e0 05D0     		beq	.L20
 361:cy_eink_library/pervasive_eink_hardware_driver.c ****                           PV_EINK_DISABLE_OE_COMMAND_DATA);
 480              		.loc 1 361 0
 481 00e2 4021     		movs	r1, #64
 482 00e4 0220     		movs	r0, #2
 483 00e6 FFF7FEFF 		bl	Pv_EINK_SendByte
 484              	.LVL65:
 363:cy_eink_library/pervasive_eink_hardware_driver.c ****         }
 485              		.loc 1 363 0
 486 00ea 2B46     		mov	r3, r5
ARM GAS  C:\Users\codyg\AppData\Local\Temp\ccQipZVL.s 			page 31


 487 00ec 03E0     		b	.L21
 488              	.L20:
 489              		.loc 1 367 0
 490 00ee 6B1C     		adds	r3, r5, #1
 491 00f0 9BB2     		uxth	r3, r3
 492              	.LVL66:
 493 00f2 042D     		cmp	r5, #4
 494 00f4 D7D1     		bne	.L26
 495              	.LVL67:
 496              	.L21:
 368:cy_eink_library/pervasive_eink_hardware_driver.c ****     
 369:cy_eink_library/pervasive_eink_hardware_driver.c ****     /* If the operation not completed within the required write cycles, send an 
 370:cy_eink_library/pervasive_eink_hardware_driver.c ****        error message */
 371:cy_eink_library/pervasive_eink_hardware_driver.c ****     if (loopCounter >= PV_EINK_CHARGE_PUMP_MAX_WRITE)
 497              		.loc 1 371 0
 498 00f6 032B     		cmp	r3, #3
 499 00f8 07D9     		bls	.L27
 372:cy_eink_library/pervasive_eink_hardware_driver.c ****     {
 373:cy_eink_library/pervasive_eink_hardware_driver.c ****         return(PV_EINK_ERROR_CHARGEPUMP);
 500              		.loc 1 373 0
 501 00fa 0520     		movs	r0, #5
 502 00fc 38BD     		pop	{r3, r4, r5, pc}
 503              	.LVL68:
 504              	.L23:
 280:cy_eink_library/pervasive_eink_hardware_driver.c ****         }
 505              		.loc 1 280 0
 506 00fe 0120     		movs	r0, #1
 507 0100 38BD     		pop	{r3, r4, r5, pc}
 508              	.L24:
 291:cy_eink_library/pervasive_eink_hardware_driver.c ****     }
 509              		.loc 1 291 0
 510 0102 0220     		movs	r0, #2
 511 0104 38BD     		pop	{r3, r4, r5, pc}
 512              	.L25:
 304:cy_eink_library/pervasive_eink_hardware_driver.c ****     }
 513              		.loc 1 304 0
 514 0106 0320     		movs	r0, #3
 515 0108 38BD     		pop	{r3, r4, r5, pc}
 516              	.LVL69:
 517              	.L27:
 374:cy_eink_library/pervasive_eink_hardware_driver.c ****     }
 375:cy_eink_library/pervasive_eink_hardware_driver.c ****     /* If all operations completed successfully, send the corresponding status 
 376:cy_eink_library/pervasive_eink_hardware_driver.c ****        message */
 377:cy_eink_library/pervasive_eink_hardware_driver.c ****     return(PV_EINK_RES_OK);
 518              		.loc 1 377 0
 519 010a 0020     		movs	r0, #0
 378:cy_eink_library/pervasive_eink_hardware_driver.c **** }
 520              		.loc 1 378 0
 521 010c 38BD     		pop	{r3, r4, r5, pc}
 522              	.LVL70:
 523              	.L30:
 524 010e 00BF     		.align	2
 525              	.L29:
 526 0110 00000000 		.word	.LANCHOR0
 527 0114 00000000 		.word	Cy_EINK_Delay
 528 0118 00000000 		.word	.LANCHOR1
 529              		.cfi_endproc
ARM GAS  C:\Users\codyg\AppData\Local\Temp\ccQipZVL.s 			page 32


 530              	.LFE521:
 531              		.size	Pv_EINK_InitDriver, .-Pv_EINK_InitDriver
 532              		.section	.text.Pv_EINK_SetTempFactor,"ax",%progbits
 533              		.align	2
 534              		.global	Pv_EINK_SetTempFactor
 535              		.thumb
 536              		.thumb_func
 537              		.type	Pv_EINK_SetTempFactor, %function
 538              	Pv_EINK_SetTempFactor:
 539              	.LFB522:
 379:cy_eink_library/pervasive_eink_hardware_driver.c **** 
 380:cy_eink_library/pervasive_eink_hardware_driver.c **** /*******************************************************************************
 381:cy_eink_library/pervasive_eink_hardware_driver.c **** * Function Name: void Pv_EINK_SetTempFactor(int8_t temperature)
 382:cy_eink_library/pervasive_eink_hardware_driver.c **** ********************************************************************************
 383:cy_eink_library/pervasive_eink_hardware_driver.c **** *
 384:cy_eink_library/pervasive_eink_hardware_driver.c **** * Summary: Set the E-INK update cycles per the ambient temperature. For detailed
 385:cy_eink_library/pervasive_eink_hardware_driver.c **** * flow and description, please refer to the driver G2 document Section 5.4.
 386:cy_eink_library/pervasive_eink_hardware_driver.c **** *
 387:cy_eink_library/pervasive_eink_hardware_driver.c **** * Parameters:
 388:cy_eink_library/pervasive_eink_hardware_driver.c **** * int8_t temperature: Ambient temperature in degree Celsius
 389:cy_eink_library/pervasive_eink_hardware_driver.c **** *
 390:cy_eink_library/pervasive_eink_hardware_driver.c **** * Return:
 391:cy_eink_library/pervasive_eink_hardware_driver.c **** *  None
 392:cy_eink_library/pervasive_eink_hardware_driver.c **** *
 393:cy_eink_library/pervasive_eink_hardware_driver.c **** * Side Effects:
 394:cy_eink_library/pervasive_eink_hardware_driver.c **** *  None
 395:cy_eink_library/pervasive_eink_hardware_driver.c **** *******************************************************************************/
 396:cy_eink_library/pervasive_eink_hardware_driver.c **** void Pv_EINK_SetTempFactor(int8_t temperature)
 397:cy_eink_library/pervasive_eink_hardware_driver.c **** {
 540              		.loc 1 397 0
 541              		.cfi_startproc
 542              		@ args = 0, pretend = 0, frame = 0
 543              		@ frame_needed = 0, uses_anonymous_args = 0
 544              		@ link register save eliminated.
 545              	.LVL71:
 398:cy_eink_library/pervasive_eink_hardware_driver.c ****     /* Variable used to store the update cycles */
 399:cy_eink_library/pervasive_eink_hardware_driver.c ****     uint16_t    updateCycles;
 400:cy_eink_library/pervasive_eink_hardware_driver.c ****     
 401:cy_eink_library/pervasive_eink_hardware_driver.c ****     /* Set the update cycles per the temperature table */
 402:cy_eink_library/pervasive_eink_hardware_driver.c ****     if (PV_EINK_TEMP_DEG_M10 >= temperature)
 546              		.loc 1 402 0
 547 0000 10F1090F 		cmn	r0, #9
 548 0004 0ADB     		blt	.L33
 403:cy_eink_library/pervasive_eink_hardware_driver.c ****     {
 404:cy_eink_library/pervasive_eink_hardware_driver.c ****         updateCycles = PV_EINK_TEMP_SEL0;
 405:cy_eink_library/pervasive_eink_hardware_driver.c ****     }
 406:cy_eink_library/pervasive_eink_hardware_driver.c ****     else if (PV_EINK_TEMP_DEG_M5 >= temperature)
 549              		.loc 1 406 0
 550 0006 10F1040F 		cmn	r0, #4
 551 000a 09DB     		blt	.L34
 407:cy_eink_library/pervasive_eink_hardware_driver.c ****     {
 408:cy_eink_library/pervasive_eink_hardware_driver.c ****         updateCycles = PV_EINK_TEMP_SEL1;
 409:cy_eink_library/pervasive_eink_hardware_driver.c ****     }
 410:cy_eink_library/pervasive_eink_hardware_driver.c ****     else if (PV_EINK_TEMP_DEG_5 >= temperature)
 552              		.loc 1 410 0
 553 000c 0528     		cmp	r0, #5
 554 000e 09DD     		ble	.L35
ARM GAS  C:\Users\codyg\AppData\Local\Temp\ccQipZVL.s 			page 33


 411:cy_eink_library/pervasive_eink_hardware_driver.c ****     {
 412:cy_eink_library/pervasive_eink_hardware_driver.c ****         updateCycles = PV_EINK_TEMP_SEL2;
 413:cy_eink_library/pervasive_eink_hardware_driver.c ****     }
 414:cy_eink_library/pervasive_eink_hardware_driver.c ****     else if (PV_EINK_TEMP_DEG_10 >= temperature)
 555              		.loc 1 414 0
 556 0010 0A28     		cmp	r0, #10
 557 0012 09DD     		ble	.L36
 415:cy_eink_library/pervasive_eink_hardware_driver.c ****     {
 416:cy_eink_library/pervasive_eink_hardware_driver.c ****         updateCycles = PV_EINK_TEMP_SEL3;
 417:cy_eink_library/pervasive_eink_hardware_driver.c ****     }
 418:cy_eink_library/pervasive_eink_hardware_driver.c ****     else if (PV_EINK_TEMP_DEG_15 >= temperature)
 558              		.loc 1 418 0
 559 0014 0F28     		cmp	r0, #15
 560 0016 09DC     		bgt	.L37
 419:cy_eink_library/pervasive_eink_hardware_driver.c ****     {
 420:cy_eink_library/pervasive_eink_hardware_driver.c ****         updateCycles = PV_EINK_TEMP_SEL4;
 561              		.loc 1 420 0
 562 0018 0322     		movs	r2, #3
 563 001a 08E0     		b	.L32
 564              	.L33:
 404:cy_eink_library/pervasive_eink_hardware_driver.c ****     }
 565              		.loc 1 404 0
 566 001c 0922     		movs	r2, #9
 567 001e 06E0     		b	.L32
 568              	.L34:
 408:cy_eink_library/pervasive_eink_hardware_driver.c ****     }
 569              		.loc 1 408 0
 570 0020 0722     		movs	r2, #7
 571 0022 04E0     		b	.L32
 572              	.L35:
 412:cy_eink_library/pervasive_eink_hardware_driver.c ****     }
 573              		.loc 1 412 0
 574 0024 0522     		movs	r2, #5
 575 0026 02E0     		b	.L32
 576              	.L36:
 416:cy_eink_library/pervasive_eink_hardware_driver.c ****     }
 577              		.loc 1 416 0
 578 0028 0422     		movs	r2, #4
 579 002a 00E0     		b	.L32
 580              	.L37:
 421:cy_eink_library/pervasive_eink_hardware_driver.c ****     }
 422:cy_eink_library/pervasive_eink_hardware_driver.c ****     else if (PV_EINK_TEMP_DEG_20 >= temperature)
 423:cy_eink_library/pervasive_eink_hardware_driver.c ****     {
 424:cy_eink_library/pervasive_eink_hardware_driver.c ****         updateCycles = PV_EINK_TEMP_SEL5;
 581              		.loc 1 424 0
 582 002c 0122     		movs	r2, #1
 583              	.L32:
 584              	.LVL72:
 425:cy_eink_library/pervasive_eink_hardware_driver.c ****     }
 426:cy_eink_library/pervasive_eink_hardware_driver.c ****     else if (PV_EINK_TEMP_DEG_40 >= temperature)
 427:cy_eink_library/pervasive_eink_hardware_driver.c ****     {
 428:cy_eink_library/pervasive_eink_hardware_driver.c ****         updateCycles = PV_EINK_TEMP_SEL6;
 429:cy_eink_library/pervasive_eink_hardware_driver.c ****     }
 430:cy_eink_library/pervasive_eink_hardware_driver.c ****     else
 431:cy_eink_library/pervasive_eink_hardware_driver.c ****     {
 432:cy_eink_library/pervasive_eink_hardware_driver.c ****         updateCycles = PV_EINK_TEMP_SEL7;
 433:cy_eink_library/pervasive_eink_hardware_driver.c ****     }
ARM GAS  C:\Users\codyg\AppData\Local\Temp\ccQipZVL.s 			page 34


 434:cy_eink_library/pervasive_eink_hardware_driver.c ****     
 435:cy_eink_library/pervasive_eink_hardware_driver.c ****     /* Scale the update cycles : this is a speed-contrast trade-off */
 436:cy_eink_library/pervasive_eink_hardware_driver.c ****     fullUpdateCycles = updateCycles * PV_EINK_SCALING_FULL;
 585              		.loc 1 436 0
 586 002e 034B     		ldr	r3, .L38
 587 0030 A3F87C20 		strh	r2, [r3, #124]	@ movhi
 437:cy_eink_library/pervasive_eink_hardware_driver.c ****     partialUpdateCycles = updateCycles * PV_EINK_SCALING_PARTIAL;
 588              		.loc 1 437 0
 589 0034 A3F87E20 		strh	r2, [r3, #126]	@ movhi
 590 0038 7047     		bx	lr
 591              	.L39:
 592 003a 00BF     		.align	2
 593              	.L38:
 594 003c 00000000 		.word	.LANCHOR0
 595              		.cfi_endproc
 596              	.LFE522:
 597              		.size	Pv_EINK_SetTempFactor, .-Pv_EINK_SetTempFactor
 598              		.section	.text.Pv_EINK_FullStageHandler,"ax",%progbits
 599              		.align	2
 600              		.global	Pv_EINK_FullStageHandler
 601              		.thumb
 602              		.thumb_func
 603              		.type	Pv_EINK_FullStageHandler, %function
 604              	Pv_EINK_FullStageHandler:
 605              	.LFB523:
 438:cy_eink_library/pervasive_eink_hardware_driver.c **** }
 439:cy_eink_library/pervasive_eink_hardware_driver.c **** 
 440:cy_eink_library/pervasive_eink_hardware_driver.c **** /*******************************************************************************
 441:cy_eink_library/pervasive_eink_hardware_driver.c **** * Function Name: void Pv_EINK_FullStageHandler(pv_eink_frame_data_t* imagePtr,
 442:cy_eink_library/pervasive_eink_hardware_driver.c **** *                                              pv_eink_stage_t stageNumber)
 443:cy_eink_library/pervasive_eink_hardware_driver.c **** ********************************************************************************
 444:cy_eink_library/pervasive_eink_hardware_driver.c **** *
 445:cy_eink_library/pervasive_eink_hardware_driver.c **** * Summary: The full update driving stages for getting Odd and Even bytes, and
 446:cy_eink_library/pervasive_eink_hardware_driver.c **** * then writing the data from memory array to E-INK driver.
 447:cy_eink_library/pervasive_eink_hardware_driver.c **** *
 448:cy_eink_library/pervasive_eink_hardware_driver.c **** * One dot/pixel is comprised of 2 bits that can be White(10), Black(11) or 
 449:cy_eink_library/pervasive_eink_hardware_driver.c **** * Nothing * (01 or 00). The image data bytes must be divided into Odd and Even 
 450:cy_eink_library/pervasive_eink_hardware_driver.c **** * bytes.
 451:cy_eink_library/pervasive_eink_hardware_driver.c **** * Line data flow is first half of data bytes -> scan bytes -> second half of 
 452:cy_eink_library/pervasive_eink_hardware_driver.c **** * data bytes. For more details on the driving stages, please refer to the driver
 453:cy_eink_library/pervasive_eink_hardware_driver.c **** * G2 document Section 5.
 454:cy_eink_library/pervasive_eink_hardware_driver.c **** *
 455:cy_eink_library/pervasive_eink_hardware_driver.c **** * Parameters:
 456:cy_eink_library/pervasive_eink_hardware_driver.c **** * pv_eink_frame_data_t* imagePtr    : The pointer to the memory that contains a
 457:cy_eink_library/pervasive_eink_hardware_driver.c **** *                                     frame
 458:cy_eink_library/pervasive_eink_hardware_driver.c **** * pv_eink_stage_t stageNumber       : The assigned stage number
 459:cy_eink_library/pervasive_eink_hardware_driver.c **** *
 460:cy_eink_library/pervasive_eink_hardware_driver.c **** * Return:
 461:cy_eink_library/pervasive_eink_hardware_driver.c **** *  None
 462:cy_eink_library/pervasive_eink_hardware_driver.c **** *
 463:cy_eink_library/pervasive_eink_hardware_driver.c **** * Side Effects:
 464:cy_eink_library/pervasive_eink_hardware_driver.c **** *  This is a blocking function. CPU will be busy during the entire operation,
 465:cy_eink_library/pervasive_eink_hardware_driver.c **** * which can be 1 to 2 seconds.
 466:cy_eink_library/pervasive_eink_hardware_driver.c **** *******************************************************************************/
 467:cy_eink_library/pervasive_eink_hardware_driver.c **** void Pv_EINK_FullStageHandler(pv_eink_frame_data_t* imagePtr, 
 468:cy_eink_library/pervasive_eink_hardware_driver.c ****                               pv_eink_stage_t stageNumber)
 469:cy_eink_library/pervasive_eink_hardware_driver.c **** {
ARM GAS  C:\Users\codyg\AppData\Local\Temp\ccQipZVL.s 			page 35


 606              		.loc 1 469 0
 607              		.cfi_startproc
 608              		@ args = 0, pretend = 0, frame = 0
 609              		@ frame_needed = 0, uses_anonymous_args = 0
 610              	.LVL73:
 611 0000 2DE9F84F 		push	{r3, r4, r5, r6, r7, r8, r9, r10, fp, lr}
 612              		.cfi_def_cfa_offset 40
 613              		.cfi_offset 3, -40
 614              		.cfi_offset 4, -36
 615              		.cfi_offset 5, -32
 616              		.cfi_offset 6, -28
 617              		.cfi_offset 7, -24
 618              		.cfi_offset 8, -20
 619              		.cfi_offset 9, -16
 620              		.cfi_offset 10, -12
 621              		.cfi_offset 11, -8
 622              		.cfi_offset 14, -4
 623 0004 0646     		mov	r6, r0
 624 0006 0D46     		mov	r5, r1
 625              	.LVL74:
 470:cy_eink_library/pervasive_eink_hardware_driver.c ****     /* Counter variable for the horizontal pixel loop */
 471:cy_eink_library/pervasive_eink_hardware_driver.c ****     uint16_t    x;
 472:cy_eink_library/pervasive_eink_hardware_driver.c ****     /* Counter variable for the vertical pixel loop */
 473:cy_eink_library/pervasive_eink_hardware_driver.c ****     uint16_t    y;
 474:cy_eink_library/pervasive_eink_hardware_driver.c ****     /* Counter variable for the horizontal byte loop */
 475:cy_eink_library/pervasive_eink_hardware_driver.c ****     uint16_t    k;
 476:cy_eink_library/pervasive_eink_hardware_driver.c ****     
 477:cy_eink_library/pervasive_eink_hardware_driver.c ****     /* Counter variable for write cycles */
 478:cy_eink_library/pervasive_eink_hardware_driver.c ****     uint16_t    currentWriteCycle;
 479:cy_eink_library/pervasive_eink_hardware_driver.c ****       
 480:cy_eink_library/pervasive_eink_hardware_driver.c ****     /* Variable for storing the line number under scan */
 481:cy_eink_library/pervasive_eink_hardware_driver.c ****     int16       scanlineNumber = 0;
 482:cy_eink_library/pervasive_eink_hardware_driver.c ****     
 483:cy_eink_library/pervasive_eink_hardware_driver.c ****     /* Temporary storage for image data byte */
 484:cy_eink_library/pervasive_eink_hardware_driver.c ****     uint8_t     tempByte = *imagePtr;
 626              		.loc 1 484 0
 627 0008 0478     		ldrb	r4, [r0]	@ zero_extendqisi2
 628              	.LVL75:
 485:cy_eink_library/pervasive_eink_hardware_driver.c ****     
 486:cy_eink_library/pervasive_eink_hardware_driver.c ****     /* Flag to check if the current pointer is a macro of white/black frame */
 487:cy_eink_library/pervasive_eink_hardware_driver.c ****     bool        blackOrWhiteFrame;
 488:cy_eink_library/pervasive_eink_hardware_driver.c ****     
 489:cy_eink_library/pervasive_eink_hardware_driver.c ****     /* If the current pointer is a macro of the white frame */
 490:cy_eink_library/pervasive_eink_hardware_driver.c ****     if (imagePtr == PV_EINK_WHITE_FRAME_ADDRESS)
 629              		.loc 1 490 0
 630 000a 28B1     		cbz	r0, .L89
 491:cy_eink_library/pervasive_eink_hardware_driver.c ****     {
 492:cy_eink_library/pervasive_eink_hardware_driver.c ****         /* Set the white/black frame flag */
 493:cy_eink_library/pervasive_eink_hardware_driver.c ****         blackOrWhiteFrame = true;
 494:cy_eink_library/pervasive_eink_hardware_driver.c ****         /* Set the tempByte to white pixel byte */
 495:cy_eink_library/pervasive_eink_hardware_driver.c ****         tempByte = PV_EINK_WHITE_PIXEL_BYTE;
 496:cy_eink_library/pervasive_eink_hardware_driver.c ****         
 497:cy_eink_library/pervasive_eink_hardware_driver.c ****     }
 498:cy_eink_library/pervasive_eink_hardware_driver.c ****     /* If the current pointer is a macro of the black frame */
 499:cy_eink_library/pervasive_eink_hardware_driver.c ****     else if (imagePtr == PV_EINK_BLACK_FRAME_ADDRESS)
 631              		.loc 1 499 0
 632 000c CE4B     		ldr	r3, .L125
ARM GAS  C:\Users\codyg\AppData\Local\Temp\ccQipZVL.s 			page 36


 633 000e 9842     		cmp	r0, r3
 634 0010 05D1     		bne	.L90
 500:cy_eink_library/pervasive_eink_hardware_driver.c ****     {
 501:cy_eink_library/pervasive_eink_hardware_driver.c ****          /* Set the white/black frame flag */
 502:cy_eink_library/pervasive_eink_hardware_driver.c ****         blackOrWhiteFrame = true;
 635              		.loc 1 502 0
 636 0012 0127     		movs	r7, #1
 503:cy_eink_library/pervasive_eink_hardware_driver.c ****         /* set the tempByte to black pixel byte */
 504:cy_eink_library/pervasive_eink_hardware_driver.c ****         tempByte = PV_EINK_BLACK_PIXEL_BYTE;
 637              		.loc 1 504 0
 638 0014 0024     		movs	r4, #0
 639              	.LVL76:
 640 0016 03E0     		b	.L41
 641              	.LVL77:
 642              	.L89:
 493:cy_eink_library/pervasive_eink_hardware_driver.c ****         /* Set the tempByte to white pixel byte */
 643              		.loc 1 493 0
 644 0018 0127     		movs	r7, #1
 495:cy_eink_library/pervasive_eink_hardware_driver.c ****         
 645              		.loc 1 495 0
 646 001a FF24     		movs	r4, #255
 647              	.LVL78:
 648 001c 00E0     		b	.L41
 649              	.LVL79:
 650              	.L90:
 505:cy_eink_library/pervasive_eink_hardware_driver.c ****     }
 506:cy_eink_library/pervasive_eink_hardware_driver.c ****     /* If the current pointer is of an image stored in flash */
 507:cy_eink_library/pervasive_eink_hardware_driver.c ****     else
 508:cy_eink_library/pervasive_eink_hardware_driver.c ****     {
 509:cy_eink_library/pervasive_eink_hardware_driver.c ****         /* Clear the white/black frame flag */
 510:cy_eink_library/pervasive_eink_hardware_driver.c ****         blackOrWhiteFrame = false;
 651              		.loc 1 510 0
 652 001e 0027     		movs	r7, #0
 653              	.LVL80:
 654              	.L41:
 511:cy_eink_library/pervasive_eink_hardware_driver.c ****     }
 512:cy_eink_library/pervasive_eink_hardware_driver.c **** 
 513:cy_eink_library/pervasive_eink_hardware_driver.c ****     /* Vertical pixel loop */
 514:cy_eink_library/pervasive_eink_hardware_driver.c ****     for (y = 0; y < PV_EINK_VERTICAL_SIZE; y++)
 655              		.loc 1 514 0
 656 0020 4FF00008 		mov	r8, #0
 657 0024 D0E1     		b	.L42
 658              	.LVL81:
 659              	.L85:
 515:cy_eink_library/pervasive_eink_hardware_driver.c ****     {
 516:cy_eink_library/pervasive_eink_hardware_driver.c ****         /* Clear the line buffer with all zeros */
 517:cy_eink_library/pervasive_eink_hardware_driver.c ****         memset(&bulkDriverPacket[y].lineBuffer, 0, 
 660              		.loc 1 517 0
 661 0026 C8EBC80A 		rsb	r10, r8, r8, lsl #3
 662 002a C8EB0A1A 		rsb	r10, r8, r10, lsl #4
 663 002e DFF82093 		ldr	r9, .L125+8
 664 0032 0AEB090B 		add	fp, r10, r9
 665 0036 6F22     		movs	r2, #111
 666 0038 0021     		movs	r1, #0
 667 003a 5846     		mov	r0, fp
 668 003c FFF7FEFF 		bl	memset
 669              	.LVL82:
ARM GAS  C:\Users\codyg\AppData\Local\Temp\ccQipZVL.s 			page 37


 518:cy_eink_library/pervasive_eink_hardware_driver.c ****                sizeof(bulkDriverPacket[y].lineBuffer)) ;
 519:cy_eink_library/pervasive_eink_hardware_driver.c **** 
 520:cy_eink_library/pervasive_eink_hardware_driver.c ****         /* Initialize the even data, odd data and scan data pointers */
 521:cy_eink_library/pervasive_eink_hardware_driver.c ****         dataLineEven = &bulkDriverPacket[y].lineDataBySize.even[0];
 670              		.loc 1 521 0
 671 0040 0BF1010E 		add	lr, fp, #1
 672 0044 C14B     		ldr	r3, .L125+4
 673 0046 C3F870E0 		str	lr, [r3, #112]
 522:cy_eink_library/pervasive_eink_hardware_driver.c ****         dataLineOdd  = &bulkDriverPacket[y].lineDataBySize.odd[0];
 674              		.loc 1 522 0
 675 004a 0AF14800 		add	r0, r10, #72
 676 004e 4844     		add	r0, r0, r9
 677 0050 0630     		adds	r0, r0, #6
 678 0052 5867     		str	r0, [r3, #116]
 523:cy_eink_library/pervasive_eink_hardware_driver.c ****         dataLineScan = &bulkDriverPacket[y].lineDataBySize.scan[0];
 679              		.loc 1 523 0
 680 0054 0AF1200A 		add	r10, r10, #32
 681 0058 D144     		add	r9, r9, r10
 682 005a 09F10209 		add	r9, r9, #2
 683 005e C3F87890 		str	r9, [r3, #120]
 684              	.LVL83:
 524:cy_eink_library/pervasive_eink_hardware_driver.c ****         
 525:cy_eink_library/pervasive_eink_hardware_driver.c ****         /* Horizontal bytes initialization */
 526:cy_eink_library/pervasive_eink_hardware_driver.c ****         k = PV_EINK_HORIZONTAL_SIZE;
 527:cy_eink_library/pervasive_eink_hardware_driver.c ****         k--;
 685              		.loc 1 527 0
 686 0062 2022     		movs	r2, #32
 528:cy_eink_library/pervasive_eink_hardware_driver.c ****         
 529:cy_eink_library/pervasive_eink_hardware_driver.c ****         /* Horizontal pixel loop */
 530:cy_eink_library/pervasive_eink_hardware_driver.c ****         for (x = 0; x < PV_EINK_HORIZONTAL_SIZE; x++)
 687              		.loc 1 530 0
 688 0064 0023     		movs	r3, #0
 689 0066 97E1     		b	.L43
 690              	.LVL84:
 691              	.L83:
 531:cy_eink_library/pervasive_eink_hardware_driver.c ****         {
 532:cy_eink_library/pervasive_eink_hardware_driver.c ****             /* If the current pointer is of an image stored in flash */
 533:cy_eink_library/pervasive_eink_hardware_driver.c ****             if(!blackOrWhiteFrame)
 692              		.loc 1 533 0
 693 0068 0FB9     		cbnz	r7, .L44
 694              	.LVL85:
 534:cy_eink_library/pervasive_eink_hardware_driver.c ****             {
 535:cy_eink_library/pervasive_eink_hardware_driver.c ****                 /* Fetch successive data bytes */
 536:cy_eink_library/pervasive_eink_hardware_driver.c ****                 tempByte = *imagePtr++;
 695              		.loc 1 536 0
 696 006a 3478     		ldrb	r4, [r6]	@ zero_extendqisi2
 697              	.LVL86:
 698 006c 0136     		adds	r6, r6, #1
 699              	.LVL87:
 700              	.L44:
 537:cy_eink_library/pervasive_eink_hardware_driver.c ****             }
 538:cy_eink_library/pervasive_eink_hardware_driver.c ****             /* Perform one of the four stage operations */
 539:cy_eink_library/pervasive_eink_hardware_driver.c ****             switch (stageNumber)
 701              		.loc 1 539 0
 702 006e 032D     		cmp	r5, #3
 703 0070 00F29081 		bhi	.L45
 704 0074 DFE815F0 		tbh	[pc, r5, lsl #1]
ARM GAS  C:\Users\codyg\AppData\Local\Temp\ccQipZVL.s 			page 38


 705              	.L47:
 706 0078 0400     		.2byte	(.L46-.L47)/2
 707 007a 6500     		.2byte	(.L48-.L47)/2
 708 007c C600     		.2byte	(.L49-.L47)/2
 709 007e 2701     		.2byte	(.L50-.L47)/2
 710              		.p2align 1
 711              	.L46:
 540:cy_eink_library/pervasive_eink_hardware_driver.c ****             {
 541:cy_eink_library/pervasive_eink_hardware_driver.c ****             /* Stage 1: Calculate the inverted Even and Odd bytes of 
 542:cy_eink_library/pervasive_eink_hardware_driver.c ****                the previous image data */
 543:cy_eink_library/pervasive_eink_hardware_driver.c ****             case PV_EINK_STAGE1:
 544:cy_eink_library/pervasive_eink_hardware_driver.c ****                 dataLineOdd[x]       = ((tempByte & PV_EINK_ODD_MASK_A)  ? 
 712              		.loc 1 544 0
 713 0080 00EB030C 		add	ip, r0, r3
 714 0084 14F0400F 		tst	r4, #64
 715 0088 01D0     		beq	.L91
 716 008a C021     		movs	r1, #192
 717 008c 00E0     		b	.L51
 718              	.L91:
 719 008e 8021     		movs	r1, #128
 720              	.L51:
 721              		.loc 1 544 0 is_stmt 0 discriminator 4
 722 0090 8CF80010 		strb	r1, [ip]
 545:cy_eink_library/pervasive_eink_hardware_driver.c ****                                         PV_EINK_BLACK3 : PV_EINK_WHITE3);
 546:cy_eink_library/pervasive_eink_hardware_driver.c ****                 dataLineOdd[x]      |= ((tempByte & PV_EINK_ODD_MASK_B)  ? 
 723              		.loc 1 546 0 is_stmt 1 discriminator 4
 724 0094 49B2     		sxtb	r1, r1
 725 0096 14F0100F 		tst	r4, #16
 726 009a 02D0     		beq	.L92
 727              		.loc 1 546 0 is_stmt 0
 728 009c 4FF0300A 		mov	r10, #48
 729 00a0 01E0     		b	.L52
 730              	.L92:
 731 00a2 4FF0200A 		mov	r10, #32
 732              	.L52:
 733              		.loc 1 546 0 discriminator 4
 734 00a6 4AEA0101 		orr	r1, r10, r1
 735 00aa 8CF80010 		strb	r1, [ip]
 547:cy_eink_library/pervasive_eink_hardware_driver.c ****                                         PV_EINK_BLACK2 : PV_EINK_WHITE2);
 548:cy_eink_library/pervasive_eink_hardware_driver.c ****                 dataLineOdd[x]      |= ((tempByte & PV_EINK_ODD_MASK_C)  ? 
 736              		.loc 1 548 0 is_stmt 1 discriminator 4
 737 00ae 14F0040F 		tst	r4, #4
 738 00b2 02D0     		beq	.L93
 739              		.loc 1 548 0 is_stmt 0
 740 00b4 4FF00C0A 		mov	r10, #12
 741 00b8 01E0     		b	.L53
 742              	.L93:
 743 00ba 4FF0080A 		mov	r10, #8
 744              	.L53:
 745              		.loc 1 548 0 discriminator 4
 746 00be 4AEA0101 		orr	r1, r10, r1
 747 00c2 8CF80010 		strb	r1, [ip]
 549:cy_eink_library/pervasive_eink_hardware_driver.c ****                                         PV_EINK_BLACK1 : PV_EINK_WHITE1);
 550:cy_eink_library/pervasive_eink_hardware_driver.c ****                 dataLineOdd[x]      |= ((tempByte & PV_EINK_ODD_MASK_D)  ? 
 748              		.loc 1 550 0 is_stmt 1 discriminator 4
 749 00c6 14F0010F 		tst	r4, #1
 750 00ca 02D0     		beq	.L94
ARM GAS  C:\Users\codyg\AppData\Local\Temp\ccQipZVL.s 			page 39


 751              		.loc 1 550 0 is_stmt 0
 752 00cc 4FF0030A 		mov	r10, #3
 753 00d0 01E0     		b	.L54
 754              	.L94:
 755 00d2 4FF0020A 		mov	r10, #2
 756              	.L54:
 757              		.loc 1 550 0 discriminator 4
 758 00d6 4AEA0101 		orr	r1, r10, r1
 759 00da 8CF80010 		strb	r1, [ip]
 551:cy_eink_library/pervasive_eink_hardware_driver.c ****                                         PV_EINK_BLACK0 : PV_EINK_WHITE0);
 552:cy_eink_library/pervasive_eink_hardware_driver.c ****                 dataLineEven[k]      = ((tempByte & PV_EINK_EVEN_MASK_A) ? 
 760              		.loc 1 552 0 is_stmt 1 discriminator 4
 761 00de 0EEB020C 		add	ip, lr, r2
 762 00e2 14F0800F 		tst	r4, #128
 763 00e6 01D0     		beq	.L95
 764              		.loc 1 552 0 is_stmt 0
 765 00e8 0321     		movs	r1, #3
 766 00ea 00E0     		b	.L55
 767              	.L95:
 768 00ec 0221     		movs	r1, #2
 769              	.L55:
 770              		.loc 1 552 0 discriminator 4
 771 00ee 8CF80010 		strb	r1, [ip]
 553:cy_eink_library/pervasive_eink_hardware_driver.c ****                                         PV_EINK_BLACK0 : PV_EINK_WHITE0);
 554:cy_eink_library/pervasive_eink_hardware_driver.c ****                 dataLineEven[k]     |= ((tempByte & PV_EINK_EVEN_MASK_B) ? 
 772              		.loc 1 554 0 is_stmt 1 discriminator 4
 773 00f2 49B2     		sxtb	r1, r1
 774 00f4 14F0200F 		tst	r4, #32
 775 00f8 02D0     		beq	.L96
 776              		.loc 1 554 0 is_stmt 0
 777 00fa 4FF00C0A 		mov	r10, #12
 778 00fe 01E0     		b	.L56
 779              	.L96:
 780 0100 4FF0080A 		mov	r10, #8
 781              	.L56:
 782              		.loc 1 554 0 discriminator 4
 783 0104 4AEA0101 		orr	r1, r10, r1
 784 0108 8CF80010 		strb	r1, [ip]
 555:cy_eink_library/pervasive_eink_hardware_driver.c ****                                         PV_EINK_BLACK1 : PV_EINK_WHITE1);
 556:cy_eink_library/pervasive_eink_hardware_driver.c ****                 dataLineEven[k]     |= ((tempByte & PV_EINK_EVEN_MASK_C) ? 
 785              		.loc 1 556 0 is_stmt 1 discriminator 4
 786 010c 14F0080F 		tst	r4, #8
 787 0110 02D0     		beq	.L97
 788              		.loc 1 556 0 is_stmt 0
 789 0112 4FF0300A 		mov	r10, #48
 790 0116 01E0     		b	.L57
 791              	.L97:
 792 0118 4FF0200A 		mov	r10, #32
 793              	.L57:
 794              		.loc 1 556 0 discriminator 4
 795 011c 4AEA0101 		orr	r1, r10, r1
 796 0120 8CF80010 		strb	r1, [ip]
 557:cy_eink_library/pervasive_eink_hardware_driver.c ****                                         PV_EINK_BLACK2 : PV_EINK_WHITE2);
 558:cy_eink_library/pervasive_eink_hardware_driver.c ****                 dataLineEven[k--]   |= ((tempByte & PV_EINK_EVEN_MASK_D) ? 
 797              		.loc 1 558 0 is_stmt 1 discriminator 4
 798 0124 013A     		subs	r2, r2, #1
 799              	.LVL88:
ARM GAS  C:\Users\codyg\AppData\Local\Temp\ccQipZVL.s 			page 40


 800 0126 92B2     		uxth	r2, r2
 801              	.LVL89:
 802 0128 14F0020F 		tst	r4, #2
 803 012c 02D0     		beq	.L98
 804              		.loc 1 558 0 is_stmt 0
 805 012e 6FF03F0A 		mvn	r10, #63
 806 0132 01E0     		b	.L58
 807              	.L98:
 808 0134 6FF07F0A 		mvn	r10, #127
 809              	.L58:
 810              		.loc 1 558 0 discriminator 4
 811 0138 4AEA0101 		orr	r1, r10, r1
 812 013c 8CF80010 		strb	r1, [ip]
 559:cy_eink_library/pervasive_eink_hardware_driver.c ****                                         PV_EINK_BLACK3 : PV_EINK_WHITE3);
 560:cy_eink_library/pervasive_eink_hardware_driver.c ****                 break;
 813              		.loc 1 560 0 is_stmt 1 discriminator 4
 814 0140 28E1     		b	.L45
 815              	.L48:
 561:cy_eink_library/pervasive_eink_hardware_driver.c ****             /* Stage 2: Calculate the Even and Odd bytes of an all-white
 562:cy_eink_library/pervasive_eink_hardware_driver.c ****                frame */
 563:cy_eink_library/pervasive_eink_hardware_driver.c ****             case PV_EINK_STAGE2:
 564:cy_eink_library/pervasive_eink_hardware_driver.c ****                 dataLineOdd[x]       = ((tempByte & PV_EINK_ODD_MASK_A)  ? 
 816              		.loc 1 564 0
 817 0142 00EB030C 		add	ip, r0, r3
 818 0146 14F0400F 		tst	r4, #64
 819 014a 01D0     		beq	.L99
 820 014c 8021     		movs	r1, #128
 821 014e 00E0     		b	.L59
 822              	.L99:
 823 0150 4021     		movs	r1, #64
 824              	.L59:
 825              		.loc 1 564 0 is_stmt 0 discriminator 4
 826 0152 8CF80010 		strb	r1, [ip]
 565:cy_eink_library/pervasive_eink_hardware_driver.c ****                                         PV_EINK_WHITE3 : PV_EINK_NOTHING3);
 566:cy_eink_library/pervasive_eink_hardware_driver.c ****                 dataLineOdd[x]      |= ((tempByte & PV_EINK_ODD_MASK_B)  ? 
 827              		.loc 1 566 0 is_stmt 1 discriminator 4
 828 0156 49B2     		sxtb	r1, r1
 829 0158 14F0100F 		tst	r4, #16
 830 015c 02D0     		beq	.L100
 831              		.loc 1 566 0 is_stmt 0
 832 015e 4FF0200A 		mov	r10, #32
 833 0162 01E0     		b	.L60
 834              	.L100:
 835 0164 4FF0100A 		mov	r10, #16
 836              	.L60:
 837              		.loc 1 566 0 discriminator 4
 838 0168 4AEA0101 		orr	r1, r10, r1
 839 016c 8CF80010 		strb	r1, [ip]
 567:cy_eink_library/pervasive_eink_hardware_driver.c ****                                         PV_EINK_WHITE2 : PV_EINK_NOTHING2);
 568:cy_eink_library/pervasive_eink_hardware_driver.c ****                 dataLineOdd[x]      |= ((tempByte & PV_EINK_ODD_MASK_C)  ? 
 840              		.loc 1 568 0 is_stmt 1 discriminator 4
 841 0170 14F0040F 		tst	r4, #4
 842 0174 02D0     		beq	.L101
 843              		.loc 1 568 0 is_stmt 0
 844 0176 4FF0080A 		mov	r10, #8
 845 017a 01E0     		b	.L61
 846              	.L101:
ARM GAS  C:\Users\codyg\AppData\Local\Temp\ccQipZVL.s 			page 41


 847 017c 4FF0040A 		mov	r10, #4
 848              	.L61:
 849              		.loc 1 568 0 discriminator 4
 850 0180 4AEA0101 		orr	r1, r10, r1
 851 0184 8CF80010 		strb	r1, [ip]
 569:cy_eink_library/pervasive_eink_hardware_driver.c ****                                         PV_EINK_WHITE1 : PV_EINK_NOTHING1);
 570:cy_eink_library/pervasive_eink_hardware_driver.c ****                 dataLineOdd[x]      |= ((tempByte & PV_EINK_ODD_MASK_D)  ? 
 852              		.loc 1 570 0 is_stmt 1 discriminator 4
 853 0188 14F0010F 		tst	r4, #1
 854 018c 02D0     		beq	.L102
 855              		.loc 1 570 0 is_stmt 0
 856 018e 4FF0020A 		mov	r10, #2
 857 0192 01E0     		b	.L62
 858              	.L102:
 859 0194 4FF0010A 		mov	r10, #1
 860              	.L62:
 861              		.loc 1 570 0 discriminator 4
 862 0198 4AEA0101 		orr	r1, r10, r1
 863 019c 8CF80010 		strb	r1, [ip]
 571:cy_eink_library/pervasive_eink_hardware_driver.c ****                                         PV_EINK_WHITE0 : PV_EINK_NOTHING0);
 572:cy_eink_library/pervasive_eink_hardware_driver.c ****                 dataLineEven[k]      = ((tempByte & PV_EINK_EVEN_MASK_A) ?
 864              		.loc 1 572 0 is_stmt 1 discriminator 4
 865 01a0 0EEB020C 		add	ip, lr, r2
 866 01a4 14F0800F 		tst	r4, #128
 867 01a8 01D0     		beq	.L103
 868              		.loc 1 572 0 is_stmt 0
 869 01aa 0221     		movs	r1, #2
 870 01ac 00E0     		b	.L63
 871              	.L103:
 872 01ae 0121     		movs	r1, #1
 873              	.L63:
 874              		.loc 1 572 0 discriminator 4
 875 01b0 8CF80010 		strb	r1, [ip]
 573:cy_eink_library/pervasive_eink_hardware_driver.c ****                                         PV_EINK_WHITE0 : PV_EINK_NOTHING0);
 574:cy_eink_library/pervasive_eink_hardware_driver.c ****                 dataLineEven[k]     |= ((tempByte & PV_EINK_EVEN_MASK_B) ? 
 876              		.loc 1 574 0 is_stmt 1 discriminator 4
 877 01b4 49B2     		sxtb	r1, r1
 878 01b6 14F0200F 		tst	r4, #32
 879 01ba 02D0     		beq	.L104
 880              		.loc 1 574 0 is_stmt 0
 881 01bc 4FF0080A 		mov	r10, #8
 882 01c0 01E0     		b	.L64
 883              	.L104:
 884 01c2 4FF0040A 		mov	r10, #4
 885              	.L64:
 886              		.loc 1 574 0 discriminator 4
 887 01c6 4AEA0101 		orr	r1, r10, r1
 888 01ca 8CF80010 		strb	r1, [ip]
 575:cy_eink_library/pervasive_eink_hardware_driver.c ****                                         PV_EINK_WHITE1 : PV_EINK_NOTHING1);
 576:cy_eink_library/pervasive_eink_hardware_driver.c ****                 dataLineEven[k]     |= ((tempByte & PV_EINK_EVEN_MASK_C) ? 
 889              		.loc 1 576 0 is_stmt 1 discriminator 4
 890 01ce 14F0080F 		tst	r4, #8
 891 01d2 02D0     		beq	.L105
 892              		.loc 1 576 0 is_stmt 0
 893 01d4 4FF0200A 		mov	r10, #32
 894 01d8 01E0     		b	.L65
 895              	.L105:
ARM GAS  C:\Users\codyg\AppData\Local\Temp\ccQipZVL.s 			page 42


 896 01da 4FF0100A 		mov	r10, #16
 897              	.L65:
 898              		.loc 1 576 0 discriminator 4
 899 01de 4AEA0101 		orr	r1, r10, r1
 900 01e2 8CF80010 		strb	r1, [ip]
 577:cy_eink_library/pervasive_eink_hardware_driver.c ****                                         PV_EINK_WHITE2 : PV_EINK_NOTHING2);
 578:cy_eink_library/pervasive_eink_hardware_driver.c ****                 dataLineEven[k--]   |= ((tempByte & PV_EINK_EVEN_MASK_D) ? 
 901              		.loc 1 578 0 is_stmt 1 discriminator 4
 902 01e6 013A     		subs	r2, r2, #1
 903              	.LVL90:
 904 01e8 92B2     		uxth	r2, r2
 905              	.LVL91:
 906 01ea 14F0020F 		tst	r4, #2
 907 01ee 02D0     		beq	.L106
 908              		.loc 1 578 0 is_stmt 0
 909 01f0 6FF07F0A 		mvn	r10, #127
 910 01f4 01E0     		b	.L66
 911              	.L106:
 912 01f6 4FF0400A 		mov	r10, #64
 913              	.L66:
 914              		.loc 1 578 0 discriminator 4
 915 01fa 4AEA0101 		orr	r1, r10, r1
 916 01fe 8CF80010 		strb	r1, [ip]
 579:cy_eink_library/pervasive_eink_hardware_driver.c ****                                         PV_EINK_WHITE3 : PV_EINK_NOTHING3);
 580:cy_eink_library/pervasive_eink_hardware_driver.c ****                 break;
 917              		.loc 1 580 0 is_stmt 1 discriminator 4
 918 0202 C7E0     		b	.L45
 919              	.L49:
 581:cy_eink_library/pervasive_eink_hardware_driver.c ****             /* Stage 3: Calculate the inverted Even and Odd bytes of the
 582:cy_eink_library/pervasive_eink_hardware_driver.c ****                new image data */
 583:cy_eink_library/pervasive_eink_hardware_driver.c ****             case PV_EINK_STAGE3:
 584:cy_eink_library/pervasive_eink_hardware_driver.c ****                 dataLineOdd[x]       = ((tempByte & PV_EINK_ODD_MASK_A)  ? 
 920              		.loc 1 584 0
 921 0204 00EB030C 		add	ip, r0, r3
 922 0208 14F0400F 		tst	r4, #64
 923 020c 01D0     		beq	.L107
 924 020e C021     		movs	r1, #192
 925 0210 00E0     		b	.L67
 926              	.L107:
 927 0212 4021     		movs	r1, #64
 928              	.L67:
 929              		.loc 1 584 0 is_stmt 0 discriminator 4
 930 0214 8CF80010 		strb	r1, [ip]
 585:cy_eink_library/pervasive_eink_hardware_driver.c ****                                         PV_EINK_BLACK3 : PV_EINK_NOTHING3);
 586:cy_eink_library/pervasive_eink_hardware_driver.c ****                 dataLineOdd[x]      |= ((tempByte & PV_EINK_ODD_MASK_B)  ? 
 931              		.loc 1 586 0 is_stmt 1 discriminator 4
 932 0218 49B2     		sxtb	r1, r1
 933 021a 14F0100F 		tst	r4, #16
 934 021e 02D0     		beq	.L108
 935              		.loc 1 586 0 is_stmt 0
 936 0220 4FF0300A 		mov	r10, #48
 937 0224 01E0     		b	.L68
 938              	.L108:
 939 0226 4FF0100A 		mov	r10, #16
 940              	.L68:
 941              		.loc 1 586 0 discriminator 4
 942 022a 4AEA0101 		orr	r1, r10, r1
ARM GAS  C:\Users\codyg\AppData\Local\Temp\ccQipZVL.s 			page 43


 943 022e 8CF80010 		strb	r1, [ip]
 587:cy_eink_library/pervasive_eink_hardware_driver.c ****                                         PV_EINK_BLACK2 : PV_EINK_NOTHING2);
 588:cy_eink_library/pervasive_eink_hardware_driver.c ****                 dataLineOdd[x]      |= ((tempByte & PV_EINK_ODD_MASK_C)  ?
 944              		.loc 1 588 0 is_stmt 1 discriminator 4
 945 0232 14F0040F 		tst	r4, #4
 946 0236 02D0     		beq	.L109
 947              		.loc 1 588 0 is_stmt 0
 948 0238 4FF00C0A 		mov	r10, #12
 949 023c 01E0     		b	.L69
 950              	.L109:
 951 023e 4FF0040A 		mov	r10, #4
 952              	.L69:
 953              		.loc 1 588 0 discriminator 4
 954 0242 4AEA0101 		orr	r1, r10, r1
 955 0246 8CF80010 		strb	r1, [ip]
 589:cy_eink_library/pervasive_eink_hardware_driver.c ****                                         PV_EINK_BLACK1 : PV_EINK_NOTHING1);
 590:cy_eink_library/pervasive_eink_hardware_driver.c ****                 dataLineOdd[x]      |= ((tempByte & PV_EINK_ODD_MASK_D)  ?
 956              		.loc 1 590 0 is_stmt 1 discriminator 4
 957 024a 14F0010F 		tst	r4, #1
 958 024e 02D0     		beq	.L110
 959              		.loc 1 590 0 is_stmt 0
 960 0250 4FF0030A 		mov	r10, #3
 961 0254 01E0     		b	.L70
 962              	.L110:
 963 0256 4FF0010A 		mov	r10, #1
 964              	.L70:
 965              		.loc 1 590 0 discriminator 4
 966 025a 4AEA0101 		orr	r1, r10, r1
 967 025e 8CF80010 		strb	r1, [ip]
 591:cy_eink_library/pervasive_eink_hardware_driver.c ****                                         PV_EINK_BLACK0 : PV_EINK_NOTHING0);
 592:cy_eink_library/pervasive_eink_hardware_driver.c ****                 dataLineEven[k]      = ((tempByte & PV_EINK_EVEN_MASK_A) ?
 968              		.loc 1 592 0 is_stmt 1 discriminator 4
 969 0262 0EEB020C 		add	ip, lr, r2
 970 0266 14F0800F 		tst	r4, #128
 971 026a 01D0     		beq	.L111
 972              		.loc 1 592 0 is_stmt 0
 973 026c 0321     		movs	r1, #3
 974 026e 00E0     		b	.L71
 975              	.L111:
 976 0270 0121     		movs	r1, #1
 977              	.L71:
 978              		.loc 1 592 0 discriminator 4
 979 0272 8CF80010 		strb	r1, [ip]
 593:cy_eink_library/pervasive_eink_hardware_driver.c ****                                         PV_EINK_BLACK0 : PV_EINK_NOTHING0);
 594:cy_eink_library/pervasive_eink_hardware_driver.c ****                 dataLineEven[k]     |= ((tempByte & PV_EINK_EVEN_MASK_B) ? 
 980              		.loc 1 594 0 is_stmt 1 discriminator 4
 981 0276 49B2     		sxtb	r1, r1
 982 0278 14F0200F 		tst	r4, #32
 983 027c 02D0     		beq	.L112
 984              		.loc 1 594 0 is_stmt 0
 985 027e 4FF00C0A 		mov	r10, #12
 986 0282 01E0     		b	.L72
 987              	.L112:
 988 0284 4FF0040A 		mov	r10, #4
 989              	.L72:
 990              		.loc 1 594 0 discriminator 4
 991 0288 4AEA0101 		orr	r1, r10, r1
ARM GAS  C:\Users\codyg\AppData\Local\Temp\ccQipZVL.s 			page 44


 992 028c 8CF80010 		strb	r1, [ip]
 595:cy_eink_library/pervasive_eink_hardware_driver.c ****                                         PV_EINK_BLACK1 : PV_EINK_NOTHING1);
 596:cy_eink_library/pervasive_eink_hardware_driver.c ****                 dataLineEven[k]     |= ((tempByte & PV_EINK_EVEN_MASK_C) ? 
 993              		.loc 1 596 0 is_stmt 1 discriminator 4
 994 0290 14F0080F 		tst	r4, #8
 995 0294 02D0     		beq	.L113
 996              		.loc 1 596 0 is_stmt 0
 997 0296 4FF0300A 		mov	r10, #48
 998 029a 01E0     		b	.L73
 999              	.L113:
 1000 029c 4FF0100A 		mov	r10, #16
 1001              	.L73:
 1002              		.loc 1 596 0 discriminator 4
 1003 02a0 4AEA0101 		orr	r1, r10, r1
 1004 02a4 8CF80010 		strb	r1, [ip]
 597:cy_eink_library/pervasive_eink_hardware_driver.c ****                                         PV_EINK_BLACK2 : PV_EINK_NOTHING2);
 598:cy_eink_library/pervasive_eink_hardware_driver.c ****                 dataLineEven[k--]   |= ((tempByte & PV_EINK_EVEN_MASK_D) ? 
 1005              		.loc 1 598 0 is_stmt 1 discriminator 4
 1006 02a8 013A     		subs	r2, r2, #1
 1007              	.LVL92:
 1008 02aa 92B2     		uxth	r2, r2
 1009              	.LVL93:
 1010 02ac 14F0020F 		tst	r4, #2
 1011 02b0 02D0     		beq	.L114
 1012              		.loc 1 598 0 is_stmt 0
 1013 02b2 6FF03F0A 		mvn	r10, #63
 1014 02b6 01E0     		b	.L74
 1015              	.L114:
 1016 02b8 4FF0400A 		mov	r10, #64
 1017              	.L74:
 1018              		.loc 1 598 0 discriminator 4
 1019 02bc 4AEA0101 		orr	r1, r10, r1
 1020 02c0 8CF80010 		strb	r1, [ip]
 599:cy_eink_library/pervasive_eink_hardware_driver.c ****                                         PV_EINK_BLACK3 : PV_EINK_NOTHING3);
 600:cy_eink_library/pervasive_eink_hardware_driver.c ****                 break;
 1021              		.loc 1 600 0 is_stmt 1 discriminator 4
 1022 02c4 66E0     		b	.L45
 1023              	.L50:
 601:cy_eink_library/pervasive_eink_hardware_driver.c ****             /* Stage 4: Calculate the Even and Odd bytes of new image 
 602:cy_eink_library/pervasive_eink_hardware_driver.c ****                data */
 603:cy_eink_library/pervasive_eink_hardware_driver.c ****             case PV_EINK_STAGE4:
 604:cy_eink_library/pervasive_eink_hardware_driver.c ****                 dataLineOdd[x]       = ((tempByte & PV_EINK_ODD_MASK_A)  ? 
 1024              		.loc 1 604 0
 1025 02c6 00EB030C 		add	ip, r0, r3
 1026 02ca 14F0400F 		tst	r4, #64
 1027 02ce 01D0     		beq	.L115
 1028 02d0 8021     		movs	r1, #128
 1029 02d2 00E0     		b	.L75
 1030              	.L115:
 1031 02d4 C021     		movs	r1, #192
 1032              	.L75:
 1033              		.loc 1 604 0 is_stmt 0 discriminator 4
 1034 02d6 8CF80010 		strb	r1, [ip]
 605:cy_eink_library/pervasive_eink_hardware_driver.c ****                                         PV_EINK_WHITE3 : PV_EINK_BLACK3);
 606:cy_eink_library/pervasive_eink_hardware_driver.c ****                 dataLineOdd[x]      |= ((tempByte & PV_EINK_ODD_MASK_B)  ?
 1035              		.loc 1 606 0 is_stmt 1 discriminator 4
 1036 02da 49B2     		sxtb	r1, r1
ARM GAS  C:\Users\codyg\AppData\Local\Temp\ccQipZVL.s 			page 45


 1037 02dc 14F0100F 		tst	r4, #16
 1038 02e0 02D0     		beq	.L116
 1039              		.loc 1 606 0 is_stmt 0
 1040 02e2 4FF0200A 		mov	r10, #32
 1041 02e6 01E0     		b	.L76
 1042              	.L116:
 1043 02e8 4FF0300A 		mov	r10, #48
 1044              	.L76:
 1045              		.loc 1 606 0 discriminator 4
 1046 02ec 4AEA0101 		orr	r1, r10, r1
 1047 02f0 8CF80010 		strb	r1, [ip]
 607:cy_eink_library/pervasive_eink_hardware_driver.c ****                                         PV_EINK_WHITE2 : PV_EINK_BLACK2);
 608:cy_eink_library/pervasive_eink_hardware_driver.c ****                 dataLineOdd[x]      |= ((tempByte & PV_EINK_ODD_MASK_C)  ? 
 1048              		.loc 1 608 0 is_stmt 1 discriminator 4
 1049 02f4 14F0040F 		tst	r4, #4
 1050 02f8 02D0     		beq	.L117
 1051              		.loc 1 608 0 is_stmt 0
 1052 02fa 4FF0080A 		mov	r10, #8
 1053 02fe 01E0     		b	.L77
 1054              	.L117:
 1055 0300 4FF00C0A 		mov	r10, #12
 1056              	.L77:
 1057              		.loc 1 608 0 discriminator 4
 1058 0304 4AEA0101 		orr	r1, r10, r1
 1059 0308 8CF80010 		strb	r1, [ip]
 609:cy_eink_library/pervasive_eink_hardware_driver.c ****                                         PV_EINK_WHITE1 : PV_EINK_BLACK1);
 610:cy_eink_library/pervasive_eink_hardware_driver.c ****                 dataLineOdd[x]      |= ((tempByte & PV_EINK_ODD_MASK_D)  ? 
 1060              		.loc 1 610 0 is_stmt 1 discriminator 4
 1061 030c 14F0010F 		tst	r4, #1
 1062 0310 02D0     		beq	.L118
 1063              		.loc 1 610 0 is_stmt 0
 1064 0312 4FF0020A 		mov	r10, #2
 1065 0316 01E0     		b	.L78
 1066              	.L118:
 1067 0318 4FF0030A 		mov	r10, #3
 1068              	.L78:
 1069              		.loc 1 610 0 discriminator 4
 1070 031c 4AEA0101 		orr	r1, r10, r1
 1071 0320 8CF80010 		strb	r1, [ip]
 611:cy_eink_library/pervasive_eink_hardware_driver.c ****                                         PV_EINK_WHITE0 : PV_EINK_BLACK0);
 612:cy_eink_library/pervasive_eink_hardware_driver.c ****                 dataLineEven[k]     = ((tempByte & PV_EINK_EVEN_MASK_A)  ? 
 1072              		.loc 1 612 0 is_stmt 1 discriminator 4
 1073 0324 0EEB020C 		add	ip, lr, r2
 1074 0328 14F0800F 		tst	r4, #128
 1075 032c 01D0     		beq	.L119
 1076              		.loc 1 612 0 is_stmt 0
 1077 032e 0221     		movs	r1, #2
 1078 0330 00E0     		b	.L79
 1079              	.L119:
 1080 0332 0321     		movs	r1, #3
 1081              	.L79:
 1082              		.loc 1 612 0 discriminator 4
 1083 0334 8CF80010 		strb	r1, [ip]
 613:cy_eink_library/pervasive_eink_hardware_driver.c ****                                         PV_EINK_WHITE0 : PV_EINK_BLACK0);
 614:cy_eink_library/pervasive_eink_hardware_driver.c ****                 dataLineEven[k]     |= ((tempByte & PV_EINK_EVEN_MASK_B) ? 
 1084              		.loc 1 614 0 is_stmt 1 discriminator 4
 1085 0338 49B2     		sxtb	r1, r1
ARM GAS  C:\Users\codyg\AppData\Local\Temp\ccQipZVL.s 			page 46


 1086 033a 14F0200F 		tst	r4, #32
 1087 033e 09D0     		beq	.L120
 1088              		.loc 1 614 0 is_stmt 0
 1089 0340 4FF0080A 		mov	r10, #8
 1090 0344 08E0     		b	.L80
 1091              	.L126:
 1092 0346 00BF     		.align	2
 1093              	.L125:
 1094 0348 FFFF0F10 		.word	269484031
 1095 034c 00000000 		.word	.LANCHOR0
 1096 0350 00000000 		.word	bulkDriverPacket
 1097              	.L120:
 1098 0354 4FF00C0A 		mov	r10, #12
 1099              	.L80:
 1100              		.loc 1 614 0 discriminator 4
 1101 0358 4AEA0101 		orr	r1, r10, r1
 1102 035c 8CF80010 		strb	r1, [ip]
 615:cy_eink_library/pervasive_eink_hardware_driver.c ****                                         PV_EINK_WHITE1 : PV_EINK_BLACK1);
 616:cy_eink_library/pervasive_eink_hardware_driver.c ****                 dataLineEven[k]     |= ((tempByte & PV_EINK_EVEN_MASK_C) ?
 1103              		.loc 1 616 0 is_stmt 1 discriminator 4
 1104 0360 14F0080F 		tst	r4, #8
 1105 0364 02D0     		beq	.L121
 1106              		.loc 1 616 0 is_stmt 0
 1107 0366 4FF0200A 		mov	r10, #32
 1108 036a 01E0     		b	.L81
 1109              	.L121:
 1110 036c 4FF0300A 		mov	r10, #48
 1111              	.L81:
 1112              		.loc 1 616 0 discriminator 4
 1113 0370 4AEA0101 		orr	r1, r10, r1
 1114 0374 8CF80010 		strb	r1, [ip]
 617:cy_eink_library/pervasive_eink_hardware_driver.c ****                                         PV_EINK_WHITE2 : PV_EINK_BLACK2);
 618:cy_eink_library/pervasive_eink_hardware_driver.c ****                 dataLineEven[k--]   |= ((tempByte & PV_EINK_EVEN_MASK_D) ? 
 1115              		.loc 1 618 0 is_stmt 1 discriminator 4
 1116 0378 013A     		subs	r2, r2, #1
 1117              	.LVL94:
 1118 037a 92B2     		uxth	r2, r2
 1119              	.LVL95:
 1120 037c 14F0020F 		tst	r4, #2
 1121 0380 02D0     		beq	.L122
 1122              		.loc 1 618 0 is_stmt 0
 1123 0382 6FF07F0A 		mvn	r10, #127
 1124 0386 01E0     		b	.L82
 1125              	.L122:
 1126 0388 6FF03F0A 		mvn	r10, #63
 1127              	.L82:
 1128              		.loc 1 618 0 discriminator 4
 1129 038c 4AEA0101 		orr	r1, r10, r1
 1130 0390 8CF80010 		strb	r1, [ip]
 1131              	.L45:
 530:cy_eink_library/pervasive_eink_hardware_driver.c ****         {
 1132              		.loc 1 530 0 is_stmt 1 discriminator 2
 1133 0394 0133     		adds	r3, r3, #1
 1134              	.LVL96:
 1135 0396 9BB2     		uxth	r3, r3
 1136              	.LVL97:
 1137              	.L43:
ARM GAS  C:\Users\codyg\AppData\Local\Temp\ccQipZVL.s 			page 47


 530:cy_eink_library/pervasive_eink_hardware_driver.c ****         {
 1138              		.loc 1 530 0 is_stmt 0 discriminator 1
 1139 0398 202B     		cmp	r3, #32
 1140 039a 7FF665AE 		bls	.L83
 1141              	.LVL98:
 619:cy_eink_library/pervasive_eink_hardware_driver.c ****                                         PV_EINK_WHITE3 : PV_EINK_BLACK3);
 620:cy_eink_library/pervasive_eink_hardware_driver.c ****                 break;
 621:cy_eink_library/pervasive_eink_hardware_driver.c ****             }
 622:cy_eink_library/pervasive_eink_hardware_driver.c ****         }
 623:cy_eink_library/pervasive_eink_hardware_driver.c ****         /* Move onto the next line */
 624:cy_eink_library/pervasive_eink_hardware_driver.c ****         scanlineNumber = PV_EINK_VERTICAL_SIZE - y;
 625:cy_eink_library/pervasive_eink_hardware_driver.c ****         scanlineNumber--;
 1142              		.loc 1 625 0 is_stmt 1 discriminator 2
 1143 039e C8F1AF03 		rsb	r3, r8, #175
 1144              	.LVL99:
 1145 03a2 1BB2     		sxth	r3, r3
 1146              	.LVL100:
 626:cy_eink_library/pervasive_eink_hardware_driver.c ****         
 627:cy_eink_library/pervasive_eink_hardware_driver.c ****         /* Shift Scan byte according to the data line */
 628:cy_eink_library/pervasive_eink_hardware_driver.c ****         dataLineScan[(scanlineNumber >> PV_EINK_PIXEL_SIZE)] = scanTable
 1147              		.loc 1 628 0 discriminator 2
 1148 03a4 9910     		asrs	r1, r3, #2
 629:cy_eink_library/pervasive_eink_hardware_driver.c ****                             [(scanlineNumber % PV_EINK_SCAN_TABLE_SIZE)];
 1149              		.loc 1 629 0 discriminator 2
 1150 03a6 1A4A     		ldr	r2, .L127
 1151              	.LVL101:
 1152 03a8 1340     		ands	r3, r3, r2
 1153              	.LVL102:
 1154 03aa 03D5     		bpl	.L84
 1155 03ac 013B     		subs	r3, r3, #1
 1156 03ae 63F00303 		orn	r3, r3, #3
 1157 03b2 0133     		adds	r3, r3, #1
 1158              	.L84:
 1159 03b4 174A     		ldr	r2, .L127+4
 1160 03b6 02FA83F3 		sxtah	r3, r2, r3
 1161 03ba 1B7A     		ldrb	r3, [r3, #8]	@ zero_extendqisi2
 628:cy_eink_library/pervasive_eink_hardware_driver.c ****                             [(scanlineNumber % PV_EINK_SCAN_TABLE_SIZE)];
 1162              		.loc 1 628 0 discriminator 2
 1163 03bc 09F80130 		strb	r3, [r9, r1]
 514:cy_eink_library/pervasive_eink_hardware_driver.c ****     {
 1164              		.loc 1 514 0 discriminator 2
 1165 03c0 08F10108 		add	r8, r8, #1
 1166              	.LVL103:
 1167 03c4 1FFA88F8 		uxth	r8, r8
 1168              	.LVL104:
 1169              	.L42:
 514:cy_eink_library/pervasive_eink_hardware_driver.c ****     {
 1170              		.loc 1 514 0 is_stmt 0 discriminator 1
 1171 03c8 B8F1AF0F 		cmp	r8, #175
 1172 03cc 7FF62BAE 		bls	.L85
 1173 03d0 0025     		movs	r5, #0
 1174 03d2 15E0     		b	.L86
 1175              	.LVL105:
 1176              	.L87:
 630:cy_eink_library/pervasive_eink_hardware_driver.c ****             
 631:cy_eink_library/pervasive_eink_hardware_driver.c ****     }
 632:cy_eink_library/pervasive_eink_hardware_driver.c ****             
ARM GAS  C:\Users\codyg\AppData\Local\Temp\ccQipZVL.s 			page 48


 633:cy_eink_library/pervasive_eink_hardware_driver.c ****     /* Perform update operation until the total number of write cycles equals 
 634:cy_eink_library/pervasive_eink_hardware_driver.c ****        the value calculated based on temperature */
 635:cy_eink_library/pervasive_eink_hardware_driver.c ****     for (currentWriteCycle = 0; currentWriteCycle < fullUpdateCycles;
 636:cy_eink_library/pervasive_eink_hardware_driver.c ****          currentWriteCycle++)
 637:cy_eink_library/pervasive_eink_hardware_driver.c ****     {
 638:cy_eink_library/pervasive_eink_hardware_driver.c ****         /* Perform a line by line update */
 639:cy_eink_library/pervasive_eink_hardware_driver.c ****         for (y = 0; y < PV_EINK_VERTICAL_SIZE; y++)
 640:cy_eink_library/pervasive_eink_hardware_driver.c ****         {
 641:cy_eink_library/pervasive_eink_hardware_driver.c ****             /* Send the prepared data to the E-INK display */
 642:cy_eink_library/pervasive_eink_hardware_driver.c ****             Pv_EINK_SendData(PV_EINK_PIXEL_DATA_COMMAND_INDEX,
 643:cy_eink_library/pervasive_eink_hardware_driver.c ****                           (uint8_t*) &bulkDriverPacket[y].lineBuffer,
 1177              		.loc 1 643 0 is_stmt 1 discriminator 3
 1178 03d4 C4EBC403 		rsb	r3, r4, r4, lsl #3
 1179 03d8 C4EB0313 		rsb	r3, r4, r3, lsl #4
 642:cy_eink_library/pervasive_eink_hardware_driver.c ****                           (uint8_t*) &bulkDriverPacket[y].lineBuffer,
 1180              		.loc 1 642 0 discriminator 3
 1181 03dc 6F22     		movs	r2, #111
 1182 03de 0E49     		ldr	r1, .L127+8
 1183 03e0 1944     		add	r1, r1, r3
 1184 03e2 0A20     		movs	r0, #10
 1185 03e4 FFF7FEFF 		bl	Pv_EINK_SendData
 1186              	.LVL106:
 644:cy_eink_library/pervasive_eink_hardware_driver.c ****                           PV_EINK_DATA_LINE_SIZE);
 645:cy_eink_library/pervasive_eink_hardware_driver.c ****                           
 646:cy_eink_library/pervasive_eink_hardware_driver.c ****             /* Turn on Output Enable to latch the frame */
 647:cy_eink_library/pervasive_eink_hardware_driver.c ****             Pv_EINK_SendByte(PV_EINK_ENABLE_OE_COMMAND_INDEX,
 1187              		.loc 1 647 0 discriminator 3
 1188 03e8 0721     		movs	r1, #7
 1189 03ea 0220     		movs	r0, #2
 1190 03ec FFF7FEFF 		bl	Pv_EINK_SendByte
 1191              	.LVL107:
 639:cy_eink_library/pervasive_eink_hardware_driver.c ****         {
 1192              		.loc 1 639 0 discriminator 3
 1193 03f0 0134     		adds	r4, r4, #1
 1194              	.LVL108:
 1195 03f2 A4B2     		uxth	r4, r4
 1196              	.LVL109:
 1197 03f4 00E0     		b	.L88
 1198              	.LVL110:
 1199              	.L123:
 1200 03f6 0024     		movs	r4, #0
 1201              	.L88:
 1202              	.LVL111:
 639:cy_eink_library/pervasive_eink_hardware_driver.c ****         {
 1203              		.loc 1 639 0 is_stmt 0 discriminator 1
 1204 03f8 AF2C     		cmp	r4, #175
 1205 03fa EBD9     		bls	.L87
 636:cy_eink_library/pervasive_eink_hardware_driver.c ****     {
 1206              		.loc 1 636 0 is_stmt 1
 1207 03fc 0135     		adds	r5, r5, #1
 1208              	.LVL112:
 1209 03fe ADB2     		uxth	r5, r5
 1210              	.LVL113:
 1211              	.L86:
 635:cy_eink_library/pervasive_eink_hardware_driver.c ****          currentWriteCycle++)
 1212              		.loc 1 635 0 discriminator 1
 1213 0400 064B     		ldr	r3, .L127+12
ARM GAS  C:\Users\codyg\AppData\Local\Temp\ccQipZVL.s 			page 49


 1214 0402 B3F87C30 		ldrh	r3, [r3, #124]
 1215 0406 9D42     		cmp	r5, r3
 1216 0408 F5D3     		bcc	.L123
 648:cy_eink_library/pervasive_eink_hardware_driver.c ****                           PV_EINK_ENABLE_OE_COMMAND_DATA);
 649:cy_eink_library/pervasive_eink_hardware_driver.c ****         }
 650:cy_eink_library/pervasive_eink_hardware_driver.c ****     
 651:cy_eink_library/pervasive_eink_hardware_driver.c ****     }
 652:cy_eink_library/pervasive_eink_hardware_driver.c **** }
 1217              		.loc 1 652 0
 1218 040a BDE8F88F 		pop	{r3, r4, r5, r6, r7, r8, r9, r10, fp, pc}
 1219              	.LVL114:
 1220              	.L128:
 1221 040e 00BF     		.align	2
 1222              	.L127:
 1223 0410 03000080 		.word	-2147483645
 1224 0414 00000000 		.word	.LANCHOR1
 1225 0418 00000000 		.word	bulkDriverPacket
 1226 041c 00000000 		.word	.LANCHOR0
 1227              		.cfi_endproc
 1228              	.LFE523:
 1229              		.size	Pv_EINK_FullStageHandler, .-Pv_EINK_FullStageHandler
 1230              		.section	.text.Pv_EINK_PartialStageHandler,"ax",%progbits
 1231              		.align	2
 1232              		.global	Pv_EINK_PartialStageHandler
 1233              		.thumb
 1234              		.thumb_func
 1235              		.type	Pv_EINK_PartialStageHandler, %function
 1236              	Pv_EINK_PartialStageHandler:
 1237              	.LFB524:
 653:cy_eink_library/pervasive_eink_hardware_driver.c **** 
 654:cy_eink_library/pervasive_eink_hardware_driver.c **** /*******************************************************************************
 655:cy_eink_library/pervasive_eink_hardware_driver.c **** * Function Name:  void Pv_EINK_PartialStageHandler(pv_eink_frame_data_t* 
 656:cy_eink_library/pervasive_eink_hardware_driver.c ****                             previousImagePtr, pv_eink_frame_data_t* newImagePtr)
 657:cy_eink_library/pervasive_eink_hardware_driver.c **** ********************************************************************************
 658:cy_eink_library/pervasive_eink_hardware_driver.c **** *
 659:cy_eink_library/pervasive_eink_hardware_driver.c **** * Summary: The partial update driving stage for getting Odd and Even bytes, and
 660:cy_eink_library/pervasive_eink_hardware_driver.c **** * then writing the data from memory array to E-INK driver.
 661:cy_eink_library/pervasive_eink_hardware_driver.c **** *
 662:cy_eink_library/pervasive_eink_hardware_driver.c **** * Partial update is similar to the last stage of full update. If the new data 
 663:cy_eink_library/pervasive_eink_hardware_driver.c **** * byte is same as previous data byte, send a "nothing" pixel, so that E-INK 
 664:cy_eink_library/pervasive_eink_hardware_driver.c **** * pixel won't be altered. If the new data byte is different from the previous 
 665:cy_eink_library/pervasive_eink_hardware_driver.c **** * data byte, send the new data byte.
 666:cy_eink_library/pervasive_eink_hardware_driver.c **** * For more details on the driving stages, please refer to the driver G2 document
 667:cy_eink_library/pervasive_eink_hardware_driver.c **** * Section 5.
 668:cy_eink_library/pervasive_eink_hardware_driver.c **** *
 669:cy_eink_library/pervasive_eink_hardware_driver.c **** * Parameters:
 670:cy_eink_library/pervasive_eink_hardware_driver.c **** * pv_eink_frame_data_t* previousImagePtr : Pointer to the memory that contains 
 671:cy_eink_library/pervasive_eink_hardware_driver.c **** *                                    previous frame written to the E-INK display
 672:cy_eink_library/pervasive_eink_hardware_driver.c **** * pv_eink_frame_data_t* newImagePtr      : Pointer to the memory that contains a 
 673:cy_eink_library/pervasive_eink_hardware_driver.c **** *                       new frame which needs to be written to the E-INK display
 674:cy_eink_library/pervasive_eink_hardware_driver.c **** *
 675:cy_eink_library/pervasive_eink_hardware_driver.c **** * Return:
 676:cy_eink_library/pervasive_eink_hardware_driver.c **** *  None
 677:cy_eink_library/pervasive_eink_hardware_driver.c **** *
 678:cy_eink_library/pervasive_eink_hardware_driver.c **** * Side Effects:
 679:cy_eink_library/pervasive_eink_hardware_driver.c **** *  This is a blocking function. CPU will be busy during the entire operation,
 680:cy_eink_library/pervasive_eink_hardware_driver.c **** *  which can be 1 to 2 seconds. 
ARM GAS  C:\Users\codyg\AppData\Local\Temp\ccQipZVL.s 			page 50


 681:cy_eink_library/pervasive_eink_hardware_driver.c **** *******************************************************************************/
 682:cy_eink_library/pervasive_eink_hardware_driver.c **** void Pv_EINK_PartialStageHandler(pv_eink_frame_data_t* previousImagePtr, 
 683:cy_eink_library/pervasive_eink_hardware_driver.c ****                                  pv_eink_frame_data_t* newImagePtr)
 684:cy_eink_library/pervasive_eink_hardware_driver.c **** {
 1238              		.loc 1 684 0
 1239              		.cfi_startproc
 1240              		@ args = 0, pretend = 0, frame = 0
 1241              		@ frame_needed = 0, uses_anonymous_args = 0
 1242              	.LVL115:
 1243 0000 2DE9F047 		push	{r4, r5, r6, r7, r8, r9, r10, lr}
 1244              		.cfi_def_cfa_offset 32
 1245              		.cfi_offset 4, -32
 1246              		.cfi_offset 5, -28
 1247              		.cfi_offset 6, -24
 1248              		.cfi_offset 7, -20
 1249              		.cfi_offset 8, -16
 1250              		.cfi_offset 9, -12
 1251              		.cfi_offset 10, -8
 1252              		.cfi_offset 14, -4
 1253 0004 0646     		mov	r6, r0
 1254 0006 0D46     		mov	r5, r1
 1255              	.LVL116:
 685:cy_eink_library/pervasive_eink_hardware_driver.c ****     /* Counter variable for the horizontal pixel loop */
 686:cy_eink_library/pervasive_eink_hardware_driver.c ****     uint16_t    x;
 687:cy_eink_library/pervasive_eink_hardware_driver.c ****     /* Counter variable for the vertical pixel loop */
 688:cy_eink_library/pervasive_eink_hardware_driver.c ****     uint16_t    y;
 689:cy_eink_library/pervasive_eink_hardware_driver.c ****     /* Counter variable for the horizontal byte loop */
 690:cy_eink_library/pervasive_eink_hardware_driver.c ****     uint16_t    k;
 691:cy_eink_library/pervasive_eink_hardware_driver.c ****     
 692:cy_eink_library/pervasive_eink_hardware_driver.c ****     /* Counter variable for write cycles */
 693:cy_eink_library/pervasive_eink_hardware_driver.c ****     uint16_t    currentWriteCycle;
 694:cy_eink_library/pervasive_eink_hardware_driver.c ****     
 695:cy_eink_library/pervasive_eink_hardware_driver.c ****     /* Temporary storage for image data bytes */
 696:cy_eink_library/pervasive_eink_hardware_driver.c ****     uint8_t     oldByte;
 697:cy_eink_library/pervasive_eink_hardware_driver.c ****     /* Temporary storage for image data bytes */
 698:cy_eink_library/pervasive_eink_hardware_driver.c ****     uint8_t     newByte;
 699:cy_eink_library/pervasive_eink_hardware_driver.c ****     
 700:cy_eink_library/pervasive_eink_hardware_driver.c ****     /* Variable for storing the line number under scan */
 701:cy_eink_library/pervasive_eink_hardware_driver.c ****     int16       scanlineNumber = 0;
 702:cy_eink_library/pervasive_eink_hardware_driver.c ****     
 703:cy_eink_library/pervasive_eink_hardware_driver.c ****     /* Vcom level adjust */
 704:cy_eink_library/pervasive_eink_hardware_driver.c ****     Pv_EINK_SendByte(PV_EINK_VCOM2_LEVEL_COMMAND_INDEX,
 1256              		.loc 1 704 0
 1257 0008 D221     		movs	r1, #210
 1258              	.LVL117:
 1259 000a 0920     		movs	r0, #9
 1260              	.LVL118:
 1261 000c FFF7FEFF 		bl	Pv_EINK_SendByte
 1262              	.LVL119:
 705:cy_eink_library/pervasive_eink_hardware_driver.c ****                      PV_EINK_VCOM2_LEVEL_COMMAND_DATA);
 706:cy_eink_library/pervasive_eink_hardware_driver.c ****      
 707:cy_eink_library/pervasive_eink_hardware_driver.c ****     /* Vertical pixel loop */
 708:cy_eink_library/pervasive_eink_hardware_driver.c ****     for (y = 0; y < PV_EINK_VERTICAL_SIZE; y++)
 1263              		.loc 1 708 0
 1264 0010 0024     		movs	r4, #0
 1265 0012 C6E0     		b	.L130
 1266              	.LVL120:
ARM GAS  C:\Users\codyg\AppData\Local\Temp\ccQipZVL.s 			page 51


 1267              	.L142:
 709:cy_eink_library/pervasive_eink_hardware_driver.c ****     {
 710:cy_eink_library/pervasive_eink_hardware_driver.c ****         /* Clear the line buffer with all zeros */
 711:cy_eink_library/pervasive_eink_hardware_driver.c ****         memset(&bulkDriverPacket[y].lineBuffer, 0, 
 1268              		.loc 1 711 0
 1269 0014 C4EBC407 		rsb	r7, r4, r4, lsl #3
 1270 0018 C4EB0717 		rsb	r7, r4, r7, lsl #4
 1271 001c DFF80082 		ldr	r8, .L164+12
 1272 0020 07EB0809 		add	r9, r7, r8
 1273 0024 6F22     		movs	r2, #111
 1274 0026 0021     		movs	r1, #0
 1275 0028 4846     		mov	r0, r9
 1276 002a FFF7FEFF 		bl	memset
 1277              	.LVL121:
 712:cy_eink_library/pervasive_eink_hardware_driver.c ****                sizeof(bulkDriverPacket[y].lineBuffer)) ;
 713:cy_eink_library/pervasive_eink_hardware_driver.c **** 
 714:cy_eink_library/pervasive_eink_hardware_driver.c ****         /* Initialize the even data, odd data and scan data pointers */
 715:cy_eink_library/pervasive_eink_hardware_driver.c ****         dataLineEven = &bulkDriverPacket[y].lineDataBySize.even[0];
 1278              		.loc 1 715 0
 1279 002e 09F1010C 		add	ip, r9, #1
 1280 0032 784B     		ldr	r3, .L164
 1281 0034 C3F870C0 		str	ip, [r3, #112]
 716:cy_eink_library/pervasive_eink_hardware_driver.c ****         dataLineOdd  = &bulkDriverPacket[y].lineDataBySize.odd[0];
 1282              		.loc 1 716 0
 1283 0038 07F1480E 		add	lr, r7, #72
 1284 003c C644     		add	lr, lr, r8
 1285 003e 0EF1060E 		add	lr, lr, #6
 1286 0042 C3F874E0 		str	lr, [r3, #116]
 717:cy_eink_library/pervasive_eink_hardware_driver.c ****         dataLineScan = &bulkDriverPacket[y].lineDataBySize.scan[0];
 1287              		.loc 1 717 0
 1288 0046 2037     		adds	r7, r7, #32
 1289 0048 B844     		add	r8, r8, r7
 1290 004a 08F10208 		add	r8, r8, #2
 1291 004e C3F87880 		str	r8, [r3, #120]
 1292              	.LVL122:
 718:cy_eink_library/pervasive_eink_hardware_driver.c **** 
 719:cy_eink_library/pervasive_eink_hardware_driver.c ****         /* Horizontal bytes initialization */
 720:cy_eink_library/pervasive_eink_hardware_driver.c ****         k = PV_EINK_HORIZONTAL_SIZE;
 721:cy_eink_library/pervasive_eink_hardware_driver.c ****         k--;
 1293              		.loc 1 721 0
 1294 0052 2020     		movs	r0, #32
 722:cy_eink_library/pervasive_eink_hardware_driver.c ****         
 723:cy_eink_library/pervasive_eink_hardware_driver.c ****         /* Horizontal pixel loop */
 724:cy_eink_library/pervasive_eink_hardware_driver.c ****         for (x = 0; x < PV_EINK_HORIZONTAL_SIZE; x++)
 1295              		.loc 1 724 0
 1296 0054 0021     		movs	r1, #0
 1297 0056 8EE0     		b	.L131
 1298              	.LVL123:
 1299              	.L140:
 725:cy_eink_library/pervasive_eink_hardware_driver.c ****         {
 726:cy_eink_library/pervasive_eink_hardware_driver.c ****             /* Fetch successive data bytes */
 727:cy_eink_library/pervasive_eink_hardware_driver.c ****             oldByte = *previousImagePtr++;
 1300              		.loc 1 727 0
 1301 0058 771C     		adds	r7, r6, #1
 1302              	.LVL124:
 1303 005a 3278     		ldrb	r2, [r6]	@ zero_extendqisi2
 1304              	.LVL125:
ARM GAS  C:\Users\codyg\AppData\Local\Temp\ccQipZVL.s 			page 52


 728:cy_eink_library/pervasive_eink_hardware_driver.c ****             newByte = *newImagePtr++;
 1305              		.loc 1 728 0
 1306 005c 6E1C     		adds	r6, r5, #1
 1307              	.LVL126:
 1308 005e 95F80090 		ldrb	r9, [r5]	@ zero_extendqisi2
 1309              	.LVL127:
 729:cy_eink_library/pervasive_eink_hardware_driver.c ****             
 730:cy_eink_library/pervasive_eink_hardware_driver.c ****             /* Calculate the Even and Odd bytes for partial update stage. Also, 
 731:cy_eink_library/pervasive_eink_hardware_driver.c ****                if the new data byte is same as the previous data byte, store a 
 732:cy_eink_library/pervasive_eink_hardware_driver.c ****                "nothing" pixel, so that the E-INK pixel won't be altered.
 733:cy_eink_library/pervasive_eink_hardware_driver.c ****                If the new data byte is different from the previous data byte, 
 734:cy_eink_library/pervasive_eink_hardware_driver.c ****                store the new data byte */
 735:cy_eink_library/pervasive_eink_hardware_driver.c ****             dataLineOdd[x]       = ((oldByte ^ newByte) & PV_EINK_ODD_MASK_A)
 1310              		.loc 1 735 0
 1311 0062 0EEB0105 		add	r5, lr, r1
 1312 0066 82EA0902 		eor	r2, r2, r9
 1313              	.LVL128:
 1314 006a 12F0400F 		tst	r2, #64
 1315 006e 04D0     		beq	.L146
 1316              		.loc 1 735 0 is_stmt 0 discriminator 1
 1317 0070 19F0400F 		tst	r9, #64
 1318 0074 03D0     		beq	.L147
 1319              		.loc 1 735 0
 1320 0076 8023     		movs	r3, #128
 1321 0078 02E0     		b	.L132
 1322              	.L146:
 1323 007a 4023     		movs	r3, #64
 1324 007c 00E0     		b	.L132
 1325              	.L147:
 1326 007e C023     		movs	r3, #192
 1327              	.L132:
 1328              		.loc 1 735 0 discriminator 8
 1329 0080 2B70     		strb	r3, [r5]
 1330              	.LVL129:
 736:cy_eink_library/pervasive_eink_hardware_driver.c ****                                     ?((newByte & PV_EINK_ODD_MASK_A)
 737:cy_eink_library/pervasive_eink_hardware_driver.c ****                                     ? PV_EINK_WHITE3
 738:cy_eink_library/pervasive_eink_hardware_driver.c ****                                     : PV_EINK_BLACK3) : PV_EINK_NOTHING3;
 739:cy_eink_library/pervasive_eink_hardware_driver.c ****             dataLineOdd[x]      |= ((oldByte ^ newByte) & PV_EINK_ODD_MASK_B)
 1331              		.loc 1 739 0 is_stmt 1 discriminator 8
 1332 0082 5BB2     		sxtb	r3, r3
 1333 0084 12F0100F 		tst	r2, #16
 1334 0088 05D0     		beq	.L148
 1335              		.loc 1 739 0 is_stmt 0 discriminator 1
 1336 008a 19F0100F 		tst	r9, #16
 1337 008e 05D0     		beq	.L149
 1338              		.loc 1 739 0
 1339 0090 4FF0200A 		mov	r10, #32
 1340 0094 04E0     		b	.L133
 1341              	.L148:
 1342 0096 4FF0100A 		mov	r10, #16
 1343 009a 01E0     		b	.L133
 1344              	.L149:
 1345 009c 4FF0300A 		mov	r10, #48
 1346              	.L133:
 1347              		.loc 1 739 0 discriminator 8
 1348 00a0 4AEA0303 		orr	r3, r10, r3
 1349 00a4 2B70     		strb	r3, [r5]
ARM GAS  C:\Users\codyg\AppData\Local\Temp\ccQipZVL.s 			page 53


 740:cy_eink_library/pervasive_eink_hardware_driver.c ****                                     ?((newByte & PV_EINK_ODD_MASK_B) 
 741:cy_eink_library/pervasive_eink_hardware_driver.c ****                                     ? PV_EINK_WHITE2 
 742:cy_eink_library/pervasive_eink_hardware_driver.c ****                                     : PV_EINK_BLACK2) : PV_EINK_NOTHING2;
 743:cy_eink_library/pervasive_eink_hardware_driver.c ****             dataLineOdd[x]      |= ((oldByte ^ newByte) & PV_EINK_ODD_MASK_C)
 1350              		.loc 1 743 0 is_stmt 1 discriminator 8
 1351 00a6 12F0040F 		tst	r2, #4
 1352 00aa 05D0     		beq	.L150
 1353              		.loc 1 743 0 is_stmt 0 discriminator 1
 1354 00ac 19F0040F 		tst	r9, #4
 1355 00b0 05D0     		beq	.L151
 1356              		.loc 1 743 0
 1357 00b2 4FF0080A 		mov	r10, #8
 1358 00b6 04E0     		b	.L134
 1359              	.L150:
 1360 00b8 4FF0040A 		mov	r10, #4
 1361 00bc 01E0     		b	.L134
 1362              	.L151:
 1363 00be 4FF00C0A 		mov	r10, #12
 1364              	.L134:
 1365              		.loc 1 743 0 discriminator 8
 1366 00c2 4AEA0303 		orr	r3, r10, r3
 1367 00c6 2B70     		strb	r3, [r5]
 744:cy_eink_library/pervasive_eink_hardware_driver.c ****                                     ?((newByte & PV_EINK_ODD_MASK_C) 
 745:cy_eink_library/pervasive_eink_hardware_driver.c ****                                     ? PV_EINK_WHITE1
 746:cy_eink_library/pervasive_eink_hardware_driver.c ****                                     : PV_EINK_BLACK1) : PV_EINK_NOTHING1;
 747:cy_eink_library/pervasive_eink_hardware_driver.c ****             dataLineOdd[x]      |= ((oldByte ^ newByte) & PV_EINK_ODD_MASK_D)
 1368              		.loc 1 747 0 is_stmt 1 discriminator 8
 1369 00c8 12F0010F 		tst	r2, #1
 1370 00cc 05D0     		beq	.L152
 1371              		.loc 1 747 0 is_stmt 0 discriminator 1
 1372 00ce 19F0010F 		tst	r9, #1
 1373 00d2 05D0     		beq	.L153
 1374              		.loc 1 747 0
 1375 00d4 4FF0020A 		mov	r10, #2
 1376 00d8 04E0     		b	.L135
 1377              	.L152:
 1378 00da 4FF0010A 		mov	r10, #1
 1379 00de 01E0     		b	.L135
 1380              	.L153:
 1381 00e0 4FF0030A 		mov	r10, #3
 1382              	.L135:
 1383              		.loc 1 747 0 discriminator 8
 1384 00e4 4AEA0303 		orr	r3, r10, r3
 1385 00e8 2B70     		strb	r3, [r5]
 748:cy_eink_library/pervasive_eink_hardware_driver.c ****                                     ?((newByte & PV_EINK_ODD_MASK_D) 
 749:cy_eink_library/pervasive_eink_hardware_driver.c ****                                     ? PV_EINK_WHITE0 
 750:cy_eink_library/pervasive_eink_hardware_driver.c ****                                     : PV_EINK_BLACK0) : PV_EINK_NOTHING0;
 751:cy_eink_library/pervasive_eink_hardware_driver.c ****             dataLineEven[k]      = ((oldByte ^ newByte) & PV_EINK_EVEN_MASK_A)
 1386              		.loc 1 751 0 is_stmt 1 discriminator 8
 1387 00ea 0CEB0005 		add	r5, ip, r0
 1388 00ee 12F0800F 		tst	r2, #128
 1389 00f2 04D0     		beq	.L154
 1390              		.loc 1 751 0 is_stmt 0 discriminator 1
 1391 00f4 19F0800F 		tst	r9, #128
 1392 00f8 03D0     		beq	.L155
 1393              		.loc 1 751 0
 1394 00fa 0223     		movs	r3, #2
ARM GAS  C:\Users\codyg\AppData\Local\Temp\ccQipZVL.s 			page 54


 1395 00fc 02E0     		b	.L136
 1396              	.L154:
 1397 00fe 0123     		movs	r3, #1
 1398 0100 00E0     		b	.L136
 1399              	.L155:
 1400 0102 0323     		movs	r3, #3
 1401              	.L136:
 1402              		.loc 1 751 0 discriminator 8
 1403 0104 2B70     		strb	r3, [r5]
 752:cy_eink_library/pervasive_eink_hardware_driver.c ****                                     ?((newByte & PV_EINK_EVEN_MASK_A) 
 753:cy_eink_library/pervasive_eink_hardware_driver.c ****                                     ? PV_EINK_WHITE0
 754:cy_eink_library/pervasive_eink_hardware_driver.c ****                                     : PV_EINK_BLACK0) : PV_EINK_NOTHING0;
 755:cy_eink_library/pervasive_eink_hardware_driver.c ****             dataLineEven[k]     |= ((oldByte ^ newByte) & PV_EINK_EVEN_MASK_B) 
 1404              		.loc 1 755 0 is_stmt 1 discriminator 8
 1405 0106 5BB2     		sxtb	r3, r3
 1406 0108 12F0200F 		tst	r2, #32
 1407 010c 05D0     		beq	.L156
 1408              		.loc 1 755 0 is_stmt 0 discriminator 1
 1409 010e 19F0200F 		tst	r9, #32
 1410 0112 05D0     		beq	.L157
 1411              		.loc 1 755 0
 1412 0114 4FF0080A 		mov	r10, #8
 1413 0118 04E0     		b	.L137
 1414              	.L156:
 1415 011a 4FF0040A 		mov	r10, #4
 1416 011e 01E0     		b	.L137
 1417              	.L157:
 1418 0120 4FF00C0A 		mov	r10, #12
 1419              	.L137:
 1420              		.loc 1 755 0 discriminator 8
 1421 0124 4AEA0303 		orr	r3, r10, r3
 1422 0128 2B70     		strb	r3, [r5]
 756:cy_eink_library/pervasive_eink_hardware_driver.c ****                                     ?((newByte & PV_EINK_EVEN_MASK_B) 
 757:cy_eink_library/pervasive_eink_hardware_driver.c ****                                     ? PV_EINK_WHITE1
 758:cy_eink_library/pervasive_eink_hardware_driver.c ****                                     : PV_EINK_BLACK1) : PV_EINK_NOTHING1;
 759:cy_eink_library/pervasive_eink_hardware_driver.c ****             dataLineEven[k]     |= ((oldByte ^ newByte) & PV_EINK_EVEN_MASK_C)
 1423              		.loc 1 759 0 is_stmt 1 discriminator 8
 1424 012a 12F0080F 		tst	r2, #8
 1425 012e 05D0     		beq	.L158
 1426              		.loc 1 759 0 is_stmt 0 discriminator 1
 1427 0130 19F0080F 		tst	r9, #8
 1428 0134 05D0     		beq	.L159
 1429              		.loc 1 759 0
 1430 0136 4FF0200A 		mov	r10, #32
 1431 013a 04E0     		b	.L138
 1432              	.L158:
 1433 013c 4FF0100A 		mov	r10, #16
 1434 0140 01E0     		b	.L138
 1435              	.L159:
 1436 0142 4FF0300A 		mov	r10, #48
 1437              	.L138:
 1438              		.loc 1 759 0 discriminator 8
 1439 0146 4AEA0303 		orr	r3, r10, r3
 1440 014a 2B70     		strb	r3, [r5]
 760:cy_eink_library/pervasive_eink_hardware_driver.c ****                                     ?((newByte & PV_EINK_EVEN_MASK_C) 
 761:cy_eink_library/pervasive_eink_hardware_driver.c ****                                     ? PV_EINK_WHITE2 
 762:cy_eink_library/pervasive_eink_hardware_driver.c ****                                     : PV_EINK_BLACK2) : PV_EINK_NOTHING2;
ARM GAS  C:\Users\codyg\AppData\Local\Temp\ccQipZVL.s 			page 55


 763:cy_eink_library/pervasive_eink_hardware_driver.c ****             dataLineEven[k--]   |= ((oldByte ^ newByte) & PV_EINK_EVEN_MASK_D)
 1441              		.loc 1 763 0 is_stmt 1 discriminator 8
 1442 014c 0138     		subs	r0, r0, #1
 1443              	.LVL130:
 1444 014e 80B2     		uxth	r0, r0
 1445              	.LVL131:
 1446 0150 12F0020F 		tst	r2, #2
 1447 0154 05D0     		beq	.L160
 1448              		.loc 1 763 0 is_stmt 0 discriminator 1
 1449 0156 19F0020F 		tst	r9, #2
 1450 015a 04D0     		beq	.L161
 1451              		.loc 1 763 0
 1452 015c 6FF07F02 		mvn	r2, #127
 1453 0160 03E0     		b	.L139
 1454              	.L160:
 1455 0162 4022     		movs	r2, #64
 1456 0164 01E0     		b	.L139
 1457              	.L161:
 1458 0166 6FF03F02 		mvn	r2, #63
 1459              	.L139:
 1460              		.loc 1 763 0 discriminator 8
 1461 016a 1343     		orrs	r3, r3, r2
 1462 016c 2B70     		strb	r3, [r5]
 724:cy_eink_library/pervasive_eink_hardware_driver.c ****         {
 1463              		.loc 1 724 0 is_stmt 1 discriminator 8
 1464 016e 0131     		adds	r1, r1, #1
 1465              	.LVL132:
 1466 0170 89B2     		uxth	r1, r1
 1467              	.LVL133:
 728:cy_eink_library/pervasive_eink_hardware_driver.c ****             
 1468              		.loc 1 728 0 discriminator 8
 1469 0172 3546     		mov	r5, r6
 727:cy_eink_library/pervasive_eink_hardware_driver.c ****             newByte = *newImagePtr++;
 1470              		.loc 1 727 0 discriminator 8
 1471 0174 3E46     		mov	r6, r7
 1472              	.LVL134:
 1473              	.L131:
 724:cy_eink_library/pervasive_eink_hardware_driver.c ****         {
 1474              		.loc 1 724 0 discriminator 2
 1475 0176 2029     		cmp	r1, #32
 1476 0178 7FF66EAF 		bls	.L140
 1477              	.LVL135:
 764:cy_eink_library/pervasive_eink_hardware_driver.c ****                                     ?((newByte & PV_EINK_EVEN_MASK_D) 
 765:cy_eink_library/pervasive_eink_hardware_driver.c ****                                     ? PV_EINK_WHITE3 
 766:cy_eink_library/pervasive_eink_hardware_driver.c ****                                     : PV_EINK_BLACK3) : PV_EINK_NOTHING3;
 767:cy_eink_library/pervasive_eink_hardware_driver.c ****         }
 768:cy_eink_library/pervasive_eink_hardware_driver.c ****         /* Move onto the next line */
 769:cy_eink_library/pervasive_eink_hardware_driver.c ****         scanlineNumber = PV_EINK_VERTICAL_SIZE - y;
 770:cy_eink_library/pervasive_eink_hardware_driver.c ****         scanlineNumber--;
 1478              		.loc 1 770 0 discriminator 2
 1479 017c C4F1AF03 		rsb	r3, r4, #175
 1480 0180 1BB2     		sxth	r3, r3
 1481              	.LVL136:
 771:cy_eink_library/pervasive_eink_hardware_driver.c ****         
 772:cy_eink_library/pervasive_eink_hardware_driver.c ****         /* Shift Scan byte according to the data line */
 773:cy_eink_library/pervasive_eink_hardware_driver.c ****         dataLineScan[(scanlineNumber >> PV_EINK_PIXEL_SIZE)] = scanTable
 1482              		.loc 1 773 0 discriminator 2
ARM GAS  C:\Users\codyg\AppData\Local\Temp\ccQipZVL.s 			page 56


 1483 0182 9910     		asrs	r1, r3, #2
 1484              	.LVL137:
 774:cy_eink_library/pervasive_eink_hardware_driver.c ****                             [(scanlineNumber % PV_EINK_SCAN_TABLE_SIZE)];
 1485              		.loc 1 774 0 discriminator 2
 1486 0184 244A     		ldr	r2, .L164+4
 1487 0186 1340     		ands	r3, r3, r2
 1488              	.LVL138:
 1489 0188 03D5     		bpl	.L141
 1490 018a 013B     		subs	r3, r3, #1
 1491 018c 63F00303 		orn	r3, r3, #3
 1492 0190 0133     		adds	r3, r3, #1
 1493              	.L141:
 1494 0192 224A     		ldr	r2, .L164+8
 1495 0194 02FA83F3 		sxtah	r3, r2, r3
 1496 0198 1B7A     		ldrb	r3, [r3, #8]	@ zero_extendqisi2
 773:cy_eink_library/pervasive_eink_hardware_driver.c ****                             [(scanlineNumber % PV_EINK_SCAN_TABLE_SIZE)];
 1497              		.loc 1 773 0 discriminator 2
 1498 019a 08F80130 		strb	r3, [r8, r1]
 708:cy_eink_library/pervasive_eink_hardware_driver.c ****     {
 1499              		.loc 1 708 0 discriminator 2
 1500 019e 0134     		adds	r4, r4, #1
 1501              	.LVL139:
 1502 01a0 A4B2     		uxth	r4, r4
 1503              	.LVL140:
 1504              	.L130:
 708:cy_eink_library/pervasive_eink_hardware_driver.c ****     {
 1505              		.loc 1 708 0 is_stmt 0 discriminator 1
 1506 01a2 AF2C     		cmp	r4, #175
 1507 01a4 7FF636AF 		bls	.L142
 1508 01a8 0026     		movs	r6, #0
 1509              	.LVL141:
 1510 01aa 27E0     		b	.L143
 1511              	.LVL142:
 1512              	.L144:
 775:cy_eink_library/pervasive_eink_hardware_driver.c ****     }
 776:cy_eink_library/pervasive_eink_hardware_driver.c ****     
 777:cy_eink_library/pervasive_eink_hardware_driver.c ****     /* Perform update operation until the total number of write cycles equals 
 778:cy_eink_library/pervasive_eink_hardware_driver.c ****        the value calculated based on temperature */
 779:cy_eink_library/pervasive_eink_hardware_driver.c ****     for (currentWriteCycle = 0; currentWriteCycle < partialUpdateCycles;
 780:cy_eink_library/pervasive_eink_hardware_driver.c ****          currentWriteCycle++)
 781:cy_eink_library/pervasive_eink_hardware_driver.c ****     {
 782:cy_eink_library/pervasive_eink_hardware_driver.c ****         /* Perform a line by line update */
 783:cy_eink_library/pervasive_eink_hardware_driver.c ****         for (y = 0; y < PV_EINK_VERTICAL_SIZE; y++)
 784:cy_eink_library/pervasive_eink_hardware_driver.c ****         {
 785:cy_eink_library/pervasive_eink_hardware_driver.c ****             /* Send the prepared data to the E-INK display */
 786:cy_eink_library/pervasive_eink_hardware_driver.c ****             Pv_EINK_SendData(PV_EINK_PIXEL_DATA_COMMAND_INDEX,
 787:cy_eink_library/pervasive_eink_hardware_driver.c ****                             (uint8_t*) &bulkDriverPacket[y].lineBuffer,
 1513              		.loc 1 787 0 is_stmt 1 discriminator 3
 1514 01ac C4EBC405 		rsb	r5, r4, r4, lsl #3
 1515 01b0 C4EB0515 		rsb	r5, r4, r5, lsl #4
 1516 01b4 1A4B     		ldr	r3, .L164+12
 1517 01b6 1D44     		add	r5, r5, r3
 786:cy_eink_library/pervasive_eink_hardware_driver.c ****                             (uint8_t*) &bulkDriverPacket[y].lineBuffer,
 1518              		.loc 1 786 0 discriminator 3
 1519 01b8 6F22     		movs	r2, #111
 1520 01ba 2946     		mov	r1, r5
 1521 01bc 0A20     		movs	r0, #10
ARM GAS  C:\Users\codyg\AppData\Local\Temp\ccQipZVL.s 			page 57


 1522 01be FFF7FEFF 		bl	Pv_EINK_SendData
 1523              	.LVL143:
 788:cy_eink_library/pervasive_eink_hardware_driver.c ****                              PV_EINK_DATA_LINE_SIZE);
 789:cy_eink_library/pervasive_eink_hardware_driver.c ****             /* Turn on Output Enable to latch the frame */
 790:cy_eink_library/pervasive_eink_hardware_driver.c ****             Pv_EINK_SendByte(PV_EINK_ENABLE_OE_COMMAND_INDEX,
 1524              		.loc 1 790 0 discriminator 3
 1525 01c2 0721     		movs	r1, #7
 1526 01c4 0220     		movs	r0, #2
 1527 01c6 FFF7FEFF 		bl	Pv_EINK_SendByte
 1528              	.LVL144:
 791:cy_eink_library/pervasive_eink_hardware_driver.c ****                              PV_EINK_ENABLE_OE_COMMAND_DATA);
 792:cy_eink_library/pervasive_eink_hardware_driver.c ****             
 793:cy_eink_library/pervasive_eink_hardware_driver.c ****             /* Calculate the current line under scan */
 794:cy_eink_library/pervasive_eink_hardware_driver.c ****             scanlineNumber = PV_EINK_VERTICAL_SIZE - y;
 795:cy_eink_library/pervasive_eink_hardware_driver.c ****             scanlineNumber--;
 1529              		.loc 1 795 0 discriminator 3
 1530 01ca C4F1AF03 		rsb	r3, r4, #175
 1531              	.LVL145:
 796:cy_eink_library/pervasive_eink_hardware_driver.c ****             
 797:cy_eink_library/pervasive_eink_hardware_driver.c ****             /* Re-initialize the scan line (extra step for partial update) */
 798:cy_eink_library/pervasive_eink_hardware_driver.c ****             bulkDriverPacket[y].lineDataBySize.scan[(scanlineNumber 
 799:cy_eink_library/pervasive_eink_hardware_driver.c ****                                                      >> PV_EINK_PIXEL_SIZE)]
 1532              		.loc 1 799 0 discriminator 3
 1533 01ce 43F38D03 		sbfx	r3, r3, #2, #14
 1534              	.LVL146:
 800:cy_eink_library/pervasive_eink_hardware_driver.c ****                                                      = PV_EINK_SCAN_BYTE_INIT;
 1535              		.loc 1 800 0 discriminator 3
 1536 01d2 2B44     		add	r3, r3, r5
 1537 01d4 0022     		movs	r2, #0
 1538 01d6 83F82220 		strb	r2, [r3, #34]
 801:cy_eink_library/pervasive_eink_hardware_driver.c **** 
 802:cy_eink_library/pervasive_eink_hardware_driver.c ****             Pv_EINK_SendData(PV_EINK_PIXEL_DATA_COMMAND_INDEX,
 1539              		.loc 1 802 0 discriminator 3
 1540 01da 6F22     		movs	r2, #111
 1541 01dc 2946     		mov	r1, r5
 1542 01de 0A20     		movs	r0, #10
 1543 01e0 FFF7FEFF 		bl	Pv_EINK_SendData
 1544              	.LVL147:
 803:cy_eink_library/pervasive_eink_hardware_driver.c ****                             (uint8_t*) &bulkDriverPacket[y].lineBuffer,
 804:cy_eink_library/pervasive_eink_hardware_driver.c ****                              PV_EINK_DATA_LINE_SIZE);
 805:cy_eink_library/pervasive_eink_hardware_driver.c ****             Pv_EINK_SendByte(PV_EINK_ENABLE_OE_COMMAND_INDEX,
 1545              		.loc 1 805 0 discriminator 3
 1546 01e4 0721     		movs	r1, #7
 1547 01e6 0220     		movs	r0, #2
 1548 01e8 FFF7FEFF 		bl	Pv_EINK_SendByte
 1549              	.LVL148:
 783:cy_eink_library/pervasive_eink_hardware_driver.c ****         {
 1550              		.loc 1 783 0 discriminator 3
 1551 01ec 0134     		adds	r4, r4, #1
 1552              	.LVL149:
 1553 01ee A4B2     		uxth	r4, r4
 1554              	.LVL150:
 1555 01f0 00E0     		b	.L145
 1556              	.L162:
 1557 01f2 0024     		movs	r4, #0
 1558              	.LVL151:
 1559              	.L145:
ARM GAS  C:\Users\codyg\AppData\Local\Temp\ccQipZVL.s 			page 58


 783:cy_eink_library/pervasive_eink_hardware_driver.c ****         {
 1560              		.loc 1 783 0 is_stmt 0 discriminator 1
 1561 01f4 AF2C     		cmp	r4, #175
 1562 01f6 D9D9     		bls	.L144
 780:cy_eink_library/pervasive_eink_hardware_driver.c ****     {
 1563              		.loc 1 780 0 is_stmt 1
 1564 01f8 0136     		adds	r6, r6, #1
 1565              	.LVL152:
 1566 01fa B6B2     		uxth	r6, r6
 1567              	.LVL153:
 1568              	.L143:
 779:cy_eink_library/pervasive_eink_hardware_driver.c ****          currentWriteCycle++)
 1569              		.loc 1 779 0 discriminator 1
 1570 01fc 054B     		ldr	r3, .L164
 1571 01fe B3F87E30 		ldrh	r3, [r3, #126]
 1572 0202 9E42     		cmp	r6, r3
 1573 0204 F5D3     		bcc	.L162
 806:cy_eink_library/pervasive_eink_hardware_driver.c ****                              PV_EINK_ENABLE_OE_COMMAND_DATA);
 807:cy_eink_library/pervasive_eink_hardware_driver.c ****         }
 808:cy_eink_library/pervasive_eink_hardware_driver.c ****     }
 809:cy_eink_library/pervasive_eink_hardware_driver.c ****  
 810:cy_eink_library/pervasive_eink_hardware_driver.c ****     /* Re-adjust Vcom level */
 811:cy_eink_library/pervasive_eink_hardware_driver.c ****     Pv_EINK_SendByte(PV_EINK_VCOM1_LEVEL_COMMAND_INDEX, 
 1574              		.loc 1 811 0
 1575 0206 C221     		movs	r1, #194
 1576 0208 0920     		movs	r0, #9
 1577 020a FFF7FEFF 		bl	Pv_EINK_SendByte
 1578              	.LVL154:
 1579 020e BDE8F087 		pop	{r4, r5, r6, r7, r8, r9, r10, pc}
 1580              	.LVL155:
 1581              	.L165:
 1582 0212 00BF     		.align	2
 1583              	.L164:
 1584 0214 00000000 		.word	.LANCHOR0
 1585 0218 03000080 		.word	-2147483645
 1586 021c 00000000 		.word	.LANCHOR1
 1587 0220 00000000 		.word	bulkDriverPacket
 1588              		.cfi_endproc
 1589              	.LFE524:
 1590              		.size	Pv_EINK_PartialStageHandler, .-Pv_EINK_PartialStageHandler
 1591              		.section	.text.Pv_EINK_NothingFrame,"ax",%progbits
 1592              		.align	2
 1593              		.global	Pv_EINK_NothingFrame
 1594              		.thumb
 1595              		.thumb_func
 1596              		.type	Pv_EINK_NothingFrame, %function
 1597              	Pv_EINK_NothingFrame:
 1598              	.LFB525:
 812:cy_eink_library/pervasive_eink_hardware_driver.c ****                      PV_EINK_VCOM1_LEVEL_COMMAND_DATA);
 813:cy_eink_library/pervasive_eink_hardware_driver.c **** }
 814:cy_eink_library/pervasive_eink_hardware_driver.c **** 
 815:cy_eink_library/pervasive_eink_hardware_driver.c **** /*******************************************************************************
 816:cy_eink_library/pervasive_eink_hardware_driver.c **** * Function Name:  void Pv_EINK_NothingFrame(void)
 817:cy_eink_library/pervasive_eink_hardware_driver.c **** ********************************************************************************
 818:cy_eink_library/pervasive_eink_hardware_driver.c **** *
 819:cy_eink_library/pervasive_eink_hardware_driver.c **** * Summary: Write a "Nothing Frame" to driver. For a "Nothing Frame",
 820:cy_eink_library/pervasive_eink_hardware_driver.c **** * all pixel data D(x,y) are "01".
ARM GAS  C:\Users\codyg\AppData\Local\Temp\ccQipZVL.s 			page 59


 821:cy_eink_library/pervasive_eink_hardware_driver.c **** * For more details, please refer to the driver G2 document Section 6.
 822:cy_eink_library/pervasive_eink_hardware_driver.c **** *
 823:cy_eink_library/pervasive_eink_hardware_driver.c **** * Parameters:
 824:cy_eink_library/pervasive_eink_hardware_driver.c **** *  None
 825:cy_eink_library/pervasive_eink_hardware_driver.c **** *
 826:cy_eink_library/pervasive_eink_hardware_driver.c **** * Return:
 827:cy_eink_library/pervasive_eink_hardware_driver.c **** *  None
 828:cy_eink_library/pervasive_eink_hardware_driver.c **** *
 829:cy_eink_library/pervasive_eink_hardware_driver.c **** * Side Effects:
 830:cy_eink_library/pervasive_eink_hardware_driver.c **** *  None
 831:cy_eink_library/pervasive_eink_hardware_driver.c **** *******************************************************************************/
 832:cy_eink_library/pervasive_eink_hardware_driver.c **** void Pv_EINK_NothingFrame(void)
 833:cy_eink_library/pervasive_eink_hardware_driver.c **** {
 1599              		.loc 1 833 0
 1600              		.cfi_startproc
 1601              		@ args = 0, pretend = 0, frame = 0
 1602              		@ frame_needed = 0, uses_anonymous_args = 0
 1603              	.LVL156:
 834:cy_eink_library/pervasive_eink_hardware_driver.c ****     /* Counter variable for data line bytes */
 835:cy_eink_library/pervasive_eink_hardware_driver.c ****     uint16_t    byteCounter;
 836:cy_eink_library/pervasive_eink_hardware_driver.c ****     
 837:cy_eink_library/pervasive_eink_hardware_driver.c ****     /* Set all Even and Odd data bytes as "Nothing" bytes */
 838:cy_eink_library/pervasive_eink_hardware_driver.c ****     for (byteCounter = 0; byteCounter < PV_EINK_HORIZONTAL_SIZE; byteCounter++)
 1604              		.loc 1 838 0
 1605 0000 0023     		movs	r3, #0
 1606 0002 07E0     		b	.L167
 1607              	.LVL157:
 1608              	.L168:
 839:cy_eink_library/pervasive_eink_hardware_driver.c ****     {
 840:cy_eink_library/pervasive_eink_hardware_driver.c ****         dataLineEven[byteCounter] = PV_EINK_NOTHING;
 1609              		.loc 1 840 0 discriminator 3
 1610 0004 1349     		ldr	r1, .L172
 1611 0006 086F     		ldr	r0, [r1, #112]
 1612 0008 5522     		movs	r2, #85
 1613 000a C254     		strb	r2, [r0, r3]
 841:cy_eink_library/pervasive_eink_hardware_driver.c ****         dataLineOdd[byteCounter] = PV_EINK_NOTHING;
 1614              		.loc 1 841 0 discriminator 3
 1615 000c 496F     		ldr	r1, [r1, #116]
 1616 000e CA54     		strb	r2, [r1, r3]
 838:cy_eink_library/pervasive_eink_hardware_driver.c ****     {
 1617              		.loc 1 838 0 discriminator 3
 1618 0010 0133     		adds	r3, r3, #1
 1619              	.LVL158:
 1620 0012 9BB2     		uxth	r3, r3
 1621              	.LVL159:
 1622              	.L167:
 838:cy_eink_library/pervasive_eink_hardware_driver.c ****     {
 1623              		.loc 1 838 0 is_stmt 0 discriminator 1
 1624 0014 202B     		cmp	r3, #32
 1625 0016 F5D9     		bls	.L168
 833:cy_eink_library/pervasive_eink_hardware_driver.c ****     /* Counter variable for data line bytes */
 1626              		.loc 1 833 0 is_stmt 1
 1627 0018 70B5     		push	{r4, r5, r6, lr}
 1628              		.cfi_def_cfa_offset 16
 1629              		.cfi_offset 4, -16
 1630              		.cfi_offset 5, -12
 1631              		.cfi_offset 6, -8
ARM GAS  C:\Users\codyg\AppData\Local\Temp\ccQipZVL.s 			page 60


 1632              		.cfi_offset 14, -4
 1633 001a 0024     		movs	r4, #0
 1634 001c 16E0     		b	.L169
 1635              	.LVL160:
 1636              	.L170:
 842:cy_eink_library/pervasive_eink_hardware_driver.c ****     }
 843:cy_eink_library/pervasive_eink_hardware_driver.c ****     /* Send the same horizontal data for all vertical lines */
 844:cy_eink_library/pervasive_eink_hardware_driver.c ****     for (byteCounter = 0; byteCounter < PV_EINK_VERTICAL_SIZE; byteCounter++)
 845:cy_eink_library/pervasive_eink_hardware_driver.c ****     {
 846:cy_eink_library/pervasive_eink_hardware_driver.c ****         /* Scan byte shift per data line */
 847:cy_eink_library/pervasive_eink_hardware_driver.c ****         dataLineScan[(byteCounter >> PV_EINK_PIXEL_SIZE)] = scanTable
 1637              		.loc 1 847 0 discriminator 3
 1638 001e A608     		lsrs	r6, r4, #2
 1639 0020 0C4D     		ldr	r5, .L172
 1640 0022 AA6F     		ldr	r2, [r5, #120]
 848:cy_eink_library/pervasive_eink_hardware_driver.c ****                             [(byteCounter % PV_EINK_SCAN_TABLE_SIZE)];
 1641              		.loc 1 848 0 discriminator 3
 1642 0024 04F00303 		and	r3, r4, #3
 1643 0028 0B49     		ldr	r1, .L172+4
 1644 002a 0B44     		add	r3, r3, r1
 1645 002c 1B7A     		ldrb	r3, [r3, #8]	@ zero_extendqisi2
 847:cy_eink_library/pervasive_eink_hardware_driver.c ****                             [(byteCounter % PV_EINK_SCAN_TABLE_SIZE)];
 1646              		.loc 1 847 0 discriminator 3
 1647 002e 9355     		strb	r3, [r2, r6]
 849:cy_eink_library/pervasive_eink_hardware_driver.c ****         
 850:cy_eink_library/pervasive_eink_hardware_driver.c ****         /* Send the prepared data to the E-INK display */
 851:cy_eink_library/pervasive_eink_hardware_driver.c ****         Pv_EINK_SendData(PV_EINK_PIXEL_DATA_COMMAND_INDEX,
 1648              		.loc 1 851 0 discriminator 3
 1649 0030 6F22     		movs	r2, #111
 1650 0032 2946     		mov	r1, r5
 1651 0034 0A20     		movs	r0, #10
 1652 0036 FFF7FEFF 		bl	Pv_EINK_SendData
 1653              	.LVL161:
 852:cy_eink_library/pervasive_eink_hardware_driver.c ****                         (uint8_t*) &driverPacket.lineBuffer,
 853:cy_eink_library/pervasive_eink_hardware_driver.c ****                          PV_EINK_DATA_LINE_SIZE);
 854:cy_eink_library/pervasive_eink_hardware_driver.c ****         /* Turn on Output Enable to latch the frame */
 855:cy_eink_library/pervasive_eink_hardware_driver.c ****         Pv_EINK_SendByte(PV_EINK_ENABLE_OE_COMMAND_INDEX, 
 1654              		.loc 1 855 0 discriminator 3
 1655 003a 0721     		movs	r1, #7
 1656 003c 0220     		movs	r0, #2
 1657 003e FFF7FEFF 		bl	Pv_EINK_SendByte
 1658              	.LVL162:
 856:cy_eink_library/pervasive_eink_hardware_driver.c ****                          PV_EINK_ENABLE_OE_COMMAND_DATA);
 857:cy_eink_library/pervasive_eink_hardware_driver.c ****         
 858:cy_eink_library/pervasive_eink_hardware_driver.c ****         /* Initialize the next scan byte */
 859:cy_eink_library/pervasive_eink_hardware_driver.c ****         dataLineScan[(byteCounter >> PV_EINK_PIXEL_SIZE)] = 0u;
 1659              		.loc 1 859 0 discriminator 3
 1660 0042 AB6F     		ldr	r3, [r5, #120]
 1661 0044 0022     		movs	r2, #0
 1662 0046 9A55     		strb	r2, [r3, r6]
 844:cy_eink_library/pervasive_eink_hardware_driver.c ****     {
 1663              		.loc 1 844 0 discriminator 3
 1664 0048 0134     		adds	r4, r4, #1
 1665              	.LVL163:
 1666 004a A4B2     		uxth	r4, r4
 1667              	.LVL164:
 1668              	.L169:
ARM GAS  C:\Users\codyg\AppData\Local\Temp\ccQipZVL.s 			page 61


 844:cy_eink_library/pervasive_eink_hardware_driver.c ****     {
 1669              		.loc 1 844 0 is_stmt 0 discriminator 1
 1670 004c AF2C     		cmp	r4, #175
 1671 004e E6D9     		bls	.L170
 860:cy_eink_library/pervasive_eink_hardware_driver.c ****     }
 861:cy_eink_library/pervasive_eink_hardware_driver.c **** }
 1672              		.loc 1 861 0 is_stmt 1
 1673 0050 70BD     		pop	{r4, r5, r6, pc}
 1674              	.LVL165:
 1675              	.L173:
 1676 0052 00BF     		.align	2
 1677              	.L172:
 1678 0054 00000000 		.word	.LANCHOR0
 1679 0058 00000000 		.word	.LANCHOR1
 1680              		.cfi_endproc
 1681              	.LFE525:
 1682              		.size	Pv_EINK_NothingFrame, .-Pv_EINK_NothingFrame
 1683              		.section	.text.Pv_EINK_DummyLine,"ax",%progbits
 1684              		.align	2
 1685              		.global	Pv_EINK_DummyLine
 1686              		.thumb
 1687              		.thumb_func
 1688              		.type	Pv_EINK_DummyLine, %function
 1689              	Pv_EINK_DummyLine:
 1690              	.LFB526:
 862:cy_eink_library/pervasive_eink_hardware_driver.c **** 
 863:cy_eink_library/pervasive_eink_hardware_driver.c **** /*******************************************************************************
 864:cy_eink_library/pervasive_eink_hardware_driver.c **** * Function Name:  void Pv_EINK_DummyLine(void)
 865:cy_eink_library/pervasive_eink_hardware_driver.c **** ********************************************************************************
 866:cy_eink_library/pervasive_eink_hardware_driver.c **** *
 867:cy_eink_library/pervasive_eink_hardware_driver.c **** * Summary: Write a "Dummy Line" to driver. For a "Dummy Line" , all pixel data
 868:cy_eink_library/pervasive_eink_hardware_driver.c **** * are "00". For more details, please refer to the driver G2 document Section 6.
 869:cy_eink_library/pervasive_eink_hardware_driver.c **** *
 870:cy_eink_library/pervasive_eink_hardware_driver.c **** * Parameters:
 871:cy_eink_library/pervasive_eink_hardware_driver.c **** *  None
 872:cy_eink_library/pervasive_eink_hardware_driver.c **** *
 873:cy_eink_library/pervasive_eink_hardware_driver.c **** * Return:
 874:cy_eink_library/pervasive_eink_hardware_driver.c **** *  None
 875:cy_eink_library/pervasive_eink_hardware_driver.c **** *
 876:cy_eink_library/pervasive_eink_hardware_driver.c **** * Side Effects:
 877:cy_eink_library/pervasive_eink_hardware_driver.c **** *  None
 878:cy_eink_library/pervasive_eink_hardware_driver.c **** *******************************************************************************/
 879:cy_eink_library/pervasive_eink_hardware_driver.c **** void Pv_EINK_DummyLine(void)
 880:cy_eink_library/pervasive_eink_hardware_driver.c **** {
 1691              		.loc 1 880 0
 1692              		.cfi_startproc
 1693              		@ args = 0, pretend = 0, frame = 0
 1694              		@ frame_needed = 0, uses_anonymous_args = 0
 1695 0000 08B5     		push	{r3, lr}
 1696              		.cfi_def_cfa_offset 8
 1697              		.cfi_offset 3, -8
 1698              		.cfi_offset 14, -4
 1699              	.LVL166:
 881:cy_eink_library/pervasive_eink_hardware_driver.c ****     /* Counter variable for data line bytes */
 882:cy_eink_library/pervasive_eink_hardware_driver.c ****     uint8_t byteCounter;
 883:cy_eink_library/pervasive_eink_hardware_driver.c ****     
 884:cy_eink_library/pervasive_eink_hardware_driver.c ****     /* Create a data line containing dummy bytes */
ARM GAS  C:\Users\codyg\AppData\Local\Temp\ccQipZVL.s 			page 62


 885:cy_eink_library/pervasive_eink_hardware_driver.c ****     for (byteCounter = 0; byteCounter < (PV_EINK_VERTICAL_SIZE 
 1700              		.loc 1 885 0
 1701 0002 0023     		movs	r3, #0
 1702 0004 04E0     		b	.L175
 1703              	.LVL167:
 1704              	.L176:
 886:cy_eink_library/pervasive_eink_hardware_driver.c ****                                         / CY_EINK_BYTE_SIZE);
 887:cy_eink_library/pervasive_eink_hardware_driver.c ****          byteCounter++)
 888:cy_eink_library/pervasive_eink_hardware_driver.c ****     {
 889:cy_eink_library/pervasive_eink_hardware_driver.c ****         driverPacket.lineBuffer[byteCounter] = PV_EINK_DUMMY_BYTE;
 1705              		.loc 1 889 0
 1706 0006 0021     		movs	r1, #0
 1707 0008 094A     		ldr	r2, .L178
 1708 000a D154     		strb	r1, [r2, r3]
 887:cy_eink_library/pervasive_eink_hardware_driver.c ****     {
 1709              		.loc 1 887 0
 1710 000c 0133     		adds	r3, r3, #1
 1711              	.LVL168:
 1712 000e DBB2     		uxtb	r3, r3
 1713              	.LVL169:
 1714              	.L175:
 885:cy_eink_library/pervasive_eink_hardware_driver.c ****                                         / CY_EINK_BYTE_SIZE);
 1715              		.loc 1 885 0 discriminator 1
 1716 0010 152B     		cmp	r3, #21
 1717 0012 F8D9     		bls	.L176
 890:cy_eink_library/pervasive_eink_hardware_driver.c ****     }
 891:cy_eink_library/pervasive_eink_hardware_driver.c ****     
 892:cy_eink_library/pervasive_eink_hardware_driver.c ****     /* Set charge pump voltage level to reduce voltage shift */
 893:cy_eink_library/pervasive_eink_hardware_driver.c ****     Pv_EINK_SendByte(PV_EINK_PWR2_SETTING_COMMAND_INDEX, 
 1718              		.loc 1 893 0
 1719 0014 0021     		movs	r1, #0
 1720 0016 0420     		movs	r0, #4
 1721 0018 FFF7FEFF 		bl	Pv_EINK_SendByte
 1722              	.LVL170:
 894:cy_eink_library/pervasive_eink_hardware_driver.c ****                      PV_EINK_VOLTAGE_LEVEL);
 895:cy_eink_library/pervasive_eink_hardware_driver.c ****     /* Send the prepared data to the E-INK display */
 896:cy_eink_library/pervasive_eink_hardware_driver.c ****     Pv_EINK_SendData(PV_EINK_PIXEL_DATA_COMMAND_INDEX,
 1723              		.loc 1 896 0
 1724 001c 6F22     		movs	r2, #111
 1725 001e 0449     		ldr	r1, .L178
 1726 0020 0A20     		movs	r0, #10
 1727 0022 FFF7FEFF 		bl	Pv_EINK_SendData
 1728              	.LVL171:
 897:cy_eink_library/pervasive_eink_hardware_driver.c ****                     (uint8_t*) &driverPacket.lineBuffer, 
 898:cy_eink_library/pervasive_eink_hardware_driver.c ****                      PV_EINK_DATA_LINE_SIZE);
 899:cy_eink_library/pervasive_eink_hardware_driver.c ****     /* Turn on Output Enable to latch the frame */
 900:cy_eink_library/pervasive_eink_hardware_driver.c ****     Pv_EINK_SendByte(PV_EINK_ENABLE_OE_COMMAND_INDEX, 
 1729              		.loc 1 900 0
 1730 0026 0721     		movs	r1, #7
 1731 0028 0220     		movs	r0, #2
 1732 002a FFF7FEFF 		bl	Pv_EINK_SendByte
 1733              	.LVL172:
 1734 002e 08BD     		pop	{r3, pc}
 1735              	.L179:
 1736              		.align	2
 1737              	.L178:
 1738 0030 00000000 		.word	.LANCHOR0
ARM GAS  C:\Users\codyg\AppData\Local\Temp\ccQipZVL.s 			page 63


 1739              		.cfi_endproc
 1740              	.LFE526:
 1741              		.size	Pv_EINK_DummyLine, .-Pv_EINK_DummyLine
 1742              		.section	.text.Pv_EINK_HardwarePowerOn,"ax",%progbits
 1743              		.align	2
 1744              		.global	Pv_EINK_HardwarePowerOn
 1745              		.thumb
 1746              		.thumb_func
 1747              		.type	Pv_EINK_HardwarePowerOn, %function
 1748              	Pv_EINK_HardwarePowerOn:
 1749              	.LFB527:
 901:cy_eink_library/pervasive_eink_hardware_driver.c ****                      PV_EINK_ENABLE_OE_COMMAND_DATA);
 902:cy_eink_library/pervasive_eink_hardware_driver.c **** }
 903:cy_eink_library/pervasive_eink_hardware_driver.c **** 
 904:cy_eink_library/pervasive_eink_hardware_driver.c **** /*******************************************************************************
 905:cy_eink_library/pervasive_eink_hardware_driver.c **** * Function Name: pv_eink_status_t Pv_EINK_HardwarePowerOn()
 906:cy_eink_library/pervasive_eink_hardware_driver.c **** ********************************************************************************
 907:cy_eink_library/pervasive_eink_hardware_driver.c **** *
 908:cy_eink_library/pervasive_eink_hardware_driver.c **** * Summary: Power on E-INK Driver. For detailed flow and description, refer to 
 909:cy_eink_library/pervasive_eink_hardware_driver.c **** * the driver G2 document Section 3.
 910:cy_eink_library/pervasive_eink_hardware_driver.c **** *
 911:cy_eink_library/pervasive_eink_hardware_driver.c **** * Parameters:
 912:cy_eink_library/pervasive_eink_hardware_driver.c **** *  None
 913:cy_eink_library/pervasive_eink_hardware_driver.c **** *
 914:cy_eink_library/pervasive_eink_hardware_driver.c **** * Return:
 915:cy_eink_library/pervasive_eink_hardware_driver.c **** *  pv_eink_status_t: Status of the power on operation
 916:cy_eink_library/pervasive_eink_hardware_driver.c **** *
 917:cy_eink_library/pervasive_eink_hardware_driver.c **** * Side Effects:
 918:cy_eink_library/pervasive_eink_hardware_driver.c **** *  None
 919:cy_eink_library/pervasive_eink_hardware_driver.c **** *******************************************************************************/
 920:cy_eink_library/pervasive_eink_hardware_driver.c **** pv_eink_status_t Pv_EINK_HardwarePowerOn(void)
 921:cy_eink_library/pervasive_eink_hardware_driver.c **** {
 1750              		.loc 1 921 0
 1751              		.cfi_startproc
 1752              		@ args = 0, pretend = 0, frame = 0
 1753              		@ frame_needed = 0, uses_anonymous_args = 0
 1754 0000 70B5     		push	{r4, r5, r6, lr}
 1755              		.cfi_def_cfa_offset 16
 1756              		.cfi_offset 4, -16
 1757              		.cfi_offset 5, -12
 1758              		.cfi_offset 6, -8
 1759              		.cfi_offset 14, -4
 1760              	.LVL173:
 1761              	.LBB86:
 1762              	.LBB87:
 811:Generated_Source\PSoC6\pdl\drivers/peripheral/gpio/cy_gpio.h **** }
 1763              		.loc 2 811 0
 1764 0002 0F4C     		ldr	r4, .L182
 1765 0004 1023     		movs	r3, #16
 1766 0006 A360     		str	r3, [r4, #8]
 1767              	.LVL174:
 1768              	.LBE87:
 1769              	.LBE86:
 922:cy_eink_library/pervasive_eink_hardware_driver.c ****     /* Enable the load switch connected to E-INK display's Vcc, and wait till
 923:cy_eink_library/pervasive_eink_hardware_driver.c ****        the voltage ramps up to the level required for proper operation of 
 924:cy_eink_library/pervasive_eink_hardware_driver.c ****        E-INK */
 925:cy_eink_library/pervasive_eink_hardware_driver.c ****     CY_EINK_TurnOnVcc;
ARM GAS  C:\Users\codyg\AppData\Local\Temp\ccQipZVL.s 			page 64


 926:cy_eink_library/pervasive_eink_hardware_driver.c ****     Cy_EINK_Delay(PV_EINK_PWR_DELAY);
 1770              		.loc 1 926 0
 1771 0008 0E4D     		ldr	r5, .L182+4
 1772 000a 2B68     		ldr	r3, [r5]
 1773 000c 1420     		movs	r0, #20
 1774 000e 9847     		blx	r3
 1775              	.LVL175:
 927:cy_eink_library/pervasive_eink_hardware_driver.c ****     
 928:cy_eink_library/pervasive_eink_hardware_driver.c ****     /* Attach PSoC's SPI hardware to E-INK driver */
 929:cy_eink_library/pervasive_eink_hardware_driver.c ****     Cy_EINK_AttachSPI();
 1776              		.loc 1 929 0
 1777 0010 FFF7FEFF 		bl	Cy_EINK_AttachSPI
 1778              	.LVL176:
 1779              	.LBB88:
 1780              	.LBB89:
 811:Generated_Source\PSoC6\pdl\drivers/peripheral/gpio/cy_gpio.h **** }
 1781              		.loc 2 811 0
 1782 0014 0822     		movs	r2, #8
 1783 0016 0C4B     		ldr	r3, .L182+8
 1784 0018 9A60     		str	r2, [r3, #8]
 1785              	.LVL177:
 1786              	.LBE89:
 1787              	.LBE88:
 1788              	.LBB90:
 1789              	.LBB91:
 1790 001a 4023     		movs	r3, #64
 1791 001c A360     		str	r3, [r4, #8]
 1792              	.LVL178:
 1793              	.LBE91:
 1794              	.LBE90:
 1795              	.LBB92:
 1796              	.LBB93:
 1797 001e 0426     		movs	r6, #4
 1798 0020 A660     		str	r6, [r4, #8]
 1799              	.LVL179:
 1800              	.LBE93:
 1801              	.LBE92:
 930:cy_eink_library/pervasive_eink_hardware_driver.c ****     /* Push the chip select, and border pins to HIGH */
 931:cy_eink_library/pervasive_eink_hardware_driver.c ****     CY_EINK_CsHigh;
 932:cy_eink_library/pervasive_eink_hardware_driver.c ****     CY_EINK_BorderHigh;
 933:cy_eink_library/pervasive_eink_hardware_driver.c ****     
 934:cy_eink_library/pervasive_eink_hardware_driver.c ****     /* Create two pulses on the reset line to properly reset the E-INK driver */
 935:cy_eink_library/pervasive_eink_hardware_driver.c ****     CY_EINK_RstHigh;
 936:cy_eink_library/pervasive_eink_hardware_driver.c ****     Cy_EINK_Delay(PV_EINK_PIN_DELAY);
 1802              		.loc 1 936 0
 1803 0022 2B68     		ldr	r3, [r5]
 1804 0024 0A20     		movs	r0, #10
 1805 0026 9847     		blx	r3
 1806              	.LVL180:
 1807              	.LBB94:
 1808              	.LBB95:
 1809              		.loc 2 841 0
 1810 0028 6660     		str	r6, [r4, #4]
 1811              	.LVL181:
 1812              	.LBE95:
 1813              	.LBE94:
 937:cy_eink_library/pervasive_eink_hardware_driver.c ****     CY_EINK_RstLow;
ARM GAS  C:\Users\codyg\AppData\Local\Temp\ccQipZVL.s 			page 65


 938:cy_eink_library/pervasive_eink_hardware_driver.c ****     Cy_EINK_Delay(PV_EINK_PIN_DELAY);
 1814              		.loc 1 938 0
 1815 002a 2B68     		ldr	r3, [r5]
 1816 002c 0A20     		movs	r0, #10
 1817 002e 9847     		blx	r3
 1818              	.LVL182:
 1819              	.LBB96:
 1820              	.LBB97:
 811:Generated_Source\PSoC6\pdl\drivers/peripheral/gpio/cy_gpio.h **** }
 1821              		.loc 2 811 0
 1822 0030 A660     		str	r6, [r4, #8]
 1823              	.LVL183:
 1824              	.LBE97:
 1825              	.LBE96:
 939:cy_eink_library/pervasive_eink_hardware_driver.c ****     CY_EINK_RstHigh;
 940:cy_eink_library/pervasive_eink_hardware_driver.c ****     Cy_EINK_Delay(PV_EINK_PIN_DELAY);
 1826              		.loc 1 940 0
 1827 0032 2B68     		ldr	r3, [r5]
 1828 0034 0A20     		movs	r0, #10
 1829 0036 9847     		blx	r3
 1830              	.LVL184:
 941:cy_eink_library/pervasive_eink_hardware_driver.c ****     
 942:cy_eink_library/pervasive_eink_hardware_driver.c ****     /* Initialize E-INK Driver */
 943:cy_eink_library/pervasive_eink_hardware_driver.c ****     return(Pv_EINK_InitDriver());
 1831              		.loc 1 943 0
 1832 0038 FFF7FEFF 		bl	Pv_EINK_InitDriver
 1833              	.LVL185:
 944:cy_eink_library/pervasive_eink_hardware_driver.c **** }
 1834              		.loc 1 944 0
 1835 003c 70BD     		pop	{r4, r5, r6, pc}
 1836              	.L183:
 1837 003e 00BF     		.align	2
 1838              	.L182:
 1839 0040 80023240 		.word	1077019264
 1840 0044 00000000 		.word	Cy_EINK_Delay
 1841 0048 00063240 		.word	1077020160
 1842              		.cfi_endproc
 1843              	.LFE527:
 1844              		.size	Pv_EINK_HardwarePowerOn, .-Pv_EINK_HardwarePowerOn
 1845              		.section	.text.Pv_EINK_HardwarePowerOff,"ax",%progbits
 1846              		.align	2
 1847              		.global	Pv_EINK_HardwarePowerOff
 1848              		.thumb
 1849              		.thumb_func
 1850              		.type	Pv_EINK_HardwarePowerOff, %function
 1851              	Pv_EINK_HardwarePowerOff:
 1852              	.LFB528:
 945:cy_eink_library/pervasive_eink_hardware_driver.c **** 
 946:cy_eink_library/pervasive_eink_hardware_driver.c **** /*******************************************************************************
 947:cy_eink_library/pervasive_eink_hardware_driver.c **** * Function Name:  pv_eink_status_t Pv_EINK_HardwarePowerOff(void)
 948:cy_eink_library/pervasive_eink_hardware_driver.c **** ********************************************************************************
 949:cy_eink_library/pervasive_eink_hardware_driver.c **** *
 950:cy_eink_library/pervasive_eink_hardware_driver.c **** * Summary: Safely power off the E-INK display. For detailed flow and description
 951:cy_eink_library/pervasive_eink_hardware_driver.c **** * refer to the driver G2 document Section 6.
 952:cy_eink_library/pervasive_eink_hardware_driver.c **** *
 953:cy_eink_library/pervasive_eink_hardware_driver.c **** * Parameters:
 954:cy_eink_library/pervasive_eink_hardware_driver.c **** *  None
ARM GAS  C:\Users\codyg\AppData\Local\Temp\ccQipZVL.s 			page 66


 955:cy_eink_library/pervasive_eink_hardware_driver.c **** *
 956:cy_eink_library/pervasive_eink_hardware_driver.c **** * Return:
 957:cy_eink_library/pervasive_eink_hardware_driver.c **** *  pv_eink_status_t : Status of the power off operation
 958:cy_eink_library/pervasive_eink_hardware_driver.c **** *
 959:cy_eink_library/pervasive_eink_hardware_driver.c **** * Side Effects:
 960:cy_eink_library/pervasive_eink_hardware_driver.c **** *  None
 961:cy_eink_library/pervasive_eink_hardware_driver.c **** *******************************************************************************/
 962:cy_eink_library/pervasive_eink_hardware_driver.c **** pv_eink_status_t Pv_EINK_HardwarePowerOff(void)
 963:cy_eink_library/pervasive_eink_hardware_driver.c **** {
 1853              		.loc 1 963 0
 1854              		.cfi_startproc
 1855              		@ args = 0, pretend = 0, frame = 0
 1856              		@ frame_needed = 0, uses_anonymous_args = 0
 1857 0000 70B5     		push	{r4, r5, r6, lr}
 1858              		.cfi_def_cfa_offset 16
 1859              		.cfi_offset 4, -16
 1860              		.cfi_offset 5, -12
 1861              		.cfi_offset 6, -8
 1862              		.cfi_offset 14, -4
 964:cy_eink_library/pervasive_eink_hardware_driver.c ****     /* Send a "Nothing Frame", followed by a "Dummy Line" to the E-INK driver */
 965:cy_eink_library/pervasive_eink_hardware_driver.c ****     Pv_EINK_NothingFrame();
 1863              		.loc 1 965 0
 1864 0002 FFF7FEFF 		bl	Pv_EINK_NothingFrame
 1865              	.LVL186:
 966:cy_eink_library/pervasive_eink_hardware_driver.c ****     Pv_EINK_DummyLine();
 1866              		.loc 1 966 0
 1867 0006 FFF7FEFF 		bl	Pv_EINK_DummyLine
 1868              	.LVL187:
 967:cy_eink_library/pervasive_eink_hardware_driver.c ****     
 968:cy_eink_library/pervasive_eink_hardware_driver.c ****     /* After E-INK updates, the border color may degrade to a gray level that is 
 969:cy_eink_library/pervasive_eink_hardware_driver.c ****        not as white as the active area. Toggle the Border pin to avoid this 
 970:cy_eink_library/pervasive_eink_hardware_driver.c ****        phenomenon. */
 971:cy_eink_library/pervasive_eink_hardware_driver.c ****     Cy_EINK_Delay(PV_EINK_DUMMY_LINE_DELAY);
 1869              		.loc 1 971 0
 1870 000a 264E     		ldr	r6, .L188
 1871 000c 3368     		ldr	r3, [r6]
 1872 000e 1E20     		movs	r0, #30
 1873 0010 9847     		blx	r3
 1874              	.LVL188:
 1875              	.LBB98:
 1876              	.LBB99:
 1877              		.loc 2 841 0
 1878 0012 254C     		ldr	r4, .L188+4
 1879 0014 4025     		movs	r5, #64
 1880 0016 6560     		str	r5, [r4, #4]
 1881              	.LVL189:
 1882              	.LBE99:
 1883              	.LBE98:
 972:cy_eink_library/pervasive_eink_hardware_driver.c ****     CY_EINK_BorderLow;
 973:cy_eink_library/pervasive_eink_hardware_driver.c ****     Cy_EINK_Delay(PV_EINK_BOARDER_DELAY);
 1884              		.loc 1 973 0
 1885 0018 3368     		ldr	r3, [r6]
 1886 001a 3220     		movs	r0, #50
 1887 001c 9847     		blx	r3
 1888              	.LVL190:
 1889              	.LBB100:
 1890              	.LBB101:
ARM GAS  C:\Users\codyg\AppData\Local\Temp\ccQipZVL.s 			page 67


 811:Generated_Source\PSoC6\pdl\drivers/peripheral/gpio/cy_gpio.h **** }
 1891              		.loc 2 811 0
 1892 001e A560     		str	r5, [r4, #8]
 1893              	.LVL191:
 1894              	.LBE101:
 1895              	.LBE100:
 974:cy_eink_library/pervasive_eink_hardware_driver.c ****     CY_EINK_BorderHigh;
 975:cy_eink_library/pervasive_eink_hardware_driver.c ****     
 976:cy_eink_library/pervasive_eink_hardware_driver.c ****     /* Check DC level */
 977:cy_eink_library/pervasive_eink_hardware_driver.c ****     if ((Pv_EINK_ReadByte(PV_EINK_DC_LEVEL_READ_COMMAND_INDEX,
 1896              		.loc 1 977 0
 1897 0020 0021     		movs	r1, #0
 1898 0022 0F20     		movs	r0, #15
 1899 0024 FFF7FEFF 		bl	Pv_EINK_ReadByte
 1900              	.LVL192:
 1901 0028 10F0400F 		tst	r0, #64
 1902 002c 38D0     		beq	.L186
 978:cy_eink_library/pervasive_eink_hardware_driver.c ****                        PV_EINK_DC_LEVEL_READ_COMMAND_DATA) &
 979:cy_eink_library/pervasive_eink_hardware_driver.c ****                        PV_EINK_DC_LEVEL_MASK ) == PV_EINK_DC_LEVEL_CHECK)
 980:cy_eink_library/pervasive_eink_hardware_driver.c ****     {
 981:cy_eink_library/pervasive_eink_hardware_driver.c ****         /* Return error message for improper DC level */
 982:cy_eink_library/pervasive_eink_hardware_driver.c ****         return(PV_EINK_ERROR_DC);
 983:cy_eink_library/pervasive_eink_hardware_driver.c ****     }
 984:cy_eink_library/pervasive_eink_hardware_driver.c ****     
 985:cy_eink_library/pervasive_eink_hardware_driver.c ****     /* Power Saving */
 986:cy_eink_library/pervasive_eink_hardware_driver.c ****     Pv_EINK_SendByte(PV_EINK_PWR_SAVING_COMMAND_INDEX,
 1903              		.loc 1 986 0
 1904 002e 0021     		movs	r1, #0
 1905 0030 0B20     		movs	r0, #11
 1906 0032 FFF7FEFF 		bl	Pv_EINK_SendByte
 1907              	.LVL193:
 987:cy_eink_library/pervasive_eink_hardware_driver.c ****                      PV_EINK_PWR2_SAVING_COMMAND_DATA);
 988:cy_eink_library/pervasive_eink_hardware_driver.c ****     /* Turn on Latch Reset */
 989:cy_eink_library/pervasive_eink_hardware_driver.c ****     Pv_EINK_SendByte(PV_EINK_LATCH_ON_COMMAND_INDEX,
 1908              		.loc 1 989 0
 1909 0036 0121     		movs	r1, #1
 1910 0038 0320     		movs	r0, #3
 1911 003a FFF7FEFF 		bl	Pv_EINK_SendByte
 1912              	.LVL194:
 990:cy_eink_library/pervasive_eink_hardware_driver.c ****                      PV_EINK_LATCH_ON_COMMAND_DATA);
 991:cy_eink_library/pervasive_eink_hardware_driver.c ****     /* Power off charge pump Vcom */
 992:cy_eink_library/pervasive_eink_hardware_driver.c ****     Pv_EINK_SendByte(PV_EINK_VGL_VDL_ON_COMMAND_INDEX,
 1913              		.loc 1 992 0
 1914 003e 0321     		movs	r1, #3
 1915 0040 0520     		movs	r0, #5
 1916 0042 FFF7FEFF 		bl	Pv_EINK_SendByte
 1917              	.LVL195:
 993:cy_eink_library/pervasive_eink_hardware_driver.c ****                      PV_EINK_VGL_VDL_ON_COMMAND_DATA);
 994:cy_eink_library/pervasive_eink_hardware_driver.c ****     /* Power off charge pump negative voltage */
 995:cy_eink_library/pervasive_eink_hardware_driver.c ****     Pv_EINK_SendByte(PV_EINK_VGH_VDH_ON_COMMAND_INDEX,
 1918              		.loc 1 995 0
 1919 0046 0121     		movs	r1, #1
 1920 0048 0520     		movs	r0, #5
 1921 004a FFF7FEFF 		bl	Pv_EINK_SendByte
 1922              	.LVL196:
 996:cy_eink_library/pervasive_eink_hardware_driver.c ****                      PV_EINK_VGH_VDH_ON_COMMAND_DATA);
 997:cy_eink_library/pervasive_eink_hardware_driver.c ****     
ARM GAS  C:\Users\codyg\AppData\Local\Temp\ccQipZVL.s 			page 68


 998:cy_eink_library/pervasive_eink_hardware_driver.c ****     Cy_EINK_Delay(PV_EINK_DISCH_SPI_DELAY);
 1923              		.loc 1 998 0
 1924 004e 3546     		mov	r5, r6
 1925 0050 3368     		ldr	r3, [r6]
 1926 0052 3220     		movs	r0, #50
 1927 0054 9847     		blx	r3
 1928              	.LVL197:
 999:cy_eink_library/pervasive_eink_hardware_driver.c ****     /* Discharge internal SPI */
1000:cy_eink_library/pervasive_eink_hardware_driver.c ****     Pv_EINK_SendByte(PV_EINK_DISCH_SPI_COMMAND_INDEX, 
 1929              		.loc 1 1000 0
 1930 0056 8021     		movs	r1, #128
 1931 0058 0420     		movs	r0, #4
 1932 005a FFF7FEFF 		bl	Pv_EINK_SendByte
 1933              	.LVL198:
1001:cy_eink_library/pervasive_eink_hardware_driver.c ****                      PV_EINK_DISCH_SPI_COMMAND_DATA);
1002:cy_eink_library/pervasive_eink_hardware_driver.c ****     /* Turn off all charge pump */
1003:cy_eink_library/pervasive_eink_hardware_driver.c ****     Pv_EINK_SendByte(PV_EINK_CH_PUMP_OFF_COMMAND_INDEX, 
 1934              		.loc 1 1003 0
 1935 005e 0021     		movs	r1, #0
 1936 0060 0520     		movs	r0, #5
 1937 0062 FFF7FEFF 		bl	Pv_EINK_SendByte
 1938              	.LVL199:
1004:cy_eink_library/pervasive_eink_hardware_driver.c ****                      PV_EINK_CH_PUMP_OFF_COMMAND_DATA);
1005:cy_eink_library/pervasive_eink_hardware_driver.c ****     /* Turn off OSC */
1006:cy_eink_library/pervasive_eink_hardware_driver.c ****     Pv_EINK_SendByte(PV_EINK_OSC_OFF_COMMAND_INDEX, 
 1939              		.loc 1 1006 0
 1940 0066 0121     		movs	r1, #1
 1941 0068 0720     		movs	r0, #7
 1942 006a FFF7FEFF 		bl	Pv_EINK_SendByte
 1943              	.LVL200:
1007:cy_eink_library/pervasive_eink_hardware_driver.c ****                      PV_EINK_OSC_OFF_COMMAND_DATA);
1008:cy_eink_library/pervasive_eink_hardware_driver.c ****     Cy_EINK_Delay(PV_EINK_PWR_OFF_DELAY);
 1944              		.loc 1 1008 0
 1945 006e 3368     		ldr	r3, [r6]
 1946 0070 1E20     		movs	r0, #30
 1947 0072 9847     		blx	r3
 1948              	.LVL201:
1009:cy_eink_library/pervasive_eink_hardware_driver.c ****     
1010:cy_eink_library/pervasive_eink_hardware_driver.c ****     /* Detach SPI and disable the load switch that controls E-INK display's 
1011:cy_eink_library/pervasive_eink_hardware_driver.c ****        Vcc */
1012:cy_eink_library/pervasive_eink_hardware_driver.c ****     Cy_EINK_DetachSPI();
 1949              		.loc 1 1012 0
 1950 0074 FFF7FEFF 		bl	Cy_EINK_DetachSPI
 1951              	.LVL202:
 1952              	.LBB102:
 1953              	.LBB103:
 1954              		.loc 2 841 0
 1955 0078 1023     		movs	r3, #16
 1956 007a 6360     		str	r3, [r4, #4]
 1957              	.LVL203:
 1958              	.LBE103:
 1959              	.LBE102:
 1960              	.LBB104:
 1961              	.LBB105:
 1962 007c 4023     		movs	r3, #64
 1963 007e 6360     		str	r3, [r4, #4]
 1964              	.LVL204:
ARM GAS  C:\Users\codyg\AppData\Local\Temp\ccQipZVL.s 			page 69


 1965              	.LBE105:
 1966              	.LBE104:
1013:cy_eink_library/pervasive_eink_hardware_driver.c ****     CY_EINK_TurnOffVcc;
1014:cy_eink_library/pervasive_eink_hardware_driver.c ****     
1015:cy_eink_library/pervasive_eink_hardware_driver.c ****     /* Return the pins to their default (OFF) values*/
1016:cy_eink_library/pervasive_eink_hardware_driver.c ****     CY_EINK_BorderLow;
1017:cy_eink_library/pervasive_eink_hardware_driver.c ****     Cy_EINK_Delay(PV_EINK_CS_OFF_DELAY);
 1967              		.loc 1 1017 0
 1968 0080 3368     		ldr	r3, [r6]
 1969 0082 1420     		movs	r0, #20
 1970 0084 9847     		blx	r3
 1971              	.LVL205:
 1972              	.LBB106:
 1973              	.LBB107:
 1974              		.loc 2 841 0
 1975 0086 0822     		movs	r2, #8
 1976 0088 084B     		ldr	r3, .L188+8
 1977 008a 5A60     		str	r2, [r3, #4]
 1978              	.LVL206:
 1979              	.LBE107:
 1980              	.LBE106:
 1981              	.LBB108:
 1982              	.LBB109:
 1983 008c 0423     		movs	r3, #4
 1984 008e 6360     		str	r3, [r4, #4]
 1985              	.LVL207:
 1986              	.LBE109:
 1987              	.LBE108:
 1988              	.LBB110:
 1989              	.LBB111:
 811:Generated_Source\PSoC6\pdl\drivers/peripheral/gpio/cy_gpio.h **** }
 1990              		.loc 2 811 0
 1991 0090 2026     		movs	r6, #32
 1992 0092 A660     		str	r6, [r4, #8]
 1993              	.LVL208:
 1994              	.LBE111:
 1995              	.LBE110:
1018:cy_eink_library/pervasive_eink_hardware_driver.c ****     CY_EINK_CsLow;
1019:cy_eink_library/pervasive_eink_hardware_driver.c ****     CY_EINK_RstLow;
1020:cy_eink_library/pervasive_eink_hardware_driver.c ****     CY_EINK_DischargeHigh;
1021:cy_eink_library/pervasive_eink_hardware_driver.c ****     Cy_EINK_Delay(PV_EINK_DETACH_DELAY);
 1996              		.loc 1 1021 0
 1997 0094 2B68     		ldr	r3, [r5]
 1998 0096 1E20     		movs	r0, #30
 1999 0098 9847     		blx	r3
 2000              	.LVL209:
 2001              	.LBB112:
 2002              	.LBB113:
 2003              		.loc 2 841 0
 2004 009a 6660     		str	r6, [r4, #4]
 2005              	.LVL210:
 2006              	.LBE113:
 2007              	.LBE112:
1022:cy_eink_library/pervasive_eink_hardware_driver.c ****     CY_EINK_DischargeLow;
1023:cy_eink_library/pervasive_eink_hardware_driver.c ****     
1024:cy_eink_library/pervasive_eink_hardware_driver.c ****     /* If all operations were completed successfully, send the corresponding
1025:cy_eink_library/pervasive_eink_hardware_driver.c ****        flag */
ARM GAS  C:\Users\codyg\AppData\Local\Temp\ccQipZVL.s 			page 70


1026:cy_eink_library/pervasive_eink_hardware_driver.c ****     return(PV_EINK_RES_OK);
 2008              		.loc 1 1026 0
 2009 009c 0020     		movs	r0, #0
 2010 009e 70BD     		pop	{r4, r5, r6, pc}
 2011              	.L186:
 982:cy_eink_library/pervasive_eink_hardware_driver.c ****     }
 2012              		.loc 1 982 0
 2013 00a0 0420     		movs	r0, #4
1027:cy_eink_library/pervasive_eink_hardware_driver.c **** }
 2014              		.loc 1 1027 0
 2015 00a2 70BD     		pop	{r4, r5, r6, pc}
 2016              	.L189:
 2017              		.align	2
 2018              	.L188:
 2019 00a4 00000000 		.word	Cy_EINK_Delay
 2020 00a8 80023240 		.word	1077019264
 2021 00ac 00063240 		.word	1077020160
 2022              		.cfi_endproc
 2023              	.LFE528:
 2024              		.size	Pv_EINK_HardwarePowerOff, .-Pv_EINK_HardwarePowerOff
 2025              		.global	channelSelect
 2026              		.global	scanTable
 2027              		.comm	bulkDriverPacket,19536,4
 2028              		.section	.rodata
 2029              		.align	2
 2030              		.set	.LANCHOR1,. + 0
 2031              		.type	channelSelect, %object
 2032              		.size	channelSelect, 8
 2033              	channelSelect:
 2034 0000 00       		.byte	0
 2035 0001 00       		.byte	0
 2036 0002 00       		.byte	0
 2037 0003 7F       		.byte	127
 2038 0004 FF       		.byte	-1
 2039 0005 FE       		.byte	-2
 2040 0006 00       		.byte	0
 2041 0007 00       		.byte	0
 2042              		.type	scanTable, %object
 2043              		.size	scanTable, 4
 2044              	scanTable:
 2045 0008 C0       		.byte	-64
 2046 0009 30       		.byte	48
 2047 000a 0C       		.byte	12
 2048 000b 03       		.byte	3
 2049              		.bss
 2050              		.align	2
 2051              		.set	.LANCHOR0,. + 0
 2052              		.type	driverPacket, %object
 2053              		.size	driverPacket, 111
 2054              	driverPacket:
 2055 0000 00000000 		.space	111
 2055      00000000 
 2055      00000000 
 2055      00000000 
 2055      00000000 
 2056 006f 00       		.space	1
 2057              		.type	dataLineEven, %object
ARM GAS  C:\Users\codyg\AppData\Local\Temp\ccQipZVL.s 			page 71


 2058              		.size	dataLineEven, 4
 2059              	dataLineEven:
 2060 0070 00000000 		.space	4
 2061              		.type	dataLineOdd, %object
 2062              		.size	dataLineOdd, 4
 2063              	dataLineOdd:
 2064 0074 00000000 		.space	4
 2065              		.type	dataLineScan, %object
 2066              		.size	dataLineScan, 4
 2067              	dataLineScan:
 2068 0078 00000000 		.space	4
 2069              		.type	fullUpdateCycles, %object
 2070              		.size	fullUpdateCycles, 2
 2071              	fullUpdateCycles:
 2072 007c 0000     		.space	2
 2073              		.type	partialUpdateCycles, %object
 2074              		.size	partialUpdateCycles, 2
 2075              	partialUpdateCycles:
 2076 007e 0000     		.space	2
 2077              		.text
 2078              	.Letext0:
 2079              		.file 3 "c:\\program files (x86)\\cypress\\psoc creator\\4.2\\psoc creator\\import\\gnu\\arm\\5.4.
 2080              		.file 4 "c:\\program files (x86)\\cypress\\psoc creator\\4.2\\psoc creator\\import\\gnu\\arm\\5.4.
 2081              		.file 5 "Generated_Source\\PSoC6\\pdl\\devices/psoc6/ip/cyip_gpio.h"
 2082              		.file 6 "Generated_Source\\PSoC6\\pdl\\drivers/peripheral/syslib/cy_syslib.h"
 2083              		.file 7 "Generated_Source\\PSoC6\\pdl\\drivers/peripheral/scb/cy_scb_spi.h"
 2084              		.file 8 "Generated_Source\\PSoC6\\pdl\\drivers/peripheral/sar/cy_sar.h"
 2085              		.file 9 "Generated_Source\\PSoC6\\pdl\\middleware/ble/cy_ble_stack.h"
 2086              		.file 10 "Generated_Source\\PSoC6\\pdl\\middleware/ble/cy_ble_stack_host_main.h"
 2087              		.file 11 "Generated_Source\\PSoC6\\pdl\\middleware/ble/cy_ble_gap.h"
 2088              		.file 12 "Generated_Source\\PSoC6\\pdl\\middleware/ble/cy_ble_dis.h"
 2089              		.file 13 "Generated_Source\\PSoC6\\pdl\\middleware/ble/cy_ble_hts.h"
 2090              		.file 14 "Generated_Source\\PSoC6\\pdl\\middleware/ble/cy_ble_event_handler.h"
 2091              		.file 15 "Generated_Source\\PSoC6/ADC.h"
 2092              		.file 16 "cy_eink_library\\cy_eink_psoc_interface.h"
 2093              		.file 17 "cy_eink_library\\pervasive_eink_hardware_driver.h"
 2094              		.file 18 "Generated_Source\\PSoC6\\pdl\\cmsis/include/core_cm4.h"
 2095              		.file 19 "Generated_Source\\PSoC6/CY_EINK_SPIM.h"
 2096              		.section	.debug_info,"",%progbits
 2097              	.Ldebug_info0:
 2098 0000 BE190000 		.4byte	0x19be
 2099 0004 0400     		.2byte	0x4
 2100 0006 00000000 		.4byte	.Ldebug_abbrev0
 2101 000a 04       		.byte	0x4
 2102 000b 01       		.uleb128 0x1
 2103 000c 79040000 		.4byte	.LASF324
 2104 0010 0C       		.byte	0xc
 2105 0011 07130000 		.4byte	.LASF325
 2106 0015 3B0F0000 		.4byte	.LASF326
 2107 0019 00000000 		.4byte	.Ldebug_ranges0+0
 2108 001d 00000000 		.4byte	0
 2109 0021 00000000 		.4byte	.Ldebug_line0
 2110 0025 02       		.uleb128 0x2
 2111 0026 04       		.byte	0x4
 2112 0027 05       		.byte	0x5
 2113 0028 696E7400 		.ascii	"int\000"
 2114 002c 03       		.uleb128 0x3
ARM GAS  C:\Users\codyg\AppData\Local\Temp\ccQipZVL.s 			page 72


 2115 002d 04       		.byte	0x4
 2116 002e 07       		.byte	0x7
 2117 002f 13020000 		.4byte	.LASF0
 2118 0033 03       		.uleb128 0x3
 2119 0034 08       		.byte	0x8
 2120 0035 05       		.byte	0x5
 2121 0036 2D0F0000 		.4byte	.LASF1
 2122 003a 03       		.uleb128 0x3
 2123 003b 08       		.byte	0x8
 2124 003c 04       		.byte	0x4
 2125 003d BC120000 		.4byte	.LASF2
 2126 0041 04       		.uleb128 0x4
 2127 0042 9B120000 		.4byte	.LASF4
 2128 0046 03       		.byte	0x3
 2129 0047 1B       		.byte	0x1b
 2130 0048 4C000000 		.4byte	0x4c
 2131 004c 03       		.uleb128 0x3
 2132 004d 01       		.byte	0x1
 2133 004e 06       		.byte	0x6
 2134 004f 4B060000 		.4byte	.LASF3
 2135 0053 04       		.uleb128 0x4
 2136 0054 98160000 		.4byte	.LASF5
 2137 0058 03       		.byte	0x3
 2138 0059 1D       		.byte	0x1d
 2139 005a 5E000000 		.4byte	0x5e
 2140 005e 03       		.uleb128 0x3
 2141 005f 01       		.byte	0x1
 2142 0060 08       		.byte	0x8
 2143 0061 87180000 		.4byte	.LASF6
 2144 0065 04       		.uleb128 0x4
 2145 0066 14100000 		.4byte	.LASF7
 2146 006a 03       		.byte	0x3
 2147 006b 29       		.byte	0x29
 2148 006c 70000000 		.4byte	0x70
 2149 0070 03       		.uleb128 0x3
 2150 0071 02       		.byte	0x2
 2151 0072 05       		.byte	0x5
 2152 0073 E0140000 		.4byte	.LASF8
 2153 0077 04       		.uleb128 0x4
 2154 0078 77080000 		.4byte	.LASF9
 2155 007c 03       		.byte	0x3
 2156 007d 2B       		.byte	0x2b
 2157 007e 82000000 		.4byte	0x82
 2158 0082 03       		.uleb128 0x3
 2159 0083 02       		.byte	0x2
 2160 0084 07       		.byte	0x7
 2161 0085 1B1B0000 		.4byte	.LASF10
 2162 0089 04       		.uleb128 0x4
 2163 008a A1020000 		.4byte	.LASF11
 2164 008e 03       		.byte	0x3
 2165 008f 3F       		.byte	0x3f
 2166 0090 94000000 		.4byte	0x94
 2167 0094 03       		.uleb128 0x3
 2168 0095 04       		.byte	0x4
 2169 0096 05       		.byte	0x5
 2170 0097 5A150000 		.4byte	.LASF12
 2171 009b 04       		.uleb128 0x4
ARM GAS  C:\Users\codyg\AppData\Local\Temp\ccQipZVL.s 			page 73


 2172 009c BA180000 		.4byte	.LASF13
 2173 00a0 03       		.byte	0x3
 2174 00a1 41       		.byte	0x41
 2175 00a2 A6000000 		.4byte	0xa6
 2176 00a6 03       		.uleb128 0x3
 2177 00a7 04       		.byte	0x4
 2178 00a8 07       		.byte	0x7
 2179 00a9 D6170000 		.4byte	.LASF14
 2180 00ad 03       		.uleb128 0x3
 2181 00ae 08       		.byte	0x8
 2182 00af 07       		.byte	0x7
 2183 00b0 CF070000 		.4byte	.LASF15
 2184 00b4 03       		.uleb128 0x3
 2185 00b5 04       		.byte	0x4
 2186 00b6 07       		.byte	0x7
 2187 00b7 CD170000 		.4byte	.LASF16
 2188 00bb 05       		.uleb128 0x5
 2189 00bc 04       		.byte	0x4
 2190 00bd 03       		.uleb128 0x3
 2191 00be 01       		.byte	0x1
 2192 00bf 08       		.byte	0x8
 2193 00c0 CE0C0000 		.4byte	.LASF17
 2194 00c4 04       		.uleb128 0x4
 2195 00c5 9E060000 		.4byte	.LASF18
 2196 00c9 04       		.byte	0x4
 2197 00ca 14       		.byte	0x14
 2198 00cb 41000000 		.4byte	0x41
 2199 00cf 04       		.uleb128 0x4
 2200 00d0 F20D0000 		.4byte	.LASF19
 2201 00d4 04       		.byte	0x4
 2202 00d5 18       		.byte	0x18
 2203 00d6 53000000 		.4byte	0x53
 2204 00da 04       		.uleb128 0x4
 2205 00db 87070000 		.4byte	.LASF20
 2206 00df 04       		.byte	0x4
 2207 00e0 20       		.byte	0x20
 2208 00e1 65000000 		.4byte	0x65
 2209 00e5 04       		.uleb128 0x4
 2210 00e6 F1120000 		.4byte	.LASF21
 2211 00ea 04       		.byte	0x4
 2212 00eb 24       		.byte	0x24
 2213 00ec 77000000 		.4byte	0x77
 2214 00f0 04       		.uleb128 0x4
 2215 00f1 EE170000 		.4byte	.LASF22
 2216 00f5 04       		.byte	0x4
 2217 00f6 2C       		.byte	0x2c
 2218 00f7 89000000 		.4byte	0x89
 2219 00fb 04       		.uleb128 0x4
 2220 00fc 95060000 		.4byte	.LASF23
 2221 0100 04       		.byte	0x4
 2222 0101 30       		.byte	0x30
 2223 0102 9B000000 		.4byte	0x9b
 2224 0106 06       		.uleb128 0x6
 2225 0107 FB000000 		.4byte	0xfb
 2226 010b 07       		.uleb128 0x7
 2227 010c 06010000 		.4byte	0x106
 2228 0110 08       		.uleb128 0x8
ARM GAS  C:\Users\codyg\AppData\Local\Temp\ccQipZVL.s 			page 74


 2229 0111 0B010000 		.4byte	0x10b
 2230 0115 20010000 		.4byte	0x120
 2231 0119 09       		.uleb128 0x9
 2232 011a B4000000 		.4byte	0xb4
 2233 011e 0F       		.byte	0xf
 2234 011f 00       		.byte	0
 2235 0120 0A       		.uleb128 0xa
 2236 0121 80       		.byte	0x80
 2237 0122 05       		.byte	0x5
 2238 0123 22       		.byte	0x22
 2239 0124 F4010000 		.4byte	0x1f4
 2240 0128 0B       		.uleb128 0xb
 2241 0129 4F555400 		.ascii	"OUT\000"
 2242 012d 05       		.byte	0x5
 2243 012e 23       		.byte	0x23
 2244 012f 06010000 		.4byte	0x106
 2245 0133 00       		.byte	0
 2246 0134 0C       		.uleb128 0xc
 2247 0135 7F070000 		.4byte	.LASF24
 2248 0139 05       		.byte	0x5
 2249 013a 24       		.byte	0x24
 2250 013b 06010000 		.4byte	0x106
 2251 013f 04       		.byte	0x4
 2252 0140 0C       		.uleb128 0xc
 2253 0141 67030000 		.4byte	.LASF25
 2254 0145 05       		.byte	0x5
 2255 0146 25       		.byte	0x25
 2256 0147 06010000 		.4byte	0x106
 2257 014b 08       		.byte	0x8
 2258 014c 0C       		.uleb128 0xc
 2259 014d 90160000 		.4byte	.LASF26
 2260 0151 05       		.byte	0x5
 2261 0152 26       		.byte	0x26
 2262 0153 06010000 		.4byte	0x106
 2263 0157 0C       		.byte	0xc
 2264 0158 0B       		.uleb128 0xb
 2265 0159 494E00   		.ascii	"IN\000"
 2266 015c 05       		.byte	0x5
 2267 015d 27       		.byte	0x27
 2268 015e 0B010000 		.4byte	0x10b
 2269 0162 10       		.byte	0x10
 2270 0163 0C       		.uleb128 0xc
 2271 0164 630B0000 		.4byte	.LASF27
 2272 0168 05       		.byte	0x5
 2273 0169 28       		.byte	0x28
 2274 016a 06010000 		.4byte	0x106
 2275 016e 14       		.byte	0x14
 2276 016f 0C       		.uleb128 0xc
 2277 0170 C10B0000 		.4byte	.LASF28
 2278 0174 05       		.byte	0x5
 2279 0175 29       		.byte	0x29
 2280 0176 06010000 		.4byte	0x106
 2281 017a 18       		.byte	0x18
 2282 017b 0C       		.uleb128 0xc
 2283 017c 69170000 		.4byte	.LASF29
 2284 0180 05       		.byte	0x5
 2285 0181 2A       		.byte	0x2a
ARM GAS  C:\Users\codyg\AppData\Local\Temp\ccQipZVL.s 			page 75


 2286 0182 0B010000 		.4byte	0x10b
 2287 0186 1C       		.byte	0x1c
 2288 0187 0C       		.uleb128 0xc
 2289 0188 BA030000 		.4byte	.LASF30
 2290 018c 05       		.byte	0x5
 2291 018d 2B       		.byte	0x2b
 2292 018e 06010000 		.4byte	0x106
 2293 0192 20       		.byte	0x20
 2294 0193 0C       		.uleb128 0xc
 2295 0194 E6180000 		.4byte	.LASF31
 2296 0198 05       		.byte	0x5
 2297 0199 2C       		.byte	0x2c
 2298 019a 06010000 		.4byte	0x106
 2299 019e 24       		.byte	0x24
 2300 019f 0B       		.uleb128 0xb
 2301 01a0 43464700 		.ascii	"CFG\000"
 2302 01a4 05       		.byte	0x5
 2303 01a5 2D       		.byte	0x2d
 2304 01a6 06010000 		.4byte	0x106
 2305 01aa 28       		.byte	0x28
 2306 01ab 0C       		.uleb128 0xc
 2307 01ac 81130000 		.4byte	.LASF32
 2308 01b0 05       		.byte	0x5
 2309 01b1 2E       		.byte	0x2e
 2310 01b2 06010000 		.4byte	0x106
 2311 01b6 2C       		.byte	0x2c
 2312 01b7 0C       		.uleb128 0xc
 2313 01b8 6B090000 		.4byte	.LASF33
 2314 01bc 05       		.byte	0x5
 2315 01bd 2F       		.byte	0x2f
 2316 01be 06010000 		.4byte	0x106
 2317 01c2 30       		.byte	0x30
 2318 01c3 0C       		.uleb128 0xc
 2319 01c4 99020000 		.4byte	.LASF34
 2320 01c8 05       		.byte	0x5
 2321 01c9 30       		.byte	0x30
 2322 01ca 06010000 		.4byte	0x106
 2323 01ce 34       		.byte	0x34
 2324 01cf 0C       		.uleb128 0xc
 2325 01d0 26000000 		.4byte	.LASF35
 2326 01d4 05       		.byte	0x5
 2327 01d5 31       		.byte	0x31
 2328 01d6 0B010000 		.4byte	0x10b
 2329 01da 38       		.byte	0x38
 2330 01db 0C       		.uleb128 0xc
 2331 01dc E7150000 		.4byte	.LASF36
 2332 01e0 05       		.byte	0x5
 2333 01e1 32       		.byte	0x32
 2334 01e2 06010000 		.4byte	0x106
 2335 01e6 3C       		.byte	0x3c
 2336 01e7 0C       		.uleb128 0xc
 2337 01e8 A0140000 		.4byte	.LASF37
 2338 01ec 05       		.byte	0x5
 2339 01ed 33       		.byte	0x33
 2340 01ee F9010000 		.4byte	0x1f9
 2341 01f2 40       		.byte	0x40
 2342 01f3 00       		.byte	0
ARM GAS  C:\Users\codyg\AppData\Local\Temp\ccQipZVL.s 			page 76


 2343 01f4 06       		.uleb128 0x6
 2344 01f5 10010000 		.4byte	0x110
 2345 01f9 07       		.uleb128 0x7
 2346 01fa F4010000 		.4byte	0x1f4
 2347 01fe 04       		.uleb128 0x4
 2348 01ff 680B0000 		.4byte	.LASF38
 2349 0203 05       		.byte	0x5
 2350 0204 34       		.byte	0x34
 2351 0205 20010000 		.4byte	0x120
 2352 0209 0D       		.uleb128 0xd
 2353 020a 2440     		.2byte	0x4024
 2354 020c 05       		.byte	0x5
 2355 020d 39       		.byte	0x39
 2356 020e 94020000 		.4byte	0x294
 2357 0212 0B       		.uleb128 0xb
 2358 0213 50525400 		.ascii	"PRT\000"
 2359 0217 05       		.byte	0x5
 2360 0218 3A       		.byte	0x3a
 2361 0219 94020000 		.4byte	0x294
 2362 021d 00       		.byte	0
 2363 021e 0E       		.uleb128 0xe
 2364 021f 370E0000 		.4byte	.LASF39
 2365 0223 05       		.byte	0x5
 2366 0224 3B       		.byte	0x3b
 2367 0225 0B010000 		.4byte	0x10b
 2368 0229 0040     		.2byte	0x4000
 2369 022b 0E       		.uleb128 0xe
 2370 022c 2F000000 		.4byte	.LASF40
 2371 0230 05       		.byte	0x5
 2372 0231 3C       		.byte	0x3c
 2373 0232 0B010000 		.4byte	0x10b
 2374 0236 0440     		.2byte	0x4004
 2375 0238 0E       		.uleb128 0xe
 2376 0239 430E0000 		.4byte	.LASF41
 2377 023d 05       		.byte	0x5
 2378 023e 3D       		.byte	0x3d
 2379 023f 0B010000 		.4byte	0x10b
 2380 0243 0840     		.2byte	0x4008
 2381 0245 0E       		.uleb128 0xe
 2382 0246 610E0000 		.4byte	.LASF42
 2383 024a 05       		.byte	0x5
 2384 024b 3E       		.byte	0x3e
 2385 024c 0B010000 		.4byte	0x10b
 2386 0250 0C40     		.2byte	0x400c
 2387 0252 0E       		.uleb128 0xe
 2388 0253 931B0000 		.4byte	.LASF43
 2389 0257 05       		.byte	0x5
 2390 0258 3F       		.byte	0x3f
 2391 0259 0B010000 		.4byte	0x10b
 2392 025d 1040     		.2byte	0x4010
 2393 025f 0E       		.uleb128 0xe
 2394 0260 630A0000 		.4byte	.LASF44
 2395 0264 05       		.byte	0x5
 2396 0265 40       		.byte	0x40
 2397 0266 06010000 		.4byte	0x106
 2398 026a 1440     		.2byte	0x4014
 2399 026c 0E       		.uleb128 0xe
ARM GAS  C:\Users\codyg\AppData\Local\Temp\ccQipZVL.s 			page 77


 2400 026d FA1A0000 		.4byte	.LASF45
 2401 0271 05       		.byte	0x5
 2402 0272 41       		.byte	0x41
 2403 0273 06010000 		.4byte	0x106
 2404 0277 1840     		.2byte	0x4018
 2405 0279 0E       		.uleb128 0xe
 2406 027a 52100000 		.4byte	.LASF46
 2407 027e 05       		.byte	0x5
 2408 027f 42       		.byte	0x42
 2409 0280 0B010000 		.4byte	0x10b
 2410 0284 1C40     		.2byte	0x401c
 2411 0286 0E       		.uleb128 0xe
 2412 0287 FA120000 		.4byte	.LASF47
 2413 028b 05       		.byte	0x5
 2414 028c 43       		.byte	0x43
 2415 028d 06010000 		.4byte	0x106
 2416 0291 2040     		.2byte	0x4020
 2417 0293 00       		.byte	0
 2418 0294 08       		.uleb128 0x8
 2419 0295 FE010000 		.4byte	0x1fe
 2420 0299 A4020000 		.4byte	0x2a4
 2421 029d 09       		.uleb128 0x9
 2422 029e B4000000 		.4byte	0xb4
 2423 02a2 7F       		.byte	0x7f
 2424 02a3 00       		.byte	0
 2425 02a4 04       		.uleb128 0x4
 2426 02a5 C5180000 		.4byte	.LASF48
 2427 02a9 05       		.byte	0x5
 2428 02aa 44       		.byte	0x44
 2429 02ab 09020000 		.4byte	0x209
 2430 02af 0F       		.uleb128 0xf
 2431 02b0 AA150000 		.4byte	.LASF49
 2432 02b4 06       		.byte	0x6
 2433 02b5 C401     		.2byte	0x1c4
 2434 02b7 BD000000 		.4byte	0xbd
 2435 02bb 03       		.uleb128 0x3
 2436 02bc 04       		.byte	0x4
 2437 02bd 04       		.byte	0x4
 2438 02be E8170000 		.4byte	.LASF50
 2439 02c2 03       		.uleb128 0x3
 2440 02c3 08       		.byte	0x8
 2441 02c4 04       		.byte	0x4
 2442 02c5 090A0000 		.4byte	.LASF51
 2443 02c9 0F       		.uleb128 0xf
 2444 02ca C4020000 		.4byte	.LASF52
 2445 02ce 06       		.byte	0x6
 2446 02cf 8903     		.2byte	0x389
 2447 02d1 DA000000 		.4byte	0xda
 2448 02d5 03       		.uleb128 0x3
 2449 02d6 01       		.byte	0x1
 2450 02d7 02       		.byte	0x2
 2451 02d8 100A0000 		.4byte	.LASF53
 2452 02dc 10       		.uleb128 0x10
 2453 02dd 04       		.byte	0x4
 2454 02de E2020000 		.4byte	0x2e2
 2455 02e2 11       		.uleb128 0x11
 2456 02e3 ED020000 		.4byte	0x2ed
ARM GAS  C:\Users\codyg\AppData\Local\Temp\ccQipZVL.s 			page 78


 2457 02e7 12       		.uleb128 0x12
 2458 02e8 FB000000 		.4byte	0xfb
 2459 02ec 00       		.byte	0
 2460 02ed 10       		.uleb128 0x10
 2461 02ee 04       		.byte	0x4
 2462 02ef CF000000 		.4byte	0xcf
 2463 02f3 0F       		.uleb128 0xf
 2464 02f4 5B000000 		.4byte	.LASF54
 2465 02f8 07       		.byte	0x7
 2466 02f9 BF01     		.2byte	0x1bf
 2467 02fb DC020000 		.4byte	0x2dc
 2468 02ff 13       		.uleb128 0x13
 2469 0300 96190000 		.4byte	.LASF259
 2470 0304 24       		.byte	0x24
 2471 0305 07       		.byte	0x7
 2472 0306 4102     		.2byte	0x241
 2473 0308 82030000 		.4byte	0x382
 2474 030c 14       		.uleb128 0x14
 2475 030d FA0D0000 		.4byte	.LASF55
 2476 0311 07       		.byte	0x7
 2477 0312 4402     		.2byte	0x244
 2478 0314 06010000 		.4byte	0x106
 2479 0318 00       		.byte	0
 2480 0319 14       		.uleb128 0x14
 2481 031a 73090000 		.4byte	.LASF56
 2482 031e 07       		.byte	0x7
 2483 031f 4602     		.2byte	0x246
 2484 0321 BB000000 		.4byte	0xbb
 2485 0325 04       		.byte	0x4
 2486 0326 14       		.uleb128 0x14
 2487 0327 3A1D0000 		.4byte	.LASF57
 2488 032b 07       		.byte	0x7
 2489 032c 4702     		.2byte	0x247
 2490 032e FB000000 		.4byte	0xfb
 2491 0332 08       		.byte	0x8
 2492 0333 14       		.uleb128 0x14
 2493 0334 B70D0000 		.4byte	.LASF58
 2494 0338 07       		.byte	0x7
 2495 0339 4802     		.2byte	0x248
 2496 033b 06010000 		.4byte	0x106
 2497 033f 0C       		.byte	0xc
 2498 0340 14       		.uleb128 0x14
 2499 0341 8C120000 		.4byte	.LASF59
 2500 0345 07       		.byte	0x7
 2501 0346 4A02     		.2byte	0x24a
 2502 0348 BB000000 		.4byte	0xbb
 2503 034c 10       		.byte	0x10
 2504 034d 14       		.uleb128 0x14
 2505 034e 36110000 		.4byte	.LASF60
 2506 0352 07       		.byte	0x7
 2507 0353 4B02     		.2byte	0x24b
 2508 0355 FB000000 		.4byte	0xfb
 2509 0359 14       		.byte	0x14
 2510 035a 14       		.uleb128 0x14
 2511 035b 77020000 		.4byte	.LASF61
 2512 035f 07       		.byte	0x7
 2513 0360 4C02     		.2byte	0x24c
ARM GAS  C:\Users\codyg\AppData\Local\Temp\ccQipZVL.s 			page 79


 2514 0362 06010000 		.4byte	0x106
 2515 0366 18       		.byte	0x18
 2516 0367 14       		.uleb128 0x14
 2517 0368 E8090000 		.4byte	.LASF62
 2518 036c 07       		.byte	0x7
 2519 036d 5202     		.2byte	0x252
 2520 036f F3020000 		.4byte	0x2f3
 2521 0373 1C       		.byte	0x1c
 2522 0374 14       		.uleb128 0x14
 2523 0375 EA0D0000 		.4byte	.LASF63
 2524 0379 07       		.byte	0x7
 2525 037a 5502     		.2byte	0x255
 2526 037c FB000000 		.4byte	0xfb
 2527 0380 20       		.byte	0x20
 2528 0381 00       		.byte	0
 2529 0382 0F       		.uleb128 0xf
 2530 0383 C0100000 		.4byte	.LASF64
 2531 0387 07       		.byte	0x7
 2532 0388 5802     		.2byte	0x258
 2533 038a FF020000 		.4byte	0x2ff
 2534 038e 15       		.uleb128 0x15
 2535 038f 01       		.byte	0x1
 2536 0390 5E000000 		.4byte	0x5e
 2537 0394 08       		.byte	0x8
 2538 0395 0504     		.2byte	0x405
 2539 0397 B4030000 		.4byte	0x3b4
 2540 039b 16       		.uleb128 0x16
 2541 039c 53050000 		.4byte	.LASF65
 2542 03a0 00       		.byte	0
 2543 03a1 16       		.uleb128 0x16
 2544 03a2 82080000 		.4byte	.LASF66
 2545 03a6 01       		.byte	0x1
 2546 03a7 16       		.uleb128 0x16
 2547 03a8 B60C0000 		.4byte	.LASF67
 2548 03ac 02       		.byte	0x2
 2549 03ad 16       		.uleb128 0x16
 2550 03ae 5D020000 		.4byte	.LASF68
 2551 03b2 03       		.byte	0x3
 2552 03b3 00       		.byte	0
 2553 03b4 0F       		.uleb128 0xf
 2554 03b5 541C0000 		.4byte	.LASF69
 2555 03b9 08       		.byte	0x8
 2556 03ba 0A04     		.2byte	0x40a
 2557 03bc 8E030000 		.4byte	0x38e
 2558 03c0 17       		.uleb128 0x17
 2559 03c1 78       		.byte	0x78
 2560 03c2 08       		.byte	0x8
 2561 03c3 F404     		.2byte	0x4f4
 2562 03c5 8D040000 		.4byte	0x48d
 2563 03c9 14       		.uleb128 0x14
 2564 03ca F7080000 		.4byte	.LASF70
 2565 03ce 08       		.byte	0x8
 2566 03cf F604     		.2byte	0x4f6
 2567 03d1 FB000000 		.4byte	0xfb
 2568 03d5 00       		.byte	0
 2569 03d6 14       		.uleb128 0x14
 2570 03d7 70180000 		.4byte	.LASF71
ARM GAS  C:\Users\codyg\AppData\Local\Temp\ccQipZVL.s 			page 80


 2571 03db 08       		.byte	0x8
 2572 03dc F704     		.2byte	0x4f7
 2573 03de FB000000 		.4byte	0xfb
 2574 03e2 04       		.byte	0x4
 2575 03e3 14       		.uleb128 0x14
 2576 03e4 88130000 		.4byte	.LASF72
 2577 03e8 08       		.byte	0x8
 2578 03e9 F804     		.2byte	0x4f8
 2579 03eb FB000000 		.4byte	0xfb
 2580 03ef 08       		.byte	0x8
 2581 03f0 14       		.uleb128 0x14
 2582 03f1 DB090000 		.4byte	.LASF73
 2583 03f5 08       		.byte	0x8
 2584 03f6 F904     		.2byte	0x4f9
 2585 03f8 FB000000 		.4byte	0xfb
 2586 03fc 0C       		.byte	0xc
 2587 03fd 14       		.uleb128 0x14
 2588 03fe 4D080000 		.4byte	.LASF74
 2589 0402 08       		.byte	0x8
 2590 0403 FA04     		.2byte	0x4fa
 2591 0405 FB000000 		.4byte	0xfb
 2592 0409 10       		.byte	0x10
 2593 040a 14       		.uleb128 0x14
 2594 040b D00E0000 		.4byte	.LASF75
 2595 040f 08       		.byte	0x8
 2596 0410 FB04     		.2byte	0x4fb
 2597 0412 B4030000 		.4byte	0x3b4
 2598 0416 14       		.byte	0x14
 2599 0417 14       		.uleb128 0x14
 2600 0418 170D0000 		.4byte	.LASF76
 2601 041c 08       		.byte	0x8
 2602 041d FC04     		.2byte	0x4fc
 2603 041f FB000000 		.4byte	0xfb
 2604 0423 18       		.byte	0x18
 2605 0424 14       		.uleb128 0x14
 2606 0425 D9100000 		.4byte	.LASF77
 2607 0429 08       		.byte	0x8
 2608 042a FD04     		.2byte	0x4fd
 2609 042c 8D040000 		.4byte	0x48d
 2610 0430 1C       		.byte	0x1c
 2611 0431 14       		.uleb128 0x14
 2612 0432 311D0000 		.4byte	.LASF78
 2613 0436 08       		.byte	0x8
 2614 0437 FE04     		.2byte	0x4fe
 2615 0439 FB000000 		.4byte	0xfb
 2616 043d 5C       		.byte	0x5c
 2617 043e 14       		.uleb128 0x14
 2618 043f DC030000 		.4byte	.LASF79
 2619 0443 08       		.byte	0x8
 2620 0444 FF04     		.2byte	0x4ff
 2621 0446 FB000000 		.4byte	0xfb
 2622 044a 60       		.byte	0x60
 2623 044b 14       		.uleb128 0x14
 2624 044c 0A1C0000 		.4byte	.LASF80
 2625 0450 08       		.byte	0x8
 2626 0451 0005     		.2byte	0x500
 2627 0453 FB000000 		.4byte	0xfb
ARM GAS  C:\Users\codyg\AppData\Local\Temp\ccQipZVL.s 			page 81


 2628 0457 64       		.byte	0x64
 2629 0458 14       		.uleb128 0x14
 2630 0459 AF130000 		.4byte	.LASF81
 2631 045d 08       		.byte	0x8
 2632 045e 0105     		.2byte	0x501
 2633 0460 FB000000 		.4byte	0xfb
 2634 0464 68       		.byte	0x68
 2635 0465 14       		.uleb128 0x14
 2636 0466 B00E0000 		.4byte	.LASF82
 2637 046a 08       		.byte	0x8
 2638 046b 0205     		.2byte	0x502
 2639 046d FB000000 		.4byte	0xfb
 2640 0471 6C       		.byte	0x6c
 2641 0472 14       		.uleb128 0x14
 2642 0473 EF1B0000 		.4byte	.LASF83
 2643 0477 08       		.byte	0x8
 2644 0478 0305     		.2byte	0x503
 2645 047a D5020000 		.4byte	0x2d5
 2646 047e 70       		.byte	0x70
 2647 047f 14       		.uleb128 0x14
 2648 0480 E50B0000 		.4byte	.LASF84
 2649 0484 08       		.byte	0x8
 2650 0485 0405     		.2byte	0x504
 2651 0487 FB000000 		.4byte	0xfb
 2652 048b 74       		.byte	0x74
 2653 048c 00       		.byte	0
 2654 048d 08       		.uleb128 0x8
 2655 048e FB000000 		.4byte	0xfb
 2656 0492 9D040000 		.4byte	0x49d
 2657 0496 09       		.uleb128 0x9
 2658 0497 B4000000 		.4byte	0xb4
 2659 049b 0F       		.byte	0xf
 2660 049c 00       		.byte	0
 2661 049d 0F       		.uleb128 0xf
 2662 049e DD080000 		.4byte	.LASF85
 2663 04a2 08       		.byte	0x8
 2664 04a3 0505     		.2byte	0x505
 2665 04a5 C0030000 		.4byte	0x3c0
 2666 04a9 15       		.uleb128 0x15
 2667 04aa 02       		.byte	0x2
 2668 04ab 82000000 		.4byte	0x82
 2669 04af 09       		.byte	0x9
 2670 04b0 3F01     		.2byte	0x13f
 2671 04b2 DB070000 		.4byte	0x7db
 2672 04b6 16       		.uleb128 0x16
 2673 04b7 A1010000 		.4byte	.LASF86
 2674 04bb 00       		.byte	0
 2675 04bc 18       		.uleb128 0x18
 2676 04bd DF060000 		.4byte	.LASF87
 2677 04c1 0010     		.2byte	0x1000
 2678 04c3 18       		.uleb128 0x18
 2679 04c4 90170000 		.4byte	.LASF88
 2680 04c8 0110     		.2byte	0x1001
 2681 04ca 18       		.uleb128 0x18
 2682 04cb 460B0000 		.4byte	.LASF89
 2683 04cf 0210     		.2byte	0x1002
 2684 04d1 18       		.uleb128 0x18
ARM GAS  C:\Users\codyg\AppData\Local\Temp\ccQipZVL.s 			page 82


 2685 04d2 CB0B0000 		.4byte	.LASF90
 2686 04d6 0310     		.2byte	0x1003
 2687 04d8 18       		.uleb128 0x18
 2688 04d9 57060000 		.4byte	.LASF91
 2689 04dd 0410     		.2byte	0x1004
 2690 04df 18       		.uleb128 0x18
 2691 04e0 771C0000 		.4byte	.LASF92
 2692 04e4 0510     		.2byte	0x1005
 2693 04e6 18       		.uleb128 0x18
 2694 04e7 95130000 		.4byte	.LASF93
 2695 04eb 0020     		.2byte	0x2000
 2696 04ed 18       		.uleb128 0x18
 2697 04ee 47160000 		.4byte	.LASF94
 2698 04f2 0120     		.2byte	0x2001
 2699 04f4 18       		.uleb128 0x18
 2700 04f5 C8120000 		.4byte	.LASF95
 2701 04f9 0220     		.2byte	0x2002
 2702 04fb 18       		.uleb128 0x18
 2703 04fc 760B0000 		.4byte	.LASF96
 2704 0500 0320     		.2byte	0x2003
 2705 0502 18       		.uleb128 0x18
 2706 0503 910D0000 		.4byte	.LASF97
 2707 0507 0420     		.2byte	0x2004
 2708 0509 18       		.uleb128 0x18
 2709 050a F40F0000 		.4byte	.LASF98
 2710 050e 0520     		.2byte	0x2005
 2711 0510 18       		.uleb128 0x18
 2712 0511 D40A0000 		.4byte	.LASF99
 2713 0515 0620     		.2byte	0x2006
 2714 0517 18       		.uleb128 0x18
 2715 0518 C8160000 		.4byte	.LASF100
 2716 051c 0720     		.2byte	0x2007
 2717 051e 18       		.uleb128 0x18
 2718 051f 39190000 		.4byte	.LASF101
 2719 0523 0820     		.2byte	0x2008
 2720 0525 18       		.uleb128 0x18
 2721 0526 FC080000 		.4byte	.LASF102
 2722 052a 0920     		.2byte	0x2009
 2723 052c 18       		.uleb128 0x18
 2724 052d 3C070000 		.4byte	.LASF103
 2725 0531 0A20     		.2byte	0x200a
 2726 0533 18       		.uleb128 0x18
 2727 0534 ED020000 		.4byte	.LASF104
 2728 0538 0B20     		.2byte	0x200b
 2729 053a 18       		.uleb128 0x18
 2730 053b 62130000 		.4byte	.LASF105
 2731 053f 0C20     		.2byte	0x200c
 2732 0541 18       		.uleb128 0x18
 2733 0542 A5060000 		.4byte	.LASF106
 2734 0546 0D20     		.2byte	0x200d
 2735 0548 18       		.uleb128 0x18
 2736 0549 670D0000 		.4byte	.LASF107
 2737 054d 0E20     		.2byte	0x200e
 2738 054f 18       		.uleb128 0x18
 2739 0550 1E140000 		.4byte	.LASF108
 2740 0554 0F20     		.2byte	0x200f
 2741 0556 18       		.uleb128 0x18
ARM GAS  C:\Users\codyg\AppData\Local\Temp\ccQipZVL.s 			page 83


 2742 0557 C40F0000 		.4byte	.LASF109
 2743 055b 1020     		.2byte	0x2010
 2744 055d 18       		.uleb128 0x18
 2745 055e 09110000 		.4byte	.LASF110
 2746 0562 1120     		.2byte	0x2011
 2747 0564 18       		.uleb128 0x18
 2748 0565 EF180000 		.4byte	.LASF111
 2749 0569 1220     		.2byte	0x2012
 2750 056b 18       		.uleb128 0x18
 2751 056c D3010000 		.4byte	.LASF112
 2752 0570 1320     		.2byte	0x2013
 2753 0572 18       		.uleb128 0x18
 2754 0573 8C0E0000 		.4byte	.LASF113
 2755 0577 1420     		.2byte	0x2014
 2756 0579 18       		.uleb128 0x18
 2757 057a 29040000 		.4byte	.LASF114
 2758 057e 1520     		.2byte	0x2015
 2759 0580 18       		.uleb128 0x18
 2760 0581 02060000 		.4byte	.LASF115
 2761 0585 1620     		.2byte	0x2016
 2762 0587 18       		.uleb128 0x18
 2763 0588 36030000 		.4byte	.LASF116
 2764 058c 1720     		.2byte	0x2017
 2765 058e 18       		.uleb128 0x18
 2766 058f F3060000 		.4byte	.LASF117
 2767 0593 0030     		.2byte	0x3000
 2768 0595 18       		.uleb128 0x18
 2769 0596 8A090000 		.4byte	.LASF118
 2770 059a 0130     		.2byte	0x3001
 2771 059c 18       		.uleb128 0x18
 2772 059d B9080000 		.4byte	.LASF119
 2773 05a1 0230     		.2byte	0x3002
 2774 05a3 18       		.uleb128 0x18
 2775 05a4 06170000 		.4byte	.LASF120
 2776 05a8 0330     		.2byte	0x3003
 2777 05aa 18       		.uleb128 0x18
 2778 05ab 09080000 		.4byte	.LASF121
 2779 05af 0430     		.2byte	0x3004
 2780 05b1 18       		.uleb128 0x18
 2781 05b2 4A170000 		.4byte	.LASF122
 2782 05b6 0530     		.2byte	0x3005
 2783 05b8 18       		.uleb128 0x18
 2784 05b9 B4010000 		.4byte	.LASF123
 2785 05bd 0630     		.2byte	0x3006
 2786 05bf 18       		.uleb128 0x18
 2787 05c0 651B0000 		.4byte	.LASF124
 2788 05c4 0730     		.2byte	0x3007
 2789 05c6 18       		.uleb128 0x18
 2790 05c7 2F100000 		.4byte	.LASF125
 2791 05cb 0830     		.2byte	0x3008
 2792 05cd 18       		.uleb128 0x18
 2793 05ce 6C0A0000 		.4byte	.LASF126
 2794 05d2 0930     		.2byte	0x3009
 2795 05d4 18       		.uleb128 0x18
 2796 05d5 2A170000 		.4byte	.LASF127
 2797 05d9 0A30     		.2byte	0x300a
 2798 05db 18       		.uleb128 0x18
ARM GAS  C:\Users\codyg\AppData\Local\Temp\ccQipZVL.s 			page 84


 2799 05dc D30C0000 		.4byte	.LASF128
 2800 05e0 0B30     		.2byte	0x300b
 2801 05e2 18       		.uleb128 0x18
 2802 05e3 FD000000 		.4byte	.LASF129
 2803 05e7 0C30     		.2byte	0x300c
 2804 05e9 18       		.uleb128 0x18
 2805 05ea 010E0000 		.4byte	.LASF130
 2806 05ee 1130     		.2byte	0x3011
 2807 05f0 18       		.uleb128 0x18
 2808 05f1 64140000 		.4byte	.LASF131
 2809 05f5 1230     		.2byte	0x3012
 2810 05f7 18       		.uleb128 0x18
 2811 05f8 F6170000 		.4byte	.LASF132
 2812 05fc 1330     		.2byte	0x3013
 2813 05fe 18       		.uleb128 0x18
 2814 05ff 71160000 		.4byte	.LASF133
 2815 0603 1430     		.2byte	0x3014
 2816 0605 18       		.uleb128 0x18
 2817 0606 70150000 		.4byte	.LASF134
 2818 060a 1530     		.2byte	0x3015
 2819 060c 18       		.uleb128 0x18
 2820 060d FC0E0000 		.4byte	.LASF135
 2821 0611 1630     		.2byte	0x3016
 2822 0613 18       		.uleb128 0x18
 2823 0614 DA0E0000 		.4byte	.LASF136
 2824 0618 1730     		.2byte	0x3017
 2825 061a 18       		.uleb128 0x18
 2826 061b FB0B0000 		.4byte	.LASF137
 2827 061f 1830     		.2byte	0x3018
 2828 0621 18       		.uleb128 0x18
 2829 0622 8C110000 		.4byte	.LASF138
 2830 0626 0040     		.2byte	0x4000
 2831 0628 18       		.uleb128 0x18
 2832 0629 2E1B0000 		.4byte	.LASF139
 2833 062d 0140     		.2byte	0x4001
 2834 062f 18       		.uleb128 0x18
 2835 0630 C01A0000 		.4byte	.LASF140
 2836 0634 0240     		.2byte	0x4002
 2837 0636 18       		.uleb128 0x18
 2838 0637 37180000 		.4byte	.LASF141
 2839 063b 0340     		.2byte	0x4003
 2840 063d 18       		.uleb128 0x18
 2841 063e 130B0000 		.4byte	.LASF142
 2842 0642 0440     		.2byte	0x4004
 2843 0644 18       		.uleb128 0x18
 2844 0645 C01C0000 		.4byte	.LASF143
 2845 0649 0540     		.2byte	0x4005
 2846 064b 18       		.uleb128 0x18
 2847 064c 79000000 		.4byte	.LASF144
 2848 0650 0640     		.2byte	0x4006
 2849 0652 18       		.uleb128 0x18
 2850 0653 210C0000 		.4byte	.LASF145
 2851 0657 0740     		.2byte	0x4007
 2852 0659 18       		.uleb128 0x18
 2853 065a 37150000 		.4byte	.LASF146
 2854 065e 0840     		.2byte	0x4008
 2855 0660 18       		.uleb128 0x18
ARM GAS  C:\Users\codyg\AppData\Local\Temp\ccQipZVL.s 			page 85


 2856 0661 9B080000 		.4byte	.LASF147
 2857 0665 0940     		.2byte	0x4009
 2858 0667 18       		.uleb128 0x18
 2859 0668 441D0000 		.4byte	.LASF148
 2860 066c 0A40     		.2byte	0x400a
 2861 066e 18       		.uleb128 0x18
 2862 066f F70C0000 		.4byte	.LASF149
 2863 0673 0B40     		.2byte	0x400b
 2864 0675 18       		.uleb128 0x18
 2865 0676 E4100000 		.4byte	.LASF150
 2866 067a 0C40     		.2byte	0x400c
 2867 067c 18       		.uleb128 0x18
 2868 067d C00D0000 		.4byte	.LASF151
 2869 0681 0D40     		.2byte	0x400d
 2870 0683 18       		.uleb128 0x18
 2871 0684 04120000 		.4byte	.LASF152
 2872 0688 0E40     		.2byte	0x400e
 2873 068a 18       		.uleb128 0x18
 2874 068b 41090000 		.4byte	.LASF153
 2875 068f 0F40     		.2byte	0x400f
 2876 0691 18       		.uleb128 0x18
 2877 0692 9B070000 		.4byte	.LASF154
 2878 0696 1040     		.2byte	0x4010
 2879 0698 18       		.uleb128 0x18
 2880 0699 74190000 		.4byte	.LASF155
 2881 069d 1140     		.2byte	0x4011
 2882 069f 18       		.uleb128 0x18
 2883 06a0 AC0A0000 		.4byte	.LASF156
 2884 06a4 1240     		.2byte	0x4012
 2885 06a6 18       		.uleb128 0x18
 2886 06a7 B1150000 		.4byte	.LASF157
 2887 06ab 1340     		.2byte	0x4013
 2888 06ad 18       		.uleb128 0x18
 2889 06ae E3110000 		.4byte	.LASF158
 2890 06b2 1440     		.2byte	0x4014
 2891 06b4 18       		.uleb128 0x18
 2892 06b5 2C050000 		.4byte	.LASF159
 2893 06b9 1540     		.2byte	0x4015
 2894 06bb 18       		.uleb128 0x18
 2895 06bc 901C0000 		.4byte	.LASF160
 2896 06c0 1640     		.2byte	0x4016
 2897 06c2 18       		.uleb128 0x18
 2898 06c3 32020000 		.4byte	.LASF161
 2899 06c7 1740     		.2byte	0x4017
 2900 06c9 18       		.uleb128 0x18
 2901 06ca 58010000 		.4byte	.LASF162
 2902 06ce 1840     		.2byte	0x4018
 2903 06d0 18       		.uleb128 0x18
 2904 06d1 B2140000 		.4byte	.LASF163
 2905 06d5 1940     		.2byte	0x4019
 2906 06d7 18       		.uleb128 0x18
 2907 06d8 DB130000 		.4byte	.LASF164
 2908 06dc 0050     		.2byte	0x5000
 2909 06de 18       		.uleb128 0x18
 2910 06df 8F030000 		.4byte	.LASF165
 2911 06e3 0150     		.2byte	0x5001
 2912 06e5 18       		.uleb128 0x18
ARM GAS  C:\Users\codyg\AppData\Local\Temp\ccQipZVL.s 			page 86


 2913 06e6 0F1A0000 		.4byte	.LASF166
 2914 06ea 0250     		.2byte	0x5002
 2915 06ec 18       		.uleb128 0x18
 2916 06ed 7E1A0000 		.4byte	.LASF167
 2917 06f1 0350     		.2byte	0x5003
 2918 06f3 18       		.uleb128 0x18
 2919 06f4 B0050000 		.4byte	.LASF168
 2920 06f8 0450     		.2byte	0x5004
 2921 06fa 18       		.uleb128 0x18
 2922 06fb F6130000 		.4byte	.LASF169
 2923 06ff 0550     		.2byte	0x5005
 2924 0701 18       		.uleb128 0x18
 2925 0702 360D0000 		.4byte	.LASF170
 2926 0706 0650     		.2byte	0x5006
 2927 0708 18       		.uleb128 0x18
 2928 0709 0F030000 		.4byte	.LASF171
 2929 070d 0750     		.2byte	0x5007
 2930 070f 18       		.uleb128 0x18
 2931 0710 01040000 		.4byte	.LASF172
 2932 0714 0850     		.2byte	0x5008
 2933 0716 18       		.uleb128 0x18
 2934 0717 31060000 		.4byte	.LASF173
 2935 071b 0950     		.2byte	0x5009
 2936 071d 18       		.uleb128 0x18
 2937 071e 76060000 		.4byte	.LASF174
 2938 0722 0A50     		.2byte	0x500a
 2939 0724 18       		.uleb128 0x18
 2940 0725 6F030000 		.4byte	.LASF175
 2941 0729 0B50     		.2byte	0x500b
 2942 072b 18       		.uleb128 0x18
 2943 072c 49140000 		.4byte	.LASF176
 2944 0730 0C50     		.2byte	0x500c
 2945 0732 18       		.uleb128 0x18
 2946 0733 F80A0000 		.4byte	.LASF177
 2947 0737 0D50     		.2byte	0x500d
 2948 0739 18       		.uleb128 0x18
 2949 073a 461B0000 		.4byte	.LASF178
 2950 073e 0E50     		.2byte	0x500e
 2951 0740 18       		.uleb128 0x18
 2952 0741 BB090000 		.4byte	.LASF179
 2953 0745 0F50     		.2byte	0x500f
 2954 0747 18       		.uleb128 0x18
 2955 0748 27160000 		.4byte	.LASF180
 2956 074c 1050     		.2byte	0x5010
 2957 074e 18       		.uleb128 0x18
 2958 074f 5E1A0000 		.4byte	.LASF181
 2959 0753 1150     		.2byte	0x5011
 2960 0755 18       		.uleb128 0x18
 2961 0756 21010000 		.4byte	.LASF182
 2962 075a 1250     		.2byte	0x5012
 2963 075c 18       		.uleb128 0x18
 2964 075d B9130000 		.4byte	.LASF183
 2965 0761 1350     		.2byte	0x5013
 2966 0763 18       		.uleb128 0x18
 2967 0764 CF050000 		.4byte	.LASF184
 2968 0768 1450     		.2byte	0x5014
 2969 076a 18       		.uleb128 0x18
ARM GAS  C:\Users\codyg\AppData\Local\Temp\ccQipZVL.s 			page 87


 2970 076b 95180000 		.4byte	.LASF185
 2971 076f 1550     		.2byte	0x5015
 2972 0771 18       		.uleb128 0x18
 2973 0772 9D1A0000 		.4byte	.LASF186
 2974 0776 1650     		.2byte	0x5016
 2975 0778 18       		.uleb128 0x18
 2976 0779 4F040000 		.4byte	.LASF187
 2977 077d 1750     		.2byte	0x5017
 2978 077f 18       		.uleb128 0x18
 2979 0780 62100000 		.4byte	.LASF188
 2980 0784 1850     		.2byte	0x5018
 2981 0786 18       		.uleb128 0x18
 2982 0787 C81B0000 		.4byte	.LASF189
 2983 078b 0060     		.2byte	0x6000
 2984 078d 18       		.uleb128 0x18
 2985 078e AD190000 		.4byte	.LASF190
 2986 0792 0160     		.2byte	0x6001
 2987 0794 18       		.uleb128 0x18
 2988 0795 1A180000 		.4byte	.LASF191
 2989 0799 0260     		.2byte	0x6002
 2990 079b 18       		.uleb128 0x18
 2991 079c B1110000 		.4byte	.LASF192
 2992 07a0 0360     		.2byte	0x6003
 2993 07a2 18       		.uleb128 0x18
 2994 07a3 1D070000 		.4byte	.LASF193
 2995 07a7 0460     		.2byte	0x6004
 2996 07a9 18       		.uleb128 0x18
 2997 07aa 05160000 		.4byte	.LASF194
 2998 07ae 0560     		.2byte	0x6005
 2999 07b0 18       		.uleb128 0x18
 3000 07b1 250A0000 		.4byte	.LASF195
 3001 07b5 0660     		.2byte	0x6006
 3002 07b7 18       		.uleb128 0x18
 3003 07b8 3B000000 		.4byte	.LASF196
 3004 07bc 0760     		.2byte	0x6007
 3005 07be 18       		.uleb128 0x18
 3006 07bf EF010000 		.4byte	.LASF197
 3007 07c3 0860     		.2byte	0x6008
 3008 07c5 18       		.uleb128 0x18
 3009 07c6 CA000000 		.4byte	.LASF198
 3010 07ca 0960     		.2byte	0x6009
 3011 07cc 18       		.uleb128 0x18
 3012 07cd 40110000 		.4byte	.LASF199
 3013 07d1 0A60     		.2byte	0x600a
 3014 07d3 18       		.uleb128 0x18
 3015 07d4 160A0000 		.4byte	.LASF200
 3016 07d8 FFFF     		.2byte	0xffff
 3017 07da 00       		.byte	0
 3018 07db 07       		.uleb128 0x7
 3019 07dc CF000000 		.4byte	0xcf
 3020 07e0 17       		.uleb128 0x17
 3021 07e1 02       		.byte	0x2
 3022 07e2 0A       		.byte	0xa
 3023 07e3 5B01     		.2byte	0x15b
 3024 07e5 04080000 		.4byte	0x804
 3025 07e9 14       		.uleb128 0x14
 3026 07ea E51A0000 		.4byte	.LASF201
ARM GAS  C:\Users\codyg\AppData\Local\Temp\ccQipZVL.s 			page 88


 3027 07ee 0A       		.byte	0xa
 3028 07ef 6501     		.2byte	0x165
 3029 07f1 CF000000 		.4byte	0xcf
 3030 07f5 00       		.byte	0
 3031 07f6 14       		.uleb128 0x14
 3032 07f7 F1080000 		.4byte	.LASF202
 3033 07fb 0A       		.byte	0xa
 3034 07fc 6901     		.2byte	0x169
 3035 07fe CF000000 		.4byte	0xcf
 3036 0802 01       		.byte	0x1
 3037 0803 00       		.byte	0
 3038 0804 0F       		.uleb128 0xf
 3039 0805 87140000 		.4byte	.LASF203
 3040 0809 0A       		.byte	0xa
 3041 080a 6B01     		.2byte	0x16b
 3042 080c E0070000 		.4byte	0x7e0
 3043 0810 19       		.uleb128 0x19
 3044 0811 01       		.byte	0x1
 3045 0812 5E000000 		.4byte	0x5e
 3046 0816 0B       		.byte	0xb
 3047 0817 7E       		.byte	0x7e
 3048 0818 35080000 		.4byte	0x835
 3049 081c 16       		.uleb128 0x16
 3050 081d C3030000 		.4byte	.LASF204
 3051 0821 00       		.byte	0
 3052 0822 16       		.uleb128 0x16
 3053 0823 58080000 		.4byte	.LASF205
 3054 0827 01       		.byte	0x1
 3055 0828 16       		.uleb128 0x16
 3056 0829 8F0A0000 		.4byte	.LASF206
 3057 082d 02       		.byte	0x2
 3058 082e 16       		.uleb128 0x16
 3059 082f 530C0000 		.4byte	.LASF207
 3060 0833 03       		.byte	0x3
 3061 0834 00       		.byte	0
 3062 0835 04       		.uleb128 0x4
 3063 0836 F3070000 		.4byte	.LASF208
 3064 083a 0B       		.byte	0xb
 3065 083b 83       		.byte	0x83
 3066 083c 10080000 		.4byte	0x810
 3067 0840 19       		.uleb128 0x19
 3068 0841 01       		.byte	0x1
 3069 0842 5E000000 		.4byte	0x5e
 3070 0846 0B       		.byte	0xb
 3071 0847 87       		.byte	0x87
 3072 0848 7D080000 		.4byte	0x87d
 3073 084c 16       		.uleb128 0x16
 3074 084d DB1C0000 		.4byte	.LASF209
 3075 0851 00       		.byte	0
 3076 0852 16       		.uleb128 0x16
 3077 0853 6B050000 		.4byte	.LASF210
 3078 0857 01       		.byte	0x1
 3079 0858 16       		.uleb128 0x16
 3080 0859 54120000 		.4byte	.LASF211
 3081 085d 02       		.byte	0x2
 3082 085e 16       		.uleb128 0x16
 3083 085f 071D0000 		.4byte	.LASF212
ARM GAS  C:\Users\codyg\AppData\Local\Temp\ccQipZVL.s 			page 89


 3084 0863 03       		.byte	0x3
 3085 0864 16       		.uleb128 0x16
 3086 0865 38130000 		.4byte	.LASF213
 3087 0869 04       		.byte	0x4
 3088 086a 16       		.uleb128 0x16
 3089 086b 8C0C0000 		.4byte	.LASF214
 3090 086f 05       		.byte	0x5
 3091 0870 16       		.uleb128 0x16
 3092 0871 29120000 		.4byte	.LASF215
 3093 0875 06       		.byte	0x6
 3094 0876 16       		.uleb128 0x16
 3095 0877 7D010000 		.4byte	.LASF216
 3096 087b 07       		.byte	0x7
 3097 087c 00       		.byte	0
 3098 087d 04       		.uleb128 0x4
 3099 087e D6020000 		.4byte	.LASF217
 3100 0882 0B       		.byte	0xb
 3101 0883 90       		.byte	0x90
 3102 0884 40080000 		.4byte	0x840
 3103 0888 19       		.uleb128 0x19
 3104 0889 01       		.byte	0x1
 3105 088a 5E000000 		.4byte	0x5e
 3106 088e 0C       		.byte	0xc
 3107 088f 29       		.byte	0x29
 3108 0890 D1080000 		.4byte	0x8d1
 3109 0894 16       		.uleb128 0x16
 3110 0895 97100000 		.4byte	.LASF218
 3111 0899 00       		.byte	0
 3112 089a 16       		.uleb128 0x16
 3113 089b 1E0D0000 		.4byte	.LASF219
 3114 089f 01       		.byte	0x1
 3115 08a0 16       		.uleb128 0x16
 3116 08a1 AB020000 		.4byte	.LASF220
 3117 08a5 02       		.byte	0x2
 3118 08a6 16       		.uleb128 0x16
 3119 08a7 1F150000 		.4byte	.LASF221
 3120 08ab 03       		.byte	0x3
 3121 08ac 16       		.uleb128 0x16
 3122 08ad A4120000 		.4byte	.LASF222
 3123 08b1 04       		.byte	0x4
 3124 08b2 16       		.uleb128 0x16
 3125 08b3 F1090000 		.4byte	.LASF223
 3126 08b7 05       		.byte	0x5
 3127 08b8 16       		.uleb128 0x16
 3128 08b9 B3160000 		.4byte	.LASF224
 3129 08bd 06       		.byte	0x6
 3130 08be 16       		.uleb128 0x16
 3131 08bf 80020000 		.4byte	.LASF225
 3132 08c3 07       		.byte	0x7
 3133 08c4 16       		.uleb128 0x16
 3134 08c5 A9090000 		.4byte	.LASF226
 3135 08c9 08       		.byte	0x8
 3136 08ca 16       		.uleb128 0x16
 3137 08cb B4000000 		.4byte	.LASF227
 3138 08cf 09       		.byte	0x9
 3139 08d0 00       		.byte	0
 3140 08d1 19       		.uleb128 0x19
ARM GAS  C:\Users\codyg\AppData\Local\Temp\ccQipZVL.s 			page 90


 3141 08d2 01       		.byte	0x1
 3142 08d3 5E000000 		.4byte	0x5e
 3143 08d7 0D       		.byte	0xd
 3144 08d8 28       		.byte	0x28
 3145 08d9 FC080000 		.4byte	0x8fc
 3146 08dd 16       		.uleb128 0x16
 3147 08de A00F0000 		.4byte	.LASF228
 3148 08e2 00       		.byte	0
 3149 08e3 16       		.uleb128 0x16
 3150 08e4 11000000 		.4byte	.LASF229
 3151 08e8 01       		.byte	0x1
 3152 08e9 16       		.uleb128 0x16
 3153 08ea 5D190000 		.4byte	.LASF230
 3154 08ee 02       		.byte	0x2
 3155 08ef 16       		.uleb128 0x16
 3156 08f0 70120000 		.4byte	.LASF231
 3157 08f4 03       		.byte	0x3
 3158 08f5 16       		.uleb128 0x16
 3159 08f6 9A0B0000 		.4byte	.LASF232
 3160 08fa 04       		.byte	0x4
 3161 08fb 00       		.byte	0
 3162 08fc 19       		.uleb128 0x19
 3163 08fd 01       		.byte	0x1
 3164 08fe 5E000000 		.4byte	0x5e
 3165 0902 0D       		.byte	0xd
 3166 0903 32       		.byte	0x32
 3167 0904 1B090000 		.4byte	0x91b
 3168 0908 16       		.uleb128 0x16
 3169 0909 F6160000 		.4byte	.LASF233
 3170 090d 00       		.byte	0
 3171 090e 16       		.uleb128 0x16
 3172 090f 75170000 		.4byte	.LASF234
 3173 0913 01       		.byte	0x1
 3174 0914 16       		.uleb128 0x16
 3175 0915 CF180000 		.4byte	.LASF235
 3176 0919 02       		.byte	0x2
 3177 091a 00       		.byte	0
 3178 091b 15       		.uleb128 0x15
 3179 091c 01       		.byte	0x1
 3180 091d 5E000000 		.4byte	0x5e
 3181 0921 0E       		.byte	0xe
 3182 0922 B108     		.2byte	0x8b1
 3183 0924 3B090000 		.4byte	0x93b
 3184 0928 16       		.uleb128 0x16
 3185 0929 7C0C0000 		.4byte	.LASF236
 3186 092d 00       		.byte	0
 3187 092e 16       		.uleb128 0x16
 3188 092f A3170000 		.4byte	.LASF237
 3189 0933 01       		.byte	0x1
 3190 0934 16       		.uleb128 0x16
 3191 0935 A2000000 		.4byte	.LASF238
 3192 0939 02       		.byte	0x2
 3193 093a 00       		.byte	0
 3194 093b 0A       		.uleb128 0xa
 3195 093c 14       		.byte	0x14
 3196 093d 0F       		.byte	0xf
 3197 093e 3B       		.byte	0x3b
ARM GAS  C:\Users\codyg\AppData\Local\Temp\ccQipZVL.s 			page 91


 3198 093f 80090000 		.4byte	0x980
 3199 0943 0C       		.uleb128 0xc
 3200 0944 CA020000 		.4byte	.LASF239
 3201 0948 0F       		.byte	0xf
 3202 0949 3D       		.byte	0x3d
 3203 094a FB000000 		.4byte	0xfb
 3204 094e 00       		.byte	0
 3205 094f 0C       		.uleb128 0xc
 3206 0950 8F070000 		.4byte	.LASF240
 3207 0954 0F       		.byte	0xf
 3208 0955 3E       		.byte	0x3e
 3209 0956 FB000000 		.4byte	0xfb
 3210 095a 04       		.byte	0x4
 3211 095b 0C       		.uleb128 0xc
 3212 095c 5B030000 		.4byte	.LASF241
 3213 0960 0F       		.byte	0xf
 3214 0961 3F       		.byte	0x3f
 3215 0962 80090000 		.4byte	0x980
 3216 0966 08       		.byte	0x8
 3217 0967 0C       		.uleb128 0xc
 3218 0968 881B0000 		.4byte	.LASF242
 3219 096c 0F       		.byte	0xf
 3220 096d 40       		.byte	0x40
 3221 096e FB000000 		.4byte	0xfb
 3222 0972 0C       		.byte	0xc
 3223 0973 0C       		.uleb128 0xc
 3224 0974 ED190000 		.4byte	.LASF243
 3225 0978 0F       		.byte	0xf
 3226 0979 45       		.byte	0x45
 3227 097a FB000000 		.4byte	0xfb
 3228 097e 10       		.byte	0x10
 3229 097f 00       		.byte	0
 3230 0980 10       		.uleb128 0x10
 3231 0981 04       		.byte	0x4
 3232 0982 86090000 		.4byte	0x986
 3233 0986 07       		.uleb128 0x7
 3234 0987 9D040000 		.4byte	0x49d
 3235 098b 04       		.uleb128 0x4
 3236 098c 65110000 		.4byte	.LASF244
 3237 0990 0F       		.byte	0xf
 3238 0991 48       		.byte	0x48
 3239 0992 3B090000 		.4byte	0x93b
 3240 0996 04       		.uleb128 0x4
 3241 0997 D4190000 		.4byte	.LASF245
 3242 099b 10       		.byte	0x10
 3243 099c 73       		.byte	0x73
 3244 099d DC020000 		.4byte	0x2dc
 3245 09a1 04       		.uleb128 0x4
 3246 09a2 77110000 		.4byte	.LASF246
 3247 09a6 11       		.byte	0x11
 3248 09a7 35       		.byte	0x35
 3249 09a8 5E000000 		.4byte	0x5e
 3250 09ac 19       		.uleb128 0x19
 3251 09ad 01       		.byte	0x1
 3252 09ae 5E000000 		.4byte	0x5e
 3253 09b2 11       		.byte	0x11
 3254 09b3 39       		.byte	0x39
ARM GAS  C:\Users\codyg\AppData\Local\Temp\ccQipZVL.s 			page 92


 3255 09b4 DD090000 		.4byte	0x9dd
 3256 09b8 16       		.uleb128 0x16
 3257 09b9 C0070000 		.4byte	.LASF247
 3258 09bd 00       		.byte	0
 3259 09be 16       		.uleb128 0x16
 3260 09bf 081B0000 		.4byte	.LASF248
 3261 09c3 01       		.byte	0x1
 3262 09c4 16       		.uleb128 0x16
 3263 09c5 3C080000 		.4byte	.LASF249
 3264 09c9 02       		.byte	0x2
 3265 09ca 16       		.uleb128 0x16
 3266 09cb C8060000 		.4byte	.LASF250
 3267 09cf 03       		.byte	0x3
 3268 09d0 16       		.uleb128 0x16
 3269 09d1 AE1B0000 		.4byte	.LASF251
 3270 09d5 04       		.byte	0x4
 3271 09d6 16       		.uleb128 0x16
 3272 09d7 B4170000 		.4byte	.LASF252
 3273 09db 05       		.byte	0x5
 3274 09dc 00       		.byte	0
 3275 09dd 04       		.uleb128 0x4
 3276 09de 300B0000 		.4byte	.LASF253
 3277 09e2 11       		.byte	0x11
 3278 09e3 40       		.byte	0x40
 3279 09e4 AC090000 		.4byte	0x9ac
 3280 09e8 19       		.uleb128 0x19
 3281 09e9 01       		.byte	0x1
 3282 09ea 5E000000 		.4byte	0x5e
 3283 09ee 11       		.byte	0x11
 3284 09ef 44       		.byte	0x44
 3285 09f0 0D0A0000 		.4byte	0xa0d
 3286 09f4 16       		.uleb128 0x16
 3287 09f5 181C0000 		.4byte	.LASF254
 3288 09f9 00       		.byte	0
 3289 09fa 16       		.uleb128 0x16
 3290 09fb 271C0000 		.4byte	.LASF255
 3291 09ff 01       		.byte	0x1
 3292 0a00 16       		.uleb128 0x16
 3293 0a01 361C0000 		.4byte	.LASF256
 3294 0a05 02       		.byte	0x2
 3295 0a06 16       		.uleb128 0x16
 3296 0a07 451C0000 		.4byte	.LASF257
 3297 0a0b 03       		.byte	0x3
 3298 0a0c 00       		.byte	0
 3299 0a0d 04       		.uleb128 0x4
 3300 0a0e 21060000 		.4byte	.LASF258
 3301 0a12 11       		.byte	0x11
 3302 0a13 49       		.byte	0x49
 3303 0a14 E8090000 		.4byte	0x9e8
 3304 0a18 1A       		.uleb128 0x1a
 3305 0a19 33090000 		.4byte	.LASF260
 3306 0a1d 6F       		.byte	0x6f
 3307 0a1e 01       		.byte	0x1
 3308 0a1f 31       		.byte	0x31
 3309 0a20 550A0000 		.4byte	0xa55
 3310 0a24 0C       		.uleb128 0xc
 3311 0a25 45040000 		.4byte	.LASF261
ARM GAS  C:\Users\codyg\AppData\Local\Temp\ccQipZVL.s 			page 93


 3312 0a29 01       		.byte	0x1
 3313 0a2a 34       		.byte	0x34
 3314 0a2b CF000000 		.4byte	0xcf
 3315 0a2f 00       		.byte	0
 3316 0a30 0C       		.uleb128 0xc
 3317 0a31 410B0000 		.4byte	.LASF262
 3318 0a35 01       		.byte	0x1
 3319 0a36 37       		.byte	0x37
 3320 0a37 550A0000 		.4byte	0xa55
 3321 0a3b 01       		.byte	0x1
 3322 0a3c 0C       		.uleb128 0xc
 3323 0a3d BB100000 		.4byte	.LASF263
 3324 0a41 01       		.byte	0x1
 3325 0a42 3A       		.byte	0x3a
 3326 0a43 650A0000 		.4byte	0xa65
 3327 0a47 22       		.byte	0x22
 3328 0a48 0B       		.uleb128 0xb
 3329 0a49 6F646400 		.ascii	"odd\000"
 3330 0a4d 01       		.byte	0x1
 3331 0a4e 3D       		.byte	0x3d
 3332 0a4f 550A0000 		.4byte	0xa55
 3333 0a53 4E       		.byte	0x4e
 3334 0a54 00       		.byte	0
 3335 0a55 08       		.uleb128 0x8
 3336 0a56 CF000000 		.4byte	0xcf
 3337 0a5a 650A0000 		.4byte	0xa65
 3338 0a5e 09       		.uleb128 0x9
 3339 0a5f B4000000 		.4byte	0xb4
 3340 0a63 20       		.byte	0x20
 3341 0a64 00       		.byte	0
 3342 0a65 08       		.uleb128 0x8
 3343 0a66 CF000000 		.4byte	0xcf
 3344 0a6a 750A0000 		.4byte	0xa75
 3345 0a6e 09       		.uleb128 0x9
 3346 0a6f B4000000 		.4byte	0xb4
 3347 0a73 2B       		.byte	0x2b
 3348 0a74 00       		.byte	0
 3349 0a75 1B       		.uleb128 0x1b
 3350 0a76 6F       		.byte	0x6f
 3351 0a77 01       		.byte	0x1
 3352 0a78 41       		.byte	0x41
 3353 0a79 940A0000 		.4byte	0xa94
 3354 0a7d 1C       		.uleb128 0x1c
 3355 0a7e EE000000 		.4byte	.LASF264
 3356 0a82 01       		.byte	0x1
 3357 0a83 44       		.byte	0x44
 3358 0a84 180A0000 		.4byte	0xa18
 3359 0a88 1C       		.uleb128 0x1c
 3360 0a89 2C0E0000 		.4byte	.LASF265
 3361 0a8d 01       		.byte	0x1
 3362 0a8e 47       		.byte	0x47
 3363 0a8f 940A0000 		.4byte	0xa94
 3364 0a93 00       		.byte	0
 3365 0a94 08       		.uleb128 0x8
 3366 0a95 CF000000 		.4byte	0xcf
 3367 0a99 A40A0000 		.4byte	0xaa4
 3368 0a9d 09       		.uleb128 0x9
ARM GAS  C:\Users\codyg\AppData\Local\Temp\ccQipZVL.s 			page 94


 3369 0a9e B4000000 		.4byte	0xb4
 3370 0aa2 6E       		.byte	0x6e
 3371 0aa3 00       		.byte	0
 3372 0aa4 04       		.uleb128 0x4
 3373 0aa5 5D070000 		.4byte	.LASF266
 3374 0aa9 01       		.byte	0x1
 3375 0aaa 4A       		.byte	0x4a
 3376 0aab 750A0000 		.4byte	0xa75
 3377 0aaf 1D       		.uleb128 0x1d
 3378 0ab0 7B180000 		.4byte	.LASF269
 3379 0ab4 02       		.byte	0x2
 3380 0ab5 4503     		.2byte	0x345
 3381 0ab7 03       		.byte	0x3
 3382 0ab8 D50A0000 		.4byte	0xad5
 3383 0abc 1E       		.uleb128 0x1e
 3384 0abd 7A070000 		.4byte	.LASF267
 3385 0ac1 02       		.byte	0x2
 3386 0ac2 4503     		.2byte	0x345
 3387 0ac4 D50A0000 		.4byte	0xad5
 3388 0ac8 1E       		.uleb128 0x1e
 3389 0ac9 13180000 		.4byte	.LASF268
 3390 0acd 02       		.byte	0x2
 3391 0ace 4503     		.2byte	0x345
 3392 0ad0 FB000000 		.4byte	0xfb
 3393 0ad4 00       		.byte	0
 3394 0ad5 10       		.uleb128 0x10
 3395 0ad6 04       		.byte	0x4
 3396 0ad7 FE010000 		.4byte	0x1fe
 3397 0adb 1D       		.uleb128 0x1d
 3398 0adc 9E150000 		.4byte	.LASF270
 3399 0ae0 02       		.byte	0x2
 3400 0ae1 2703     		.2byte	0x327
 3401 0ae3 03       		.byte	0x3
 3402 0ae4 010B0000 		.4byte	0xb01
 3403 0ae8 1E       		.uleb128 0x1e
 3404 0ae9 7A070000 		.4byte	.LASF267
 3405 0aed 02       		.byte	0x2
 3406 0aee 2703     		.2byte	0x327
 3407 0af0 D50A0000 		.4byte	0xad5
 3408 0af4 1E       		.uleb128 0x1e
 3409 0af5 13180000 		.4byte	.LASF268
 3410 0af9 02       		.byte	0x2
 3411 0afa 2703     		.2byte	0x327
 3412 0afc FB000000 		.4byte	0xfb
 3413 0b00 00       		.byte	0
 3414 0b01 1F       		.uleb128 0x1f
 3415 0b02 79090000 		.4byte	.LASF274
 3416 0b06 01       		.byte	0x1
 3417 0b07 78       		.byte	0x78
 3418 0b08 00000000 		.4byte	.LFB517
 3419 0b0c 4C000000 		.4byte	.LFE517-.LFB517
 3420 0b10 01       		.uleb128 0x1
 3421 0b11 9C       		.byte	0x9c
 3422 0b12 210C0000 		.4byte	0xc21
 3423 0b16 20       		.uleb128 0x20
 3424 0b17 2E030000 		.4byte	.LASF271
 3425 0b1b 01       		.byte	0x1
ARM GAS  C:\Users\codyg\AppData\Local\Temp\ccQipZVL.s 			page 95


 3426 0b1c 78       		.byte	0x78
 3427 0b1d CF000000 		.4byte	0xcf
 3428 0b21 00000000 		.4byte	.LLST0
 3429 0b25 20       		.uleb128 0x20
 3430 0b26 8C0D0000 		.4byte	.LASF272
 3431 0b2a 01       		.byte	0x1
 3432 0b2b 78       		.byte	0x78
 3433 0b2c ED020000 		.4byte	0x2ed
 3434 0b30 21000000 		.4byte	.LLST1
 3435 0b34 20       		.uleb128 0x20
 3436 0b35 F8190000 		.4byte	.LASF273
 3437 0b39 01       		.byte	0x1
 3438 0b3a 78       		.byte	0x78
 3439 0b3b E5000000 		.4byte	0xe5
 3440 0b3f 55000000 		.4byte	.LLST2
 3441 0b43 21       		.uleb128 0x21
 3442 0b44 AF0A0000 		.4byte	0xaaf
 3443 0b48 0A000000 		.4byte	.LBB58
 3444 0b4c 06000000 		.4byte	.LBE58-.LBB58
 3445 0b50 01       		.byte	0x1
 3446 0b51 7B       		.byte	0x7b
 3447 0b52 690B0000 		.4byte	0xb69
 3448 0b56 22       		.uleb128 0x22
 3449 0b57 C80A0000 		.4byte	0xac8
 3450 0b5b 97000000 		.4byte	.LLST3
 3451 0b5f 22       		.uleb128 0x22
 3452 0b60 BC0A0000 		.4byte	0xabc
 3453 0b64 AB000000 		.4byte	.LLST4
 3454 0b68 00       		.byte	0
 3455 0b69 21       		.uleb128 0x21
 3456 0b6a DB0A0000 		.4byte	0xadb
 3457 0b6e 1C000000 		.4byte	.LBB60
 3458 0b72 02000000 		.4byte	.LBE60-.LBB60
 3459 0b76 01       		.byte	0x1
 3460 0b77 81       		.byte	0x81
 3461 0b78 8F0B0000 		.4byte	0xb8f
 3462 0b7c 22       		.uleb128 0x22
 3463 0b7d F40A0000 		.4byte	0xaf4
 3464 0b81 C3000000 		.4byte	.LLST5
 3465 0b85 22       		.uleb128 0x22
 3466 0b86 E80A0000 		.4byte	0xae8
 3467 0b8a D7000000 		.4byte	.LLST6
 3468 0b8e 00       		.byte	0
 3469 0b8f 21       		.uleb128 0x21
 3470 0b90 AF0A0000 		.4byte	0xaaf
 3471 0b94 1E000000 		.4byte	.LBB62
 3472 0b98 02000000 		.4byte	.LBE62-.LBB62
 3473 0b9c 01       		.byte	0x1
 3474 0b9d 84       		.byte	0x84
 3475 0b9e B50B0000 		.4byte	0xbb5
 3476 0ba2 22       		.uleb128 0x22
 3477 0ba3 C80A0000 		.4byte	0xac8
 3478 0ba7 EF000000 		.4byte	.LLST7
 3479 0bab 22       		.uleb128 0x22
 3480 0bac BC0A0000 		.4byte	0xabc
 3481 0bb0 03010000 		.4byte	.LLST8
 3482 0bb4 00       		.byte	0
ARM GAS  C:\Users\codyg\AppData\Local\Temp\ccQipZVL.s 			page 96


 3483 0bb5 21       		.uleb128 0x21
 3484 0bb6 DB0A0000 		.4byte	0xadb
 3485 0bba 3C000000 		.4byte	.LBB64
 3486 0bbe 10000000 		.4byte	.LBE64-.LBB64
 3487 0bc2 01       		.byte	0x1
 3488 0bc3 8E       		.byte	0x8e
 3489 0bc4 DB0B0000 		.4byte	0xbdb
 3490 0bc8 22       		.uleb128 0x22
 3491 0bc9 F40A0000 		.4byte	0xaf4
 3492 0bcd 1B010000 		.4byte	.LLST9
 3493 0bd1 22       		.uleb128 0x22
 3494 0bd2 E80A0000 		.4byte	0xae8
 3495 0bd6 2F010000 		.4byte	.LLST10
 3496 0bda 00       		.byte	0
 3497 0bdb 23       		.uleb128 0x23
 3498 0bdc 16000000 		.4byte	.LVL4
 3499 0be0 76190000 		.4byte	0x1976
 3500 0be4 EF0B0000 		.4byte	0xbef
 3501 0be8 24       		.uleb128 0x24
 3502 0be9 01       		.uleb128 0x1
 3503 0bea 50       		.byte	0x50
 3504 0beb 02       		.uleb128 0x2
 3505 0bec 08       		.byte	0x8
 3506 0bed 70       		.byte	0x70
 3507 0bee 00       		.byte	0
 3508 0bef 23       		.uleb128 0x23
 3509 0bf0 1C000000 		.4byte	.LVL5
 3510 0bf4 76190000 		.4byte	0x1976
 3511 0bf8 030C0000 		.4byte	0xc03
 3512 0bfc 24       		.uleb128 0x24
 3513 0bfd 01       		.uleb128 0x1
 3514 0bfe 50       		.byte	0x50
 3515 0bff 02       		.uleb128 0x2
 3516 0c00 78       		.byte	0x78
 3517 0c01 00       		.sleb128 0
 3518 0c02 00       		.byte	0
 3519 0c03 23       		.uleb128 0x23
 3520 0c04 26000000 		.4byte	.LVL8
 3521 0c08 76190000 		.4byte	0x1976
 3522 0c0c 170C0000 		.4byte	0xc17
 3523 0c10 24       		.uleb128 0x24
 3524 0c11 01       		.uleb128 0x1
 3525 0c12 50       		.byte	0x50
 3526 0c13 02       		.uleb128 0x2
 3527 0c14 08       		.byte	0x8
 3528 0c15 72       		.byte	0x72
 3529 0c16 00       		.byte	0
 3530 0c17 25       		.uleb128 0x25
 3531 0c18 30000000 		.4byte	.LVL11
 3532 0c1c 76190000 		.4byte	0x1976
 3533 0c20 00       		.byte	0
 3534 0c21 1F       		.uleb128 0x1f
 3535 0c22 0E150000 		.4byte	.LASF275
 3536 0c26 01       		.byte	0x1
 3537 0c27 A1       		.byte	0xa1
 3538 0c28 00000000 		.4byte	.LFB518
 3539 0c2c 18000000 		.4byte	.LFE518-.LFB518
ARM GAS  C:\Users\codyg\AppData\Local\Temp\ccQipZVL.s 			page 97


 3540 0c30 01       		.uleb128 0x1
 3541 0c31 9C       		.byte	0x9c
 3542 0c32 6A0C0000 		.4byte	0xc6a
 3543 0c36 20       		.uleb128 0x20
 3544 0c37 2E030000 		.4byte	.LASF271
 3545 0c3b 01       		.byte	0x1
 3546 0c3c A1       		.byte	0xa1
 3547 0c3d CF000000 		.4byte	0xcf
 3548 0c41 47010000 		.4byte	.LLST11
 3549 0c45 20       		.uleb128 0x20
 3550 0c46 8C0D0000 		.4byte	.LASF272
 3551 0c4a 01       		.byte	0x1
 3552 0c4b A1       		.byte	0xa1
 3553 0c4c CF000000 		.4byte	0xcf
 3554 0c50 68010000 		.4byte	.LLST12
 3555 0c54 26       		.uleb128 0x26
 3556 0c55 12000000 		.4byte	.LVL19
 3557 0c59 010B0000 		.4byte	0xb01
 3558 0c5d 24       		.uleb128 0x24
 3559 0c5e 01       		.uleb128 0x1
 3560 0c5f 51       		.byte	0x51
 3561 0c60 02       		.uleb128 0x2
 3562 0c61 91       		.byte	0x91
 3563 0c62 77       		.sleb128 -9
 3564 0c63 24       		.uleb128 0x24
 3565 0c64 01       		.uleb128 0x1
 3566 0c65 52       		.byte	0x52
 3567 0c66 01       		.uleb128 0x1
 3568 0c67 31       		.byte	0x31
 3569 0c68 00       		.byte	0
 3570 0c69 00       		.byte	0
 3571 0c6a 27       		.uleb128 0x27
 3572 0c6b 1E100000 		.4byte	.LASF277
 3573 0c6f 01       		.byte	0x1
 3574 0c70 B8       		.byte	0xb8
 3575 0c71 CF000000 		.4byte	0xcf
 3576 0c75 00000000 		.4byte	.LFB519
 3577 0c79 30000000 		.4byte	.LFE519-.LFB519
 3578 0c7d 01       		.uleb128 0x1
 3579 0c7e 9C       		.byte	0x9c
 3580 0c7f 930D0000 		.4byte	0xd93
 3581 0c83 20       		.uleb128 0x20
 3582 0c84 2E030000 		.4byte	.LASF271
 3583 0c88 01       		.byte	0x1
 3584 0c89 B8       		.byte	0xb8
 3585 0c8a CF000000 		.4byte	0xcf
 3586 0c8e 93010000 		.4byte	.LLST13
 3587 0c92 20       		.uleb128 0x20
 3588 0c93 8C0D0000 		.4byte	.LASF272
 3589 0c97 01       		.byte	0x1
 3590 0c98 B8       		.byte	0xb8
 3591 0c99 CF000000 		.4byte	0xcf
 3592 0c9d B4010000 		.4byte	.LLST14
 3593 0ca1 28       		.uleb128 0x28
 3594 0ca2 730C0000 		.4byte	.LASF279
 3595 0ca6 01       		.byte	0x1
 3596 0ca7 BB       		.byte	0xbb
ARM GAS  C:\Users\codyg\AppData\Local\Temp\ccQipZVL.s 			page 98


 3597 0ca8 CF000000 		.4byte	0xcf
 3598 0cac 01       		.uleb128 0x1
 3599 0cad 50       		.byte	0x50
 3600 0cae 21       		.uleb128 0x21
 3601 0caf AF0A0000 		.4byte	0xaaf
 3602 0cb3 06000000 		.4byte	.LBB66
 3603 0cb7 06000000 		.4byte	.LBE66-.LBB66
 3604 0cbb 01       		.byte	0x1
 3605 0cbc BE       		.byte	0xbe
 3606 0cbd D40C0000 		.4byte	0xcd4
 3607 0cc1 22       		.uleb128 0x22
 3608 0cc2 C80A0000 		.4byte	0xac8
 3609 0cc6 D5010000 		.4byte	.LLST15
 3610 0cca 22       		.uleb128 0x22
 3611 0ccb BC0A0000 		.4byte	0xabc
 3612 0ccf E9010000 		.4byte	.LLST16
 3613 0cd3 00       		.byte	0
 3614 0cd4 21       		.uleb128 0x21
 3615 0cd5 DB0A0000 		.4byte	0xadb
 3616 0cd9 18000000 		.4byte	.LBB68
 3617 0cdd 02000000 		.4byte	.LBE68-.LBB68
 3618 0ce1 01       		.byte	0x1
 3619 0ce2 C4       		.byte	0xc4
 3620 0ce3 FA0C0000 		.4byte	0xcfa
 3621 0ce7 22       		.uleb128 0x22
 3622 0ce8 F40A0000 		.4byte	0xaf4
 3623 0cec 01020000 		.4byte	.LLST17
 3624 0cf0 22       		.uleb128 0x22
 3625 0cf1 E80A0000 		.4byte	0xae8
 3626 0cf5 15020000 		.4byte	.LLST18
 3627 0cf9 00       		.byte	0
 3628 0cfa 21       		.uleb128 0x21
 3629 0cfb AF0A0000 		.4byte	0xaaf
 3630 0cff 1A000000 		.4byte	.LBB70
 3631 0d03 02000000 		.4byte	.LBE70-.LBB70
 3632 0d07 01       		.byte	0x1
 3633 0d08 C7       		.byte	0xc7
 3634 0d09 200D0000 		.4byte	0xd20
 3635 0d0d 22       		.uleb128 0x22
 3636 0d0e C80A0000 		.4byte	0xac8
 3637 0d12 2D020000 		.4byte	.LLST19
 3638 0d16 22       		.uleb128 0x22
 3639 0d17 BC0A0000 		.4byte	0xabc
 3640 0d1b 41020000 		.4byte	.LLST20
 3641 0d1f 00       		.byte	0
 3642 0d20 21       		.uleb128 0x21
 3643 0d21 DB0A0000 		.4byte	0xadb
 3644 0d25 28000000 		.4byte	.LBB72
 3645 0d29 02000000 		.4byte	.LBE72-.LBB72
 3646 0d2d 01       		.byte	0x1
 3647 0d2e CD       		.byte	0xcd
 3648 0d2f 460D0000 		.4byte	0xd46
 3649 0d33 22       		.uleb128 0x22
 3650 0d34 F40A0000 		.4byte	0xaf4
 3651 0d38 59020000 		.4byte	.LLST21
 3652 0d3c 22       		.uleb128 0x22
 3653 0d3d E80A0000 		.4byte	0xae8
ARM GAS  C:\Users\codyg\AppData\Local\Temp\ccQipZVL.s 			page 99


 3654 0d41 6D020000 		.4byte	.LLST22
 3655 0d45 00       		.byte	0
 3656 0d46 23       		.uleb128 0x23
 3657 0d47 12000000 		.4byte	.LVL24
 3658 0d4b 76190000 		.4byte	0x1976
 3659 0d4f 5A0D0000 		.4byte	0xd5a
 3660 0d53 24       		.uleb128 0x24
 3661 0d54 01       		.uleb128 0x1
 3662 0d55 50       		.byte	0x50
 3663 0d56 02       		.uleb128 0x2
 3664 0d57 08       		.byte	0x8
 3665 0d58 70       		.byte	0x70
 3666 0d59 00       		.byte	0
 3667 0d5a 23       		.uleb128 0x23
 3668 0d5b 18000000 		.4byte	.LVL25
 3669 0d5f 76190000 		.4byte	0x1976
 3670 0d63 6E0D0000 		.4byte	0xd6e
 3671 0d67 24       		.uleb128 0x24
 3672 0d68 01       		.uleb128 0x1
 3673 0d69 50       		.byte	0x50
 3674 0d6a 02       		.uleb128 0x2
 3675 0d6b 77       		.byte	0x77
 3676 0d6c 00       		.sleb128 0
 3677 0d6d 00       		.byte	0
 3678 0d6e 23       		.uleb128 0x23
 3679 0d6f 22000000 		.4byte	.LVL28
 3680 0d73 76190000 		.4byte	0x1976
 3681 0d77 820D0000 		.4byte	0xd82
 3682 0d7b 24       		.uleb128 0x24
 3683 0d7c 01       		.uleb128 0x1
 3684 0d7d 50       		.byte	0x50
 3685 0d7e 02       		.uleb128 0x2
 3686 0d7f 08       		.byte	0x8
 3687 0d80 73       		.byte	0x73
 3688 0d81 00       		.byte	0
 3689 0d82 26       		.uleb128 0x26
 3690 0d83 28000000 		.4byte	.LVL29
 3691 0d87 81190000 		.4byte	0x1981
 3692 0d8b 24       		.uleb128 0x24
 3693 0d8c 01       		.uleb128 0x1
 3694 0d8d 50       		.byte	0x50
 3695 0d8e 02       		.uleb128 0x2
 3696 0d8f 76       		.byte	0x76
 3697 0d90 00       		.sleb128 0
 3698 0d91 00       		.byte	0
 3699 0d92 00       		.byte	0
 3700 0d93 1F       		.uleb128 0x1f
 3701 0d94 E6070000 		.4byte	.LASF276
 3702 0d98 01       		.byte	0x1
 3703 0d99 E2       		.byte	0xe2
 3704 0d9a 00000000 		.4byte	.LFB520
 3705 0d9e 30000000 		.4byte	.LFE520-.LFB520
 3706 0da2 01       		.uleb128 0x1
 3707 0da3 9C       		.byte	0x9c
 3708 0da4 960E0000 		.4byte	0xe96
 3709 0da8 21       		.uleb128 0x21
 3710 0da9 AF0A0000 		.4byte	0xaaf
ARM GAS  C:\Users\codyg\AppData\Local\Temp\ccQipZVL.s 			page 100


 3711 0dad 02000000 		.4byte	.LBB74
 3712 0db1 06000000 		.4byte	.LBE74-.LBB74
 3713 0db5 01       		.byte	0x1
 3714 0db6 E5       		.byte	0xe5
 3715 0db7 CE0D0000 		.4byte	0xdce
 3716 0dbb 22       		.uleb128 0x22
 3717 0dbc C80A0000 		.4byte	0xac8
 3718 0dc0 85020000 		.4byte	.LLST23
 3719 0dc4 22       		.uleb128 0x22
 3720 0dc5 BC0A0000 		.4byte	0xabc
 3721 0dc9 99020000 		.4byte	.LLST24
 3722 0dcd 00       		.byte	0
 3723 0dce 21       		.uleb128 0x21
 3724 0dcf AF0A0000 		.4byte	0xaaf
 3725 0dd3 08000000 		.4byte	.LBB76
 3726 0dd7 06000000 		.4byte	.LBE76-.LBB76
 3727 0ddb 01       		.byte	0x1
 3728 0ddc E7       		.byte	0xe7
 3729 0ddd F40D0000 		.4byte	0xdf4
 3730 0de1 22       		.uleb128 0x22
 3731 0de2 C80A0000 		.4byte	0xac8
 3732 0de6 B1020000 		.4byte	.LLST25
 3733 0dea 22       		.uleb128 0x22
 3734 0deb BC0A0000 		.4byte	0xabc
 3735 0def C5020000 		.4byte	.LLST26
 3736 0df3 00       		.byte	0
 3737 0df4 21       		.uleb128 0x21
 3738 0df5 AF0A0000 		.4byte	0xaaf
 3739 0df9 0E000000 		.4byte	.LBB78
 3740 0dfd 04000000 		.4byte	.LBE78-.LBB78
 3741 0e01 01       		.byte	0x1
 3742 0e02 E9       		.byte	0xe9
 3743 0e03 1A0E0000 		.4byte	0xe1a
 3744 0e07 22       		.uleb128 0x22
 3745 0e08 C80A0000 		.4byte	0xac8
 3746 0e0c DD020000 		.4byte	.LLST27
 3747 0e10 22       		.uleb128 0x22
 3748 0e11 BC0A0000 		.4byte	0xabc
 3749 0e15 F1020000 		.4byte	.LLST28
 3750 0e19 00       		.byte	0
 3751 0e1a 21       		.uleb128 0x21
 3752 0e1b AF0A0000 		.4byte	0xaaf
 3753 0e1f 16000000 		.4byte	.LBB80
 3754 0e23 06000000 		.4byte	.LBE80-.LBB80
 3755 0e27 01       		.byte	0x1
 3756 0e28 EE       		.byte	0xee
 3757 0e29 400E0000 		.4byte	0xe40
 3758 0e2d 22       		.uleb128 0x22
 3759 0e2e C80A0000 		.4byte	0xac8
 3760 0e32 09030000 		.4byte	.LLST29
 3761 0e36 22       		.uleb128 0x22
 3762 0e37 BC0A0000 		.4byte	0xabc
 3763 0e3b 1D030000 		.4byte	.LLST30
 3764 0e3f 00       		.byte	0
 3765 0e40 21       		.uleb128 0x21
 3766 0e41 AF0A0000 		.4byte	0xaaf
 3767 0e45 1C000000 		.4byte	.LBB82
ARM GAS  C:\Users\codyg\AppData\Local\Temp\ccQipZVL.s 			page 101


 3768 0e49 02000000 		.4byte	.LBE82-.LBB82
 3769 0e4d 01       		.byte	0x1
 3770 0e4e EF       		.byte	0xef
 3771 0e4f 660E0000 		.4byte	0xe66
 3772 0e53 22       		.uleb128 0x22
 3773 0e54 C80A0000 		.4byte	0xac8
 3774 0e58 35030000 		.4byte	.LLST31
 3775 0e5c 22       		.uleb128 0x22
 3776 0e5d BC0A0000 		.4byte	0xabc
 3777 0e61 49030000 		.4byte	.LLST32
 3778 0e65 00       		.byte	0
 3779 0e66 21       		.uleb128 0x21
 3780 0e67 AF0A0000 		.4byte	0xaaf
 3781 0e6b 1E000000 		.4byte	.LBB84
 3782 0e6f 12000000 		.4byte	.LBE84-.LBB84
 3783 0e73 01       		.byte	0x1
 3784 0e74 F0       		.byte	0xf0
 3785 0e75 8C0E0000 		.4byte	0xe8c
 3786 0e79 22       		.uleb128 0x22
 3787 0e7a C80A0000 		.4byte	0xac8
 3788 0e7e 61030000 		.4byte	.LLST33
 3789 0e82 22       		.uleb128 0x22
 3790 0e83 BC0A0000 		.4byte	0xabc
 3791 0e87 75030000 		.4byte	.LLST34
 3792 0e8b 00       		.byte	0
 3793 0e8c 25       		.uleb128 0x25
 3794 0e8d 16000000 		.4byte	.LVL35
 3795 0e91 8C190000 		.4byte	0x198c
 3796 0e95 00       		.byte	0
 3797 0e96 29       		.uleb128 0x29
 3798 0e97 D0110000 		.4byte	.LASF278
 3799 0e9b 01       		.byte	0x1
 3800 0e9c 0301     		.2byte	0x103
 3801 0e9e DD090000 		.4byte	0x9dd
 3802 0ea2 00000000 		.4byte	.LFB521
 3803 0ea6 1C010000 		.4byte	.LFE521-.LFB521
 3804 0eaa 01       		.uleb128 0x1
 3805 0eab 9C       		.byte	0x9c
 3806 0eac C5100000 		.4byte	0x10c5
 3807 0eb0 2A       		.uleb128 0x2a
 3808 0eb1 521A0000 		.4byte	.LASF280
 3809 0eb5 01       		.byte	0x1
 3810 0eb6 0601     		.2byte	0x106
 3811 0eb8 E5000000 		.4byte	0xe5
 3812 0ebc 8D030000 		.4byte	.LLST35
 3813 0ec0 23       		.uleb128 0x23
 3814 0ec1 0E000000 		.4byte	.LVL40
 3815 0ec5 97190000 		.4byte	0x1997
 3816 0ec9 DF0E0000 		.4byte	0xedf
 3817 0ecd 24       		.uleb128 0x24
 3818 0ece 01       		.uleb128 0x1
 3819 0ecf 50       		.byte	0x50
 3820 0ed0 02       		.uleb128 0x2
 3821 0ed1 74       		.byte	0x74
 3822 0ed2 00       		.sleb128 0
 3823 0ed3 24       		.uleb128 0x24
 3824 0ed4 01       		.uleb128 0x1
ARM GAS  C:\Users\codyg\AppData\Local\Temp\ccQipZVL.s 			page 102


 3825 0ed5 51       		.byte	0x51
 3826 0ed6 01       		.uleb128 0x1
 3827 0ed7 30       		.byte	0x30
 3828 0ed8 24       		.uleb128 0x24
 3829 0ed9 01       		.uleb128 0x1
 3830 0eda 52       		.byte	0x52
 3831 0edb 02       		.uleb128 0x2
 3832 0edc 08       		.byte	0x8
 3833 0edd 6F       		.byte	0x6f
 3834 0ede 00       		.byte	0
 3835 0edf 25       		.uleb128 0x25
 3836 0ee0 22000000 		.4byte	.LVL41
 3837 0ee4 A0190000 		.4byte	0x19a0
 3838 0ee8 2B       		.uleb128 0x2b
 3839 0ee9 2C000000 		.4byte	.LVL42
 3840 0eed F70E0000 		.4byte	0xef7
 3841 0ef1 24       		.uleb128 0x24
 3842 0ef2 01       		.uleb128 0x1
 3843 0ef3 50       		.byte	0x50
 3844 0ef4 01       		.uleb128 0x1
 3845 0ef5 3A       		.byte	0x3a
 3846 0ef6 00       		.byte	0
 3847 0ef7 25       		.uleb128 0x25
 3848 0ef8 30000000 		.4byte	.LVL43
 3849 0efc A0190000 		.4byte	0x19a0
 3850 0f00 23       		.uleb128 0x23
 3851 0f01 3C000000 		.4byte	.LVL44
 3852 0f05 6A0C0000 		.4byte	0xc6a
 3853 0f09 190F0000 		.4byte	0xf19
 3854 0f0d 24       		.uleb128 0x24
 3855 0f0e 01       		.uleb128 0x1
 3856 0f0f 50       		.byte	0x50
 3857 0f10 02       		.uleb128 0x2
 3858 0f11 08       		.byte	0x8
 3859 0f12 72       		.byte	0x72
 3860 0f13 24       		.uleb128 0x24
 3861 0f14 01       		.uleb128 0x1
 3862 0f15 51       		.byte	0x51
 3863 0f16 01       		.uleb128 0x1
 3864 0f17 30       		.byte	0x30
 3865 0f18 00       		.byte	0
 3866 0f19 23       		.uleb128 0x23
 3867 0f1a 4A000000 		.4byte	.LVL45
 3868 0f1e 210C0000 		.4byte	0xc21
 3869 0f22 2D0F0000 		.4byte	0xf2d
 3870 0f26 24       		.uleb128 0x24
 3871 0f27 01       		.uleb128 0x1
 3872 0f28 51       		.byte	0x51
 3873 0f29 02       		.uleb128 0x2
 3874 0f2a 08       		.byte	0x8
 3875 0f2b 40       		.byte	0x40
 3876 0f2c 00       		.byte	0
 3877 0f2d 23       		.uleb128 0x23
 3878 0f2e 52000000 		.4byte	.LVL46
 3879 0f32 6A0C0000 		.4byte	0xc6a
 3880 0f36 450F0000 		.4byte	0xf45
 3881 0f3a 24       		.uleb128 0x24
ARM GAS  C:\Users\codyg\AppData\Local\Temp\ccQipZVL.s 			page 103


 3882 0f3b 01       		.uleb128 0x1
 3883 0f3c 50       		.byte	0x50
 3884 0f3d 01       		.uleb128 0x1
 3885 0f3e 3F       		.byte	0x3f
 3886 0f3f 24       		.uleb128 0x24
 3887 0f40 01       		.uleb128 0x1
 3888 0f41 51       		.byte	0x51
 3889 0f42 01       		.uleb128 0x1
 3890 0f43 30       		.byte	0x30
 3891 0f44 00       		.byte	0
 3892 0f45 23       		.uleb128 0x23
 3893 0f46 60000000 		.4byte	.LVL47
 3894 0f4a 210C0000 		.4byte	0xc21
 3895 0f4e 5D0F0000 		.4byte	0xf5d
 3896 0f52 24       		.uleb128 0x24
 3897 0f53 01       		.uleb128 0x1
 3898 0f54 50       		.byte	0x50
 3899 0f55 01       		.uleb128 0x1
 3900 0f56 3B       		.byte	0x3b
 3901 0f57 24       		.uleb128 0x24
 3902 0f58 01       		.uleb128 0x1
 3903 0f59 51       		.byte	0x51
 3904 0f5a 01       		.uleb128 0x1
 3905 0f5b 32       		.byte	0x32
 3906 0f5c 00       		.byte	0
 3907 0f5d 23       		.uleb128 0x23
 3908 0f5e 6A000000 		.4byte	.LVL48
 3909 0f62 010B0000 		.4byte	0xb01
 3910 0f66 7E0F0000 		.4byte	0xf7e
 3911 0f6a 24       		.uleb128 0x24
 3912 0f6b 01       		.uleb128 0x1
 3913 0f6c 50       		.byte	0x50
 3914 0f6d 01       		.uleb128 0x1
 3915 0f6e 31       		.byte	0x31
 3916 0f6f 24       		.uleb128 0x24
 3917 0f70 01       		.uleb128 0x1
 3918 0f71 51       		.byte	0x51
 3919 0f72 05       		.uleb128 0x5
 3920 0f73 03       		.byte	0x3
 3921 0f74 00000000 		.4byte	.LANCHOR1
 3922 0f78 24       		.uleb128 0x24
 3923 0f79 01       		.uleb128 0x1
 3924 0f7a 52       		.byte	0x52
 3925 0f7b 01       		.uleb128 0x1
 3926 0f7c 38       		.byte	0x38
 3927 0f7d 00       		.byte	0
 3928 0f7e 23       		.uleb128 0x23
 3929 0f7f 72000000 		.4byte	.LVL49
 3930 0f83 210C0000 		.4byte	0xc21
 3931 0f87 970F0000 		.4byte	0xf97
 3932 0f8b 24       		.uleb128 0x24
 3933 0f8c 01       		.uleb128 0x1
 3934 0f8d 50       		.byte	0x50
 3935 0f8e 01       		.uleb128 0x1
 3936 0f8f 37       		.byte	0x37
 3937 0f90 24       		.uleb128 0x24
 3938 0f91 01       		.uleb128 0x1
ARM GAS  C:\Users\codyg\AppData\Local\Temp\ccQipZVL.s 			page 104


 3939 0f92 51       		.byte	0x51
 3940 0f93 02       		.uleb128 0x2
 3941 0f94 09       		.byte	0x9
 3942 0f95 D1       		.byte	0xd1
 3943 0f96 00       		.byte	0
 3944 0f97 23       		.uleb128 0x23
 3945 0f98 7A000000 		.4byte	.LVL50
 3946 0f9c 210C0000 		.4byte	0xc21
 3947 0fa0 AF0F0000 		.4byte	0xfaf
 3948 0fa4 24       		.uleb128 0x24
 3949 0fa5 01       		.uleb128 0x1
 3950 0fa6 50       		.byte	0x50
 3951 0fa7 01       		.uleb128 0x1
 3952 0fa8 38       		.byte	0x38
 3953 0fa9 24       		.uleb128 0x24
 3954 0faa 01       		.uleb128 0x1
 3955 0fab 51       		.byte	0x51
 3956 0fac 01       		.uleb128 0x1
 3957 0fad 32       		.byte	0x32
 3958 0fae 00       		.byte	0
 3959 0faf 23       		.uleb128 0x23
 3960 0fb0 82000000 		.4byte	.LVL51
 3961 0fb4 210C0000 		.4byte	0xc21
 3962 0fb8 C80F0000 		.4byte	0xfc8
 3963 0fbc 24       		.uleb128 0x24
 3964 0fbd 01       		.uleb128 0x1
 3965 0fbe 50       		.byte	0x50
 3966 0fbf 01       		.uleb128 0x1
 3967 0fc0 39       		.byte	0x39
 3968 0fc1 24       		.uleb128 0x24
 3969 0fc2 01       		.uleb128 0x1
 3970 0fc3 51       		.byte	0x51
 3971 0fc4 02       		.uleb128 0x2
 3972 0fc5 09       		.byte	0x9
 3973 0fc6 C2       		.byte	0xc2
 3974 0fc7 00       		.byte	0
 3975 0fc8 23       		.uleb128 0x23
 3976 0fc9 8A000000 		.4byte	.LVL52
 3977 0fcd 210C0000 		.4byte	0xc21
 3978 0fd1 E00F0000 		.4byte	0xfe0
 3979 0fd5 24       		.uleb128 0x24
 3980 0fd6 01       		.uleb128 0x1
 3981 0fd7 50       		.byte	0x50
 3982 0fd8 01       		.uleb128 0x1
 3983 0fd9 34       		.byte	0x34
 3984 0fda 24       		.uleb128 0x24
 3985 0fdb 01       		.uleb128 0x1
 3986 0fdc 51       		.byte	0x51
 3987 0fdd 01       		.uleb128 0x1
 3988 0fde 33       		.byte	0x33
 3989 0fdf 00       		.byte	0
 3990 0fe0 23       		.uleb128 0x23
 3991 0fe1 92000000 		.4byte	.LVL53
 3992 0fe5 210C0000 		.4byte	0xc21
 3993 0fe9 F80F0000 		.4byte	0xff8
 3994 0fed 24       		.uleb128 0x24
 3995 0fee 01       		.uleb128 0x1
ARM GAS  C:\Users\codyg\AppData\Local\Temp\ccQipZVL.s 			page 105


 3996 0fef 50       		.byte	0x50
 3997 0ff0 01       		.uleb128 0x1
 3998 0ff1 33       		.byte	0x33
 3999 0ff2 24       		.uleb128 0x24
 4000 0ff3 01       		.uleb128 0x1
 4001 0ff4 51       		.byte	0x51
 4002 0ff5 01       		.uleb128 0x1
 4003 0ff6 31       		.byte	0x31
 4004 0ff7 00       		.byte	0
 4005 0ff8 23       		.uleb128 0x23
 4006 0ff9 9A000000 		.4byte	.LVL54
 4007 0ffd 210C0000 		.4byte	0xc21
 4008 1001 10100000 		.4byte	0x1010
 4009 1005 24       		.uleb128 0x24
 4010 1006 01       		.uleb128 0x1
 4011 1007 50       		.byte	0x50
 4012 1008 01       		.uleb128 0x1
 4013 1009 33       		.byte	0x33
 4014 100a 24       		.uleb128 0x24
 4015 100b 01       		.uleb128 0x1
 4016 100c 51       		.byte	0x51
 4017 100d 01       		.uleb128 0x1
 4018 100e 30       		.byte	0x30
 4019 100f 00       		.byte	0
 4020 1010 2B       		.uleb128 0x2b
 4021 1011 A2000000 		.4byte	.LVL55
 4022 1015 1F100000 		.4byte	0x101f
 4023 1019 24       		.uleb128 0x24
 4024 101a 01       		.uleb128 0x1
 4025 101b 50       		.byte	0x50
 4026 101c 01       		.uleb128 0x1
 4027 101d 3A       		.byte	0x3a
 4028 101e 00       		.byte	0
 4029 101f 23       		.uleb128 0x23
 4030 1020 B0000000 		.4byte	.LVL58
 4031 1024 210C0000 		.4byte	0xc21
 4032 1028 37100000 		.4byte	0x1037
 4033 102c 24       		.uleb128 0x24
 4034 102d 01       		.uleb128 0x1
 4035 102e 50       		.byte	0x50
 4036 102f 01       		.uleb128 0x1
 4037 1030 35       		.byte	0x35
 4038 1031 24       		.uleb128 0x24
 4039 1032 01       		.uleb128 0x1
 4040 1033 51       		.byte	0x51
 4041 1034 01       		.uleb128 0x1
 4042 1035 31       		.byte	0x31
 4043 1036 00       		.byte	0
 4044 1037 2B       		.uleb128 0x2b
 4045 1038 B8000000 		.4byte	.LVL59
 4046 103c 47100000 		.4byte	0x1047
 4047 1040 24       		.uleb128 0x24
 4048 1041 01       		.uleb128 0x1
 4049 1042 50       		.byte	0x50
 4050 1043 02       		.uleb128 0x2
 4051 1044 08       		.byte	0x8
 4052 1045 64       		.byte	0x64
ARM GAS  C:\Users\codyg\AppData\Local\Temp\ccQipZVL.s 			page 106


 4053 1046 00       		.byte	0
 4054 1047 23       		.uleb128 0x23
 4055 1048 C0000000 		.4byte	.LVL60
 4056 104c 210C0000 		.4byte	0xc21
 4057 1050 5F100000 		.4byte	0x105f
 4058 1054 24       		.uleb128 0x24
 4059 1055 01       		.uleb128 0x1
 4060 1056 50       		.byte	0x50
 4061 1057 01       		.uleb128 0x1
 4062 1058 35       		.byte	0x35
 4063 1059 24       		.uleb128 0x24
 4064 105a 01       		.uleb128 0x1
 4065 105b 51       		.byte	0x51
 4066 105c 01       		.uleb128 0x1
 4067 105d 33       		.byte	0x33
 4068 105e 00       		.byte	0
 4069 105f 2B       		.uleb128 0x2b
 4070 1060 C6000000 		.4byte	.LVL61
 4071 1064 6F100000 		.4byte	0x106f
 4072 1068 24       		.uleb128 0x24
 4073 1069 01       		.uleb128 0x1
 4074 106a 50       		.byte	0x50
 4075 106b 02       		.uleb128 0x2
 4076 106c 08       		.byte	0x8
 4077 106d 32       		.byte	0x32
 4078 106e 00       		.byte	0
 4079 106f 23       		.uleb128 0x23
 4080 1070 CE000000 		.4byte	.LVL62
 4081 1074 210C0000 		.4byte	0xc21
 4082 1078 87100000 		.4byte	0x1087
 4083 107c 24       		.uleb128 0x24
 4084 107d 01       		.uleb128 0x1
 4085 107e 50       		.byte	0x50
 4086 107f 01       		.uleb128 0x1
 4087 1080 35       		.byte	0x35
 4088 1081 24       		.uleb128 0x24
 4089 1082 01       		.uleb128 0x1
 4090 1083 51       		.byte	0x51
 4091 1084 01       		.uleb128 0x1
 4092 1085 3F       		.byte	0x3f
 4093 1086 00       		.byte	0
 4094 1087 2B       		.uleb128 0x2b
 4095 1088 D4000000 		.4byte	.LVL63
 4096 108c 97100000 		.4byte	0x1097
 4097 1090 24       		.uleb128 0x24
 4098 1091 01       		.uleb128 0x1
 4099 1092 50       		.byte	0x50
 4100 1093 02       		.uleb128 0x2
 4101 1094 08       		.byte	0x8
 4102 1095 32       		.byte	0x32
 4103 1096 00       		.byte	0
 4104 1097 23       		.uleb128 0x23
 4105 1098 DC000000 		.4byte	.LVL64
 4106 109c 6A0C0000 		.4byte	0xc6a
 4107 10a0 AF100000 		.4byte	0x10af
 4108 10a4 24       		.uleb128 0x24
 4109 10a5 01       		.uleb128 0x1
ARM GAS  C:\Users\codyg\AppData\Local\Temp\ccQipZVL.s 			page 107


 4110 10a6 50       		.byte	0x50
 4111 10a7 01       		.uleb128 0x1
 4112 10a8 3F       		.byte	0x3f
 4113 10a9 24       		.uleb128 0x24
 4114 10aa 01       		.uleb128 0x1
 4115 10ab 51       		.byte	0x51
 4116 10ac 01       		.uleb128 0x1
 4117 10ad 30       		.byte	0x30
 4118 10ae 00       		.byte	0
 4119 10af 26       		.uleb128 0x26
 4120 10b0 EA000000 		.4byte	.LVL65
 4121 10b4 210C0000 		.4byte	0xc21
 4122 10b8 24       		.uleb128 0x24
 4123 10b9 01       		.uleb128 0x1
 4124 10ba 50       		.byte	0x50
 4125 10bb 01       		.uleb128 0x1
 4126 10bc 32       		.byte	0x32
 4127 10bd 24       		.uleb128 0x24
 4128 10be 01       		.uleb128 0x1
 4129 10bf 51       		.byte	0x51
 4130 10c0 02       		.uleb128 0x2
 4131 10c1 08       		.byte	0x8
 4132 10c2 40       		.byte	0x40
 4133 10c3 00       		.byte	0
 4134 10c4 00       		.byte	0
 4135 10c5 2C       		.uleb128 0x2c
 4136 10c6 26080000 		.4byte	.LASF281
 4137 10ca 01       		.byte	0x1
 4138 10cb 8C01     		.2byte	0x18c
 4139 10cd 00000000 		.4byte	.LFB522
 4140 10d1 40000000 		.4byte	.LFE522-.LFB522
 4141 10d5 01       		.uleb128 0x1
 4142 10d6 9C       		.byte	0x9c
 4143 10d7 F8100000 		.4byte	0x10f8
 4144 10db 2D       		.uleb128 0x2d
 4145 10dc 71010000 		.4byte	.LASF282
 4146 10e0 01       		.byte	0x1
 4147 10e1 8C01     		.2byte	0x18c
 4148 10e3 C4000000 		.4byte	0xc4
 4149 10e7 01       		.uleb128 0x1
 4150 10e8 50       		.byte	0x50
 4151 10e9 2E       		.uleb128 0x2e
 4152 10ea FD1B0000 		.4byte	.LASF283
 4153 10ee 01       		.byte	0x1
 4154 10ef 8F01     		.2byte	0x18f
 4155 10f1 E5000000 		.4byte	0xe5
 4156 10f5 01       		.uleb128 0x1
 4157 10f6 52       		.byte	0x52
 4158 10f7 00       		.byte	0
 4159 10f8 2C       		.uleb128 0x2c
 4160 10f9 E8030000 		.4byte	.LASF284
 4161 10fd 01       		.byte	0x1
 4162 10fe D301     		.2byte	0x1d3
 4163 1100 00000000 		.4byte	.LFB523
 4164 1104 20040000 		.4byte	.LFE523-.LFB523
 4165 1108 01       		.uleb128 0x1
 4166 1109 9C       		.byte	0x9c
ARM GAS  C:\Users\codyg\AppData\Local\Temp\ccQipZVL.s 			page 108


 4167 110a FB110000 		.4byte	0x11fb
 4168 110e 2F       		.uleb128 0x2f
 4169 110f BF1B0000 		.4byte	.LASF285
 4170 1113 01       		.byte	0x1
 4171 1114 D301     		.2byte	0x1d3
 4172 1116 FB110000 		.4byte	0x11fb
 4173 111a D9030000 		.4byte	.LLST36
 4174 111e 2F       		.uleb128 0x2f
 4175 111f 031A0000 		.4byte	.LASF286
 4176 1123 01       		.byte	0x1
 4177 1124 D401     		.2byte	0x1d4
 4178 1126 0D0A0000 		.4byte	0xa0d
 4179 112a 0F040000 		.4byte	.LLST37
 4180 112e 30       		.uleb128 0x30
 4181 112f 7800     		.ascii	"x\000"
 4182 1131 01       		.byte	0x1
 4183 1132 D701     		.2byte	0x1d7
 4184 1134 E5000000 		.4byte	0xe5
 4185 1138 30040000 		.4byte	.LLST38
 4186 113c 30       		.uleb128 0x30
 4187 113d 7900     		.ascii	"y\000"
 4188 113f 01       		.byte	0x1
 4189 1140 D901     		.2byte	0x1d9
 4190 1142 E5000000 		.4byte	0xe5
 4191 1146 5A040000 		.4byte	.LLST39
 4192 114a 30       		.uleb128 0x30
 4193 114b 6B00     		.ascii	"k\000"
 4194 114d 01       		.byte	0x1
 4195 114e DB01     		.2byte	0x1db
 4196 1150 E5000000 		.4byte	0xe5
 4197 1154 A5040000 		.4byte	.LLST40
 4198 1158 2A       		.uleb128 0x2a
 4199 1159 4F0E0000 		.4byte	.LASF287
 4200 115d 01       		.byte	0x1
 4201 115e DE01     		.2byte	0x1de
 4202 1160 E5000000 		.4byte	0xe5
 4203 1164 F1040000 		.4byte	.LLST41
 4204 1168 2A       		.uleb128 0x2a
 4205 1169 AB030000 		.4byte	.LASF288
 4206 116d 01       		.byte	0x1
 4207 116e E101     		.2byte	0x1e1
 4208 1170 C9020000 		.4byte	0x2c9
 4209 1174 0F050000 		.4byte	.LLST42
 4210 1178 2A       		.uleb128 0x2a
 4211 1179 92120000 		.4byte	.LASF289
 4212 117d 01       		.byte	0x1
 4213 117e E401     		.2byte	0x1e4
 4214 1180 CF000000 		.4byte	0xcf
 4215 1184 5E050000 		.4byte	.LLST43
 4216 1188 2A       		.uleb128 0x2a
 4217 1189 2E1A0000 		.4byte	.LASF290
 4218 118d 01       		.byte	0x1
 4219 118e E701     		.2byte	0x1e7
 4220 1190 D5020000 		.4byte	0x2d5
 4221 1194 9F050000 		.4byte	.LLST44
 4222 1198 23       		.uleb128 0x23
 4223 1199 40000000 		.4byte	.LVL82
ARM GAS  C:\Users\codyg\AppData\Local\Temp\ccQipZVL.s 			page 109


 4224 119d 97190000 		.4byte	0x1997
 4225 11a1 B7110000 		.4byte	0x11b7
 4226 11a5 24       		.uleb128 0x24
 4227 11a6 01       		.uleb128 0x1
 4228 11a7 50       		.byte	0x50
 4229 11a8 02       		.uleb128 0x2
 4230 11a9 7B       		.byte	0x7b
 4231 11aa 00       		.sleb128 0
 4232 11ab 24       		.uleb128 0x24
 4233 11ac 01       		.uleb128 0x1
 4234 11ad 51       		.byte	0x51
 4235 11ae 01       		.uleb128 0x1
 4236 11af 30       		.byte	0x30
 4237 11b0 24       		.uleb128 0x24
 4238 11b1 01       		.uleb128 0x1
 4239 11b2 52       		.byte	0x52
 4240 11b3 02       		.uleb128 0x2
 4241 11b4 08       		.byte	0x8
 4242 11b5 6F       		.byte	0x6f
 4243 11b6 00       		.byte	0
 4244 11b7 23       		.uleb128 0x23
 4245 11b8 E8030000 		.4byte	.LVL106
 4246 11bc 010B0000 		.4byte	0xb01
 4247 11c0 E6110000 		.4byte	0x11e6
 4248 11c4 24       		.uleb128 0x24
 4249 11c5 01       		.uleb128 0x1
 4250 11c6 50       		.byte	0x50
 4251 11c7 01       		.uleb128 0x1
 4252 11c8 3A       		.byte	0x3a
 4253 11c9 24       		.uleb128 0x24
 4254 11ca 01       		.uleb128 0x1
 4255 11cb 51       		.byte	0x51
 4256 11cc 12       		.uleb128 0x12
 4257 11cd 74       		.byte	0x74
 4258 11ce 00       		.sleb128 0
 4259 11cf 33       		.byte	0x33
 4260 11d0 24       		.byte	0x24
 4261 11d1 74       		.byte	0x74
 4262 11d2 00       		.sleb128 0
 4263 11d3 1C       		.byte	0x1c
 4264 11d4 34       		.byte	0x34
 4265 11d5 24       		.byte	0x24
 4266 11d6 74       		.byte	0x74
 4267 11d7 00       		.sleb128 0
 4268 11d8 1C       		.byte	0x1c
 4269 11d9 03       		.byte	0x3
 4270 11da 00000000 		.4byte	bulkDriverPacket
 4271 11de 22       		.byte	0x22
 4272 11df 24       		.uleb128 0x24
 4273 11e0 01       		.uleb128 0x1
 4274 11e1 52       		.byte	0x52
 4275 11e2 02       		.uleb128 0x2
 4276 11e3 08       		.byte	0x8
 4277 11e4 6F       		.byte	0x6f
 4278 11e5 00       		.byte	0
 4279 11e6 26       		.uleb128 0x26
 4280 11e7 F0030000 		.4byte	.LVL107
ARM GAS  C:\Users\codyg\AppData\Local\Temp\ccQipZVL.s 			page 110


 4281 11eb 210C0000 		.4byte	0xc21
 4282 11ef 24       		.uleb128 0x24
 4283 11f0 01       		.uleb128 0x1
 4284 11f1 50       		.byte	0x50
 4285 11f2 01       		.uleb128 0x1
 4286 11f3 32       		.byte	0x32
 4287 11f4 24       		.uleb128 0x24
 4288 11f5 01       		.uleb128 0x1
 4289 11f6 51       		.byte	0x51
 4290 11f7 01       		.uleb128 0x1
 4291 11f8 37       		.byte	0x37
 4292 11f9 00       		.byte	0
 4293 11fa 00       		.byte	0
 4294 11fb 10       		.uleb128 0x10
 4295 11fc 04       		.byte	0x4
 4296 11fd A1090000 		.4byte	0x9a1
 4297 1201 2C       		.uleb128 0x2c
 4298 1202 470A0000 		.4byte	.LASF291
 4299 1206 01       		.byte	0x1
 4300 1207 AA02     		.2byte	0x2aa
 4301 1209 00000000 		.4byte	.LFB524
 4302 120d 24020000 		.4byte	.LFE524-.LFB524
 4303 1211 01       		.uleb128 0x1
 4304 1212 9C       		.byte	0x9c
 4305 1213 5D130000 		.4byte	0x135d
 4306 1217 2F       		.uleb128 0x2f
 4307 1218 A2160000 		.4byte	.LASF292
 4308 121c 01       		.byte	0x1
 4309 121d AA02     		.2byte	0x2aa
 4310 121f FB110000 		.4byte	0x11fb
 4311 1223 B2050000 		.4byte	.LLST45
 4312 1227 2F       		.uleb128 0x2f
 4313 1228 84170000 		.4byte	.LASF293
 4314 122c 01       		.byte	0x1
 4315 122d AB02     		.2byte	0x2ab
 4316 122f FB110000 		.4byte	0x11fb
 4317 1233 E6050000 		.4byte	.LLST46
 4318 1237 30       		.uleb128 0x30
 4319 1238 7800     		.ascii	"x\000"
 4320 123a 01       		.byte	0x1
 4321 123b AE02     		.2byte	0x2ae
 4322 123d E5000000 		.4byte	0xe5
 4323 1241 1A060000 		.4byte	.LLST47
 4324 1245 30       		.uleb128 0x30
 4325 1246 7900     		.ascii	"y\000"
 4326 1248 01       		.byte	0x1
 4327 1249 B002     		.2byte	0x2b0
 4328 124b E5000000 		.4byte	0xe5
 4329 124f 44060000 		.4byte	.LLST48
 4330 1253 30       		.uleb128 0x30
 4331 1254 6B00     		.ascii	"k\000"
 4332 1256 01       		.byte	0x1
 4333 1257 B202     		.2byte	0x2b2
 4334 1259 E5000000 		.4byte	0xe5
 4335 125d 79060000 		.4byte	.LLST49
 4336 1261 2A       		.uleb128 0x2a
 4337 1262 4F0E0000 		.4byte	.LASF287
ARM GAS  C:\Users\codyg\AppData\Local\Temp\ccQipZVL.s 			page 111


 4338 1266 01       		.byte	0x1
 4339 1267 B502     		.2byte	0x2b5
 4340 1269 E5000000 		.4byte	0xe5
 4341 126d A4060000 		.4byte	.LLST50
 4342 1271 2A       		.uleb128 0x2a
 4343 1272 AA140000 		.4byte	.LASF294
 4344 1276 01       		.byte	0x1
 4345 1277 B802     		.2byte	0x2b8
 4346 1279 CF000000 		.4byte	0xcf
 4347 127d C2060000 		.4byte	.LLST51
 4348 1281 2A       		.uleb128 0x2a
 4349 1282 72070000 		.4byte	.LASF295
 4350 1286 01       		.byte	0x1
 4351 1287 BA02     		.2byte	0x2ba
 4352 1289 CF000000 		.4byte	0xcf
 4353 128d E1060000 		.4byte	.LLST52
 4354 1291 2A       		.uleb128 0x2a
 4355 1292 AB030000 		.4byte	.LASF288
 4356 1296 01       		.byte	0x1
 4357 1297 BD02     		.2byte	0x2bd
 4358 1299 C9020000 		.4byte	0x2c9
 4359 129d F4060000 		.4byte	.LLST53
 4360 12a1 23       		.uleb128 0x23
 4361 12a2 10000000 		.4byte	.LVL119
 4362 12a6 210C0000 		.4byte	0xc21
 4363 12aa BA120000 		.4byte	0x12ba
 4364 12ae 24       		.uleb128 0x24
 4365 12af 01       		.uleb128 0x1
 4366 12b0 50       		.byte	0x50
 4367 12b1 01       		.uleb128 0x1
 4368 12b2 39       		.byte	0x39
 4369 12b3 24       		.uleb128 0x24
 4370 12b4 01       		.uleb128 0x1
 4371 12b5 51       		.byte	0x51
 4372 12b6 02       		.uleb128 0x2
 4373 12b7 09       		.byte	0x9
 4374 12b8 D2       		.byte	0xd2
 4375 12b9 00       		.byte	0
 4376 12ba 23       		.uleb128 0x23
 4377 12bb 2E000000 		.4byte	.LVL121
 4378 12bf 97190000 		.4byte	0x1997
 4379 12c3 D9120000 		.4byte	0x12d9
 4380 12c7 24       		.uleb128 0x24
 4381 12c8 01       		.uleb128 0x1
 4382 12c9 50       		.byte	0x50
 4383 12ca 02       		.uleb128 0x2
 4384 12cb 79       		.byte	0x79
 4385 12cc 00       		.sleb128 0
 4386 12cd 24       		.uleb128 0x24
 4387 12ce 01       		.uleb128 0x1
 4388 12cf 51       		.byte	0x51
 4389 12d0 01       		.uleb128 0x1
 4390 12d1 30       		.byte	0x30
 4391 12d2 24       		.uleb128 0x24
 4392 12d3 01       		.uleb128 0x1
 4393 12d4 52       		.byte	0x52
 4394 12d5 02       		.uleb128 0x2
ARM GAS  C:\Users\codyg\AppData\Local\Temp\ccQipZVL.s 			page 112


 4395 12d6 08       		.byte	0x8
 4396 12d7 6F       		.byte	0x6f
 4397 12d8 00       		.byte	0
 4398 12d9 23       		.uleb128 0x23
 4399 12da C2010000 		.4byte	.LVL143
 4400 12de 010B0000 		.4byte	0xb01
 4401 12e2 F8120000 		.4byte	0x12f8
 4402 12e6 24       		.uleb128 0x24
 4403 12e7 01       		.uleb128 0x1
 4404 12e8 50       		.byte	0x50
 4405 12e9 01       		.uleb128 0x1
 4406 12ea 3A       		.byte	0x3a
 4407 12eb 24       		.uleb128 0x24
 4408 12ec 01       		.uleb128 0x1
 4409 12ed 51       		.byte	0x51
 4410 12ee 02       		.uleb128 0x2
 4411 12ef 75       		.byte	0x75
 4412 12f0 00       		.sleb128 0
 4413 12f1 24       		.uleb128 0x24
 4414 12f2 01       		.uleb128 0x1
 4415 12f3 52       		.byte	0x52
 4416 12f4 02       		.uleb128 0x2
 4417 12f5 08       		.byte	0x8
 4418 12f6 6F       		.byte	0x6f
 4419 12f7 00       		.byte	0
 4420 12f8 23       		.uleb128 0x23
 4421 12f9 CA010000 		.4byte	.LVL144
 4422 12fd 210C0000 		.4byte	0xc21
 4423 1301 10130000 		.4byte	0x1310
 4424 1305 24       		.uleb128 0x24
 4425 1306 01       		.uleb128 0x1
 4426 1307 50       		.byte	0x50
 4427 1308 01       		.uleb128 0x1
 4428 1309 32       		.byte	0x32
 4429 130a 24       		.uleb128 0x24
 4430 130b 01       		.uleb128 0x1
 4431 130c 51       		.byte	0x51
 4432 130d 01       		.uleb128 0x1
 4433 130e 37       		.byte	0x37
 4434 130f 00       		.byte	0
 4435 1310 23       		.uleb128 0x23
 4436 1311 E4010000 		.4byte	.LVL147
 4437 1315 010B0000 		.4byte	0xb01
 4438 1319 2F130000 		.4byte	0x132f
 4439 131d 24       		.uleb128 0x24
 4440 131e 01       		.uleb128 0x1
 4441 131f 50       		.byte	0x50
 4442 1320 01       		.uleb128 0x1
 4443 1321 3A       		.byte	0x3a
 4444 1322 24       		.uleb128 0x24
 4445 1323 01       		.uleb128 0x1
 4446 1324 51       		.byte	0x51
 4447 1325 02       		.uleb128 0x2
 4448 1326 75       		.byte	0x75
 4449 1327 00       		.sleb128 0
 4450 1328 24       		.uleb128 0x24
 4451 1329 01       		.uleb128 0x1
ARM GAS  C:\Users\codyg\AppData\Local\Temp\ccQipZVL.s 			page 113


 4452 132a 52       		.byte	0x52
 4453 132b 02       		.uleb128 0x2
 4454 132c 08       		.byte	0x8
 4455 132d 6F       		.byte	0x6f
 4456 132e 00       		.byte	0
 4457 132f 23       		.uleb128 0x23
 4458 1330 EC010000 		.4byte	.LVL148
 4459 1334 210C0000 		.4byte	0xc21
 4460 1338 47130000 		.4byte	0x1347
 4461 133c 24       		.uleb128 0x24
 4462 133d 01       		.uleb128 0x1
 4463 133e 50       		.byte	0x50
 4464 133f 01       		.uleb128 0x1
 4465 1340 32       		.byte	0x32
 4466 1341 24       		.uleb128 0x24
 4467 1342 01       		.uleb128 0x1
 4468 1343 51       		.byte	0x51
 4469 1344 01       		.uleb128 0x1
 4470 1345 37       		.byte	0x37
 4471 1346 00       		.byte	0
 4472 1347 26       		.uleb128 0x26
 4473 1348 0E020000 		.4byte	.LVL154
 4474 134c 210C0000 		.4byte	0xc21
 4475 1350 24       		.uleb128 0x24
 4476 1351 01       		.uleb128 0x1
 4477 1352 50       		.byte	0x50
 4478 1353 01       		.uleb128 0x1
 4479 1354 39       		.byte	0x39
 4480 1355 24       		.uleb128 0x24
 4481 1356 01       		.uleb128 0x1
 4482 1357 51       		.byte	0x51
 4483 1358 02       		.uleb128 0x2
 4484 1359 09       		.byte	0x9
 4485 135a C2       		.byte	0xc2
 4486 135b 00       		.byte	0
 4487 135c 00       		.byte	0
 4488 135d 2C       		.uleb128 0x2c
 4489 135e EA140000 		.4byte	.LASF296
 4490 1362 01       		.byte	0x1
 4491 1363 4003     		.2byte	0x340
 4492 1365 00000000 		.4byte	.LFB525
 4493 1369 5C000000 		.4byte	.LFE525-.LFB525
 4494 136d 01       		.uleb128 0x1
 4495 136e 9C       		.byte	0x9c
 4496 136f B7130000 		.4byte	0x13b7
 4497 1373 2A       		.uleb128 0x2a
 4498 1374 B80F0000 		.4byte	.LASF297
 4499 1378 01       		.byte	0x1
 4500 1379 4303     		.2byte	0x343
 4501 137b E5000000 		.4byte	0xe5
 4502 137f 7E070000 		.4byte	.LLST54
 4503 1383 23       		.uleb128 0x23
 4504 1384 3A000000 		.4byte	.LVL161
 4505 1388 010B0000 		.4byte	0xb01
 4506 138c A2130000 		.4byte	0x13a2
 4507 1390 24       		.uleb128 0x24
 4508 1391 01       		.uleb128 0x1
ARM GAS  C:\Users\codyg\AppData\Local\Temp\ccQipZVL.s 			page 114


 4509 1392 50       		.byte	0x50
 4510 1393 01       		.uleb128 0x1
 4511 1394 3A       		.byte	0x3a
 4512 1395 24       		.uleb128 0x24
 4513 1396 01       		.uleb128 0x1
 4514 1397 51       		.byte	0x51
 4515 1398 02       		.uleb128 0x2
 4516 1399 75       		.byte	0x75
 4517 139a 00       		.sleb128 0
 4518 139b 24       		.uleb128 0x24
 4519 139c 01       		.uleb128 0x1
 4520 139d 52       		.byte	0x52
 4521 139e 02       		.uleb128 0x2
 4522 139f 08       		.byte	0x8
 4523 13a0 6F       		.byte	0x6f
 4524 13a1 00       		.byte	0
 4525 13a2 26       		.uleb128 0x26
 4526 13a3 42000000 		.4byte	.LVL162
 4527 13a7 210C0000 		.4byte	0xc21
 4528 13ab 24       		.uleb128 0x24
 4529 13ac 01       		.uleb128 0x1
 4530 13ad 50       		.byte	0x50
 4531 13ae 01       		.uleb128 0x1
 4532 13af 32       		.byte	0x32
 4533 13b0 24       		.uleb128 0x24
 4534 13b1 01       		.uleb128 0x1
 4535 13b2 51       		.byte	0x51
 4536 13b3 01       		.uleb128 0x1
 4537 13b4 37       		.byte	0x37
 4538 13b5 00       		.byte	0
 4539 13b6 00       		.byte	0
 4540 13b7 2C       		.uleb128 0x2c
 4541 13b8 410C0000 		.4byte	.LASF298
 4542 13bc 01       		.byte	0x1
 4543 13bd 6F03     		.2byte	0x36f
 4544 13bf 00000000 		.4byte	.LFB526
 4545 13c3 34000000 		.4byte	.LFE526-.LFB526
 4546 13c7 01       		.uleb128 0x1
 4547 13c8 9C       		.byte	0x9c
 4548 13c9 2C140000 		.4byte	0x142c
 4549 13cd 2A       		.uleb128 0x2a
 4550 13ce B80F0000 		.4byte	.LASF297
 4551 13d2 01       		.byte	0x1
 4552 13d3 7203     		.2byte	0x372
 4553 13d5 CF000000 		.4byte	0xcf
 4554 13d9 BE070000 		.4byte	.LLST55
 4555 13dd 23       		.uleb128 0x23
 4556 13de 1C000000 		.4byte	.LVL170
 4557 13e2 210C0000 		.4byte	0xc21
 4558 13e6 F5130000 		.4byte	0x13f5
 4559 13ea 24       		.uleb128 0x24
 4560 13eb 01       		.uleb128 0x1
 4561 13ec 50       		.byte	0x50
 4562 13ed 01       		.uleb128 0x1
 4563 13ee 34       		.byte	0x34
 4564 13ef 24       		.uleb128 0x24
 4565 13f0 01       		.uleb128 0x1
ARM GAS  C:\Users\codyg\AppData\Local\Temp\ccQipZVL.s 			page 115


 4566 13f1 51       		.byte	0x51
 4567 13f2 01       		.uleb128 0x1
 4568 13f3 30       		.byte	0x30
 4569 13f4 00       		.byte	0
 4570 13f5 23       		.uleb128 0x23
 4571 13f6 26000000 		.4byte	.LVL171
 4572 13fa 010B0000 		.4byte	0xb01
 4573 13fe 17140000 		.4byte	0x1417
 4574 1402 24       		.uleb128 0x24
 4575 1403 01       		.uleb128 0x1
 4576 1404 50       		.byte	0x50
 4577 1405 01       		.uleb128 0x1
 4578 1406 3A       		.byte	0x3a
 4579 1407 24       		.uleb128 0x24
 4580 1408 01       		.uleb128 0x1
 4581 1409 51       		.byte	0x51
 4582 140a 05       		.uleb128 0x5
 4583 140b 03       		.byte	0x3
 4584 140c 00000000 		.4byte	.LANCHOR0
 4585 1410 24       		.uleb128 0x24
 4586 1411 01       		.uleb128 0x1
 4587 1412 52       		.byte	0x52
 4588 1413 02       		.uleb128 0x2
 4589 1414 08       		.byte	0x8
 4590 1415 6F       		.byte	0x6f
 4591 1416 00       		.byte	0
 4592 1417 26       		.uleb128 0x26
 4593 1418 2E000000 		.4byte	.LVL172
 4594 141c 210C0000 		.4byte	0xc21
 4595 1420 24       		.uleb128 0x24
 4596 1421 01       		.uleb128 0x1
 4597 1422 50       		.byte	0x50
 4598 1423 01       		.uleb128 0x1
 4599 1424 32       		.byte	0x32
 4600 1425 24       		.uleb128 0x24
 4601 1426 01       		.uleb128 0x1
 4602 1427 51       		.byte	0x51
 4603 1428 01       		.uleb128 0x1
 4604 1429 37       		.byte	0x37
 4605 142a 00       		.byte	0
 4606 142b 00       		.byte	0
 4607 142c 29       		.uleb128 0x29
 4608 142d 21190000 		.4byte	.LASF299
 4609 1431 01       		.byte	0x1
 4610 1432 9803     		.2byte	0x398
 4611 1434 DD090000 		.4byte	0x9dd
 4612 1438 00000000 		.4byte	.LFB527
 4613 143c 4C000000 		.4byte	.LFE527-.LFB527
 4614 1440 01       		.uleb128 0x1
 4615 1441 9C       		.byte	0x9c
 4616 1442 7F150000 		.4byte	0x157f
 4617 1446 31       		.uleb128 0x31
 4618 1447 DB0A0000 		.4byte	0xadb
 4619 144b 02000000 		.4byte	.LBB86
 4620 144f 06000000 		.4byte	.LBE86-.LBB86
 4621 1453 01       		.byte	0x1
 4622 1454 9D03     		.2byte	0x39d
ARM GAS  C:\Users\codyg\AppData\Local\Temp\ccQipZVL.s 			page 116


 4623 1456 6D140000 		.4byte	0x146d
 4624 145a 22       		.uleb128 0x22
 4625 145b F40A0000 		.4byte	0xaf4
 4626 145f E8070000 		.4byte	.LLST56
 4627 1463 22       		.uleb128 0x22
 4628 1464 E80A0000 		.4byte	0xae8
 4629 1468 FC070000 		.4byte	.LLST57
 4630 146c 00       		.byte	0
 4631 146d 31       		.uleb128 0x31
 4632 146e DB0A0000 		.4byte	0xadb
 4633 1472 14000000 		.4byte	.LBB88
 4634 1476 06000000 		.4byte	.LBE88-.LBB88
 4635 147a 01       		.byte	0x1
 4636 147b A303     		.2byte	0x3a3
 4637 147d 94140000 		.4byte	0x1494
 4638 1481 22       		.uleb128 0x22
 4639 1482 F40A0000 		.4byte	0xaf4
 4640 1486 14080000 		.4byte	.LLST58
 4641 148a 22       		.uleb128 0x22
 4642 148b E80A0000 		.4byte	0xae8
 4643 148f 28080000 		.4byte	.LLST59
 4644 1493 00       		.byte	0
 4645 1494 31       		.uleb128 0x31
 4646 1495 DB0A0000 		.4byte	0xadb
 4647 1499 1A000000 		.4byte	.LBB90
 4648 149d 04000000 		.4byte	.LBE90-.LBB90
 4649 14a1 01       		.byte	0x1
 4650 14a2 A403     		.2byte	0x3a4
 4651 14a4 BB140000 		.4byte	0x14bb
 4652 14a8 22       		.uleb128 0x22
 4653 14a9 F40A0000 		.4byte	0xaf4
 4654 14ad 40080000 		.4byte	.LLST60
 4655 14b1 22       		.uleb128 0x22
 4656 14b2 E80A0000 		.4byte	0xae8
 4657 14b6 54080000 		.4byte	.LLST61
 4658 14ba 00       		.byte	0
 4659 14bb 31       		.uleb128 0x31
 4660 14bc DB0A0000 		.4byte	0xadb
 4661 14c0 1E000000 		.4byte	.LBB92
 4662 14c4 04000000 		.4byte	.LBE92-.LBB92
 4663 14c8 01       		.byte	0x1
 4664 14c9 A703     		.2byte	0x3a7
 4665 14cb E2140000 		.4byte	0x14e2
 4666 14cf 22       		.uleb128 0x22
 4667 14d0 F40A0000 		.4byte	0xaf4
 4668 14d4 6C080000 		.4byte	.LLST62
 4669 14d8 22       		.uleb128 0x22
 4670 14d9 E80A0000 		.4byte	0xae8
 4671 14dd 80080000 		.4byte	.LLST63
 4672 14e1 00       		.byte	0
 4673 14e2 31       		.uleb128 0x31
 4674 14e3 AF0A0000 		.4byte	0xaaf
 4675 14e7 28000000 		.4byte	.LBB94
 4676 14eb 02000000 		.4byte	.LBE94-.LBB94
 4677 14ef 01       		.byte	0x1
 4678 14f0 A903     		.2byte	0x3a9
 4679 14f2 09150000 		.4byte	0x1509
ARM GAS  C:\Users\codyg\AppData\Local\Temp\ccQipZVL.s 			page 117


 4680 14f6 22       		.uleb128 0x22
 4681 14f7 C80A0000 		.4byte	0xac8
 4682 14fb 98080000 		.4byte	.LLST64
 4683 14ff 22       		.uleb128 0x22
 4684 1500 BC0A0000 		.4byte	0xabc
 4685 1504 AC080000 		.4byte	.LLST65
 4686 1508 00       		.byte	0
 4687 1509 31       		.uleb128 0x31
 4688 150a DB0A0000 		.4byte	0xadb
 4689 150e 30000000 		.4byte	.LBB96
 4690 1512 02000000 		.4byte	.LBE96-.LBB96
 4691 1516 01       		.byte	0x1
 4692 1517 AB03     		.2byte	0x3ab
 4693 1519 30150000 		.4byte	0x1530
 4694 151d 22       		.uleb128 0x22
 4695 151e F40A0000 		.4byte	0xaf4
 4696 1522 C4080000 		.4byte	.LLST66
 4697 1526 22       		.uleb128 0x22
 4698 1527 E80A0000 		.4byte	0xae8
 4699 152b D8080000 		.4byte	.LLST67
 4700 152f 00       		.byte	0
 4701 1530 2B       		.uleb128 0x2b
 4702 1531 10000000 		.4byte	.LVL175
 4703 1535 3F150000 		.4byte	0x153f
 4704 1539 24       		.uleb128 0x24
 4705 153a 01       		.uleb128 0x1
 4706 153b 50       		.byte	0x50
 4707 153c 01       		.uleb128 0x1
 4708 153d 44       		.byte	0x44
 4709 153e 00       		.byte	0
 4710 153f 25       		.uleb128 0x25
 4711 1540 14000000 		.4byte	.LVL176
 4712 1544 AB190000 		.4byte	0x19ab
 4713 1548 2B       		.uleb128 0x2b
 4714 1549 28000000 		.4byte	.LVL180
 4715 154d 57150000 		.4byte	0x1557
 4716 1551 24       		.uleb128 0x24
 4717 1552 01       		.uleb128 0x1
 4718 1553 50       		.byte	0x50
 4719 1554 01       		.uleb128 0x1
 4720 1555 3A       		.byte	0x3a
 4721 1556 00       		.byte	0
 4722 1557 2B       		.uleb128 0x2b
 4723 1558 30000000 		.4byte	.LVL182
 4724 155c 66150000 		.4byte	0x1566
 4725 1560 24       		.uleb128 0x24
 4726 1561 01       		.uleb128 0x1
 4727 1562 50       		.byte	0x50
 4728 1563 01       		.uleb128 0x1
 4729 1564 3A       		.byte	0x3a
 4730 1565 00       		.byte	0
 4731 1566 2B       		.uleb128 0x2b
 4732 1567 38000000 		.4byte	.LVL184
 4733 156b 75150000 		.4byte	0x1575
 4734 156f 24       		.uleb128 0x24
 4735 1570 01       		.uleb128 0x1
 4736 1571 50       		.byte	0x50
ARM GAS  C:\Users\codyg\AppData\Local\Temp\ccQipZVL.s 			page 118


 4737 1572 01       		.uleb128 0x1
 4738 1573 3A       		.byte	0x3a
 4739 1574 00       		.byte	0
 4740 1575 25       		.uleb128 0x25
 4741 1576 3C000000 		.4byte	.LVL185
 4742 157a 960E0000 		.4byte	0xe96
 4743 157e 00       		.byte	0
 4744 157f 29       		.uleb128 0x29
 4745 1580 1A090000 		.4byte	.LASF300
 4746 1584 01       		.byte	0x1
 4747 1585 C203     		.2byte	0x3c2
 4748 1587 DD090000 		.4byte	0x9dd
 4749 158b 00000000 		.4byte	.LFB528
 4750 158f B0000000 		.4byte	.LFE528-.LFB528
 4751 1593 01       		.uleb128 0x1
 4752 1594 9C       		.byte	0x9c
 4753 1595 06180000 		.4byte	0x1806
 4754 1599 31       		.uleb128 0x31
 4755 159a AF0A0000 		.4byte	0xaaf
 4756 159e 12000000 		.4byte	.LBB98
 4757 15a2 06000000 		.4byte	.LBE98-.LBB98
 4758 15a6 01       		.byte	0x1
 4759 15a7 CC03     		.2byte	0x3cc
 4760 15a9 C0150000 		.4byte	0x15c0
 4761 15ad 22       		.uleb128 0x22
 4762 15ae C80A0000 		.4byte	0xac8
 4763 15b2 F0080000 		.4byte	.LLST68
 4764 15b6 22       		.uleb128 0x22
 4765 15b7 BC0A0000 		.4byte	0xabc
 4766 15bb 04090000 		.4byte	.LLST69
 4767 15bf 00       		.byte	0
 4768 15c0 31       		.uleb128 0x31
 4769 15c1 DB0A0000 		.4byte	0xadb
 4770 15c5 1E000000 		.4byte	.LBB100
 4771 15c9 02000000 		.4byte	.LBE100-.LBB100
 4772 15cd 01       		.byte	0x1
 4773 15ce CE03     		.2byte	0x3ce
 4774 15d0 E7150000 		.4byte	0x15e7
 4775 15d4 22       		.uleb128 0x22
 4776 15d5 F40A0000 		.4byte	0xaf4
 4777 15d9 1C090000 		.4byte	.LLST70
 4778 15dd 22       		.uleb128 0x22
 4779 15de E80A0000 		.4byte	0xae8
 4780 15e2 30090000 		.4byte	.LLST71
 4781 15e6 00       		.byte	0
 4782 15e7 31       		.uleb128 0x31
 4783 15e8 AF0A0000 		.4byte	0xaaf
 4784 15ec 78000000 		.4byte	.LBB102
 4785 15f0 04000000 		.4byte	.LBE102-.LBB102
 4786 15f4 01       		.byte	0x1
 4787 15f5 F503     		.2byte	0x3f5
 4788 15f7 0E160000 		.4byte	0x160e
 4789 15fb 22       		.uleb128 0x22
 4790 15fc C80A0000 		.4byte	0xac8
 4791 1600 48090000 		.4byte	.LLST72
 4792 1604 22       		.uleb128 0x22
 4793 1605 BC0A0000 		.4byte	0xabc
ARM GAS  C:\Users\codyg\AppData\Local\Temp\ccQipZVL.s 			page 119


 4794 1609 5C090000 		.4byte	.LLST73
 4795 160d 00       		.byte	0
 4796 160e 31       		.uleb128 0x31
 4797 160f AF0A0000 		.4byte	0xaaf
 4798 1613 7C000000 		.4byte	.LBB104
 4799 1617 04000000 		.4byte	.LBE104-.LBB104
 4800 161b 01       		.byte	0x1
 4801 161c F803     		.2byte	0x3f8
 4802 161e 35160000 		.4byte	0x1635
 4803 1622 22       		.uleb128 0x22
 4804 1623 C80A0000 		.4byte	0xac8
 4805 1627 74090000 		.4byte	.LLST74
 4806 162b 22       		.uleb128 0x22
 4807 162c BC0A0000 		.4byte	0xabc
 4808 1630 88090000 		.4byte	.LLST75
 4809 1634 00       		.byte	0
 4810 1635 31       		.uleb128 0x31
 4811 1636 AF0A0000 		.4byte	0xaaf
 4812 163a 86000000 		.4byte	.LBB106
 4813 163e 06000000 		.4byte	.LBE106-.LBB106
 4814 1642 01       		.byte	0x1
 4815 1643 FA03     		.2byte	0x3fa
 4816 1645 5C160000 		.4byte	0x165c
 4817 1649 22       		.uleb128 0x22
 4818 164a C80A0000 		.4byte	0xac8
 4819 164e A0090000 		.4byte	.LLST76
 4820 1652 22       		.uleb128 0x22
 4821 1653 BC0A0000 		.4byte	0xabc
 4822 1657 B4090000 		.4byte	.LLST77
 4823 165b 00       		.byte	0
 4824 165c 31       		.uleb128 0x31
 4825 165d AF0A0000 		.4byte	0xaaf
 4826 1661 8C000000 		.4byte	.LBB108
 4827 1665 04000000 		.4byte	.LBE108-.LBB108
 4828 1669 01       		.byte	0x1
 4829 166a FB03     		.2byte	0x3fb
 4830 166c 83160000 		.4byte	0x1683
 4831 1670 22       		.uleb128 0x22
 4832 1671 C80A0000 		.4byte	0xac8
 4833 1675 CC090000 		.4byte	.LLST78
 4834 1679 22       		.uleb128 0x22
 4835 167a BC0A0000 		.4byte	0xabc
 4836 167e E0090000 		.4byte	.LLST79
 4837 1682 00       		.byte	0
 4838 1683 31       		.uleb128 0x31
 4839 1684 DB0A0000 		.4byte	0xadb
 4840 1688 90000000 		.4byte	.LBB110
 4841 168c 04000000 		.4byte	.LBE110-.LBB110
 4842 1690 01       		.byte	0x1
 4843 1691 FC03     		.2byte	0x3fc
 4844 1693 AA160000 		.4byte	0x16aa
 4845 1697 22       		.uleb128 0x22
 4846 1698 F40A0000 		.4byte	0xaf4
 4847 169c F8090000 		.4byte	.LLST80
 4848 16a0 22       		.uleb128 0x22
 4849 16a1 E80A0000 		.4byte	0xae8
 4850 16a5 0C0A0000 		.4byte	.LLST81
ARM GAS  C:\Users\codyg\AppData\Local\Temp\ccQipZVL.s 			page 120


 4851 16a9 00       		.byte	0
 4852 16aa 31       		.uleb128 0x31
 4853 16ab AF0A0000 		.4byte	0xaaf
 4854 16af 9A000000 		.4byte	.LBB112
 4855 16b3 02000000 		.4byte	.LBE112-.LBB112
 4856 16b7 01       		.byte	0x1
 4857 16b8 FE03     		.2byte	0x3fe
 4858 16ba D1160000 		.4byte	0x16d1
 4859 16be 22       		.uleb128 0x22
 4860 16bf C80A0000 		.4byte	0xac8
 4861 16c3 240A0000 		.4byte	.LLST82
 4862 16c7 22       		.uleb128 0x22
 4863 16c8 BC0A0000 		.4byte	0xabc
 4864 16cc 380A0000 		.4byte	.LLST83
 4865 16d0 00       		.byte	0
 4866 16d1 25       		.uleb128 0x25
 4867 16d2 06000000 		.4byte	.LVL186
 4868 16d6 5D130000 		.4byte	0x135d
 4869 16da 25       		.uleb128 0x25
 4870 16db 0A000000 		.4byte	.LVL187
 4871 16df B7130000 		.4byte	0x13b7
 4872 16e3 2B       		.uleb128 0x2b
 4873 16e4 12000000 		.4byte	.LVL188
 4874 16e8 F2160000 		.4byte	0x16f2
 4875 16ec 24       		.uleb128 0x24
 4876 16ed 01       		.uleb128 0x1
 4877 16ee 50       		.byte	0x50
 4878 16ef 01       		.uleb128 0x1
 4879 16f0 4E       		.byte	0x4e
 4880 16f1 00       		.byte	0
 4881 16f2 2B       		.uleb128 0x2b
 4882 16f3 1E000000 		.4byte	.LVL190
 4883 16f7 02170000 		.4byte	0x1702
 4884 16fb 24       		.uleb128 0x24
 4885 16fc 01       		.uleb128 0x1
 4886 16fd 50       		.byte	0x50
 4887 16fe 02       		.uleb128 0x2
 4888 16ff 08       		.byte	0x8
 4889 1700 32       		.byte	0x32
 4890 1701 00       		.byte	0
 4891 1702 23       		.uleb128 0x23
 4892 1703 28000000 		.4byte	.LVL192
 4893 1707 6A0C0000 		.4byte	0xc6a
 4894 170b 1A170000 		.4byte	0x171a
 4895 170f 24       		.uleb128 0x24
 4896 1710 01       		.uleb128 0x1
 4897 1711 50       		.byte	0x50
 4898 1712 01       		.uleb128 0x1
 4899 1713 3F       		.byte	0x3f
 4900 1714 24       		.uleb128 0x24
 4901 1715 01       		.uleb128 0x1
 4902 1716 51       		.byte	0x51
 4903 1717 01       		.uleb128 0x1
 4904 1718 30       		.byte	0x30
 4905 1719 00       		.byte	0
 4906 171a 23       		.uleb128 0x23
 4907 171b 36000000 		.4byte	.LVL193
ARM GAS  C:\Users\codyg\AppData\Local\Temp\ccQipZVL.s 			page 121


 4908 171f 210C0000 		.4byte	0xc21
 4909 1723 32170000 		.4byte	0x1732
 4910 1727 24       		.uleb128 0x24
 4911 1728 01       		.uleb128 0x1
 4912 1729 50       		.byte	0x50
 4913 172a 01       		.uleb128 0x1
 4914 172b 3B       		.byte	0x3b
 4915 172c 24       		.uleb128 0x24
 4916 172d 01       		.uleb128 0x1
 4917 172e 51       		.byte	0x51
 4918 172f 01       		.uleb128 0x1
 4919 1730 30       		.byte	0x30
 4920 1731 00       		.byte	0
 4921 1732 23       		.uleb128 0x23
 4922 1733 3E000000 		.4byte	.LVL194
 4923 1737 210C0000 		.4byte	0xc21
 4924 173b 4A170000 		.4byte	0x174a
 4925 173f 24       		.uleb128 0x24
 4926 1740 01       		.uleb128 0x1
 4927 1741 50       		.byte	0x50
 4928 1742 01       		.uleb128 0x1
 4929 1743 33       		.byte	0x33
 4930 1744 24       		.uleb128 0x24
 4931 1745 01       		.uleb128 0x1
 4932 1746 51       		.byte	0x51
 4933 1747 01       		.uleb128 0x1
 4934 1748 31       		.byte	0x31
 4935 1749 00       		.byte	0
 4936 174a 23       		.uleb128 0x23
 4937 174b 46000000 		.4byte	.LVL195
 4938 174f 210C0000 		.4byte	0xc21
 4939 1753 62170000 		.4byte	0x1762
 4940 1757 24       		.uleb128 0x24
 4941 1758 01       		.uleb128 0x1
 4942 1759 50       		.byte	0x50
 4943 175a 01       		.uleb128 0x1
 4944 175b 35       		.byte	0x35
 4945 175c 24       		.uleb128 0x24
 4946 175d 01       		.uleb128 0x1
 4947 175e 51       		.byte	0x51
 4948 175f 01       		.uleb128 0x1
 4949 1760 33       		.byte	0x33
 4950 1761 00       		.byte	0
 4951 1762 23       		.uleb128 0x23
 4952 1763 4E000000 		.4byte	.LVL196
 4953 1767 210C0000 		.4byte	0xc21
 4954 176b 7A170000 		.4byte	0x177a
 4955 176f 24       		.uleb128 0x24
 4956 1770 01       		.uleb128 0x1
 4957 1771 50       		.byte	0x50
 4958 1772 01       		.uleb128 0x1
 4959 1773 35       		.byte	0x35
 4960 1774 24       		.uleb128 0x24
 4961 1775 01       		.uleb128 0x1
 4962 1776 51       		.byte	0x51
 4963 1777 01       		.uleb128 0x1
 4964 1778 31       		.byte	0x31
ARM GAS  C:\Users\codyg\AppData\Local\Temp\ccQipZVL.s 			page 122


 4965 1779 00       		.byte	0
 4966 177a 2B       		.uleb128 0x2b
 4967 177b 56000000 		.4byte	.LVL197
 4968 177f 8A170000 		.4byte	0x178a
 4969 1783 24       		.uleb128 0x24
 4970 1784 01       		.uleb128 0x1
 4971 1785 50       		.byte	0x50
 4972 1786 02       		.uleb128 0x2
 4973 1787 08       		.byte	0x8
 4974 1788 32       		.byte	0x32
 4975 1789 00       		.byte	0
 4976 178a 23       		.uleb128 0x23
 4977 178b 5E000000 		.4byte	.LVL198
 4978 178f 210C0000 		.4byte	0xc21
 4979 1793 A3170000 		.4byte	0x17a3
 4980 1797 24       		.uleb128 0x24
 4981 1798 01       		.uleb128 0x1
 4982 1799 50       		.byte	0x50
 4983 179a 01       		.uleb128 0x1
 4984 179b 34       		.byte	0x34
 4985 179c 24       		.uleb128 0x24
 4986 179d 01       		.uleb128 0x1
 4987 179e 51       		.byte	0x51
 4988 179f 02       		.uleb128 0x2
 4989 17a0 09       		.byte	0x9
 4990 17a1 80       		.byte	0x80
 4991 17a2 00       		.byte	0
 4992 17a3 23       		.uleb128 0x23
 4993 17a4 66000000 		.4byte	.LVL199
 4994 17a8 210C0000 		.4byte	0xc21
 4995 17ac BB170000 		.4byte	0x17bb
 4996 17b0 24       		.uleb128 0x24
 4997 17b1 01       		.uleb128 0x1
 4998 17b2 50       		.byte	0x50
 4999 17b3 01       		.uleb128 0x1
 5000 17b4 35       		.byte	0x35
 5001 17b5 24       		.uleb128 0x24
 5002 17b6 01       		.uleb128 0x1
 5003 17b7 51       		.byte	0x51
 5004 17b8 01       		.uleb128 0x1
 5005 17b9 30       		.byte	0x30
 5006 17ba 00       		.byte	0
 5007 17bb 23       		.uleb128 0x23
 5008 17bc 6E000000 		.4byte	.LVL200
 5009 17c0 210C0000 		.4byte	0xc21
 5010 17c4 D3170000 		.4byte	0x17d3
 5011 17c8 24       		.uleb128 0x24
 5012 17c9 01       		.uleb128 0x1
 5013 17ca 50       		.byte	0x50
 5014 17cb 01       		.uleb128 0x1
 5015 17cc 37       		.byte	0x37
 5016 17cd 24       		.uleb128 0x24
 5017 17ce 01       		.uleb128 0x1
 5018 17cf 51       		.byte	0x51
 5019 17d0 01       		.uleb128 0x1
 5020 17d1 31       		.byte	0x31
 5021 17d2 00       		.byte	0
ARM GAS  C:\Users\codyg\AppData\Local\Temp\ccQipZVL.s 			page 123


 5022 17d3 2B       		.uleb128 0x2b
 5023 17d4 74000000 		.4byte	.LVL201
 5024 17d8 E2170000 		.4byte	0x17e2
 5025 17dc 24       		.uleb128 0x24
 5026 17dd 01       		.uleb128 0x1
 5027 17de 50       		.byte	0x50
 5028 17df 01       		.uleb128 0x1
 5029 17e0 4E       		.byte	0x4e
 5030 17e1 00       		.byte	0
 5031 17e2 25       		.uleb128 0x25
 5032 17e3 78000000 		.4byte	.LVL202
 5033 17e7 B6190000 		.4byte	0x19b6
 5034 17eb 2B       		.uleb128 0x2b
 5035 17ec 86000000 		.4byte	.LVL205
 5036 17f0 FA170000 		.4byte	0x17fa
 5037 17f4 24       		.uleb128 0x24
 5038 17f5 01       		.uleb128 0x1
 5039 17f6 50       		.byte	0x50
 5040 17f7 01       		.uleb128 0x1
 5041 17f8 44       		.byte	0x44
 5042 17f9 00       		.byte	0
 5043 17fa 32       		.uleb128 0x32
 5044 17fb 9A000000 		.4byte	.LVL209
 5045 17ff 24       		.uleb128 0x24
 5046 1800 01       		.uleb128 0x1
 5047 1801 50       		.byte	0x50
 5048 1802 01       		.uleb128 0x1
 5049 1803 4E       		.byte	0x4e
 5050 1804 00       		.byte	0
 5051 1805 00       		.byte	0
 5052 1806 28       		.uleb128 0x28
 5053 1807 7F0E0000 		.4byte	.LASF301
 5054 180b 01       		.byte	0x1
 5055 180c 52       		.byte	0x52
 5056 180d A40A0000 		.4byte	0xaa4
 5057 1811 05       		.uleb128 0x5
 5058 1812 03       		.byte	0x3
 5059 1813 00000000 		.4byte	driverPacket
 5060 1817 28       		.uleb128 0x28
 5061 1818 B00B0000 		.4byte	.LASF302
 5062 181c 01       		.byte	0x1
 5063 181d 5D       		.byte	0x5d
 5064 181e E5000000 		.4byte	0xe5
 5065 1822 05       		.uleb128 0x5
 5066 1823 03       		.byte	0x3
 5067 1824 7C000000 		.4byte	fullUpdateCycles
 5068 1828 28       		.uleb128 0x28
 5069 1829 9C050000 		.4byte	.LASF303
 5070 182d 01       		.byte	0x1
 5071 182e 5E       		.byte	0x5e
 5072 182f E5000000 		.4byte	0xe5
 5073 1833 05       		.uleb128 0x5
 5074 1834 03       		.byte	0x3
 5075 1835 7E000000 		.4byte	partialUpdateCycles
 5076 1839 28       		.uleb128 0x28
 5077 183a 91150000 		.4byte	.LASF304
 5078 183e 01       		.byte	0x1
ARM GAS  C:\Users\codyg\AppData\Local\Temp\ccQipZVL.s 			page 124


 5079 183f 61       		.byte	0x61
 5080 1840 ED020000 		.4byte	0x2ed
 5081 1844 05       		.uleb128 0x5
 5082 1845 03       		.byte	0x3
 5083 1846 70000000 		.4byte	dataLineEven
 5084 184a 28       		.uleb128 0x28
 5085 184b EE1A0000 		.4byte	.LASF305
 5086 184f 01       		.byte	0x1
 5087 1850 62       		.byte	0x62
 5088 1851 ED020000 		.4byte	0x2ed
 5089 1855 05       		.uleb128 0x5
 5090 1856 03       		.byte	0x3
 5091 1857 74000000 		.4byte	dataLineOdd
 5092 185b 28       		.uleb128 0x28
 5093 185c FA1C0000 		.4byte	.LASF306
 5094 1860 01       		.byte	0x1
 5095 1861 63       		.byte	0x63
 5096 1862 ED020000 		.4byte	0x2ed
 5097 1866 05       		.uleb128 0x5
 5098 1867 03       		.byte	0x3
 5099 1868 78000000 		.4byte	dataLineScan
 5100 186c 33       		.uleb128 0x33
 5101 186d 63150000 		.4byte	.LASF307
 5102 1871 12       		.byte	0x12
 5103 1872 EA07     		.2byte	0x7ea
 5104 1874 78180000 		.4byte	0x1878
 5105 1878 06       		.uleb128 0x6
 5106 1879 F0000000 		.4byte	0xf0
 5107 187d 33       		.uleb128 0x33
 5108 187e C00E0000 		.4byte	.LASF308
 5109 1882 0B       		.byte	0xb
 5110 1883 2202     		.2byte	0x222
 5111 1885 35080000 		.4byte	0x835
 5112 1889 08       		.uleb128 0x8
 5113 188a 04080000 		.4byte	0x804
 5114 188e 99180000 		.4byte	0x1899
 5115 1892 09       		.uleb128 0x9
 5116 1893 B4000000 		.4byte	0xb4
 5117 1897 00       		.byte	0
 5118 1898 00       		.byte	0
 5119 1899 33       		.uleb128 0x33
 5120 189a 20020000 		.4byte	.LASF309
 5121 189e 0B       		.byte	0xb
 5122 189f 2C02     		.2byte	0x22c
 5123 18a1 89180000 		.4byte	0x1889
 5124 18a5 08       		.uleb128 0x8
 5125 18a6 7D080000 		.4byte	0x87d
 5126 18aa B5180000 		.4byte	0x18b5
 5127 18ae 09       		.uleb128 0x9
 5128 18af B4000000 		.4byte	0xb4
 5129 18b3 00       		.byte	0
 5130 18b4 00       		.byte	0
 5131 18b5 33       		.uleb128 0x33
 5132 18b6 00000000 		.4byte	.LASF310
 5133 18ba 0B       		.byte	0xb
 5134 18bb 2D02     		.2byte	0x22d
 5135 18bd A5180000 		.4byte	0x18a5
ARM GAS  C:\Users\codyg\AppData\Local\Temp\ccQipZVL.s 			page 125


 5136 18c1 34       		.uleb128 0x34
 5137 18c2 43010000 		.4byte	.LASF311
 5138 18c6 13       		.byte	0x13
 5139 18c7 5E       		.byte	0x5e
 5140 18c8 82030000 		.4byte	0x382
 5141 18cc 33       		.uleb128 0x33
 5142 18cd 401A0000 		.4byte	.LASF312
 5143 18d1 0F       		.byte	0xf
 5144 18d2 6001     		.2byte	0x160
 5145 18d4 FB000000 		.4byte	0xfb
 5146 18d8 08       		.uleb128 0x8
 5147 18d9 E8180000 		.4byte	0x18e8
 5148 18dd E8180000 		.4byte	0x18e8
 5149 18e1 09       		.uleb128 0x9
 5150 18e2 B4000000 		.4byte	0xb4
 5151 18e6 00       		.byte	0
 5152 18e7 00       		.byte	0
 5153 18e8 07       		.uleb128 0x7
 5154 18e9 8B090000 		.4byte	0x98b
 5155 18ed 33       		.uleb128 0x33
 5156 18ee FF140000 		.4byte	.LASF313
 5157 18f2 0F       		.byte	0xf
 5158 18f3 6401     		.2byte	0x164
 5159 18f5 F9180000 		.4byte	0x18f9
 5160 18f9 07       		.uleb128 0x7
 5161 18fa D8180000 		.4byte	0x18d8
 5162 18fe 34       		.uleb128 0x34
 5163 18ff 1F0F0000 		.4byte	.LASF314
 5164 1903 10       		.byte	0x10
 5165 1904 76       		.byte	0x76
 5166 1905 96090000 		.4byte	0x996
 5167 1909 08       		.uleb128 0x8
 5168 190a A40A0000 		.4byte	0xaa4
 5169 190e 19190000 		.4byte	0x1919
 5170 1912 09       		.uleb128 0x9
 5171 1913 B4000000 		.4byte	0xb4
 5172 1917 AF       		.byte	0xaf
 5173 1918 00       		.byte	0
 5174 1919 35       		.uleb128 0x35
 5175 191a 86100000 		.4byte	.LASF315
 5176 191e 01       		.byte	0x1
 5177 191f 4E       		.byte	0x4e
 5178 1920 09190000 		.4byte	0x1909
 5179 1924 05       		.uleb128 0x5
 5180 1925 03       		.byte	0x3
 5181 1926 00000000 		.4byte	bulkDriverPacket
 5182 192a 08       		.uleb128 0x8
 5183 192b DB070000 		.4byte	0x7db
 5184 192f 3A190000 		.4byte	0x193a
 5185 1933 09       		.uleb128 0x9
 5186 1934 B4000000 		.4byte	0xb4
 5187 1938 03       		.byte	0x3
 5188 1939 00       		.byte	0
 5189 193a 35       		.uleb128 0x35
 5190 193b F10B0000 		.4byte	.LASF316
 5191 193f 01       		.byte	0x1
 5192 1940 55       		.byte	0x55
ARM GAS  C:\Users\codyg\AppData\Local\Temp\ccQipZVL.s 			page 126


 5193 1941 4B190000 		.4byte	0x194b
 5194 1945 05       		.uleb128 0x5
 5195 1946 03       		.byte	0x3
 5196 1947 00000000 		.4byte	scanTable
 5197 194b 07       		.uleb128 0x7
 5198 194c 2A190000 		.4byte	0x192a
 5199 1950 08       		.uleb128 0x8
 5200 1951 DB070000 		.4byte	0x7db
 5201 1955 60190000 		.4byte	0x1960
 5202 1959 09       		.uleb128 0x9
 5203 195a B4000000 		.4byte	0xb4
 5204 195e 07       		.byte	0x7
 5205 195f 00       		.byte	0
 5206 1960 35       		.uleb128 0x35
 5207 1961 D9150000 		.4byte	.LASF317
 5208 1965 01       		.byte	0x1
 5209 1966 59       		.byte	0x59
 5210 1967 71190000 		.4byte	0x1971
 5211 196b 05       		.uleb128 0x5
 5212 196c 03       		.byte	0x3
 5213 196d 00000000 		.4byte	channelSelect
 5214 1971 07       		.uleb128 0x7
 5215 1972 50190000 		.4byte	0x1950
 5216 1976 36       		.uleb128 0x36
 5217 1977 F1050000 		.4byte	.LASF318
 5218 197b F1050000 		.4byte	.LASF318
 5219 197f 10       		.byte	0x10
 5220 1980 7C       		.byte	0x7c
 5221 1981 36       		.uleb128 0x36
 5222 1982 9E1B0000 		.4byte	.LASF319
 5223 1986 9E1B0000 		.4byte	.LASF319
 5224 198a 10       		.byte	0x10
 5225 198b 7D       		.byte	0x7d
 5226 198c 36       		.uleb128 0x36
 5227 198d F5150000 		.4byte	.LASF320
 5228 1991 F5150000 		.4byte	.LASF320
 5229 1995 10       		.byte	0x10
 5230 1996 79       		.byte	0x79
 5231 1997 37       		.uleb128 0x37
 5232 1998 B4100000 		.4byte	.LASF327
 5233 199c B4100000 		.4byte	.LASF327
 5234 19a0 36       		.uleb128 0x36
 5235 19a1 580D0000 		.4byte	.LASF321
 5236 19a5 580D0000 		.4byte	.LASF321
 5237 19a9 10       		.byte	0x10
 5238 19aa 7E       		.byte	0x7e
 5239 19ab 36       		.uleb128 0x36
 5240 19ac 6D0E0000 		.4byte	.LASF322
 5241 19b0 6D0E0000 		.4byte	.LASF322
 5242 19b4 10       		.byte	0x10
 5243 19b5 7A       		.byte	0x7a
 5244 19b6 36       		.uleb128 0x36
 5245 19b7 5E180000 		.4byte	.LASF323
 5246 19bb 5E180000 		.4byte	.LASF323
 5247 19bf 10       		.byte	0x10
 5248 19c0 7B       		.byte	0x7b
 5249 19c1 00       		.byte	0
ARM GAS  C:\Users\codyg\AppData\Local\Temp\ccQipZVL.s 			page 127


 5250              		.section	.debug_abbrev,"",%progbits
 5251              	.Ldebug_abbrev0:
 5252 0000 01       		.uleb128 0x1
 5253 0001 11       		.uleb128 0x11
 5254 0002 01       		.byte	0x1
 5255 0003 25       		.uleb128 0x25
 5256 0004 0E       		.uleb128 0xe
 5257 0005 13       		.uleb128 0x13
 5258 0006 0B       		.uleb128 0xb
 5259 0007 03       		.uleb128 0x3
 5260 0008 0E       		.uleb128 0xe
 5261 0009 1B       		.uleb128 0x1b
 5262 000a 0E       		.uleb128 0xe
 5263 000b 55       		.uleb128 0x55
 5264 000c 17       		.uleb128 0x17
 5265 000d 11       		.uleb128 0x11
 5266 000e 01       		.uleb128 0x1
 5267 000f 10       		.uleb128 0x10
 5268 0010 17       		.uleb128 0x17
 5269 0011 00       		.byte	0
 5270 0012 00       		.byte	0
 5271 0013 02       		.uleb128 0x2
 5272 0014 24       		.uleb128 0x24
 5273 0015 00       		.byte	0
 5274 0016 0B       		.uleb128 0xb
 5275 0017 0B       		.uleb128 0xb
 5276 0018 3E       		.uleb128 0x3e
 5277 0019 0B       		.uleb128 0xb
 5278 001a 03       		.uleb128 0x3
 5279 001b 08       		.uleb128 0x8
 5280 001c 00       		.byte	0
 5281 001d 00       		.byte	0
 5282 001e 03       		.uleb128 0x3
 5283 001f 24       		.uleb128 0x24
 5284 0020 00       		.byte	0
 5285 0021 0B       		.uleb128 0xb
 5286 0022 0B       		.uleb128 0xb
 5287 0023 3E       		.uleb128 0x3e
 5288 0024 0B       		.uleb128 0xb
 5289 0025 03       		.uleb128 0x3
 5290 0026 0E       		.uleb128 0xe
 5291 0027 00       		.byte	0
 5292 0028 00       		.byte	0
 5293 0029 04       		.uleb128 0x4
 5294 002a 16       		.uleb128 0x16
 5295 002b 00       		.byte	0
 5296 002c 03       		.uleb128 0x3
 5297 002d 0E       		.uleb128 0xe
 5298 002e 3A       		.uleb128 0x3a
 5299 002f 0B       		.uleb128 0xb
 5300 0030 3B       		.uleb128 0x3b
 5301 0031 0B       		.uleb128 0xb
 5302 0032 49       		.uleb128 0x49
 5303 0033 13       		.uleb128 0x13
 5304 0034 00       		.byte	0
 5305 0035 00       		.byte	0
 5306 0036 05       		.uleb128 0x5
ARM GAS  C:\Users\codyg\AppData\Local\Temp\ccQipZVL.s 			page 128


 5307 0037 0F       		.uleb128 0xf
 5308 0038 00       		.byte	0
 5309 0039 0B       		.uleb128 0xb
 5310 003a 0B       		.uleb128 0xb
 5311 003b 00       		.byte	0
 5312 003c 00       		.byte	0
 5313 003d 06       		.uleb128 0x6
 5314 003e 35       		.uleb128 0x35
 5315 003f 00       		.byte	0
 5316 0040 49       		.uleb128 0x49
 5317 0041 13       		.uleb128 0x13
 5318 0042 00       		.byte	0
 5319 0043 00       		.byte	0
 5320 0044 07       		.uleb128 0x7
 5321 0045 26       		.uleb128 0x26
 5322 0046 00       		.byte	0
 5323 0047 49       		.uleb128 0x49
 5324 0048 13       		.uleb128 0x13
 5325 0049 00       		.byte	0
 5326 004a 00       		.byte	0
 5327 004b 08       		.uleb128 0x8
 5328 004c 01       		.uleb128 0x1
 5329 004d 01       		.byte	0x1
 5330 004e 49       		.uleb128 0x49
 5331 004f 13       		.uleb128 0x13
 5332 0050 01       		.uleb128 0x1
 5333 0051 13       		.uleb128 0x13
 5334 0052 00       		.byte	0
 5335 0053 00       		.byte	0
 5336 0054 09       		.uleb128 0x9
 5337 0055 21       		.uleb128 0x21
 5338 0056 00       		.byte	0
 5339 0057 49       		.uleb128 0x49
 5340 0058 13       		.uleb128 0x13
 5341 0059 2F       		.uleb128 0x2f
 5342 005a 0B       		.uleb128 0xb
 5343 005b 00       		.byte	0
 5344 005c 00       		.byte	0
 5345 005d 0A       		.uleb128 0xa
 5346 005e 13       		.uleb128 0x13
 5347 005f 01       		.byte	0x1
 5348 0060 0B       		.uleb128 0xb
 5349 0061 0B       		.uleb128 0xb
 5350 0062 3A       		.uleb128 0x3a
 5351 0063 0B       		.uleb128 0xb
 5352 0064 3B       		.uleb128 0x3b
 5353 0065 0B       		.uleb128 0xb
 5354 0066 01       		.uleb128 0x1
 5355 0067 13       		.uleb128 0x13
 5356 0068 00       		.byte	0
 5357 0069 00       		.byte	0
 5358 006a 0B       		.uleb128 0xb
 5359 006b 0D       		.uleb128 0xd
 5360 006c 00       		.byte	0
 5361 006d 03       		.uleb128 0x3
 5362 006e 08       		.uleb128 0x8
 5363 006f 3A       		.uleb128 0x3a
ARM GAS  C:\Users\codyg\AppData\Local\Temp\ccQipZVL.s 			page 129


 5364 0070 0B       		.uleb128 0xb
 5365 0071 3B       		.uleb128 0x3b
 5366 0072 0B       		.uleb128 0xb
 5367 0073 49       		.uleb128 0x49
 5368 0074 13       		.uleb128 0x13
 5369 0075 38       		.uleb128 0x38
 5370 0076 0B       		.uleb128 0xb
 5371 0077 00       		.byte	0
 5372 0078 00       		.byte	0
 5373 0079 0C       		.uleb128 0xc
 5374 007a 0D       		.uleb128 0xd
 5375 007b 00       		.byte	0
 5376 007c 03       		.uleb128 0x3
 5377 007d 0E       		.uleb128 0xe
 5378 007e 3A       		.uleb128 0x3a
 5379 007f 0B       		.uleb128 0xb
 5380 0080 3B       		.uleb128 0x3b
 5381 0081 0B       		.uleb128 0xb
 5382 0082 49       		.uleb128 0x49
 5383 0083 13       		.uleb128 0x13
 5384 0084 38       		.uleb128 0x38
 5385 0085 0B       		.uleb128 0xb
 5386 0086 00       		.byte	0
 5387 0087 00       		.byte	0
 5388 0088 0D       		.uleb128 0xd
 5389 0089 13       		.uleb128 0x13
 5390 008a 01       		.byte	0x1
 5391 008b 0B       		.uleb128 0xb
 5392 008c 05       		.uleb128 0x5
 5393 008d 3A       		.uleb128 0x3a
 5394 008e 0B       		.uleb128 0xb
 5395 008f 3B       		.uleb128 0x3b
 5396 0090 0B       		.uleb128 0xb
 5397 0091 01       		.uleb128 0x1
 5398 0092 13       		.uleb128 0x13
 5399 0093 00       		.byte	0
 5400 0094 00       		.byte	0
 5401 0095 0E       		.uleb128 0xe
 5402 0096 0D       		.uleb128 0xd
 5403 0097 00       		.byte	0
 5404 0098 03       		.uleb128 0x3
 5405 0099 0E       		.uleb128 0xe
 5406 009a 3A       		.uleb128 0x3a
 5407 009b 0B       		.uleb128 0xb
 5408 009c 3B       		.uleb128 0x3b
 5409 009d 0B       		.uleb128 0xb
 5410 009e 49       		.uleb128 0x49
 5411 009f 13       		.uleb128 0x13
 5412 00a0 38       		.uleb128 0x38
 5413 00a1 05       		.uleb128 0x5
 5414 00a2 00       		.byte	0
 5415 00a3 00       		.byte	0
 5416 00a4 0F       		.uleb128 0xf
 5417 00a5 16       		.uleb128 0x16
 5418 00a6 00       		.byte	0
 5419 00a7 03       		.uleb128 0x3
 5420 00a8 0E       		.uleb128 0xe
ARM GAS  C:\Users\codyg\AppData\Local\Temp\ccQipZVL.s 			page 130


 5421 00a9 3A       		.uleb128 0x3a
 5422 00aa 0B       		.uleb128 0xb
 5423 00ab 3B       		.uleb128 0x3b
 5424 00ac 05       		.uleb128 0x5
 5425 00ad 49       		.uleb128 0x49
 5426 00ae 13       		.uleb128 0x13
 5427 00af 00       		.byte	0
 5428 00b0 00       		.byte	0
 5429 00b1 10       		.uleb128 0x10
 5430 00b2 0F       		.uleb128 0xf
 5431 00b3 00       		.byte	0
 5432 00b4 0B       		.uleb128 0xb
 5433 00b5 0B       		.uleb128 0xb
 5434 00b6 49       		.uleb128 0x49
 5435 00b7 13       		.uleb128 0x13
 5436 00b8 00       		.byte	0
 5437 00b9 00       		.byte	0
 5438 00ba 11       		.uleb128 0x11
 5439 00bb 15       		.uleb128 0x15
 5440 00bc 01       		.byte	0x1
 5441 00bd 27       		.uleb128 0x27
 5442 00be 19       		.uleb128 0x19
 5443 00bf 01       		.uleb128 0x1
 5444 00c0 13       		.uleb128 0x13
 5445 00c1 00       		.byte	0
 5446 00c2 00       		.byte	0
 5447 00c3 12       		.uleb128 0x12
 5448 00c4 05       		.uleb128 0x5
 5449 00c5 00       		.byte	0
 5450 00c6 49       		.uleb128 0x49
 5451 00c7 13       		.uleb128 0x13
 5452 00c8 00       		.byte	0
 5453 00c9 00       		.byte	0
 5454 00ca 13       		.uleb128 0x13
 5455 00cb 13       		.uleb128 0x13
 5456 00cc 01       		.byte	0x1
 5457 00cd 03       		.uleb128 0x3
 5458 00ce 0E       		.uleb128 0xe
 5459 00cf 0B       		.uleb128 0xb
 5460 00d0 0B       		.uleb128 0xb
 5461 00d1 3A       		.uleb128 0x3a
 5462 00d2 0B       		.uleb128 0xb
 5463 00d3 3B       		.uleb128 0x3b
 5464 00d4 05       		.uleb128 0x5
 5465 00d5 01       		.uleb128 0x1
 5466 00d6 13       		.uleb128 0x13
 5467 00d7 00       		.byte	0
 5468 00d8 00       		.byte	0
 5469 00d9 14       		.uleb128 0x14
 5470 00da 0D       		.uleb128 0xd
 5471 00db 00       		.byte	0
 5472 00dc 03       		.uleb128 0x3
 5473 00dd 0E       		.uleb128 0xe
 5474 00de 3A       		.uleb128 0x3a
 5475 00df 0B       		.uleb128 0xb
 5476 00e0 3B       		.uleb128 0x3b
 5477 00e1 05       		.uleb128 0x5
ARM GAS  C:\Users\codyg\AppData\Local\Temp\ccQipZVL.s 			page 131


 5478 00e2 49       		.uleb128 0x49
 5479 00e3 13       		.uleb128 0x13
 5480 00e4 38       		.uleb128 0x38
 5481 00e5 0B       		.uleb128 0xb
 5482 00e6 00       		.byte	0
 5483 00e7 00       		.byte	0
 5484 00e8 15       		.uleb128 0x15
 5485 00e9 04       		.uleb128 0x4
 5486 00ea 01       		.byte	0x1
 5487 00eb 0B       		.uleb128 0xb
 5488 00ec 0B       		.uleb128 0xb
 5489 00ed 49       		.uleb128 0x49
 5490 00ee 13       		.uleb128 0x13
 5491 00ef 3A       		.uleb128 0x3a
 5492 00f0 0B       		.uleb128 0xb
 5493 00f1 3B       		.uleb128 0x3b
 5494 00f2 05       		.uleb128 0x5
 5495 00f3 01       		.uleb128 0x1
 5496 00f4 13       		.uleb128 0x13
 5497 00f5 00       		.byte	0
 5498 00f6 00       		.byte	0
 5499 00f7 16       		.uleb128 0x16
 5500 00f8 28       		.uleb128 0x28
 5501 00f9 00       		.byte	0
 5502 00fa 03       		.uleb128 0x3
 5503 00fb 0E       		.uleb128 0xe
 5504 00fc 1C       		.uleb128 0x1c
 5505 00fd 0B       		.uleb128 0xb
 5506 00fe 00       		.byte	0
 5507 00ff 00       		.byte	0
 5508 0100 17       		.uleb128 0x17
 5509 0101 13       		.uleb128 0x13
 5510 0102 01       		.byte	0x1
 5511 0103 0B       		.uleb128 0xb
 5512 0104 0B       		.uleb128 0xb
 5513 0105 3A       		.uleb128 0x3a
 5514 0106 0B       		.uleb128 0xb
 5515 0107 3B       		.uleb128 0x3b
 5516 0108 05       		.uleb128 0x5
 5517 0109 01       		.uleb128 0x1
 5518 010a 13       		.uleb128 0x13
 5519 010b 00       		.byte	0
 5520 010c 00       		.byte	0
 5521 010d 18       		.uleb128 0x18
 5522 010e 28       		.uleb128 0x28
 5523 010f 00       		.byte	0
 5524 0110 03       		.uleb128 0x3
 5525 0111 0E       		.uleb128 0xe
 5526 0112 1C       		.uleb128 0x1c
 5527 0113 05       		.uleb128 0x5
 5528 0114 00       		.byte	0
 5529 0115 00       		.byte	0
 5530 0116 19       		.uleb128 0x19
 5531 0117 04       		.uleb128 0x4
 5532 0118 01       		.byte	0x1
 5533 0119 0B       		.uleb128 0xb
 5534 011a 0B       		.uleb128 0xb
ARM GAS  C:\Users\codyg\AppData\Local\Temp\ccQipZVL.s 			page 132


 5535 011b 49       		.uleb128 0x49
 5536 011c 13       		.uleb128 0x13
 5537 011d 3A       		.uleb128 0x3a
 5538 011e 0B       		.uleb128 0xb
 5539 011f 3B       		.uleb128 0x3b
 5540 0120 0B       		.uleb128 0xb
 5541 0121 01       		.uleb128 0x1
 5542 0122 13       		.uleb128 0x13
 5543 0123 00       		.byte	0
 5544 0124 00       		.byte	0
 5545 0125 1A       		.uleb128 0x1a
 5546 0126 13       		.uleb128 0x13
 5547 0127 01       		.byte	0x1
 5548 0128 03       		.uleb128 0x3
 5549 0129 0E       		.uleb128 0xe
 5550 012a 0B       		.uleb128 0xb
 5551 012b 0B       		.uleb128 0xb
 5552 012c 3A       		.uleb128 0x3a
 5553 012d 0B       		.uleb128 0xb
 5554 012e 3B       		.uleb128 0x3b
 5555 012f 0B       		.uleb128 0xb
 5556 0130 01       		.uleb128 0x1
 5557 0131 13       		.uleb128 0x13
 5558 0132 00       		.byte	0
 5559 0133 00       		.byte	0
 5560 0134 1B       		.uleb128 0x1b
 5561 0135 17       		.uleb128 0x17
 5562 0136 01       		.byte	0x1
 5563 0137 0B       		.uleb128 0xb
 5564 0138 0B       		.uleb128 0xb
 5565 0139 3A       		.uleb128 0x3a
 5566 013a 0B       		.uleb128 0xb
 5567 013b 3B       		.uleb128 0x3b
 5568 013c 0B       		.uleb128 0xb
 5569 013d 01       		.uleb128 0x1
 5570 013e 13       		.uleb128 0x13
 5571 013f 00       		.byte	0
 5572 0140 00       		.byte	0
 5573 0141 1C       		.uleb128 0x1c
 5574 0142 0D       		.uleb128 0xd
 5575 0143 00       		.byte	0
 5576 0144 03       		.uleb128 0x3
 5577 0145 0E       		.uleb128 0xe
 5578 0146 3A       		.uleb128 0x3a
 5579 0147 0B       		.uleb128 0xb
 5580 0148 3B       		.uleb128 0x3b
 5581 0149 0B       		.uleb128 0xb
 5582 014a 49       		.uleb128 0x49
 5583 014b 13       		.uleb128 0x13
 5584 014c 00       		.byte	0
 5585 014d 00       		.byte	0
 5586 014e 1D       		.uleb128 0x1d
 5587 014f 2E       		.uleb128 0x2e
 5588 0150 01       		.byte	0x1
 5589 0151 03       		.uleb128 0x3
 5590 0152 0E       		.uleb128 0xe
 5591 0153 3A       		.uleb128 0x3a
ARM GAS  C:\Users\codyg\AppData\Local\Temp\ccQipZVL.s 			page 133


 5592 0154 0B       		.uleb128 0xb
 5593 0155 3B       		.uleb128 0x3b
 5594 0156 05       		.uleb128 0x5
 5595 0157 27       		.uleb128 0x27
 5596 0158 19       		.uleb128 0x19
 5597 0159 20       		.uleb128 0x20
 5598 015a 0B       		.uleb128 0xb
 5599 015b 01       		.uleb128 0x1
 5600 015c 13       		.uleb128 0x13
 5601 015d 00       		.byte	0
 5602 015e 00       		.byte	0
 5603 015f 1E       		.uleb128 0x1e
 5604 0160 05       		.uleb128 0x5
 5605 0161 00       		.byte	0
 5606 0162 03       		.uleb128 0x3
 5607 0163 0E       		.uleb128 0xe
 5608 0164 3A       		.uleb128 0x3a
 5609 0165 0B       		.uleb128 0xb
 5610 0166 3B       		.uleb128 0x3b
 5611 0167 05       		.uleb128 0x5
 5612 0168 49       		.uleb128 0x49
 5613 0169 13       		.uleb128 0x13
 5614 016a 00       		.byte	0
 5615 016b 00       		.byte	0
 5616 016c 1F       		.uleb128 0x1f
 5617 016d 2E       		.uleb128 0x2e
 5618 016e 01       		.byte	0x1
 5619 016f 3F       		.uleb128 0x3f
 5620 0170 19       		.uleb128 0x19
 5621 0171 03       		.uleb128 0x3
 5622 0172 0E       		.uleb128 0xe
 5623 0173 3A       		.uleb128 0x3a
 5624 0174 0B       		.uleb128 0xb
 5625 0175 3B       		.uleb128 0x3b
 5626 0176 0B       		.uleb128 0xb
 5627 0177 27       		.uleb128 0x27
 5628 0178 19       		.uleb128 0x19
 5629 0179 11       		.uleb128 0x11
 5630 017a 01       		.uleb128 0x1
 5631 017b 12       		.uleb128 0x12
 5632 017c 06       		.uleb128 0x6
 5633 017d 40       		.uleb128 0x40
 5634 017e 18       		.uleb128 0x18
 5635 017f 9742     		.uleb128 0x2117
 5636 0181 19       		.uleb128 0x19
 5637 0182 01       		.uleb128 0x1
 5638 0183 13       		.uleb128 0x13
 5639 0184 00       		.byte	0
 5640 0185 00       		.byte	0
 5641 0186 20       		.uleb128 0x20
 5642 0187 05       		.uleb128 0x5
 5643 0188 00       		.byte	0
 5644 0189 03       		.uleb128 0x3
 5645 018a 0E       		.uleb128 0xe
 5646 018b 3A       		.uleb128 0x3a
 5647 018c 0B       		.uleb128 0xb
 5648 018d 3B       		.uleb128 0x3b
ARM GAS  C:\Users\codyg\AppData\Local\Temp\ccQipZVL.s 			page 134


 5649 018e 0B       		.uleb128 0xb
 5650 018f 49       		.uleb128 0x49
 5651 0190 13       		.uleb128 0x13
 5652 0191 02       		.uleb128 0x2
 5653 0192 17       		.uleb128 0x17
 5654 0193 00       		.byte	0
 5655 0194 00       		.byte	0
 5656 0195 21       		.uleb128 0x21
 5657 0196 1D       		.uleb128 0x1d
 5658 0197 01       		.byte	0x1
 5659 0198 31       		.uleb128 0x31
 5660 0199 13       		.uleb128 0x13
 5661 019a 11       		.uleb128 0x11
 5662 019b 01       		.uleb128 0x1
 5663 019c 12       		.uleb128 0x12
 5664 019d 06       		.uleb128 0x6
 5665 019e 58       		.uleb128 0x58
 5666 019f 0B       		.uleb128 0xb
 5667 01a0 59       		.uleb128 0x59
 5668 01a1 0B       		.uleb128 0xb
 5669 01a2 01       		.uleb128 0x1
 5670 01a3 13       		.uleb128 0x13
 5671 01a4 00       		.byte	0
 5672 01a5 00       		.byte	0
 5673 01a6 22       		.uleb128 0x22
 5674 01a7 05       		.uleb128 0x5
 5675 01a8 00       		.byte	0
 5676 01a9 31       		.uleb128 0x31
 5677 01aa 13       		.uleb128 0x13
 5678 01ab 02       		.uleb128 0x2
 5679 01ac 17       		.uleb128 0x17
 5680 01ad 00       		.byte	0
 5681 01ae 00       		.byte	0
 5682 01af 23       		.uleb128 0x23
 5683 01b0 898201   		.uleb128 0x4109
 5684 01b3 01       		.byte	0x1
 5685 01b4 11       		.uleb128 0x11
 5686 01b5 01       		.uleb128 0x1
 5687 01b6 31       		.uleb128 0x31
 5688 01b7 13       		.uleb128 0x13
 5689 01b8 01       		.uleb128 0x1
 5690 01b9 13       		.uleb128 0x13
 5691 01ba 00       		.byte	0
 5692 01bb 00       		.byte	0
 5693 01bc 24       		.uleb128 0x24
 5694 01bd 8A8201   		.uleb128 0x410a
 5695 01c0 00       		.byte	0
 5696 01c1 02       		.uleb128 0x2
 5697 01c2 18       		.uleb128 0x18
 5698 01c3 9142     		.uleb128 0x2111
 5699 01c5 18       		.uleb128 0x18
 5700 01c6 00       		.byte	0
 5701 01c7 00       		.byte	0
 5702 01c8 25       		.uleb128 0x25
 5703 01c9 898201   		.uleb128 0x4109
 5704 01cc 00       		.byte	0
 5705 01cd 11       		.uleb128 0x11
ARM GAS  C:\Users\codyg\AppData\Local\Temp\ccQipZVL.s 			page 135


 5706 01ce 01       		.uleb128 0x1
 5707 01cf 31       		.uleb128 0x31
 5708 01d0 13       		.uleb128 0x13
 5709 01d1 00       		.byte	0
 5710 01d2 00       		.byte	0
 5711 01d3 26       		.uleb128 0x26
 5712 01d4 898201   		.uleb128 0x4109
 5713 01d7 01       		.byte	0x1
 5714 01d8 11       		.uleb128 0x11
 5715 01d9 01       		.uleb128 0x1
 5716 01da 31       		.uleb128 0x31
 5717 01db 13       		.uleb128 0x13
 5718 01dc 00       		.byte	0
 5719 01dd 00       		.byte	0
 5720 01de 27       		.uleb128 0x27
 5721 01df 2E       		.uleb128 0x2e
 5722 01e0 01       		.byte	0x1
 5723 01e1 3F       		.uleb128 0x3f
 5724 01e2 19       		.uleb128 0x19
 5725 01e3 03       		.uleb128 0x3
 5726 01e4 0E       		.uleb128 0xe
 5727 01e5 3A       		.uleb128 0x3a
 5728 01e6 0B       		.uleb128 0xb
 5729 01e7 3B       		.uleb128 0x3b
 5730 01e8 0B       		.uleb128 0xb
 5731 01e9 27       		.uleb128 0x27
 5732 01ea 19       		.uleb128 0x19
 5733 01eb 49       		.uleb128 0x49
 5734 01ec 13       		.uleb128 0x13
 5735 01ed 11       		.uleb128 0x11
 5736 01ee 01       		.uleb128 0x1
 5737 01ef 12       		.uleb128 0x12
 5738 01f0 06       		.uleb128 0x6
 5739 01f1 40       		.uleb128 0x40
 5740 01f2 18       		.uleb128 0x18
 5741 01f3 9742     		.uleb128 0x2117
 5742 01f5 19       		.uleb128 0x19
 5743 01f6 01       		.uleb128 0x1
 5744 01f7 13       		.uleb128 0x13
 5745 01f8 00       		.byte	0
 5746 01f9 00       		.byte	0
 5747 01fa 28       		.uleb128 0x28
 5748 01fb 34       		.uleb128 0x34
 5749 01fc 00       		.byte	0
 5750 01fd 03       		.uleb128 0x3
 5751 01fe 0E       		.uleb128 0xe
 5752 01ff 3A       		.uleb128 0x3a
 5753 0200 0B       		.uleb128 0xb
 5754 0201 3B       		.uleb128 0x3b
 5755 0202 0B       		.uleb128 0xb
 5756 0203 49       		.uleb128 0x49
 5757 0204 13       		.uleb128 0x13
 5758 0205 02       		.uleb128 0x2
 5759 0206 18       		.uleb128 0x18
 5760 0207 00       		.byte	0
 5761 0208 00       		.byte	0
 5762 0209 29       		.uleb128 0x29
ARM GAS  C:\Users\codyg\AppData\Local\Temp\ccQipZVL.s 			page 136


 5763 020a 2E       		.uleb128 0x2e
 5764 020b 01       		.byte	0x1
 5765 020c 3F       		.uleb128 0x3f
 5766 020d 19       		.uleb128 0x19
 5767 020e 03       		.uleb128 0x3
 5768 020f 0E       		.uleb128 0xe
 5769 0210 3A       		.uleb128 0x3a
 5770 0211 0B       		.uleb128 0xb
 5771 0212 3B       		.uleb128 0x3b
 5772 0213 05       		.uleb128 0x5
 5773 0214 27       		.uleb128 0x27
 5774 0215 19       		.uleb128 0x19
 5775 0216 49       		.uleb128 0x49
 5776 0217 13       		.uleb128 0x13
 5777 0218 11       		.uleb128 0x11
 5778 0219 01       		.uleb128 0x1
 5779 021a 12       		.uleb128 0x12
 5780 021b 06       		.uleb128 0x6
 5781 021c 40       		.uleb128 0x40
 5782 021d 18       		.uleb128 0x18
 5783 021e 9742     		.uleb128 0x2117
 5784 0220 19       		.uleb128 0x19
 5785 0221 01       		.uleb128 0x1
 5786 0222 13       		.uleb128 0x13
 5787 0223 00       		.byte	0
 5788 0224 00       		.byte	0
 5789 0225 2A       		.uleb128 0x2a
 5790 0226 34       		.uleb128 0x34
 5791 0227 00       		.byte	0
 5792 0228 03       		.uleb128 0x3
 5793 0229 0E       		.uleb128 0xe
 5794 022a 3A       		.uleb128 0x3a
 5795 022b 0B       		.uleb128 0xb
 5796 022c 3B       		.uleb128 0x3b
 5797 022d 05       		.uleb128 0x5
 5798 022e 49       		.uleb128 0x49
 5799 022f 13       		.uleb128 0x13
 5800 0230 02       		.uleb128 0x2
 5801 0231 17       		.uleb128 0x17
 5802 0232 00       		.byte	0
 5803 0233 00       		.byte	0
 5804 0234 2B       		.uleb128 0x2b
 5805 0235 898201   		.uleb128 0x4109
 5806 0238 01       		.byte	0x1
 5807 0239 11       		.uleb128 0x11
 5808 023a 01       		.uleb128 0x1
 5809 023b 01       		.uleb128 0x1
 5810 023c 13       		.uleb128 0x13
 5811 023d 00       		.byte	0
 5812 023e 00       		.byte	0
 5813 023f 2C       		.uleb128 0x2c
 5814 0240 2E       		.uleb128 0x2e
 5815 0241 01       		.byte	0x1
 5816 0242 3F       		.uleb128 0x3f
 5817 0243 19       		.uleb128 0x19
 5818 0244 03       		.uleb128 0x3
 5819 0245 0E       		.uleb128 0xe
ARM GAS  C:\Users\codyg\AppData\Local\Temp\ccQipZVL.s 			page 137


 5820 0246 3A       		.uleb128 0x3a
 5821 0247 0B       		.uleb128 0xb
 5822 0248 3B       		.uleb128 0x3b
 5823 0249 05       		.uleb128 0x5
 5824 024a 27       		.uleb128 0x27
 5825 024b 19       		.uleb128 0x19
 5826 024c 11       		.uleb128 0x11
 5827 024d 01       		.uleb128 0x1
 5828 024e 12       		.uleb128 0x12
 5829 024f 06       		.uleb128 0x6
 5830 0250 40       		.uleb128 0x40
 5831 0251 18       		.uleb128 0x18
 5832 0252 9742     		.uleb128 0x2117
 5833 0254 19       		.uleb128 0x19
 5834 0255 01       		.uleb128 0x1
 5835 0256 13       		.uleb128 0x13
 5836 0257 00       		.byte	0
 5837 0258 00       		.byte	0
 5838 0259 2D       		.uleb128 0x2d
 5839 025a 05       		.uleb128 0x5
 5840 025b 00       		.byte	0
 5841 025c 03       		.uleb128 0x3
 5842 025d 0E       		.uleb128 0xe
 5843 025e 3A       		.uleb128 0x3a
 5844 025f 0B       		.uleb128 0xb
 5845 0260 3B       		.uleb128 0x3b
 5846 0261 05       		.uleb128 0x5
 5847 0262 49       		.uleb128 0x49
 5848 0263 13       		.uleb128 0x13
 5849 0264 02       		.uleb128 0x2
 5850 0265 18       		.uleb128 0x18
 5851 0266 00       		.byte	0
 5852 0267 00       		.byte	0
 5853 0268 2E       		.uleb128 0x2e
 5854 0269 34       		.uleb128 0x34
 5855 026a 00       		.byte	0
 5856 026b 03       		.uleb128 0x3
 5857 026c 0E       		.uleb128 0xe
 5858 026d 3A       		.uleb128 0x3a
 5859 026e 0B       		.uleb128 0xb
 5860 026f 3B       		.uleb128 0x3b
 5861 0270 05       		.uleb128 0x5
 5862 0271 49       		.uleb128 0x49
 5863 0272 13       		.uleb128 0x13
 5864 0273 02       		.uleb128 0x2
 5865 0274 18       		.uleb128 0x18
 5866 0275 00       		.byte	0
 5867 0276 00       		.byte	0
 5868 0277 2F       		.uleb128 0x2f
 5869 0278 05       		.uleb128 0x5
 5870 0279 00       		.byte	0
 5871 027a 03       		.uleb128 0x3
 5872 027b 0E       		.uleb128 0xe
 5873 027c 3A       		.uleb128 0x3a
 5874 027d 0B       		.uleb128 0xb
 5875 027e 3B       		.uleb128 0x3b
 5876 027f 05       		.uleb128 0x5
ARM GAS  C:\Users\codyg\AppData\Local\Temp\ccQipZVL.s 			page 138


 5877 0280 49       		.uleb128 0x49
 5878 0281 13       		.uleb128 0x13
 5879 0282 02       		.uleb128 0x2
 5880 0283 17       		.uleb128 0x17
 5881 0284 00       		.byte	0
 5882 0285 00       		.byte	0
 5883 0286 30       		.uleb128 0x30
 5884 0287 34       		.uleb128 0x34
 5885 0288 00       		.byte	0
 5886 0289 03       		.uleb128 0x3
 5887 028a 08       		.uleb128 0x8
 5888 028b 3A       		.uleb128 0x3a
 5889 028c 0B       		.uleb128 0xb
 5890 028d 3B       		.uleb128 0x3b
 5891 028e 05       		.uleb128 0x5
 5892 028f 49       		.uleb128 0x49
 5893 0290 13       		.uleb128 0x13
 5894 0291 02       		.uleb128 0x2
 5895 0292 17       		.uleb128 0x17
 5896 0293 00       		.byte	0
 5897 0294 00       		.byte	0
 5898 0295 31       		.uleb128 0x31
 5899 0296 1D       		.uleb128 0x1d
 5900 0297 01       		.byte	0x1
 5901 0298 31       		.uleb128 0x31
 5902 0299 13       		.uleb128 0x13
 5903 029a 11       		.uleb128 0x11
 5904 029b 01       		.uleb128 0x1
 5905 029c 12       		.uleb128 0x12
 5906 029d 06       		.uleb128 0x6
 5907 029e 58       		.uleb128 0x58
 5908 029f 0B       		.uleb128 0xb
 5909 02a0 59       		.uleb128 0x59
 5910 02a1 05       		.uleb128 0x5
 5911 02a2 01       		.uleb128 0x1
 5912 02a3 13       		.uleb128 0x13
 5913 02a4 00       		.byte	0
 5914 02a5 00       		.byte	0
 5915 02a6 32       		.uleb128 0x32
 5916 02a7 898201   		.uleb128 0x4109
 5917 02aa 01       		.byte	0x1
 5918 02ab 11       		.uleb128 0x11
 5919 02ac 01       		.uleb128 0x1
 5920 02ad 00       		.byte	0
 5921 02ae 00       		.byte	0
 5922 02af 33       		.uleb128 0x33
 5923 02b0 34       		.uleb128 0x34
 5924 02b1 00       		.byte	0
 5925 02b2 03       		.uleb128 0x3
 5926 02b3 0E       		.uleb128 0xe
 5927 02b4 3A       		.uleb128 0x3a
 5928 02b5 0B       		.uleb128 0xb
 5929 02b6 3B       		.uleb128 0x3b
 5930 02b7 05       		.uleb128 0x5
 5931 02b8 49       		.uleb128 0x49
 5932 02b9 13       		.uleb128 0x13
 5933 02ba 3F       		.uleb128 0x3f
ARM GAS  C:\Users\codyg\AppData\Local\Temp\ccQipZVL.s 			page 139


 5934 02bb 19       		.uleb128 0x19
 5935 02bc 3C       		.uleb128 0x3c
 5936 02bd 19       		.uleb128 0x19
 5937 02be 00       		.byte	0
 5938 02bf 00       		.byte	0
 5939 02c0 34       		.uleb128 0x34
 5940 02c1 34       		.uleb128 0x34
 5941 02c2 00       		.byte	0
 5942 02c3 03       		.uleb128 0x3
 5943 02c4 0E       		.uleb128 0xe
 5944 02c5 3A       		.uleb128 0x3a
 5945 02c6 0B       		.uleb128 0xb
 5946 02c7 3B       		.uleb128 0x3b
 5947 02c8 0B       		.uleb128 0xb
 5948 02c9 49       		.uleb128 0x49
 5949 02ca 13       		.uleb128 0x13
 5950 02cb 3F       		.uleb128 0x3f
 5951 02cc 19       		.uleb128 0x19
 5952 02cd 3C       		.uleb128 0x3c
 5953 02ce 19       		.uleb128 0x19
 5954 02cf 00       		.byte	0
 5955 02d0 00       		.byte	0
 5956 02d1 35       		.uleb128 0x35
 5957 02d2 34       		.uleb128 0x34
 5958 02d3 00       		.byte	0
 5959 02d4 03       		.uleb128 0x3
 5960 02d5 0E       		.uleb128 0xe
 5961 02d6 3A       		.uleb128 0x3a
 5962 02d7 0B       		.uleb128 0xb
 5963 02d8 3B       		.uleb128 0x3b
 5964 02d9 0B       		.uleb128 0xb
 5965 02da 49       		.uleb128 0x49
 5966 02db 13       		.uleb128 0x13
 5967 02dc 3F       		.uleb128 0x3f
 5968 02dd 19       		.uleb128 0x19
 5969 02de 02       		.uleb128 0x2
 5970 02df 18       		.uleb128 0x18
 5971 02e0 00       		.byte	0
 5972 02e1 00       		.byte	0
 5973 02e2 36       		.uleb128 0x36
 5974 02e3 2E       		.uleb128 0x2e
 5975 02e4 00       		.byte	0
 5976 02e5 3F       		.uleb128 0x3f
 5977 02e6 19       		.uleb128 0x19
 5978 02e7 3C       		.uleb128 0x3c
 5979 02e8 19       		.uleb128 0x19
 5980 02e9 6E       		.uleb128 0x6e
 5981 02ea 0E       		.uleb128 0xe
 5982 02eb 03       		.uleb128 0x3
 5983 02ec 0E       		.uleb128 0xe
 5984 02ed 3A       		.uleb128 0x3a
 5985 02ee 0B       		.uleb128 0xb
 5986 02ef 3B       		.uleb128 0x3b
 5987 02f0 0B       		.uleb128 0xb
 5988 02f1 00       		.byte	0
 5989 02f2 00       		.byte	0
 5990 02f3 37       		.uleb128 0x37
ARM GAS  C:\Users\codyg\AppData\Local\Temp\ccQipZVL.s 			page 140


 5991 02f4 2E       		.uleb128 0x2e
 5992 02f5 00       		.byte	0
 5993 02f6 3F       		.uleb128 0x3f
 5994 02f7 19       		.uleb128 0x19
 5995 02f8 3C       		.uleb128 0x3c
 5996 02f9 19       		.uleb128 0x19
 5997 02fa 6E       		.uleb128 0x6e
 5998 02fb 0E       		.uleb128 0xe
 5999 02fc 03       		.uleb128 0x3
 6000 02fd 0E       		.uleb128 0xe
 6001 02fe 00       		.byte	0
 6002 02ff 00       		.byte	0
 6003 0300 00       		.byte	0
 6004              		.section	.debug_loc,"",%progbits
 6005              	.Ldebug_loc0:
 6006              	.LLST0:
 6007 0000 00000000 		.4byte	.LVL0
 6008 0004 12000000 		.4byte	.LVL3
 6009 0008 0100     		.2byte	0x1
 6010 000a 50       		.byte	0x50
 6011 000b 12000000 		.4byte	.LVL3
 6012 000f 4C000000 		.4byte	.LFE517
 6013 0013 0400     		.2byte	0x4
 6014 0015 F3       		.byte	0xf3
 6015 0016 01       		.uleb128 0x1
 6016 0017 50       		.byte	0x50
 6017 0018 9F       		.byte	0x9f
 6018 0019 00000000 		.4byte	0
 6019 001d 00000000 		.4byte	0
 6020              	.LLST1:
 6021 0021 00000000 		.4byte	.LVL0
 6022 0025 15000000 		.4byte	.LVL4-1
 6023 0029 0100     		.2byte	0x1
 6024 002b 51       		.byte	0x51
 6025 002c 15000000 		.4byte	.LVL4-1
 6026 0030 2A000000 		.4byte	.LVL10
 6027 0034 0100     		.2byte	0x1
 6028 0036 56       		.byte	0x56
 6029 0037 2A000000 		.4byte	.LVL10
 6030 003b 34000000 		.4byte	.LVL12
 6031 003f 0100     		.2byte	0x1
 6032 0041 57       		.byte	0x57
 6033 0042 34000000 		.4byte	.LVL12
 6034 0046 46000000 		.4byte	.LVL16
 6035 004a 0100     		.2byte	0x1
 6036 004c 56       		.byte	0x56
 6037 004d 00000000 		.4byte	0
 6038 0051 00000000 		.4byte	0
 6039              	.LLST2:
 6040 0055 00000000 		.4byte	.LVL0
 6041 0059 15000000 		.4byte	.LVL4-1
 6042 005d 0100     		.2byte	0x1
 6043 005f 52       		.byte	0x52
 6044 0060 15000000 		.4byte	.LVL4-1
 6045 0064 28000000 		.4byte	.LVL9
 6046 0068 0400     		.2byte	0x4
 6047 006a F3       		.byte	0xf3
ARM GAS  C:\Users\codyg\AppData\Local\Temp\ccQipZVL.s 			page 141


 6048 006b 01       		.uleb128 0x1
 6049 006c 52       		.byte	0x52
 6050 006d 9F       		.byte	0x9f
 6051 006e 28000000 		.4byte	.LVL9
 6052 0072 34000000 		.4byte	.LVL12
 6053 0076 0100     		.2byte	0x1
 6054 0078 54       		.byte	0x54
 6055 0079 34000000 		.4byte	.LVL12
 6056 007d 38000000 		.4byte	.LVL13
 6057 0081 0100     		.2byte	0x1
 6058 0083 55       		.byte	0x55
 6059 0084 38000000 		.4byte	.LVL13
 6060 0088 46000000 		.4byte	.LVL16
 6061 008c 0100     		.2byte	0x1
 6062 008e 54       		.byte	0x54
 6063 008f 00000000 		.4byte	0
 6064 0093 00000000 		.4byte	0
 6065              	.LLST3:
 6066 0097 0A000000 		.4byte	.LVL1
 6067 009b 10000000 		.4byte	.LVL2
 6068 009f 0200     		.2byte	0x2
 6069 00a1 33       		.byte	0x33
 6070 00a2 9F       		.byte	0x9f
 6071 00a3 00000000 		.4byte	0
 6072 00a7 00000000 		.4byte	0
 6073              	.LLST4:
 6074 00ab 0A000000 		.4byte	.LVL1
 6075 00af 10000000 		.4byte	.LVL2
 6076 00b3 0600     		.2byte	0x6
 6077 00b5 0C       		.byte	0xc
 6078 00b6 00063240 		.4byte	0x40320600
 6079 00ba 9F       		.byte	0x9f
 6080 00bb 00000000 		.4byte	0
 6081 00bf 00000000 		.4byte	0
 6082              	.LLST5:
 6083 00c3 1C000000 		.4byte	.LVL5
 6084 00c7 1E000000 		.4byte	.LVL6
 6085 00cb 0200     		.2byte	0x2
 6086 00cd 33       		.byte	0x33
 6087 00ce 9F       		.byte	0x9f
 6088 00cf 00000000 		.4byte	0
 6089 00d3 00000000 		.4byte	0
 6090              	.LLST6:
 6091 00d7 1C000000 		.4byte	.LVL5
 6092 00db 1E000000 		.4byte	.LVL6
 6093 00df 0600     		.2byte	0x6
 6094 00e1 0C       		.byte	0xc
 6095 00e2 00063240 		.4byte	0x40320600
 6096 00e6 9F       		.byte	0x9f
 6097 00e7 00000000 		.4byte	0
 6098 00eb 00000000 		.4byte	0
 6099              	.LLST7:
 6100 00ef 1E000000 		.4byte	.LVL6
 6101 00f3 20000000 		.4byte	.LVL7
 6102 00f7 0200     		.2byte	0x2
 6103 00f9 33       		.byte	0x33
 6104 00fa 9F       		.byte	0x9f
ARM GAS  C:\Users\codyg\AppData\Local\Temp\ccQipZVL.s 			page 142


 6105 00fb 00000000 		.4byte	0
 6106 00ff 00000000 		.4byte	0
 6107              	.LLST8:
 6108 0103 1E000000 		.4byte	.LVL6
 6109 0107 20000000 		.4byte	.LVL7
 6110 010b 0600     		.2byte	0x6
 6111 010d 0C       		.byte	0xc
 6112 010e 00063240 		.4byte	0x40320600
 6113 0112 9F       		.byte	0x9f
 6114 0113 00000000 		.4byte	0
 6115 0117 00000000 		.4byte	0
 6116              	.LLST9:
 6117 011b 3C000000 		.4byte	.LVL14
 6118 011f 42000000 		.4byte	.LVL15
 6119 0123 0200     		.2byte	0x2
 6120 0125 33       		.byte	0x33
 6121 0126 9F       		.byte	0x9f
 6122 0127 00000000 		.4byte	0
 6123 012b 00000000 		.4byte	0
 6124              	.LLST10:
 6125 012f 3C000000 		.4byte	.LVL14
 6126 0133 42000000 		.4byte	.LVL15
 6127 0137 0600     		.2byte	0x6
 6128 0139 0C       		.byte	0xc
 6129 013a 00063240 		.4byte	0x40320600
 6130 013e 9F       		.byte	0x9f
 6131 013f 00000000 		.4byte	0
 6132 0143 00000000 		.4byte	0
 6133              	.LLST11:
 6134 0147 00000000 		.4byte	.LVL17
 6135 014b 11000000 		.4byte	.LVL19-1
 6136 014f 0100     		.2byte	0x1
 6137 0151 50       		.byte	0x50
 6138 0152 11000000 		.4byte	.LVL19-1
 6139 0156 18000000 		.4byte	.LFE518
 6140 015a 0400     		.2byte	0x4
 6141 015c F3       		.byte	0xf3
 6142 015d 01       		.uleb128 0x1
 6143 015e 50       		.byte	0x50
 6144 015f 9F       		.byte	0x9f
 6145 0160 00000000 		.4byte	0
 6146 0164 00000000 		.4byte	0
 6147              	.LLST12:
 6148 0168 00000000 		.4byte	.LVL17
 6149 016c 0E000000 		.4byte	.LVL18
 6150 0170 0100     		.2byte	0x1
 6151 0172 51       		.byte	0x51
 6152 0173 0E000000 		.4byte	.LVL18
 6153 0177 11000000 		.4byte	.LVL19-1
 6154 017b 0200     		.2byte	0x2
 6155 017d 71       		.byte	0x71
 6156 017e 00       		.sleb128 0
 6157 017f 11000000 		.4byte	.LVL19-1
 6158 0183 18000000 		.4byte	.LFE518
 6159 0187 0200     		.2byte	0x2
 6160 0189 91       		.byte	0x91
 6161 018a 77       		.sleb128 -9
ARM GAS  C:\Users\codyg\AppData\Local\Temp\ccQipZVL.s 			page 143


 6162 018b 00000000 		.4byte	0
 6163 018f 00000000 		.4byte	0
 6164              	.LLST13:
 6165 0193 00000000 		.4byte	.LVL20
 6166 0197 0E000000 		.4byte	.LVL23
 6167 019b 0100     		.2byte	0x1
 6168 019d 50       		.byte	0x50
 6169 019e 0E000000 		.4byte	.LVL23
 6170 01a2 30000000 		.4byte	.LFE519
 6171 01a6 0400     		.2byte	0x4
 6172 01a8 F3       		.byte	0xf3
 6173 01a9 01       		.uleb128 0x1
 6174 01aa 50       		.byte	0x50
 6175 01ab 9F       		.byte	0x9f
 6176 01ac 00000000 		.4byte	0
 6177 01b0 00000000 		.4byte	0
 6178              	.LLST14:
 6179 01b4 00000000 		.4byte	.LVL20
 6180 01b8 11000000 		.4byte	.LVL24-1
 6181 01bc 0100     		.2byte	0x1
 6182 01be 51       		.byte	0x51
 6183 01bf 11000000 		.4byte	.LVL24-1
 6184 01c3 30000000 		.4byte	.LFE519
 6185 01c7 0400     		.2byte	0x4
 6186 01c9 F3       		.byte	0xf3
 6187 01ca 01       		.uleb128 0x1
 6188 01cb 51       		.byte	0x51
 6189 01cc 9F       		.byte	0x9f
 6190 01cd 00000000 		.4byte	0
 6191 01d1 00000000 		.4byte	0
 6192              	.LLST15:
 6193 01d5 06000000 		.4byte	.LVL21
 6194 01d9 0C000000 		.4byte	.LVL22
 6195 01dd 0200     		.2byte	0x2
 6196 01df 33       		.byte	0x33
 6197 01e0 9F       		.byte	0x9f
 6198 01e1 00000000 		.4byte	0
 6199 01e5 00000000 		.4byte	0
 6200              	.LLST16:
 6201 01e9 06000000 		.4byte	.LVL21
 6202 01ed 0C000000 		.4byte	.LVL22
 6203 01f1 0600     		.2byte	0x6
 6204 01f3 0C       		.byte	0xc
 6205 01f4 00063240 		.4byte	0x40320600
 6206 01f8 9F       		.byte	0x9f
 6207 01f9 00000000 		.4byte	0
 6208 01fd 00000000 		.4byte	0
 6209              	.LLST17:
 6210 0201 18000000 		.4byte	.LVL25
 6211 0205 1A000000 		.4byte	.LVL26
 6212 0209 0200     		.2byte	0x2
 6213 020b 33       		.byte	0x33
 6214 020c 9F       		.byte	0x9f
 6215 020d 00000000 		.4byte	0
 6216 0211 00000000 		.4byte	0
 6217              	.LLST18:
 6218 0215 18000000 		.4byte	.LVL25
ARM GAS  C:\Users\codyg\AppData\Local\Temp\ccQipZVL.s 			page 144


 6219 0219 1A000000 		.4byte	.LVL26
 6220 021d 0600     		.2byte	0x6
 6221 021f 0C       		.byte	0xc
 6222 0220 00063240 		.4byte	0x40320600
 6223 0224 9F       		.byte	0x9f
 6224 0225 00000000 		.4byte	0
 6225 0229 00000000 		.4byte	0
 6226              	.LLST19:
 6227 022d 1A000000 		.4byte	.LVL26
 6228 0231 1C000000 		.4byte	.LVL27
 6229 0235 0200     		.2byte	0x2
 6230 0237 33       		.byte	0x33
 6231 0238 9F       		.byte	0x9f
 6232 0239 00000000 		.4byte	0
 6233 023d 00000000 		.4byte	0
 6234              	.LLST20:
 6235 0241 1A000000 		.4byte	.LVL26
 6236 0245 1C000000 		.4byte	.LVL27
 6237 0249 0600     		.2byte	0x6
 6238 024b 0C       		.byte	0xc
 6239 024c 00063240 		.4byte	0x40320600
 6240 0250 9F       		.byte	0x9f
 6241 0251 00000000 		.4byte	0
 6242 0255 00000000 		.4byte	0
 6243              	.LLST21:
 6244 0259 28000000 		.4byte	.LVL29
 6245 025d 2A000000 		.4byte	.LVL30
 6246 0261 0200     		.2byte	0x2
 6247 0263 33       		.byte	0x33
 6248 0264 9F       		.byte	0x9f
 6249 0265 00000000 		.4byte	0
 6250 0269 00000000 		.4byte	0
 6251              	.LLST22:
 6252 026d 28000000 		.4byte	.LVL29
 6253 0271 2A000000 		.4byte	.LVL30
 6254 0275 0600     		.2byte	0x6
 6255 0277 0C       		.byte	0xc
 6256 0278 00063240 		.4byte	0x40320600
 6257 027c 9F       		.byte	0x9f
 6258 027d 00000000 		.4byte	0
 6259 0281 00000000 		.4byte	0
 6260              	.LLST23:
 6261 0285 02000000 		.4byte	.LVL31
 6262 0289 08000000 		.4byte	.LVL32
 6263 028d 0200     		.2byte	0x2
 6264 028f 32       		.byte	0x32
 6265 0290 9F       		.byte	0x9f
 6266 0291 00000000 		.4byte	0
 6267 0295 00000000 		.4byte	0
 6268              	.LLST24:
 6269 0299 02000000 		.4byte	.LVL31
 6270 029d 08000000 		.4byte	.LVL32
 6271 02a1 0600     		.2byte	0x6
 6272 02a3 0C       		.byte	0xc
 6273 02a4 00003240 		.4byte	0x40320000
 6274 02a8 9F       		.byte	0x9f
 6275 02a9 00000000 		.4byte	0
ARM GAS  C:\Users\codyg\AppData\Local\Temp\ccQipZVL.s 			page 145


 6276 02ad 00000000 		.4byte	0
 6277              	.LLST25:
 6278 02b1 08000000 		.4byte	.LVL32
 6279 02b5 0E000000 		.4byte	.LVL33
 6280 02b9 0200     		.2byte	0x2
 6281 02bb 36       		.byte	0x36
 6282 02bc 9F       		.byte	0x9f
 6283 02bd 00000000 		.4byte	0
 6284 02c1 00000000 		.4byte	0
 6285              	.LLST26:
 6286 02c5 08000000 		.4byte	.LVL32
 6287 02c9 0E000000 		.4byte	.LVL33
 6288 02cd 0600     		.2byte	0x6
 6289 02cf 0C       		.byte	0xc
 6290 02d0 80023240 		.4byte	0x40320280
 6291 02d4 9F       		.byte	0x9f
 6292 02d5 00000000 		.4byte	0
 6293 02d9 00000000 		.4byte	0
 6294              	.LLST27:
 6295 02dd 0E000000 		.4byte	.LVL33
 6296 02e1 12000000 		.4byte	.LVL34
 6297 02e5 0200     		.2byte	0x2
 6298 02e7 34       		.byte	0x34
 6299 02e8 9F       		.byte	0x9f
 6300 02e9 00000000 		.4byte	0
 6301 02ed 00000000 		.4byte	0
 6302              	.LLST28:
 6303 02f1 0E000000 		.4byte	.LVL33
 6304 02f5 12000000 		.4byte	.LVL34
 6305 02f9 0600     		.2byte	0x6
 6306 02fb 0C       		.byte	0xc
 6307 02fc 80023240 		.4byte	0x40320280
 6308 0300 9F       		.byte	0x9f
 6309 0301 00000000 		.4byte	0
 6310 0305 00000000 		.4byte	0
 6311              	.LLST29:
 6312 0309 16000000 		.4byte	.LVL35
 6313 030d 1C000000 		.4byte	.LVL36
 6314 0311 0200     		.2byte	0x2
 6315 0313 33       		.byte	0x33
 6316 0314 9F       		.byte	0x9f
 6317 0315 00000000 		.4byte	0
 6318 0319 00000000 		.4byte	0
 6319              	.LLST30:
 6320 031d 16000000 		.4byte	.LVL35
 6321 0321 1C000000 		.4byte	.LVL36
 6322 0325 0600     		.2byte	0x6
 6323 0327 0C       		.byte	0xc
 6324 0328 00063240 		.4byte	0x40320600
 6325 032c 9F       		.byte	0x9f
 6326 032d 00000000 		.4byte	0
 6327 0331 00000000 		.4byte	0
 6328              	.LLST31:
 6329 0335 1C000000 		.4byte	.LVL36
 6330 0339 1E000000 		.4byte	.LVL37
 6331 033d 0200     		.2byte	0x2
 6332 033f 32       		.byte	0x32
ARM GAS  C:\Users\codyg\AppData\Local\Temp\ccQipZVL.s 			page 146


 6333 0340 9F       		.byte	0x9f
 6334 0341 00000000 		.4byte	0
 6335 0345 00000000 		.4byte	0
 6336              	.LLST32:
 6337 0349 1C000000 		.4byte	.LVL36
 6338 034d 1E000000 		.4byte	.LVL37
 6339 0351 0600     		.2byte	0x6
 6340 0353 0C       		.byte	0xc
 6341 0354 80023240 		.4byte	0x40320280
 6342 0358 9F       		.byte	0x9f
 6343 0359 00000000 		.4byte	0
 6344 035d 00000000 		.4byte	0
 6345              	.LLST33:
 6346 0361 1E000000 		.4byte	.LVL37
 6347 0365 22000000 		.4byte	.LVL38
 6348 0369 0200     		.2byte	0x2
 6349 036b 35       		.byte	0x35
 6350 036c 9F       		.byte	0x9f
 6351 036d 00000000 		.4byte	0
 6352 0371 00000000 		.4byte	0
 6353              	.LLST34:
 6354 0375 1E000000 		.4byte	.LVL37
 6355 0379 22000000 		.4byte	.LVL38
 6356 037d 0600     		.2byte	0x6
 6357 037f 0C       		.byte	0xc
 6358 0380 80023240 		.4byte	0x40320280
 6359 0384 9F       		.byte	0x9f
 6360 0385 00000000 		.4byte	0
 6361 0389 00000000 		.4byte	0
 6362              	.LLST35:
 6363 038d 02000000 		.4byte	.LVL39
 6364 0391 A6000000 		.4byte	.LVL56
 6365 0395 0200     		.2byte	0x2
 6366 0397 30       		.byte	0x30
 6367 0398 9F       		.byte	0x9f
 6368 0399 A6000000 		.4byte	.LVL56
 6369 039d A8000000 		.4byte	.LVL57
 6370 03a1 0100     		.2byte	0x1
 6371 03a3 53       		.byte	0x53
 6372 03a4 A8000000 		.4byte	.LVL57
 6373 03a8 F2000000 		.4byte	.LVL66
 6374 03ac 0100     		.2byte	0x1
 6375 03ae 55       		.byte	0x55
 6376 03af F2000000 		.4byte	.LVL66
 6377 03b3 FE000000 		.4byte	.LVL68
 6378 03b7 0100     		.2byte	0x1
 6379 03b9 53       		.byte	0x53
 6380 03ba FE000000 		.4byte	.LVL68
 6381 03be 0A010000 		.4byte	.LVL69
 6382 03c2 0200     		.2byte	0x2
 6383 03c4 30       		.byte	0x30
 6384 03c5 9F       		.byte	0x9f
 6385 03c6 0A010000 		.4byte	.LVL69
 6386 03ca 0E010000 		.4byte	.LVL70
 6387 03ce 0100     		.2byte	0x1
 6388 03d0 53       		.byte	0x53
 6389 03d1 00000000 		.4byte	0
ARM GAS  C:\Users\codyg\AppData\Local\Temp\ccQipZVL.s 			page 147


 6390 03d5 00000000 		.4byte	0
 6391              	.LLST36:
 6392 03d9 00000000 		.4byte	.LVL73
 6393 03dd 26000000 		.4byte	.LVL81
 6394 03e1 0100     		.2byte	0x1
 6395 03e3 50       		.byte	0x50
 6396 03e4 26000000 		.4byte	.LVL81
 6397 03e8 6A000000 		.4byte	.LVL85
 6398 03ec 0100     		.2byte	0x1
 6399 03ee 56       		.byte	0x56
 6400 03ef 6A000000 		.4byte	.LVL85
 6401 03f3 6E000000 		.4byte	.LVL87
 6402 03f7 0300     		.2byte	0x3
 6403 03f9 76       		.byte	0x76
 6404 03fa 01       		.sleb128 1
 6405 03fb 9F       		.byte	0x9f
 6406 03fc 6E000000 		.4byte	.LVL87
 6407 0400 0E040000 		.4byte	.LVL114
 6408 0404 0100     		.2byte	0x1
 6409 0406 56       		.byte	0x56
 6410 0407 00000000 		.4byte	0
 6411 040b 00000000 		.4byte	0
 6412              	.LLST37:
 6413 040f 00000000 		.4byte	.LVL73
 6414 0413 26000000 		.4byte	.LVL81
 6415 0417 0100     		.2byte	0x1
 6416 0419 51       		.byte	0x51
 6417 041a 26000000 		.4byte	.LVL81
 6418 041e 20040000 		.4byte	.LFE523
 6419 0422 0400     		.2byte	0x4
 6420 0424 F3       		.byte	0xf3
 6421 0425 01       		.uleb128 0x1
 6422 0426 51       		.byte	0x51
 6423 0427 9F       		.byte	0x9f
 6424 0428 00000000 		.4byte	0
 6425 042c 00000000 		.4byte	0
 6426              	.LLST38:
 6427 0430 62000000 		.4byte	.LVL83
 6428 0434 68000000 		.4byte	.LVL84
 6429 0438 0200     		.2byte	0x2
 6430 043a 30       		.byte	0x30
 6431 043b 9F       		.byte	0x9f
 6432 043c 68000000 		.4byte	.LVL84
 6433 0440 96030000 		.4byte	.LVL96
 6434 0444 0100     		.2byte	0x1
 6435 0446 53       		.byte	0x53
 6436 0447 98030000 		.4byte	.LVL97
 6437 044b A2030000 		.4byte	.LVL99
 6438 044f 0100     		.2byte	0x1
 6439 0451 53       		.byte	0x53
 6440 0452 00000000 		.4byte	0
 6441 0456 00000000 		.4byte	0
 6442              	.LLST39:
 6443 045a 20000000 		.4byte	.LVL80
 6444 045e 26000000 		.4byte	.LVL81
 6445 0462 0200     		.2byte	0x2
 6446 0464 30       		.byte	0x30
ARM GAS  C:\Users\codyg\AppData\Local\Temp\ccQipZVL.s 			page 148


 6447 0465 9F       		.byte	0x9f
 6448 0466 26000000 		.4byte	.LVL81
 6449 046a C4030000 		.4byte	.LVL103
 6450 046e 0100     		.2byte	0x1
 6451 0470 58       		.byte	0x58
 6452 0471 C8030000 		.4byte	.LVL104
 6453 0475 D4030000 		.4byte	.LVL105
 6454 0479 0100     		.2byte	0x1
 6455 047b 58       		.byte	0x58
 6456 047c D4030000 		.4byte	.LVL105
 6457 0480 F2030000 		.4byte	.LVL108
 6458 0484 0100     		.2byte	0x1
 6459 0486 54       		.byte	0x54
 6460 0487 F4030000 		.4byte	.LVL109
 6461 048b F6030000 		.4byte	.LVL110
 6462 048f 0100     		.2byte	0x1
 6463 0491 54       		.byte	0x54
 6464 0492 F8030000 		.4byte	.LVL111
 6465 0496 00040000 		.4byte	.LVL113
 6466 049a 0100     		.2byte	0x1
 6467 049c 54       		.byte	0x54
 6468 049d 00000000 		.4byte	0
 6469 04a1 00000000 		.4byte	0
 6470              	.LLST40:
 6471 04a5 62000000 		.4byte	.LVL83
 6472 04a9 68000000 		.4byte	.LVL84
 6473 04ad 0300     		.2byte	0x3
 6474 04af 08       		.byte	0x8
 6475 04b0 20       		.byte	0x20
 6476 04b1 9F       		.byte	0x9f
 6477 04b2 68000000 		.4byte	.LVL84
 6478 04b6 26010000 		.4byte	.LVL88
 6479 04ba 0100     		.2byte	0x1
 6480 04bc 52       		.byte	0x52
 6481 04bd 28010000 		.4byte	.LVL89
 6482 04c1 E8010000 		.4byte	.LVL90
 6483 04c5 0100     		.2byte	0x1
 6484 04c7 52       		.byte	0x52
 6485 04c8 EA010000 		.4byte	.LVL91
 6486 04cc AA020000 		.4byte	.LVL92
 6487 04d0 0100     		.2byte	0x1
 6488 04d2 52       		.byte	0x52
 6489 04d3 AC020000 		.4byte	.LVL93
 6490 04d7 7A030000 		.4byte	.LVL94
 6491 04db 0100     		.2byte	0x1
 6492 04dd 52       		.byte	0x52
 6493 04de 7C030000 		.4byte	.LVL95
 6494 04e2 A8030000 		.4byte	.LVL101
 6495 04e6 0100     		.2byte	0x1
 6496 04e8 52       		.byte	0x52
 6497 04e9 00000000 		.4byte	0
 6498 04ed 00000000 		.4byte	0
 6499              	.LLST41:
 6500 04f1 D4030000 		.4byte	.LVL105
 6501 04f5 FE030000 		.4byte	.LVL112
 6502 04f9 0100     		.2byte	0x1
 6503 04fb 55       		.byte	0x55
ARM GAS  C:\Users\codyg\AppData\Local\Temp\ccQipZVL.s 			page 149


 6504 04fc 00040000 		.4byte	.LVL113
 6505 0500 0E040000 		.4byte	.LVL114
 6506 0504 0100     		.2byte	0x1
 6507 0506 55       		.byte	0x55
 6508 0507 00000000 		.4byte	0
 6509 050b 00000000 		.4byte	0
 6510              	.LLST42:
 6511 050f 08000000 		.4byte	.LVL74
 6512 0513 26000000 		.4byte	.LVL81
 6513 0517 0200     		.2byte	0x2
 6514 0519 30       		.byte	0x30
 6515 051a 9F       		.byte	0x9f
 6516 051b 9E030000 		.4byte	.LVL98
 6517 051f A4030000 		.4byte	.LVL100
 6518 0523 0600     		.2byte	0x6
 6519 0525 08       		.byte	0x8
 6520 0526 B0       		.byte	0xb0
 6521 0527 78       		.byte	0x78
 6522 0528 00       		.sleb128 0
 6523 0529 1C       		.byte	0x1c
 6524 052a 9F       		.byte	0x9f
 6525 052b A4030000 		.4byte	.LVL100
 6526 052f AA030000 		.4byte	.LVL102
 6527 0533 0100     		.2byte	0x1
 6528 0535 53       		.byte	0x53
 6529 0536 AA030000 		.4byte	.LVL102
 6530 053a C4030000 		.4byte	.LVL103
 6531 053e 0600     		.2byte	0x6
 6532 0540 08       		.byte	0x8
 6533 0541 AF       		.byte	0xaf
 6534 0542 78       		.byte	0x78
 6535 0543 00       		.sleb128 0
 6536 0544 1C       		.byte	0x1c
 6537 0545 9F       		.byte	0x9f
 6538 0546 C4030000 		.4byte	.LVL103
 6539 054a C8030000 		.4byte	.LVL104
 6540 054e 0600     		.2byte	0x6
 6541 0550 08       		.byte	0x8
 6542 0551 B0       		.byte	0xb0
 6543 0552 78       		.byte	0x78
 6544 0553 00       		.sleb128 0
 6545 0554 1C       		.byte	0x1c
 6546 0555 9F       		.byte	0x9f
 6547 0556 00000000 		.4byte	0
 6548 055a 00000000 		.4byte	0
 6549              	.LLST43:
 6550 055e 0A000000 		.4byte	.LVL75
 6551 0562 16000000 		.4byte	.LVL76
 6552 0566 0100     		.2byte	0x1
 6553 0568 54       		.byte	0x54
 6554 0569 16000000 		.4byte	.LVL76
 6555 056d 18000000 		.4byte	.LVL77
 6556 0571 0200     		.2byte	0x2
 6557 0573 70       		.byte	0x70
 6558 0574 00       		.sleb128 0
 6559 0575 18000000 		.4byte	.LVL77
 6560 0579 1C000000 		.4byte	.LVL78
ARM GAS  C:\Users\codyg\AppData\Local\Temp\ccQipZVL.s 			page 150


 6561 057d 0100     		.2byte	0x1
 6562 057f 54       		.byte	0x54
 6563 0580 1C000000 		.4byte	.LVL78
 6564 0584 1E000000 		.4byte	.LVL79
 6565 0588 0200     		.2byte	0x2
 6566 058a 70       		.byte	0x70
 6567 058b 00       		.sleb128 0
 6568 058c 1E000000 		.4byte	.LVL79
 6569 0590 D4030000 		.4byte	.LVL105
 6570 0594 0100     		.2byte	0x1
 6571 0596 54       		.byte	0x54
 6572 0597 00000000 		.4byte	0
 6573 059b 00000000 		.4byte	0
 6574              	.LLST44:
 6575 059f 20000000 		.4byte	.LVL80
 6576 05a3 0E040000 		.4byte	.LVL114
 6577 05a7 0100     		.2byte	0x1
 6578 05a9 57       		.byte	0x57
 6579 05aa 00000000 		.4byte	0
 6580 05ae 00000000 		.4byte	0
 6581              	.LLST45:
 6582 05b2 00000000 		.4byte	.LVL115
 6583 05b6 0C000000 		.4byte	.LVL118
 6584 05ba 0100     		.2byte	0x1
 6585 05bc 50       		.byte	0x50
 6586 05bd 0C000000 		.4byte	.LVL118
 6587 05c1 5A000000 		.4byte	.LVL124
 6588 05c5 0100     		.2byte	0x1
 6589 05c7 56       		.byte	0x56
 6590 05c8 5A000000 		.4byte	.LVL124
 6591 05cc 76010000 		.4byte	.LVL134
 6592 05d0 0100     		.2byte	0x1
 6593 05d2 57       		.byte	0x57
 6594 05d3 76010000 		.4byte	.LVL134
 6595 05d7 AA010000 		.4byte	.LVL141
 6596 05db 0100     		.2byte	0x1
 6597 05dd 56       		.byte	0x56
 6598 05de 00000000 		.4byte	0
 6599 05e2 00000000 		.4byte	0
 6600              	.LLST46:
 6601 05e6 00000000 		.4byte	.LVL115
 6602 05ea 0A000000 		.4byte	.LVL117
 6603 05ee 0100     		.2byte	0x1
 6604 05f0 51       		.byte	0x51
 6605 05f1 0A000000 		.4byte	.LVL117
 6606 05f5 5E000000 		.4byte	.LVL126
 6607 05f9 0100     		.2byte	0x1
 6608 05fb 55       		.byte	0x55
 6609 05fc 5E000000 		.4byte	.LVL126
 6610 0600 76010000 		.4byte	.LVL134
 6611 0604 0100     		.2byte	0x1
 6612 0606 56       		.byte	0x56
 6613 0607 76010000 		.4byte	.LVL134
 6614 060b AC010000 		.4byte	.LVL142
 6615 060f 0100     		.2byte	0x1
 6616 0611 55       		.byte	0x55
 6617 0612 00000000 		.4byte	0
ARM GAS  C:\Users\codyg\AppData\Local\Temp\ccQipZVL.s 			page 151


 6618 0616 00000000 		.4byte	0
 6619              	.LLST47:
 6620 061a 52000000 		.4byte	.LVL122
 6621 061e 58000000 		.4byte	.LVL123
 6622 0622 0200     		.2byte	0x2
 6623 0624 30       		.byte	0x30
 6624 0625 9F       		.byte	0x9f
 6625 0626 58000000 		.4byte	.LVL123
 6626 062a 70010000 		.4byte	.LVL132
 6627 062e 0100     		.2byte	0x1
 6628 0630 51       		.byte	0x51
 6629 0631 72010000 		.4byte	.LVL133
 6630 0635 84010000 		.4byte	.LVL137
 6631 0639 0100     		.2byte	0x1
 6632 063b 51       		.byte	0x51
 6633 063c 00000000 		.4byte	0
 6634 0640 00000000 		.4byte	0
 6635              	.LLST48:
 6636 0644 10000000 		.4byte	.LVL119
 6637 0648 14000000 		.4byte	.LVL120
 6638 064c 0200     		.2byte	0x2
 6639 064e 30       		.byte	0x30
 6640 064f 9F       		.byte	0x9f
 6641 0650 14000000 		.4byte	.LVL120
 6642 0654 A0010000 		.4byte	.LVL139
 6643 0658 0100     		.2byte	0x1
 6644 065a 54       		.byte	0x54
 6645 065b A2010000 		.4byte	.LVL140
 6646 065f EE010000 		.4byte	.LVL149
 6647 0663 0100     		.2byte	0x1
 6648 0665 54       		.byte	0x54
 6649 0666 F0010000 		.4byte	.LVL150
 6650 066a 12020000 		.4byte	.LVL155
 6651 066e 0100     		.2byte	0x1
 6652 0670 54       		.byte	0x54
 6653 0671 00000000 		.4byte	0
 6654 0675 00000000 		.4byte	0
 6655              	.LLST49:
 6656 0679 52000000 		.4byte	.LVL122
 6657 067d 58000000 		.4byte	.LVL123
 6658 0681 0300     		.2byte	0x3
 6659 0683 08       		.byte	0x8
 6660 0684 20       		.byte	0x20
 6661 0685 9F       		.byte	0x9f
 6662 0686 58000000 		.4byte	.LVL123
 6663 068a 4E010000 		.4byte	.LVL130
 6664 068e 0100     		.2byte	0x1
 6665 0690 50       		.byte	0x50
 6666 0691 50010000 		.4byte	.LVL131
 6667 0695 A2010000 		.4byte	.LVL140
 6668 0699 0100     		.2byte	0x1
 6669 069b 50       		.byte	0x50
 6670 069c 00000000 		.4byte	0
 6671 06a0 00000000 		.4byte	0
 6672              	.LLST50:
 6673 06a4 AC010000 		.4byte	.LVL142
 6674 06a8 FA010000 		.4byte	.LVL152
ARM GAS  C:\Users\codyg\AppData\Local\Temp\ccQipZVL.s 			page 152


 6675 06ac 0100     		.2byte	0x1
 6676 06ae 56       		.byte	0x56
 6677 06af FC010000 		.4byte	.LVL153
 6678 06b3 12020000 		.4byte	.LVL155
 6679 06b7 0100     		.2byte	0x1
 6680 06b9 56       		.byte	0x56
 6681 06ba 00000000 		.4byte	0
 6682 06be 00000000 		.4byte	0
 6683              	.LLST51:
 6684 06c2 5C000000 		.4byte	.LVL125
 6685 06c6 6A000000 		.4byte	.LVL128
 6686 06ca 0100     		.2byte	0x1
 6687 06cc 52       		.byte	0x52
 6688 06cd 6A000000 		.4byte	.LVL128
 6689 06d1 82000000 		.4byte	.LVL129
 6690 06d5 0200     		.2byte	0x2
 6691 06d7 77       		.byte	0x77
 6692 06d8 7F       		.sleb128 -1
 6693 06d9 00000000 		.4byte	0
 6694 06dd 00000000 		.4byte	0
 6695              	.LLST52:
 6696 06e1 62000000 		.4byte	.LVL127
 6697 06e5 76010000 		.4byte	.LVL134
 6698 06e9 0100     		.2byte	0x1
 6699 06eb 59       		.byte	0x59
 6700 06ec 00000000 		.4byte	0
 6701 06f0 00000000 		.4byte	0
 6702              	.LLST53:
 6703 06f4 08000000 		.4byte	.LVL116
 6704 06f8 14000000 		.4byte	.LVL120
 6705 06fc 0200     		.2byte	0x2
 6706 06fe 30       		.byte	0x30
 6707 06ff 9F       		.byte	0x9f
 6708 0700 7C010000 		.4byte	.LVL135
 6709 0704 82010000 		.4byte	.LVL136
 6710 0708 0600     		.2byte	0x6
 6711 070a 08       		.byte	0x8
 6712 070b B0       		.byte	0xb0
 6713 070c 74       		.byte	0x74
 6714 070d 00       		.sleb128 0
 6715 070e 1C       		.byte	0x1c
 6716 070f 9F       		.byte	0x9f
 6717 0710 82010000 		.4byte	.LVL136
 6718 0714 88010000 		.4byte	.LVL138
 6719 0718 0100     		.2byte	0x1
 6720 071a 53       		.byte	0x53
 6721 071b 88010000 		.4byte	.LVL138
 6722 071f A0010000 		.4byte	.LVL139
 6723 0723 0600     		.2byte	0x6
 6724 0725 08       		.byte	0x8
 6725 0726 AF       		.byte	0xaf
 6726 0727 74       		.byte	0x74
 6727 0728 00       		.sleb128 0
 6728 0729 1C       		.byte	0x1c
 6729 072a 9F       		.byte	0x9f
 6730 072b A0010000 		.4byte	.LVL139
 6731 072f A2010000 		.4byte	.LVL140
ARM GAS  C:\Users\codyg\AppData\Local\Temp\ccQipZVL.s 			page 153


 6732 0733 0600     		.2byte	0x6
 6733 0735 08       		.byte	0x8
 6734 0736 B0       		.byte	0xb0
 6735 0737 74       		.byte	0x74
 6736 0738 00       		.sleb128 0
 6737 0739 1C       		.byte	0x1c
 6738 073a 9F       		.byte	0x9f
 6739 073b CA010000 		.4byte	.LVL144
 6740 073f CE010000 		.4byte	.LVL145
 6741 0743 0600     		.2byte	0x6
 6742 0745 08       		.byte	0x8
 6743 0746 B0       		.byte	0xb0
 6744 0747 74       		.byte	0x74
 6745 0748 00       		.sleb128 0
 6746 0749 1C       		.byte	0x1c
 6747 074a 9F       		.byte	0x9f
 6748 074b CE010000 		.4byte	.LVL145
 6749 074f D2010000 		.4byte	.LVL146
 6750 0753 0100     		.2byte	0x1
 6751 0755 53       		.byte	0x53
 6752 0756 D2010000 		.4byte	.LVL146
 6753 075a EE010000 		.4byte	.LVL149
 6754 075e 0600     		.2byte	0x6
 6755 0760 08       		.byte	0x8
 6756 0761 AF       		.byte	0xaf
 6757 0762 74       		.byte	0x74
 6758 0763 00       		.sleb128 0
 6759 0764 1C       		.byte	0x1c
 6760 0765 9F       		.byte	0x9f
 6761 0766 EE010000 		.4byte	.LVL149
 6762 076a F0010000 		.4byte	.LVL150
 6763 076e 0600     		.2byte	0x6
 6764 0770 08       		.byte	0x8
 6765 0771 B0       		.byte	0xb0
 6766 0772 74       		.byte	0x74
 6767 0773 00       		.sleb128 0
 6768 0774 1C       		.byte	0x1c
 6769 0775 9F       		.byte	0x9f
 6770 0776 00000000 		.4byte	0
 6771 077a 00000000 		.4byte	0
 6772              	.LLST54:
 6773 077e 00000000 		.4byte	.LVL156
 6774 0782 04000000 		.4byte	.LVL157
 6775 0786 0200     		.2byte	0x2
 6776 0788 30       		.byte	0x30
 6777 0789 9F       		.byte	0x9f
 6778 078a 04000000 		.4byte	.LVL157
 6779 078e 12000000 		.4byte	.LVL158
 6780 0792 0100     		.2byte	0x1
 6781 0794 53       		.byte	0x53
 6782 0795 14000000 		.4byte	.LVL159
 6783 0799 1E000000 		.4byte	.LVL160
 6784 079d 0100     		.2byte	0x1
 6785 079f 53       		.byte	0x53
 6786 07a0 1E000000 		.4byte	.LVL160
 6787 07a4 4A000000 		.4byte	.LVL163
 6788 07a8 0100     		.2byte	0x1
ARM GAS  C:\Users\codyg\AppData\Local\Temp\ccQipZVL.s 			page 154


 6789 07aa 54       		.byte	0x54
 6790 07ab 4C000000 		.4byte	.LVL164
 6791 07af 52000000 		.4byte	.LVL165
 6792 07b3 0100     		.2byte	0x1
 6793 07b5 54       		.byte	0x54
 6794 07b6 00000000 		.4byte	0
 6795 07ba 00000000 		.4byte	0
 6796              	.LLST55:
 6797 07be 02000000 		.4byte	.LVL166
 6798 07c2 06000000 		.4byte	.LVL167
 6799 07c6 0200     		.2byte	0x2
 6800 07c8 30       		.byte	0x30
 6801 07c9 9F       		.byte	0x9f
 6802 07ca 06000000 		.4byte	.LVL167
 6803 07ce 0E000000 		.4byte	.LVL168
 6804 07d2 0100     		.2byte	0x1
 6805 07d4 53       		.byte	0x53
 6806 07d5 10000000 		.4byte	.LVL169
 6807 07d9 1B000000 		.4byte	.LVL170-1
 6808 07dd 0100     		.2byte	0x1
 6809 07df 53       		.byte	0x53
 6810 07e0 00000000 		.4byte	0
 6811 07e4 00000000 		.4byte	0
 6812              	.LLST56:
 6813 07e8 02000000 		.4byte	.LVL173
 6814 07ec 08000000 		.4byte	.LVL174
 6815 07f0 0200     		.2byte	0x2
 6816 07f2 34       		.byte	0x34
 6817 07f3 9F       		.byte	0x9f
 6818 07f4 00000000 		.4byte	0
 6819 07f8 00000000 		.4byte	0
 6820              	.LLST57:
 6821 07fc 02000000 		.4byte	.LVL173
 6822 0800 08000000 		.4byte	.LVL174
 6823 0804 0600     		.2byte	0x6
 6824 0806 0C       		.byte	0xc
 6825 0807 80023240 		.4byte	0x40320280
 6826 080b 9F       		.byte	0x9f
 6827 080c 00000000 		.4byte	0
 6828 0810 00000000 		.4byte	0
 6829              	.LLST58:
 6830 0814 14000000 		.4byte	.LVL176
 6831 0818 1A000000 		.4byte	.LVL177
 6832 081c 0200     		.2byte	0x2
 6833 081e 33       		.byte	0x33
 6834 081f 9F       		.byte	0x9f
 6835 0820 00000000 		.4byte	0
 6836 0824 00000000 		.4byte	0
 6837              	.LLST59:
 6838 0828 14000000 		.4byte	.LVL176
 6839 082c 1A000000 		.4byte	.LVL177
 6840 0830 0600     		.2byte	0x6
 6841 0832 0C       		.byte	0xc
 6842 0833 00063240 		.4byte	0x40320600
 6843 0837 9F       		.byte	0x9f
 6844 0838 00000000 		.4byte	0
 6845 083c 00000000 		.4byte	0
ARM GAS  C:\Users\codyg\AppData\Local\Temp\ccQipZVL.s 			page 155


 6846              	.LLST60:
 6847 0840 1A000000 		.4byte	.LVL177
 6848 0844 1E000000 		.4byte	.LVL178
 6849 0848 0200     		.2byte	0x2
 6850 084a 36       		.byte	0x36
 6851 084b 9F       		.byte	0x9f
 6852 084c 00000000 		.4byte	0
 6853 0850 00000000 		.4byte	0
 6854              	.LLST61:
 6855 0854 1A000000 		.4byte	.LVL177
 6856 0858 1E000000 		.4byte	.LVL178
 6857 085c 0600     		.2byte	0x6
 6858 085e 0C       		.byte	0xc
 6859 085f 80023240 		.4byte	0x40320280
 6860 0863 9F       		.byte	0x9f
 6861 0864 00000000 		.4byte	0
 6862 0868 00000000 		.4byte	0
 6863              	.LLST62:
 6864 086c 1E000000 		.4byte	.LVL178
 6865 0870 22000000 		.4byte	.LVL179
 6866 0874 0200     		.2byte	0x2
 6867 0876 32       		.byte	0x32
 6868 0877 9F       		.byte	0x9f
 6869 0878 00000000 		.4byte	0
 6870 087c 00000000 		.4byte	0
 6871              	.LLST63:
 6872 0880 1E000000 		.4byte	.LVL178
 6873 0884 22000000 		.4byte	.LVL179
 6874 0888 0600     		.2byte	0x6
 6875 088a 0C       		.byte	0xc
 6876 088b 80023240 		.4byte	0x40320280
 6877 088f 9F       		.byte	0x9f
 6878 0890 00000000 		.4byte	0
 6879 0894 00000000 		.4byte	0
 6880              	.LLST64:
 6881 0898 28000000 		.4byte	.LVL180
 6882 089c 2A000000 		.4byte	.LVL181
 6883 08a0 0200     		.2byte	0x2
 6884 08a2 32       		.byte	0x32
 6885 08a3 9F       		.byte	0x9f
 6886 08a4 00000000 		.4byte	0
 6887 08a8 00000000 		.4byte	0
 6888              	.LLST65:
 6889 08ac 28000000 		.4byte	.LVL180
 6890 08b0 2A000000 		.4byte	.LVL181
 6891 08b4 0600     		.2byte	0x6
 6892 08b6 0C       		.byte	0xc
 6893 08b7 80023240 		.4byte	0x40320280
 6894 08bb 9F       		.byte	0x9f
 6895 08bc 00000000 		.4byte	0
 6896 08c0 00000000 		.4byte	0
 6897              	.LLST66:
 6898 08c4 30000000 		.4byte	.LVL182
 6899 08c8 32000000 		.4byte	.LVL183
 6900 08cc 0200     		.2byte	0x2
 6901 08ce 32       		.byte	0x32
 6902 08cf 9F       		.byte	0x9f
ARM GAS  C:\Users\codyg\AppData\Local\Temp\ccQipZVL.s 			page 156


 6903 08d0 00000000 		.4byte	0
 6904 08d4 00000000 		.4byte	0
 6905              	.LLST67:
 6906 08d8 30000000 		.4byte	.LVL182
 6907 08dc 32000000 		.4byte	.LVL183
 6908 08e0 0600     		.2byte	0x6
 6909 08e2 0C       		.byte	0xc
 6910 08e3 80023240 		.4byte	0x40320280
 6911 08e7 9F       		.byte	0x9f
 6912 08e8 00000000 		.4byte	0
 6913 08ec 00000000 		.4byte	0
 6914              	.LLST68:
 6915 08f0 12000000 		.4byte	.LVL188
 6916 08f4 18000000 		.4byte	.LVL189
 6917 08f8 0200     		.2byte	0x2
 6918 08fa 36       		.byte	0x36
 6919 08fb 9F       		.byte	0x9f
 6920 08fc 00000000 		.4byte	0
 6921 0900 00000000 		.4byte	0
 6922              	.LLST69:
 6923 0904 12000000 		.4byte	.LVL188
 6924 0908 18000000 		.4byte	.LVL189
 6925 090c 0600     		.2byte	0x6
 6926 090e 0C       		.byte	0xc
 6927 090f 80023240 		.4byte	0x40320280
 6928 0913 9F       		.byte	0x9f
 6929 0914 00000000 		.4byte	0
 6930 0918 00000000 		.4byte	0
 6931              	.LLST70:
 6932 091c 1E000000 		.4byte	.LVL190
 6933 0920 20000000 		.4byte	.LVL191
 6934 0924 0200     		.2byte	0x2
 6935 0926 36       		.byte	0x36
 6936 0927 9F       		.byte	0x9f
 6937 0928 00000000 		.4byte	0
 6938 092c 00000000 		.4byte	0
 6939              	.LLST71:
 6940 0930 1E000000 		.4byte	.LVL190
 6941 0934 20000000 		.4byte	.LVL191
 6942 0938 0600     		.2byte	0x6
 6943 093a 0C       		.byte	0xc
 6944 093b 80023240 		.4byte	0x40320280
 6945 093f 9F       		.byte	0x9f
 6946 0940 00000000 		.4byte	0
 6947 0944 00000000 		.4byte	0
 6948              	.LLST72:
 6949 0948 78000000 		.4byte	.LVL202
 6950 094c 7C000000 		.4byte	.LVL203
 6951 0950 0200     		.2byte	0x2
 6952 0952 34       		.byte	0x34
 6953 0953 9F       		.byte	0x9f
 6954 0954 00000000 		.4byte	0
 6955 0958 00000000 		.4byte	0
 6956              	.LLST73:
 6957 095c 78000000 		.4byte	.LVL202
 6958 0960 7C000000 		.4byte	.LVL203
 6959 0964 0600     		.2byte	0x6
ARM GAS  C:\Users\codyg\AppData\Local\Temp\ccQipZVL.s 			page 157


 6960 0966 0C       		.byte	0xc
 6961 0967 80023240 		.4byte	0x40320280
 6962 096b 9F       		.byte	0x9f
 6963 096c 00000000 		.4byte	0
 6964 0970 00000000 		.4byte	0
 6965              	.LLST74:
 6966 0974 7C000000 		.4byte	.LVL203
 6967 0978 80000000 		.4byte	.LVL204
 6968 097c 0200     		.2byte	0x2
 6969 097e 36       		.byte	0x36
 6970 097f 9F       		.byte	0x9f
 6971 0980 00000000 		.4byte	0
 6972 0984 00000000 		.4byte	0
 6973              	.LLST75:
 6974 0988 7C000000 		.4byte	.LVL203
 6975 098c 80000000 		.4byte	.LVL204
 6976 0990 0600     		.2byte	0x6
 6977 0992 0C       		.byte	0xc
 6978 0993 80023240 		.4byte	0x40320280
 6979 0997 9F       		.byte	0x9f
 6980 0998 00000000 		.4byte	0
 6981 099c 00000000 		.4byte	0
 6982              	.LLST76:
 6983 09a0 86000000 		.4byte	.LVL205
 6984 09a4 8C000000 		.4byte	.LVL206
 6985 09a8 0200     		.2byte	0x2
 6986 09aa 33       		.byte	0x33
 6987 09ab 9F       		.byte	0x9f
 6988 09ac 00000000 		.4byte	0
 6989 09b0 00000000 		.4byte	0
 6990              	.LLST77:
 6991 09b4 86000000 		.4byte	.LVL205
 6992 09b8 8C000000 		.4byte	.LVL206
 6993 09bc 0600     		.2byte	0x6
 6994 09be 0C       		.byte	0xc
 6995 09bf 00063240 		.4byte	0x40320600
 6996 09c3 9F       		.byte	0x9f
 6997 09c4 00000000 		.4byte	0
 6998 09c8 00000000 		.4byte	0
 6999              	.LLST78:
 7000 09cc 8C000000 		.4byte	.LVL206
 7001 09d0 90000000 		.4byte	.LVL207
 7002 09d4 0200     		.2byte	0x2
 7003 09d6 32       		.byte	0x32
 7004 09d7 9F       		.byte	0x9f
 7005 09d8 00000000 		.4byte	0
 7006 09dc 00000000 		.4byte	0
 7007              	.LLST79:
 7008 09e0 8C000000 		.4byte	.LVL206
 7009 09e4 90000000 		.4byte	.LVL207
 7010 09e8 0600     		.2byte	0x6
 7011 09ea 0C       		.byte	0xc
 7012 09eb 80023240 		.4byte	0x40320280
 7013 09ef 9F       		.byte	0x9f
 7014 09f0 00000000 		.4byte	0
 7015 09f4 00000000 		.4byte	0
 7016              	.LLST80:
ARM GAS  C:\Users\codyg\AppData\Local\Temp\ccQipZVL.s 			page 158


 7017 09f8 90000000 		.4byte	.LVL207
 7018 09fc 94000000 		.4byte	.LVL208
 7019 0a00 0200     		.2byte	0x2
 7020 0a02 35       		.byte	0x35
 7021 0a03 9F       		.byte	0x9f
 7022 0a04 00000000 		.4byte	0
 7023 0a08 00000000 		.4byte	0
 7024              	.LLST81:
 7025 0a0c 90000000 		.4byte	.LVL207
 7026 0a10 94000000 		.4byte	.LVL208
 7027 0a14 0600     		.2byte	0x6
 7028 0a16 0C       		.byte	0xc
 7029 0a17 80023240 		.4byte	0x40320280
 7030 0a1b 9F       		.byte	0x9f
 7031 0a1c 00000000 		.4byte	0
 7032 0a20 00000000 		.4byte	0
 7033              	.LLST82:
 7034 0a24 9A000000 		.4byte	.LVL209
 7035 0a28 9C000000 		.4byte	.LVL210
 7036 0a2c 0200     		.2byte	0x2
 7037 0a2e 35       		.byte	0x35
 7038 0a2f 9F       		.byte	0x9f
 7039 0a30 00000000 		.4byte	0
 7040 0a34 00000000 		.4byte	0
 7041              	.LLST83:
 7042 0a38 9A000000 		.4byte	.LVL209
 7043 0a3c 9C000000 		.4byte	.LVL210
 7044 0a40 0600     		.2byte	0x6
 7045 0a42 0C       		.byte	0xc
 7046 0a43 80023240 		.4byte	0x40320280
 7047 0a47 9F       		.byte	0x9f
 7048 0a48 00000000 		.4byte	0
 7049 0a4c 00000000 		.4byte	0
 7050              		.section	.debug_aranges,"",%progbits
 7051 0000 74000000 		.4byte	0x74
 7052 0004 0200     		.2byte	0x2
 7053 0006 00000000 		.4byte	.Ldebug_info0
 7054 000a 04       		.byte	0x4
 7055 000b 00       		.byte	0
 7056 000c 0000     		.2byte	0
 7057 000e 0000     		.2byte	0
 7058 0010 00000000 		.4byte	.LFB517
 7059 0014 4C000000 		.4byte	.LFE517-.LFB517
 7060 0018 00000000 		.4byte	.LFB518
 7061 001c 18000000 		.4byte	.LFE518-.LFB518
 7062 0020 00000000 		.4byte	.LFB519
 7063 0024 30000000 		.4byte	.LFE519-.LFB519
 7064 0028 00000000 		.4byte	.LFB520
 7065 002c 30000000 		.4byte	.LFE520-.LFB520
 7066 0030 00000000 		.4byte	.LFB521
 7067 0034 1C010000 		.4byte	.LFE521-.LFB521
 7068 0038 00000000 		.4byte	.LFB522
 7069 003c 40000000 		.4byte	.LFE522-.LFB522
 7070 0040 00000000 		.4byte	.LFB523
 7071 0044 20040000 		.4byte	.LFE523-.LFB523
 7072 0048 00000000 		.4byte	.LFB524
 7073 004c 24020000 		.4byte	.LFE524-.LFB524
ARM GAS  C:\Users\codyg\AppData\Local\Temp\ccQipZVL.s 			page 159


 7074 0050 00000000 		.4byte	.LFB525
 7075 0054 5C000000 		.4byte	.LFE525-.LFB525
 7076 0058 00000000 		.4byte	.LFB526
 7077 005c 34000000 		.4byte	.LFE526-.LFB526
 7078 0060 00000000 		.4byte	.LFB527
 7079 0064 4C000000 		.4byte	.LFE527-.LFB527
 7080 0068 00000000 		.4byte	.LFB528
 7081 006c B0000000 		.4byte	.LFE528-.LFB528
 7082 0070 00000000 		.4byte	0
 7083 0074 00000000 		.4byte	0
 7084              		.section	.debug_ranges,"",%progbits
 7085              	.Ldebug_ranges0:
 7086 0000 00000000 		.4byte	.LFB517
 7087 0004 4C000000 		.4byte	.LFE517
 7088 0008 00000000 		.4byte	.LFB518
 7089 000c 18000000 		.4byte	.LFE518
 7090 0010 00000000 		.4byte	.LFB519
 7091 0014 30000000 		.4byte	.LFE519
 7092 0018 00000000 		.4byte	.LFB520
 7093 001c 30000000 		.4byte	.LFE520
 7094 0020 00000000 		.4byte	.LFB521
 7095 0024 1C010000 		.4byte	.LFE521
 7096 0028 00000000 		.4byte	.LFB522
 7097 002c 40000000 		.4byte	.LFE522
 7098 0030 00000000 		.4byte	.LFB523
 7099 0034 20040000 		.4byte	.LFE523
 7100 0038 00000000 		.4byte	.LFB524
 7101 003c 24020000 		.4byte	.LFE524
 7102 0040 00000000 		.4byte	.LFB525
 7103 0044 5C000000 		.4byte	.LFE525
 7104 0048 00000000 		.4byte	.LFB526
 7105 004c 34000000 		.4byte	.LFE526
 7106 0050 00000000 		.4byte	.LFB527
 7107 0054 4C000000 		.4byte	.LFE527
 7108 0058 00000000 		.4byte	.LFB528
 7109 005c B0000000 		.4byte	.LFE528
 7110 0060 00000000 		.4byte	0
 7111 0064 00000000 		.4byte	0
 7112              		.section	.debug_line,"",%progbits
 7113              	.Ldebug_line0:
 7114 0000 48090000 		.section	.debug_str,"MS",%progbits,1
 7114      0200CE03 
 7114      00000201 
 7114      FB0E0D00 
 7114      01010101 
 7115              	.LASF310:
 7116 0000 63795F62 		.ascii	"cy_ble_connState\000"
 7116      6C655F63 
 7116      6F6E6E53 
 7116      74617465 
 7116      00
 7117              	.LASF229:
 7118 0011 43595F42 		.ascii	"CY_BLE_HTS_TEMP_TYPE\000"
 7118      4C455F48 
 7118      54535F54 
 7118      454D505F 
 7118      54595045 
ARM GAS  C:\Users\codyg\AppData\Local\Temp\ccQipZVL.s 			page 160


 7119              	.LASF35:
 7120 0026 52455345 		.ascii	"RESERVED\000"
 7120      52564544 
 7120      00
 7121              	.LASF40:
 7122 002f 494E5452 		.ascii	"INTR_CAUSE1\000"
 7122      5F434155 
 7122      53453100 
 7123              	.LASF196:
 7124 003b 43595F42 		.ascii	"CY_BLE_EVT_L2CAP_CBFC_DATA_READ\000"
 7124      4C455F45 
 7124      56545F4C 
 7124      32434150 
 7124      5F434246 
 7125              	.LASF54:
 7126 005b 63795F63 		.ascii	"cy_cb_scb_spi_handle_events_t\000"
 7126      625F7363 
 7126      625F7370 
 7126      695F6861 
 7126      6E646C65 
 7127              	.LASF144:
 7128 0079 43595F42 		.ascii	"CY_BLE_EVT_GAPP_ADVERTISEMENT_START_STOP\000"
 7128      4C455F45 
 7128      56545F47 
 7128      4150505F 
 7128      41445645 
 7129              	.LASF238:
 7130 00a2 43595F42 		.ascii	"CY_BLE_SRVI_COUNT\000"
 7130      4C455F53 
 7130      5256495F 
 7130      434F554E 
 7130      5400
 7131              	.LASF227:
 7132 00b4 43595F42 		.ascii	"CY_BLE_DIS_CHAR_COUNT\000"
 7132      4C455F44 
 7132      49535F43 
 7132      4841525F 
 7132      434F554E 
 7133              	.LASF198:
 7134 00ca 43595F42 		.ascii	"CY_BLE_EVT_L2CAP_CBFC_TX_CREDIT_IND\000"
 7134      4C455F45 
 7134      56545F4C 
 7134      32434150 
 7134      5F434246 
 7135              	.LASF264:
 7136 00ee 6C696E65 		.ascii	"lineDataBySize\000"
 7136      44617461 
 7136      42795369 
 7136      7A6500
 7137              	.LASF129:
 7138 00fd 43595F42 		.ascii	"CY_BLE_EVT_AES_CCM_DECRYPT_COMPLETE\000"
 7138      4C455F45 
 7138      56545F41 
 7138      45535F43 
 7138      434D5F44 
 7139              	.LASF182:
 7140 0121 43595F42 		.ascii	"CY_BLE_EVT_GATTC_HANDLE_VALUE_NTF\000"
ARM GAS  C:\Users\codyg\AppData\Local\Temp\ccQipZVL.s 			page 161


 7140      4C455F45 
 7140      56545F47 
 7140      41545443 
 7140      5F48414E 
 7141              	.LASF311:
 7142 0143 43595F45 		.ascii	"CY_EINK_SPIM_context\000"
 7142      494E4B5F 
 7142      5350494D 
 7142      5F636F6E 
 7142      74657874 
 7143              	.LASF162:
 7144 0158 43595F42 		.ascii	"CY_BLE_EVT_GAP_CONN_ESTB\000"
 7144      4C455F45 
 7144      56545F47 
 7144      41505F43 
 7144      4F4E4E5F 
 7145              	.LASF282:
 7146 0171 74656D70 		.ascii	"temperature\000"
 7146      65726174 
 7146      75726500 
 7147              	.LASF216:
 7148 017d 43595F42 		.ascii	"CY_BLE_CONN_STATE_CLIENT_DISCOVERED\000"
 7148      4C455F43 
 7148      4F4E4E5F 
 7148      53544154 
 7148      455F434C 
 7149              	.LASF86:
 7150 01a1 43595F42 		.ascii	"CY_BLE_EVT_INVALID\000"
 7150      4C455F45 
 7150      56545F49 
 7150      4E56414C 
 7150      494400
 7151              	.LASF123:
 7152 01b4 43595F42 		.ascii	"CY_BLE_EVT_SET_TX_PWR_COMPLETE\000"
 7152      4C455F45 
 7152      56545F53 
 7152      45545F54 
 7152      585F5057 
 7153              	.LASF112:
 7154 01d3 43595F42 		.ascii	"CY_BLE_EVT_GET_PHY_COMPLETE\000"
 7154      4C455F45 
 7154      56545F47 
 7154      45545F50 
 7154      48595F43 
 7155              	.LASF197:
 7156 01ef 43595F42 		.ascii	"CY_BLE_EVT_L2CAP_CBFC_RX_CREDIT_IND\000"
 7156      4C455F45 
 7156      56545F4C 
 7156      32434150 
 7156      5F434246 
 7157              	.LASF0:
 7158 0213 756E7369 		.ascii	"unsigned int\000"
 7158      676E6564 
 7158      20696E74 
 7158      00
 7159              	.LASF309:
 7160 0220 63795F62 		.ascii	"cy_ble_connHandle\000"
ARM GAS  C:\Users\codyg\AppData\Local\Temp\ccQipZVL.s 			page 162


 7160      6C655F63 
 7160      6F6E6E48 
 7160      616E646C 
 7160      6500
 7161              	.LASF161:
 7162 0232 43595F42 		.ascii	"CY_BLE_EVT_GAP_CREATE_CONN_CANCEL_COMPLETE\000"
 7162      4C455F45 
 7162      56545F47 
 7162      41505F43 
 7162      52454154 
 7163              	.LASF68:
 7164 025d 43595F53 		.ascii	"CY_SAR_RANGE_COND_OUTSIDE\000"
 7164      41525F52 
 7164      414E4745 
 7164      5F434F4E 
 7164      445F4F55 
 7165              	.LASF61:
 7166 0277 74784275 		.ascii	"txBufIdx\000"
 7166      66496478 
 7166      00
 7167              	.LASF225:
 7168 0280 43595F42 		.ascii	"CY_BLE_DIS_REG_CERT_DATA\000"
 7168      4C455F44 
 7168      49535F52 
 7168      45475F43 
 7168      4552545F 
 7169              	.LASF34:
 7170 0299 4346475F 		.ascii	"CFG_SIO\000"
 7170      53494F00 
 7171              	.LASF11:
 7172 02a1 5F5F696E 		.ascii	"__int32_t\000"
 7172      7433325F 
 7172      7400
 7173              	.LASF220:
 7174 02ab 43595F42 		.ascii	"CY_BLE_DIS_SERIAL_NUMBER\000"
 7174      4C455F44 
 7174      49535F53 
 7174      45524941 
 7174      4C5F4E55 
 7175              	.LASF52:
 7176 02c4 696E7431 		.ascii	"int16\000"
 7176      3600
 7177              	.LASF239:
 7178 02ca 6368616E 		.ascii	"channelBase\000"
 7178      6E656C42 
 7178      61736500 
 7179              	.LASF217:
 7180 02d6 63795F65 		.ascii	"cy_en_ble_conn_state_t\000"
 7180      6E5F626C 
 7180      655F636F 
 7180      6E6E5F73 
 7180      74617465 
 7181              	.LASF104:
 7182 02ed 43595F42 		.ascii	"CY_BLE_EVT_GET_LOCAL_RPA_COMPLETE\000"
 7182      4C455F45 
 7182      56545F47 
 7182      45545F4C 
ARM GAS  C:\Users\codyg\AppData\Local\Temp\ccQipZVL.s 			page 163


 7182      4F43414C 
 7183              	.LASF171:
 7184 030f 43595F42 		.ascii	"CY_BLE_EVT_GATTC_FIND_INFO_RSP\000"
 7184      4C455F45 
 7184      56545F47 
 7184      41545443 
 7184      5F46494E 
 7185              	.LASF271:
 7186 032e 72656741 		.ascii	"regAddr\000"
 7186      64647200 
 7187              	.LASF116:
 7188 0336 43595F42 		.ascii	"CY_BLE_EVT_SET_PRIVACY_MODE_COMPLETE\000"
 7188      4C455F45 
 7188      56545F53 
 7188      45545F50 
 7188      52495641 
 7189              	.LASF241:
 7190 035b 6877436F 		.ascii	"hwConfigStc\000"
 7190      6E666967 
 7190      53746300 
 7191              	.LASF25:
 7192 0367 4F55545F 		.ascii	"OUT_SET\000"
 7192      53455400 
 7193              	.LASF175:
 7194 036f 43595F42 		.ascii	"CY_BLE_EVT_GATTC_READ_MULTI_RSP\000"
 7194      4C455F45 
 7194      56545F47 
 7194      41545443 
 7194      5F524541 
 7195              	.LASF165:
 7196 038f 43595F42 		.ascii	"CY_BLE_EVT_GATT_CONNECT_IND\000"
 7196      4C455F45 
 7196      56545F47 
 7196      4154545F 
 7196      434F4E4E 
 7197              	.LASF288:
 7198 03ab 7363616E 		.ascii	"scanlineNumber\000"
 7198      6C696E65 
 7198      4E756D62 
 7198      657200
 7199              	.LASF30:
 7200 03ba 494E5452 		.ascii	"INTR_SET\000"
 7200      5F534554 
 7200      00
 7201              	.LASF204:
 7202 03c3 43595F42 		.ascii	"CY_BLE_ADV_STATE_STOPPED\000"
 7202      4C455F41 
 7202      44565F53 
 7202      54415445 
 7202      5F53544F 
 7203              	.LASF79:
 7204 03dc 73617449 		.ascii	"satIntrMask\000"
 7204      6E74724D 
 7204      61736B00 
 7205              	.LASF284:
 7206 03e8 50765F45 		.ascii	"Pv_EINK_FullStageHandler\000"
 7206      494E4B5F 
ARM GAS  C:\Users\codyg\AppData\Local\Temp\ccQipZVL.s 			page 164


 7206      46756C6C 
 7206      53746167 
 7206      6548616E 
 7207              	.LASF172:
 7208 0401 43595F42 		.ascii	"CY_BLE_EVT_GATTC_FIND_BY_TYPE_VALUE_RSP\000"
 7208      4C455F45 
 7208      56545F47 
 7208      41545443 
 7208      5F46494E 
 7209              	.LASF114:
 7210 0429 43595F42 		.ascii	"CY_BLE_EVT_SET_PHY_COMPLETE\000"
 7210      4C455F45 
 7210      56545F53 
 7210      45545F50 
 7210      48595F43 
 7211              	.LASF261:
 7212 0445 64756D6D 		.ascii	"dummyData\000"
 7212      79446174 
 7212      6100
 7213              	.LASF187:
 7214 044f 43595F42 		.ascii	"CY_BLE_EVT_GATTS_READ_CHAR_VAL_ACCESS_REQ\000"
 7214      4C455F45 
 7214      56545F47 
 7214      41545453 
 7214      5F524541 
 7215              	.LASF324:
 7216 0479 474E5520 		.ascii	"GNU C11 5.4.1 20160609 (release) [ARM/embedded-5-br"
 7216      43313120 
 7216      352E342E 
 7216      31203230 
 7216      31363036 
 7217 04ac 616E6368 		.ascii	"anch revision 237715] -mcpu=cortex-m4 -mfloat-abi=s"
 7217      20726576 
 7217      6973696F 
 7217      6E203233 
 7217      37373135 
 7218 04df 6F667466 		.ascii	"oftfp -mfpu=fpv4-sp-d16 -mthumb -g -Og -ffunction-s"
 7218      70202D6D 
 7218      6670753D 
 7218      66707634 
 7218      2D73702D 
 7219 0512 65637469 		.ascii	"ections -ffat-lto-objects\000"
 7219      6F6E7320 
 7219      2D666661 
 7219      742D6C74 
 7219      6F2D6F62 
 7220              	.LASF159:
 7221 052c 43595F42 		.ascii	"CY_BLE_EVT_GAP_RESOLVE_DEVICE_COMPLETE\000"
 7221      4C455F45 
 7221      56545F47 
 7221      41505F52 
 7221      45534F4C 
 7222              	.LASF65:
 7223 0553 43595F53 		.ascii	"CY_SAR_RANGE_COND_BELOW\000"
 7223      41525F52 
 7223      414E4745 
 7223      5F434F4E 
ARM GAS  C:\Users\codyg\AppData\Local\Temp\ccQipZVL.s 			page 165


 7223      445F4245 
 7224              	.LASF210:
 7225 056b 43595F42 		.ascii	"CY_BLE_CONN_STATE_CLIENT_DISCONNECTED_DISCOVERED\000"
 7225      4C455F43 
 7225      4F4E4E5F 
 7225      53544154 
 7225      455F434C 
 7226              	.LASF303:
 7227 059c 70617274 		.ascii	"partialUpdateCycles\000"
 7227      69616C55 
 7227      70646174 
 7227      65437963 
 7227      6C657300 
 7228              	.LASF168:
 7229 05b0 43595F42 		.ascii	"CY_BLE_EVT_GATTC_XCHNG_MTU_RSP\000"
 7229      4C455F45 
 7229      56545F47 
 7229      41545443 
 7229      5F584348 
 7230              	.LASF184:
 7231 05cf 43595F42 		.ascii	"CY_BLE_EVT_GATTS_HANDLE_VALUE_CNF\000"
 7231      4C455F45 
 7231      56545F47 
 7231      41545453 
 7231      5F48414E 
 7232              	.LASF318:
 7233 05f1 43795F45 		.ascii	"Cy_EINK_WriteSPI\000"
 7233      494E4B5F 
 7233      57726974 
 7233      65535049 
 7233      00
 7234              	.LASF115:
 7235 0602 43595F42 		.ascii	"CY_BLE_EVT_PHY_UPDATE_COMPLETE\000"
 7235      4C455F45 
 7235      56545F50 
 7235      48595F55 
 7235      50444154 
 7236              	.LASF258:
 7237 0621 70765F65 		.ascii	"pv_eink_stage_t\000"
 7237      696E6B5F 
 7237      73746167 
 7237      655F7400 
 7238              	.LASF173:
 7239 0631 43595F42 		.ascii	"CY_BLE_EVT_GATTC_READ_RSP\000"
 7239      4C455F45 
 7239      56545F47 
 7239      41545443 
 7239      5F524541 
 7240              	.LASF3:
 7241 064b 7369676E 		.ascii	"signed char\000"
 7241      65642063 
 7241      68617200 
 7242              	.LASF91:
 7243 0657 43595F42 		.ascii	"CY_BLE_EVT_PENDING_FLASH_WRITE\000"
 7243      4C455F45 
 7243      56545F50 
 7243      454E4449 
ARM GAS  C:\Users\codyg\AppData\Local\Temp\ccQipZVL.s 			page 166


 7243      4E475F46 
 7244              	.LASF174:
 7245 0676 43595F42 		.ascii	"CY_BLE_EVT_GATTC_READ_BLOB_RSP\000"
 7245      4C455F45 
 7245      56545F47 
 7245      41545443 
 7245      5F524541 
 7246              	.LASF23:
 7247 0695 75696E74 		.ascii	"uint32_t\000"
 7247      33325F74 
 7247      00
 7248              	.LASF18:
 7249 069e 696E7438 		.ascii	"int8_t\000"
 7249      5F7400
 7250              	.LASF106:
 7251 06a5 43595F42 		.ascii	"CY_BLE_EVT_SET_RPA_ENABLE_COMPLETE\000"
 7251      4C455F45 
 7251      56545F53 
 7251      45545F52 
 7251      50415F45 
 7252              	.LASF250:
 7253 06c8 50565F45 		.ascii	"PV_EINK_ERROR_BREAKAGE\000"
 7253      494E4B5F 
 7253      4552524F 
 7253      525F4252 
 7253      45414B41 
 7254              	.LASF87:
 7255 06df 43595F42 		.ascii	"CY_BLE_EVT_STACK_ON\000"
 7255      4C455F45 
 7255      56545F53 
 7255      5441434B 
 7255      5F4F4E00 
 7256              	.LASF117:
 7257 06f3 43595F42 		.ascii	"CY_BLE_EVT_LL_CNTRL_PROC_PENDING_COMPLETE\000"
 7257      4C455F45 
 7257      56545F4C 
 7257      4C5F434E 
 7257      54524C5F 
 7258              	.LASF193:
 7259 071d 43595F42 		.ascii	"CY_BLE_EVT_L2CAP_CBFC_CONN_CNF\000"
 7259      4C455F45 
 7259      56545F4C 
 7259      32434150 
 7259      5F434246 
 7260              	.LASF103:
 7261 073c 43595F42 		.ascii	"CY_BLE_EVT_GET_PEER_RPA_COMPLETE\000"
 7261      4C455F45 
 7261      56545F47 
 7261      45545F50 
 7261      4545525F 
 7262              	.LASF266:
 7263 075d 64726976 		.ascii	"driver_data_packet_t\000"
 7263      65725F64 
 7263      6174615F 
 7263      7061636B 
 7263      65745F74 
 7264              	.LASF295:
ARM GAS  C:\Users\codyg\AppData\Local\Temp\ccQipZVL.s 			page 167


 7265 0772 6E657742 		.ascii	"newByte\000"
 7265      79746500 
 7266              	.LASF267:
 7267 077a 62617365 		.ascii	"base\000"
 7267      00
 7268              	.LASF24:
 7269 077f 4F55545F 		.ascii	"OUT_CLR\000"
 7269      434C5200 
 7270              	.LASF20:
 7271 0787 696E7431 		.ascii	"int16_t\000"
 7271      365F7400 
 7272              	.LASF240:
 7273 078f 6E756D43 		.ascii	"numChannels\000"
 7273      68616E6E 
 7273      656C7300 
 7274              	.LASF154:
 7275 079b 43595F42 		.ascii	"CY_BLE_EVT_GAP_ENHANCE_CONN_COMPLETE\000"
 7275      4C455F45 
 7275      56545F47 
 7275      41505F45 
 7275      4E48414E 
 7276              	.LASF247:
 7277 07c0 50565F45 		.ascii	"PV_EINK_RES_OK\000"
 7277      494E4B5F 
 7277      5245535F 
 7277      4F4B00
 7278              	.LASF15:
 7279 07cf 6C6F6E67 		.ascii	"long long unsigned int\000"
 7279      206C6F6E 
 7279      6720756E 
 7279      7369676E 
 7279      65642069 
 7280              	.LASF276:
 7281 07e6 50765F45 		.ascii	"Pv_EINK_Init\000"
 7281      494E4B5F 
 7281      496E6974 
 7281      00
 7282              	.LASF208:
 7283 07f3 63795F65 		.ascii	"cy_en_ble_adv_state_t\000"
 7283      6E5F626C 
 7283      655F6164 
 7283      765F7374 
 7283      6174655F 
 7284              	.LASF121:
 7285 0809 43595F42 		.ascii	"CY_BLE_EVT_GET_RSSI_COMPLETE\000"
 7285      4C455F45 
 7285      56545F47 
 7285      45545F52 
 7285      5353495F 
 7286              	.LASF281:
 7287 0826 50765F45 		.ascii	"Pv_EINK_SetTempFactor\000"
 7287      494E4B5F 
 7287      53657454 
 7287      656D7046 
 7287      6163746F 
 7288              	.LASF249:
 7289 083c 50565F45 		.ascii	"PV_EINK_ERROR_ID\000"
ARM GAS  C:\Users\codyg\AppData\Local\Temp\ccQipZVL.s 			page 168


 7289      494E4B5F 
 7289      4552524F 
 7289      525F4944 
 7289      00
 7290              	.LASF74:
 7291 084d 72616E67 		.ascii	"rangeThres\000"
 7291      65546872 
 7291      657300
 7292              	.LASF205:
 7293 0858 43595F42 		.ascii	"CY_BLE_ADV_STATE_ADV_INITIATED\000"
 7293      4C455F41 
 7293      44565F53 
 7293      54415445 
 7293      5F414456 
 7294              	.LASF9:
 7295 0877 5F5F7569 		.ascii	"__uint16_t\000"
 7295      6E743136 
 7295      5F7400
 7296              	.LASF66:
 7297 0882 43595F53 		.ascii	"CY_SAR_RANGE_COND_INSIDE\000"
 7297      41525F52 
 7297      414E4745 
 7297      5F434F4E 
 7297      445F494E 
 7298              	.LASF147:
 7299 089b 43595F42 		.ascii	"CY_BLE_EVT_GAP_ENCRYPT_CHANGE\000"
 7299      4C455F45 
 7299      56545F47 
 7299      41505F45 
 7299      4E435259 
 7300              	.LASF119:
 7301 08b9 43595F42 		.ascii	"CY_BLE_EVT_SET_DEVICE_ADDR_COMPLETE\000"
 7301      4C455F45 
 7301      56545F53 
 7301      45545F44 
 7301      45564943 
 7302              	.LASF85:
 7303 08dd 63795F73 		.ascii	"cy_stc_sar_config_t\000"
 7303      74635F73 
 7303      61725F63 
 7303      6F6E6669 
 7303      675F7400 
 7304              	.LASF202:
 7305 08f1 61747449 		.ascii	"attId\000"
 7305      6400
 7306              	.LASF70:
 7307 08f7 6374726C 		.ascii	"ctrl\000"
 7307      00
 7308              	.LASF102:
 7309 08fc 43595F42 		.ascii	"CY_BLE_EVT_DATA_LENGTH_CHANGE\000"
 7309      4C455F45 
 7309      56545F44 
 7309      4154415F 
 7309      4C454E47 
 7310              	.LASF300:
 7311 091a 50765F45 		.ascii	"Pv_EINK_HardwarePowerOff\000"
 7311      494E4B5F 
ARM GAS  C:\Users\codyg\AppData\Local\Temp\ccQipZVL.s 			page 169


 7311      48617264 
 7311      77617265 
 7311      506F7765 
 7312              	.LASF260:
 7313 0933 65696E6B 		.ascii	"eink_lineData\000"
 7313      5F6C696E 
 7313      65446174 
 7313      6100
 7314              	.LASF153:
 7315 0941 43595F42 		.ascii	"CY_BLE_EVT_GAP_OOB_GENERATED_NOTIFICATION\000"
 7315      4C455F45 
 7315      56545F47 
 7315      41505F4F 
 7315      4F425F47 
 7316              	.LASF33:
 7317 096b 4346475F 		.ascii	"CFG_OUT\000"
 7317      4F555400 
 7318              	.LASF56:
 7319 0973 72784275 		.ascii	"rxBuf\000"
 7319      6600
 7320              	.LASF274:
 7321 0979 50765F45 		.ascii	"Pv_EINK_SendData\000"
 7321      494E4B5F 
 7321      53656E64 
 7321      44617461 
 7321      00
 7322              	.LASF118:
 7323 098a 43595F42 		.ascii	"CY_BLE_EVT_SOFT_RESET_COMPLETE\000"
 7323      4C455F45 
 7323      56545F53 
 7323      4F46545F 
 7323      52455345 
 7324              	.LASF226:
 7325 09a9 43595F42 		.ascii	"CY_BLE_DIS_PNP_ID\000"
 7325      4C455F44 
 7325      49535F50 
 7325      4E505F49 
 7325      4400
 7326              	.LASF179:
 7327 09bb 43595F42 		.ascii	"CY_BLE_EVT_GATTS_PREP_WRITE_REQ\000"
 7327      4C455F45 
 7327      56545F47 
 7327      41545453 
 7327      5F505245 
 7328              	.LASF73:
 7329 09db 73616D70 		.ascii	"sampleTime23\000"
 7329      6C655469 
 7329      6D653233 
 7329      00
 7330              	.LASF62:
 7331 09e8 63624576 		.ascii	"cbEvents\000"
 7331      656E7473 
 7331      00
 7332              	.LASF223:
 7333 09f1 43595F42 		.ascii	"CY_BLE_DIS_SOFTWARE_REV\000"
 7333      4C455F44 
 7333      49535F53 
ARM GAS  C:\Users\codyg\AppData\Local\Temp\ccQipZVL.s 			page 170


 7333      4F465457 
 7333      4152455F 
 7334              	.LASF51:
 7335 0a09 646F7562 		.ascii	"double\000"
 7335      6C6500
 7336              	.LASF53:
 7337 0a10 5F426F6F 		.ascii	"_Bool\000"
 7337      6C00
 7338              	.LASF200:
 7339 0a16 43595F42 		.ascii	"CY_BLE_EVT_MAX\000"
 7339      4C455F45 
 7339      56545F4D 
 7339      415800
 7340              	.LASF195:
 7341 0a25 43595F42 		.ascii	"CY_BLE_EVT_L2CAP_CBFC_DISCONN_CNF\000"
 7341      4C455F45 
 7341      56545F4C 
 7341      32434150 
 7341      5F434246 
 7342              	.LASF291:
 7343 0a47 50765F45 		.ascii	"Pv_EINK_PartialStageHandler\000"
 7343      494E4B5F 
 7343      50617274 
 7343      69616C53 
 7343      74616765 
 7344              	.LASF44:
 7345 0a63 5644445F 		.ascii	"VDD_INTR\000"
 7345      494E5452 
 7345      00
 7346              	.LASF126:
 7347 0a6c 43595F42 		.ascii	"CY_BLE_EVT_RANDOM_NUM_GEN_COMPLETE\000"
 7347      4C455F45 
 7347      56545F52 
 7347      414E444F 
 7347      4D5F4E55 
 7348              	.LASF206:
 7349 0a8f 43595F42 		.ascii	"CY_BLE_ADV_STATE_ADVERTISING\000"
 7349      4C455F41 
 7349      44565F53 
 7349      54415445 
 7349      5F414456 
 7350              	.LASF156:
 7351 0aac 43595F42 		.ascii	"CY_BLE_EVT_GAP_SMP_NEGOTIATED_AUTH_INFO\000"
 7351      4C455F45 
 7351      56545F47 
 7351      41505F53 
 7351      4D505F4E 
 7352              	.LASF99:
 7353 0ad4 43595F42 		.ascii	"CY_BLE_EVT_SET_DATA_LENGTH_COMPLETE\000"
 7353      4C455F45 
 7353      56545F53 
 7353      45545F44 
 7353      4154415F 
 7354              	.LASF177:
 7355 0af8 43595F42 		.ascii	"CY_BLE_EVT_GATTC_WRITE_RSP\000"
 7355      4C455F45 
 7355      56545F47 
ARM GAS  C:\Users\codyg\AppData\Local\Temp\ccQipZVL.s 			page 171


 7355      41545443 
 7355      5F575249 
 7356              	.LASF142:
 7357 0b13 43595F42 		.ascii	"CY_BLE_EVT_GAP_AUTH_COMPLETE\000"
 7357      4C455F45 
 7357      56545F47 
 7357      41505F41 
 7357      5554485F 
 7358              	.LASF253:
 7359 0b30 70765F65 		.ascii	"pv_eink_status_t\000"
 7359      696E6B5F 
 7359      73746174 
 7359      75735F74 
 7359      00
 7360              	.LASF262:
 7361 0b41 6576656E 		.ascii	"even\000"
 7361      00
 7362              	.LASF89:
 7363 0b46 43595F42 		.ascii	"CY_BLE_EVT_STACK_BUSY_STATUS\000"
 7363      4C455F45 
 7363      56545F53 
 7363      5441434B 
 7363      5F425553 
 7364              	.LASF27:
 7365 0b63 494E5452 		.ascii	"INTR\000"
 7365      00
 7366              	.LASF38:
 7367 0b68 4750494F 		.ascii	"GPIO_PRT_Type\000"
 7367      5F505254 
 7367      5F547970 
 7367      6500
 7368              	.LASF96:
 7369 0b76 43595F42 		.ascii	"CY_BLE_EVT_GET_CHANNEL_MAP_COMPLETE\000"
 7369      4C455F45 
 7369      56545F47 
 7369      45545F43 
 7369      48414E4E 
 7370              	.LASF232:
 7371 0b9a 43595F42 		.ascii	"CY_BLE_HTS_CHAR_COUNT\000"
 7371      4C455F48 
 7371      54535F43 
 7371      4841525F 
 7371      434F554E 
 7372              	.LASF302:
 7373 0bb0 66756C6C 		.ascii	"fullUpdateCycles\000"
 7373      55706461 
 7373      74654379 
 7373      636C6573 
 7373      00
 7374              	.LASF28:
 7375 0bc1 494E5452 		.ascii	"INTR_MASK\000"
 7375      5F4D4153 
 7375      4B00
 7376              	.LASF90:
 7377 0bcb 43595F42 		.ascii	"CY_BLE_EVT_MEMORY_REQUEST\000"
 7377      4C455F45 
 7377      56545F4D 
ARM GAS  C:\Users\codyg\AppData\Local\Temp\ccQipZVL.s 			page 172


 7377      454D4F52 
 7377      595F5245 
 7378              	.LASF84:
 7379 0be5 76726566 		.ascii	"vrefMvValue\000"
 7379      4D765661 
 7379      6C756500 
 7380              	.LASF316:
 7381 0bf1 7363616E 		.ascii	"scanTable\000"
 7381      5461626C 
 7381      6500
 7382              	.LASF137:
 7383 0bfb 43595F42 		.ascii	"CY_BLE_EVT_SET_CONN_PRIORITY_COMPLETE\000"
 7383      4C455F45 
 7383      56545F53 
 7383      45545F43 
 7383      4F4E4E5F 
 7384              	.LASF145:
 7385 0c21 43595F42 		.ascii	"CY_BLE_EVT_GAP_DEVICE_CONNECTED\000"
 7385      4C455F45 
 7385      56545F47 
 7385      41505F44 
 7385      45564943 
 7386              	.LASF298:
 7387 0c41 50765F45 		.ascii	"Pv_EINK_DummyLine\000"
 7387      494E4B5F 
 7387      44756D6D 
 7387      794C696E 
 7387      6500
 7388              	.LASF207:
 7389 0c53 43595F42 		.ascii	"CY_BLE_ADV_STATE_STOP_INITIATED\000"
 7389      4C455F41 
 7389      44565F53 
 7389      54415445 
 7389      5F53544F 
 7390              	.LASF279:
 7391 0c73 64617461 		.ascii	"dataRead\000"
 7391      52656164 
 7391      00
 7392              	.LASF236:
 7393 0c7c 43595F42 		.ascii	"CY_BLE_SRVI_GAP\000"
 7393      4C455F53 
 7393      5256495F 
 7393      47415000 
 7394              	.LASF214:
 7395 0c8c 43595F42 		.ascii	"CY_BLE_CONN_STATE_CLIENT_CHAR_DISCOVERING\000"
 7395      4C455F43 
 7395      4F4E4E5F 
 7395      53544154 
 7395      455F434C 
 7396              	.LASF67:
 7397 0cb6 43595F53 		.ascii	"CY_SAR_RANGE_COND_ABOVE\000"
 7397      41525F52 
 7397      414E4745 
 7397      5F434F4E 
 7397      445F4142 
 7398              	.LASF17:
 7399 0cce 63686172 		.ascii	"char\000"
ARM GAS  C:\Users\codyg\AppData\Local\Temp\ccQipZVL.s 			page 173


 7399      00
 7400              	.LASF128:
 7401 0cd3 43595F42 		.ascii	"CY_BLE_EVT_AES_CCM_ENCRYPT_COMPLETE\000"
 7401      4C455F45 
 7401      56545F41 
 7401      45535F43 
 7401      434D5F45 
 7402              	.LASF149:
 7403 0cf7 43595F42 		.ascii	"CY_BLE_EVT_GAPC_SCAN_START_STOP\000"
 7403      4C455F45 
 7403      56545F47 
 7403      4150435F 
 7403      5343414E 
 7404              	.LASF76:
 7405 0d17 6368616E 		.ascii	"chanEn\000"
 7405      456E00
 7406              	.LASF219:
 7407 0d1e 43595F42 		.ascii	"CY_BLE_DIS_MODEL_NUMBER\000"
 7407      4C455F44 
 7407      49535F4D 
 7407      4F44454C 
 7407      5F4E554D 
 7408              	.LASF170:
 7409 0d36 43595F42 		.ascii	"CY_BLE_EVT_GATTC_READ_BY_TYPE_RSP\000"
 7409      4C455F45 
 7409      56545F47 
 7409      41545443 
 7409      5F524541 
 7410              	.LASF321:
 7411 0d58 43795F45 		.ascii	"Cy_EINK_IsBusy\000"
 7411      494E4B5F 
 7411      49734275 
 7411      737900
 7412              	.LASF107:
 7413 0d67 43595F42 		.ascii	"CY_BLE_EVT_SET_HOST_CHANNEL_COMPLETE\000"
 7413      4C455F45 
 7413      56545F53 
 7413      45545F48 
 7413      4F53545F 
 7414              	.LASF272:
 7415 0d8c 64617461 		.ascii	"data\000"
 7415      00
 7416              	.LASF97:
 7417 0d91 43595F42 		.ascii	"CY_BLE_EVT_LE_SET_EVENT_MASK_COMPLETE\000"
 7417      4C455F45 
 7417      56545F4C 
 7417      455F5345 
 7417      545F4556 
 7418              	.LASF58:
 7419 0db7 72784275 		.ascii	"rxBufIdx\000"
 7419      66496478 
 7419      00
 7420              	.LASF151:
 7421 0dc0 43595F42 		.ascii	"CY_BLE_EVT_GAP_NUMERIC_COMPARISON_REQUEST\000"
 7421      4C455F45 
 7421      56545F47 
 7421      41505F4E 
ARM GAS  C:\Users\codyg\AppData\Local\Temp\ccQipZVL.s 			page 174


 7421      554D4552 
 7422              	.LASF63:
 7423 0dea 696E6974 		.ascii	"initKey\000"
 7423      4B657900 
 7424              	.LASF19:
 7425 0df2 75696E74 		.ascii	"uint8_t\000"
 7425      385F7400 
 7426              	.LASF55:
 7427 0dfa 73746174 		.ascii	"status\000"
 7427      757300
 7428              	.LASF130:
 7429 0e01 43595F42 		.ascii	"CY_BLE_EVT_SET_SLAVE_LATENCY_MODE_COMPLETE\000"
 7429      4C455F45 
 7429      56545F53 
 7429      45545F53 
 7429      4C415645 
 7430              	.LASF265:
 7431 0e2c 6C696E65 		.ascii	"lineBuffer\000"
 7431      42756666 
 7431      657200
 7432              	.LASF39:
 7433 0e37 494E5452 		.ascii	"INTR_CAUSE0\000"
 7433      5F434155 
 7433      53453000 
 7434              	.LASF41:
 7435 0e43 494E5452 		.ascii	"INTR_CAUSE2\000"
 7435      5F434155 
 7435      53453200 
 7436              	.LASF287:
 7437 0e4f 63757272 		.ascii	"currentWriteCycle\000"
 7437      656E7457 
 7437      72697465 
 7437      4379636C 
 7437      6500
 7438              	.LASF42:
 7439 0e61 494E5452 		.ascii	"INTR_CAUSE3\000"
 7439      5F434155 
 7439      53453300 
 7440              	.LASF322:
 7441 0e6d 43795F45 		.ascii	"Cy_EINK_AttachSPI\000"
 7441      494E4B5F 
 7441      41747461 
 7441      63685350 
 7441      4900
 7442              	.LASF301:
 7443 0e7f 64726976 		.ascii	"driverPacket\000"
 7443      65725061 
 7443      636B6574 
 7443      00
 7444              	.LASF113:
 7445 0e8c 43595F42 		.ascii	"CY_BLE_EVT_SET_DEFAULT_PHY_COMPLETE\000"
 7445      4C455F45 
 7445      56545F53 
 7445      45545F44 
 7445      45464155 
 7446              	.LASF82:
 7447 0eb0 6D757853 		.ascii	"muxSwitchSqCtrl\000"
ARM GAS  C:\Users\codyg\AppData\Local\Temp\ccQipZVL.s 			page 175


 7447      77697463 
 7447      68537143 
 7447      74726C00 
 7448              	.LASF308:
 7449 0ec0 63795F62 		.ascii	"cy_ble_advState\000"
 7449      6C655F61 
 7449      64765374 
 7449      61746500 
 7450              	.LASF75:
 7451 0ed0 72616E67 		.ascii	"rangeCond\000"
 7451      65436F6E 
 7451      6400
 7452              	.LASF136:
 7453 0eda 43595F42 		.ascii	"CY_BLE_EVT_SET_CE_LENGTH_COMPLETE\000"
 7453      4C455F45 
 7453      56545F53 
 7453      45545F43 
 7453      455F4C45 
 7454              	.LASF135:
 7455 0efc 43595F42 		.ascii	"CY_BLE_EVT_SET_EVENT_MASK_COMPLETE\000"
 7455      4C455F45 
 7455      56545F53 
 7455      45545F45 
 7455      56454E54 
 7456              	.LASF314:
 7457 0f1f 43795F45 		.ascii	"Cy_EINK_Delay\000"
 7457      494E4B5F 
 7457      44656C61 
 7457      7900
 7458              	.LASF1:
 7459 0f2d 6C6F6E67 		.ascii	"long long int\000"
 7459      206C6F6E 
 7459      6720696E 
 7459      7400
 7460              	.LASF326:
 7461 0f3b 433A5C55 		.ascii	"C:\\Users\\codyg\\git\\psoc6-realtime-processing\\B"
 7461      73657273 
 7461      5C636F64 
 7461      79675C67 
 7461      69745C70 
 7462 0f69 4C455F52 		.ascii	"LE_RTC_IMU.cydsn\\CE218138_BLE_Thermometer_RTOS01.c"
 7462      54435F49 
 7462      4D552E63 
 7462      7964736E 
 7462      5C434532 
 7463 0f9b 7964736E 		.ascii	"ydsn\000"
 7463      00
 7464              	.LASF228:
 7465 0fa0 43595F42 		.ascii	"CY_BLE_HTS_TEMP_MEASURE\000"
 7465      4C455F48 
 7465      54535F54 
 7465      454D505F 
 7465      4D454153 
 7466              	.LASF297:
 7467 0fb8 62797465 		.ascii	"byteCounter\000"
 7467      436F756E 
 7467      74657200 
ARM GAS  C:\Users\codyg\AppData\Local\Temp\ccQipZVL.s 			page 176


 7468              	.LASF109:
 7469 0fc4 43595F42 		.ascii	"CY_BLE_EVT_REMOVE_DEVICE_FROM_RPA_LIST_COMPLETE\000"
 7469      4C455F45 
 7469      56545F52 
 7469      454D4F56 
 7469      455F4445 
 7470              	.LASF98:
 7471 0ff4 43595F42 		.ascii	"CY_BLE_EVT_LE_PING_AUTH_TIMEOUT\000"
 7471      4C455F45 
 7471      56545F4C 
 7471      455F5049 
 7471      4E475F41 
 7472              	.LASF7:
 7473 1014 5F5F696E 		.ascii	"__int16_t\000"
 7473      7431365F 
 7473      7400
 7474              	.LASF277:
 7475 101e 50765F45 		.ascii	"Pv_EINK_ReadByte\000"
 7475      494E4B5F 
 7475      52656164 
 7475      42797465 
 7475      00
 7476              	.LASF125:
 7477 102f 43595F42 		.ascii	"CY_BLE_EVT_SET_CLK_CONFIG_COMPLETE\000"
 7477      4C455F45 
 7477      56545F53 
 7477      45545F43 
 7477      4C4B5F43 
 7478              	.LASF46:
 7479 1052 5644445F 		.ascii	"VDD_INTR_MASKED\000"
 7479      494E5452 
 7479      5F4D4153 
 7479      4B454400 
 7480              	.LASF188:
 7481 1062 43595F42 		.ascii	"CY_BLE_EVT_GATTC_LONG_PROCEDURE_END\000"
 7481      4C455F45 
 7481      56545F47 
 7481      41545443 
 7481      5F4C4F4E 
 7482              	.LASF315:
 7483 1086 62756C6B 		.ascii	"bulkDriverPacket\000"
 7483      44726976 
 7483      65725061 
 7483      636B6574 
 7483      00
 7484              	.LASF218:
 7485 1097 43595F42 		.ascii	"CY_BLE_DIS_MANUFACTURER_NAME\000"
 7485      4C455F44 
 7485      49535F4D 
 7485      414E5546 
 7485      41435455 
 7486              	.LASF327:
 7487 10b4 6D656D73 		.ascii	"memset\000"
 7487      657400
 7488              	.LASF263:
 7489 10bb 7363616E 		.ascii	"scan\000"
 7489      00
ARM GAS  C:\Users\codyg\AppData\Local\Temp\ccQipZVL.s 			page 177


 7490              	.LASF64:
 7491 10c0 63795F73 		.ascii	"cy_stc_scb_spi_context_t\000"
 7491      74635F73 
 7491      63625F73 
 7491      70695F63 
 7491      6F6E7465 
 7492              	.LASF77:
 7493 10d9 6368616E 		.ascii	"chanConfig\000"
 7493      436F6E66 
 7493      696700
 7494              	.LASF150:
 7495 10e4 43595F42 		.ascii	"CY_BLE_EVT_GAP_KEYINFO_EXCHNGE_CMPLT\000"
 7495      4C455F45 
 7495      56545F47 
 7495      41505F4B 
 7495      4559494E 
 7496              	.LASF110:
 7497 1109 43595F42 		.ascii	"CY_BLE_EVT_ADD_DEVICE_TO_WHITE_LIST_COMPLETE\000"
 7497      4C455F45 
 7497      56545F41 
 7497      44445F44 
 7497      45564943 
 7498              	.LASF60:
 7499 1136 74784275 		.ascii	"txBufSize\000"
 7499      6653697A 
 7499      6500
 7500              	.LASF199:
 7501 1140 43595F42 		.ascii	"CY_BLE_EVT_L2CAP_CBFC_DATA_WRITE_IND\000"
 7501      4C455F45 
 7501      56545F4C 
 7501      32434150 
 7501      5F434246 
 7502              	.LASF244:
 7503 1165 4144435F 		.ascii	"ADC_CONFIG_STRUCT\000"
 7503      434F4E46 
 7503      49475F53 
 7503      54525543 
 7503      5400
 7504              	.LASF246:
 7505 1177 70765F65 		.ascii	"pv_eink_frame_data_t\000"
 7505      696E6B5F 
 7505      6672616D 
 7505      655F6461 
 7505      74615F74 
 7506              	.LASF138:
 7507 118c 43595F42 		.ascii	"CY_BLE_EVT_GAPC_SCAN_PROGRESS_RESULT\000"
 7507      4C455F45 
 7507      56545F47 
 7507      4150435F 
 7507      5343414E 
 7508              	.LASF192:
 7509 11b1 43595F42 		.ascii	"CY_BLE_EVT_L2CAP_CBFC_CONN_IND\000"
 7509      4C455F45 
 7509      56545F4C 
 7509      32434150 
 7509      5F434246 
 7510              	.LASF278:
ARM GAS  C:\Users\codyg\AppData\Local\Temp\ccQipZVL.s 			page 178


 7511 11d0 50765F45 		.ascii	"Pv_EINK_InitDriver\000"
 7511      494E4B5F 
 7511      496E6974 
 7511      44726976 
 7511      657200
 7512              	.LASF158:
 7513 11e3 43595F42 		.ascii	"CY_BLE_EVT_GAP_KEYS_GEN_COMPLETE\000"
 7513      4C455F45 
 7513      56545F47 
 7513      41505F4B 
 7513      4559535F 
 7514              	.LASF152:
 7515 1204 43595F42 		.ascii	"CY_BLE_EVT_GAP_KEYPRESS_NOTIFICATION\000"
 7515      4C455F45 
 7515      56545F47 
 7515      41505F4B 
 7515      45595052 
 7516              	.LASF215:
 7517 1229 43595F42 		.ascii	"CY_BLE_CONN_STATE_CLIENT_DESCR_DISCOVERING\000"
 7517      4C455F43 
 7517      4F4E4E5F 
 7517      53544154 
 7517      455F434C 
 7518              	.LASF211:
 7519 1254 43595F42 		.ascii	"CY_BLE_CONN_STATE_CONNECTED\000"
 7519      4C455F43 
 7519      4F4E4E5F 
 7519      53544154 
 7519      455F434F 
 7520              	.LASF231:
 7521 1270 43595F42 		.ascii	"CY_BLE_HTS_MEASURE_INTERVAL\000"
 7521      4C455F48 
 7521      54535F4D 
 7521      45415355 
 7521      52455F49 
 7522              	.LASF59:
 7523 128c 74784275 		.ascii	"txBuf\000"
 7523      6600
 7524              	.LASF289:
 7525 1292 74656D70 		.ascii	"tempByte\000"
 7525      42797465 
 7525      00
 7526              	.LASF4:
 7527 129b 5F5F696E 		.ascii	"__int8_t\000"
 7527      74385F74 
 7527      00
 7528              	.LASF222:
 7529 12a4 43595F42 		.ascii	"CY_BLE_DIS_FIRMWARE_REV\000"
 7529      4C455F44 
 7529      49535F46 
 7529      49524D57 
 7529      4152455F 
 7530              	.LASF2:
 7531 12bc 6C6F6E67 		.ascii	"long double\000"
 7531      20646F75 
 7531      626C6500 
 7532              	.LASF95:
ARM GAS  C:\Users\codyg\AppData\Local\Temp\ccQipZVL.s 			page 179


 7533 12c8 43595F42 		.ascii	"CY_BLE_EVT_READ_AUTH_PAYLOAD_TO_COMPLETE\000"
 7533      4C455F45 
 7533      56545F52 
 7533      4541445F 
 7533      41555448 
 7534              	.LASF21:
 7535 12f1 75696E74 		.ascii	"uint16_t\000"
 7535      31365F74 
 7535      00
 7536              	.LASF47:
 7537 12fa 5644445F 		.ascii	"VDD_INTR_SET\000"
 7537      494E5452 
 7537      5F534554 
 7537      00
 7538              	.LASF325:
 7539 1307 63795F65 		.ascii	"cy_eink_library\\pervasive_eink_hardware_driver.c\000"
 7539      696E6B5F 
 7539      6C696272 
 7539      6172795C 
 7539      70657276 
 7540              	.LASF213:
 7541 1338 43595F42 		.ascii	"CY_BLE_CONN_STATE_CLIENT_INCL_DISCOVERING\000"
 7541      4C455F43 
 7541      4F4E4E5F 
 7541      53544154 
 7541      455F434C 
 7542              	.LASF105:
 7543 1362 43595F42 		.ascii	"CY_BLE_EVT_SET_RPA_TO_COMPLETE\000"
 7543      4C455F45 
 7543      56545F53 
 7543      45545F52 
 7543      50415F54 
 7544              	.LASF32:
 7545 1381 4346475F 		.ascii	"CFG_IN\000"
 7545      494E00
 7546              	.LASF72:
 7547 1388 73616D70 		.ascii	"sampleTime01\000"
 7547      6C655469 
 7547      6D653031 
 7547      00
 7548              	.LASF93:
 7549 1395 43595F42 		.ascii	"CY_BLE_EVT_HARDWARE_ERROR\000"
 7549      4C455F45 
 7549      56545F48 
 7549      41524457 
 7549      4152455F 
 7550              	.LASF81:
 7551 13af 6D757853 		.ascii	"muxSwitch\000"
 7551      77697463 
 7551      6800
 7552              	.LASF183:
 7553 13b9 43595F42 		.ascii	"CY_BLE_EVT_GATTC_HANDLE_VALUE_IND\000"
 7553      4C455F45 
 7553      56545F47 
 7553      41545443 
 7553      5F48414E 
 7554              	.LASF164:
ARM GAS  C:\Users\codyg\AppData\Local\Temp\ccQipZVL.s 			page 180


 7555 13db 43595F42 		.ascii	"CY_BLE_EVT_GATTC_ERROR_RSP\000"
 7555      4C455F45 
 7555      56545F47 
 7555      41545443 
 7555      5F455252 
 7556              	.LASF169:
 7557 13f6 43595F42 		.ascii	"CY_BLE_EVT_GATTC_READ_BY_GROUP_TYPE_RSP\000"
 7557      4C455F45 
 7557      56545F47 
 7557      41545443 
 7557      5F524541 
 7558              	.LASF108:
 7559 141e 43595F42 		.ascii	"CY_BLE_EVT_ADD_DEVICE_TO_RPA_LIST_COMPLETE\000"
 7559      4C455F45 
 7559      56545F41 
 7559      44445F44 
 7559      45564943 
 7560              	.LASF176:
 7561 1449 43595F42 		.ascii	"CY_BLE_EVT_GATTS_WRITE_REQ\000"
 7561      4C455F45 
 7561      56545F47 
 7561      41545453 
 7561      5F575249 
 7562              	.LASF131:
 7563 1464 43595F42 		.ascii	"CY_BLE_EVT_STACK_SHUTDOWN_COMPLETE\000"
 7563      4C455F45 
 7563      56545F53 
 7563      5441434B 
 7563      5F534855 
 7564              	.LASF203:
 7565 1487 63795F73 		.ascii	"cy_stc_ble_conn_handle_t\000"
 7565      74635F62 
 7565      6C655F63 
 7565      6F6E6E5F 
 7565      68616E64 
 7566              	.LASF37:
 7567 14a0 52455345 		.ascii	"RESERVED1\000"
 7567      52564544 
 7567      3100
 7568              	.LASF294:
 7569 14aa 6F6C6442 		.ascii	"oldByte\000"
 7569      79746500 
 7570              	.LASF163:
 7571 14b2 43595F42 		.ascii	"CY_BLE_EVT_GAPP_UPDATE_ADV_SCAN_DATA_COMPLETE\000"
 7571      4C455F45 
 7571      56545F47 
 7571      4150505F 
 7571      55504441 
 7572              	.LASF8:
 7573 14e0 73686F72 		.ascii	"short int\000"
 7573      7420696E 
 7573      7400
 7574              	.LASF296:
 7575 14ea 50765F45 		.ascii	"Pv_EINK_NothingFrame\000"
 7575      494E4B5F 
 7575      4E6F7468 
 7575      696E6746 
ARM GAS  C:\Users\codyg\AppData\Local\Temp\ccQipZVL.s 			page 181


 7575      72616D65 
 7576              	.LASF313:
 7577 14ff 4144435F 		.ascii	"ADC_allConfigs\000"
 7577      616C6C43 
 7577      6F6E6669 
 7577      677300
 7578              	.LASF275:
 7579 150e 50765F45 		.ascii	"Pv_EINK_SendByte\000"
 7579      494E4B5F 
 7579      53656E64 
 7579      42797465 
 7579      00
 7580              	.LASF221:
 7581 151f 43595F42 		.ascii	"CY_BLE_DIS_HARDWARE_REV\000"
 7581      4C455F44 
 7581      49535F48 
 7581      41524457 
 7581      4152455F 
 7582              	.LASF146:
 7583 1537 43595F42 		.ascii	"CY_BLE_EVT_GAP_DEVICE_DISCONNECTED\000"
 7583      4C455F45 
 7583      56545F47 
 7583      41505F44 
 7583      45564943 
 7584              	.LASF12:
 7585 155a 6C6F6E67 		.ascii	"long int\000"
 7585      20696E74 
 7585      00
 7586              	.LASF307:
 7587 1563 49544D5F 		.ascii	"ITM_RxBuffer\000"
 7587      52784275 
 7587      66666572 
 7587      00
 7588              	.LASF134:
 7589 1570 43595F42 		.ascii	"CY_BLE_EVT_AES_CMAC_GEN_COMPLETE\000"
 7589      4C455F45 
 7589      56545F41 
 7589      45535F43 
 7589      4D41435F 
 7590              	.LASF304:
 7591 1591 64617461 		.ascii	"dataLineEven\000"
 7591      4C696E65 
 7591      4576656E 
 7591      00
 7592              	.LASF270:
 7593 159e 43795F47 		.ascii	"Cy_GPIO_Set\000"
 7593      50494F5F 
 7593      53657400 
 7594              	.LASF49:
 7595 15aa 63686172 		.ascii	"char_t\000"
 7595      5F7400
 7596              	.LASF157:
 7597 15b1 43595F42 		.ascii	"CY_BLE_EVT_GAP_DEVICE_ADDR_GEN_COMPLETE\000"
 7597      4C455F45 
 7597      56545F47 
 7597      41505F44 
 7597      45564943 
ARM GAS  C:\Users\codyg\AppData\Local\Temp\ccQipZVL.s 			page 182


 7598              	.LASF317:
 7599 15d9 6368616E 		.ascii	"channelSelect\000"
 7599      6E656C53 
 7599      656C6563 
 7599      7400
 7600              	.LASF36:
 7601 15e7 4346475F 		.ascii	"CFG_IN_GPIO5V\000"
 7601      494E5F47 
 7601      50494F35 
 7601      5600
 7602              	.LASF320:
 7603 15f5 43795F45 		.ascii	"Cy_EINK_InitSPI\000"
 7603      494E4B5F 
 7603      496E6974 
 7603      53504900 
 7604              	.LASF194:
 7605 1605 43595F42 		.ascii	"CY_BLE_EVT_L2CAP_CBFC_DISCONN_IND\000"
 7605      4C455F45 
 7605      56545F4C 
 7605      32434150 
 7605      5F434246 
 7606              	.LASF180:
 7607 1627 43595F42 		.ascii	"CY_BLE_EVT_GATTS_EXEC_WRITE_REQ\000"
 7607      4C455F45 
 7607      56545F47 
 7607      41545453 
 7607      5F455845 
 7608              	.LASF94:
 7609 1647 43595F42 		.ascii	"CY_BLE_EVT_WRITE_AUTH_PAYLOAD_TO_COMPLETE\000"
 7609      4C455F45 
 7609      56545F57 
 7609      52495445 
 7609      5F415554 
 7610              	.LASF133:
 7611 1671 43595F42 		.ascii	"CY_BLE_EVT_RADIO_VOLTAGE_LEVEL\000"
 7611      4C455F45 
 7611      56545F52 
 7611      4144494F 
 7611      5F564F4C 
 7612              	.LASF26:
 7613 1690 4F55545F 		.ascii	"OUT_INV\000"
 7613      494E5600 
 7614              	.LASF5:
 7615 1698 5F5F7569 		.ascii	"__uint8_t\000"
 7615      6E74385F 
 7615      7400
 7616              	.LASF292:
 7617 16a2 70726576 		.ascii	"previousImagePtr\000"
 7617      696F7573 
 7617      496D6167 
 7617      65507472 
 7617      00
 7618              	.LASF224:
 7619 16b3 43595F42 		.ascii	"CY_BLE_DIS_SYSTEM_ID\000"
 7619      4C455F44 
 7619      49535F53 
 7619      59535445 
ARM GAS  C:\Users\codyg\AppData\Local\Temp\ccQipZVL.s 			page 183


 7619      4D5F4944 
 7620              	.LASF100:
 7621 16c8 43595F42 		.ascii	"CY_BLE_EVT_SET_SUGGESTED_DATA_LENGTH_COMPLETE\000"
 7621      4C455F45 
 7621      56545F53 
 7621      45545F53 
 7621      55474745 
 7622              	.LASF233:
 7623 16f6 43595F42 		.ascii	"CY_BLE_HTS_CCCD\000"
 7623      4C455F48 
 7623      54535F43 
 7623      43434400 
 7624              	.LASF120:
 7625 1706 43595F42 		.ascii	"CY_BLE_EVT_GET_DEVICE_ADDR_COMPLETE\000"
 7625      4C455F45 
 7625      56545F47 
 7625      45545F44 
 7625      45564943 
 7626              	.LASF127:
 7627 172a 43595F42 		.ascii	"CY_BLE_EVT_AES_ENCRYPT_COMPLETE\000"
 7627      4C455F45 
 7627      56545F41 
 7627      45535F45 
 7627      4E435259 
 7628              	.LASF122:
 7629 174a 43595F42 		.ascii	"CY_BLE_EVT_GET_TX_PWR_COMPLETE\000"
 7629      4C455F45 
 7629      56545F47 
 7629      45545F54 
 7629      585F5057 
 7630              	.LASF29:
 7631 1769 494E5452 		.ascii	"INTR_MASKED\000"
 7631      5F4D4153 
 7631      4B454400 
 7632              	.LASF234:
 7633 1775 43595F42 		.ascii	"CY_BLE_HTS_VRD\000"
 7633      4C455F48 
 7633      54535F56 
 7633      524400
 7634              	.LASF293:
 7635 1784 6E657749 		.ascii	"newImagePtr\000"
 7635      6D616765 
 7635      50747200 
 7636              	.LASF88:
 7637 1790 43595F42 		.ascii	"CY_BLE_EVT_TIMEOUT\000"
 7637      4C455F45 
 7637      56545F54 
 7637      494D454F 
 7637      555400
 7638              	.LASF237:
 7639 17a3 43595F42 		.ascii	"CY_BLE_SRVI_GATT\000"
 7639      4C455F53 
 7639      5256495F 
 7639      47415454 
 7639      00
 7640              	.LASF252:
 7641 17b4 50565F45 		.ascii	"PV_EINK_ERROR_CHARGEPUMP\000"
ARM GAS  C:\Users\codyg\AppData\Local\Temp\ccQipZVL.s 			page 184


 7641      494E4B5F 
 7641      4552524F 
 7641      525F4348 
 7641      41524745 
 7642              	.LASF16:
 7643 17cd 73697A65 		.ascii	"sizetype\000"
 7643      74797065 
 7643      00
 7644              	.LASF14:
 7645 17d6 6C6F6E67 		.ascii	"long unsigned int\000"
 7645      20756E73 
 7645      69676E65 
 7645      6420696E 
 7645      7400
 7646              	.LASF50:
 7647 17e8 666C6F61 		.ascii	"float\000"
 7647      7400
 7648              	.LASF22:
 7649 17ee 696E7433 		.ascii	"int32_t\000"
 7649      325F7400 
 7650              	.LASF132:
 7651 17f6 43595F42 		.ascii	"CY_BLE_EVT_RADIO_TEMPERATURE\000"
 7651      4C455F45 
 7651      56545F52 
 7651      4144494F 
 7651      5F54454D 
 7652              	.LASF268:
 7653 1813 70696E4E 		.ascii	"pinNum\000"
 7653      756D00
 7654              	.LASF191:
 7655 181a 43595F42 		.ascii	"CY_BLE_EVT_L2CAP_COMMAND_REJ\000"
 7655      4C455F45 
 7655      56545F4C 
 7655      32434150 
 7655      5F434F4D 
 7656              	.LASF141:
 7657 1837 43595F42 		.ascii	"CY_BLE_EVT_GAP_PASSKEY_DISPLAY_REQUEST\000"
 7657      4C455F45 
 7657      56545F47 
 7657      41505F50 
 7657      4153534B 
 7658              	.LASF323:
 7659 185e 43795F45 		.ascii	"Cy_EINK_DetachSPI\000"
 7659      494E4B5F 
 7659      44657461 
 7659      63685350 
 7659      4900
 7660              	.LASF71:
 7661 1870 73616D70 		.ascii	"sampleCtrl\000"
 7661      6C654374 
 7661      726C00
 7662              	.LASF269:
 7663 187b 43795F47 		.ascii	"Cy_GPIO_Clr\000"
 7663      50494F5F 
 7663      436C7200 
 7664              	.LASF6:
 7665 1887 756E7369 		.ascii	"unsigned char\000"
ARM GAS  C:\Users\codyg\AppData\Local\Temp\ccQipZVL.s 			page 185


 7665      676E6564 
 7665      20636861 
 7665      7200
 7666              	.LASF185:
 7667 1895 43595F42 		.ascii	"CY_BLE_EVT_GATTS_DATA_SIGNED_CMD_REQ\000"
 7667      4C455F45 
 7667      56545F47 
 7667      41545453 
 7667      5F444154 
 7668              	.LASF13:
 7669 18ba 5F5F7569 		.ascii	"__uint32_t\000"
 7669      6E743332 
 7669      5F7400
 7670              	.LASF48:
 7671 18c5 4750494F 		.ascii	"GPIO_Type\000"
 7671      5F547970 
 7671      6500
 7672              	.LASF235:
 7673 18cf 43595F42 		.ascii	"CY_BLE_HTS_DESCR_COUNT\000"
 7673      4C455F48 
 7673      54535F44 
 7673      45534352 
 7673      5F434F55 
 7674              	.LASF31:
 7675 18e6 494E5452 		.ascii	"INTR_CFG\000"
 7675      5F434647 
 7675      00
 7676              	.LASF111:
 7677 18ef 43595F42 		.ascii	"CY_BLE_EVT_REMOVE_DEVICE_FROM_WHITE_LIST_COMPLETE\000"
 7677      4C455F45 
 7677      56545F52 
 7677      454D4F56 
 7677      455F4445 
 7678              	.LASF299:
 7679 1921 50765F45 		.ascii	"Pv_EINK_HardwarePowerOn\000"
 7679      494E4B5F 
 7679      48617264 
 7679      77617265 
 7679      506F7765 
 7680              	.LASF101:
 7681 1939 43595F42 		.ascii	"CY_BLE_EVT_GET_DATA_LENGTH_COMPLETE\000"
 7681      4C455F45 
 7681      56545F47 
 7681      45545F44 
 7681      4154415F 
 7682              	.LASF230:
 7683 195d 43595F42 		.ascii	"CY_BLE_HTS_INTERM_TEMP\000"
 7683      4C455F48 
 7683      54535F49 
 7683      4E544552 
 7683      4D5F5445 
 7684              	.LASF155:
 7685 1974 43595F42 		.ascii	"CY_BLE_EVT_GAPC_DIRECT_ADV_REPORT\000"
 7685      4C455F45 
 7685      56545F47 
 7685      4150435F 
 7685      44495245 
ARM GAS  C:\Users\codyg\AppData\Local\Temp\ccQipZVL.s 			page 186


 7686              	.LASF259:
 7687 1996 63795F73 		.ascii	"cy_stc_scb_spi_context\000"
 7687      74635F73 
 7687      63625F73 
 7687      70695F63 
 7687      6F6E7465 
 7688              	.LASF190:
 7689 19ad 43595F42 		.ascii	"CY_BLE_EVT_L2CAP_CONN_PARAM_UPDATE_RSP\000"
 7689      4C455F45 
 7689      56545F4C 
 7689      32434150 
 7689      5F434F4E 
 7690              	.LASF245:
 7691 19d4 63795F65 		.ascii	"cy_eink_delay_function_t\000"
 7691      696E6B5F 
 7691      64656C61 
 7691      795F6675 
 7691      6E637469 
 7692              	.LASF243:
 7693 19ed 636C6B44 		.ascii	"clkDivider\000"
 7693      69766964 
 7693      657200
 7694              	.LASF273:
 7695 19f8 64617461 		.ascii	"dataLength\000"
 7695      4C656E67 
 7695      746800
 7696              	.LASF286:
 7697 1a03 73746167 		.ascii	"stageNumber\000"
 7697      654E756D 
 7697      62657200 
 7698              	.LASF166:
 7699 1a0f 43595F42 		.ascii	"CY_BLE_EVT_GATT_DISCONNECT_IND\000"
 7699      4C455F45 
 7699      56545F47 
 7699      4154545F 
 7699      44495343 
 7700              	.LASF290:
 7701 1a2e 626C6163 		.ascii	"blackOrWhiteFrame\000"
 7701      6B4F7257 
 7701      68697465 
 7701      4672616D 
 7701      6500
 7702              	.LASF312:
 7703 1a40 4144435F 		.ascii	"ADC_currentConfig\000"
 7703      63757272 
 7703      656E7443 
 7703      6F6E6669 
 7703      6700
 7704              	.LASF280:
 7705 1a52 6C6F6F70 		.ascii	"loopCounter\000"
 7705      436F756E 
 7705      74657200 
 7706              	.LASF181:
 7707 1a5e 43595F42 		.ascii	"CY_BLE_EVT_GATTC_EXEC_WRITE_RSP\000"
 7707      4C455F45 
 7707      56545F47 
 7707      41545443 
ARM GAS  C:\Users\codyg\AppData\Local\Temp\ccQipZVL.s 			page 187


 7707      5F455845 
 7708              	.LASF167:
 7709 1a7e 43595F42 		.ascii	"CY_BLE_EVT_GATTS_XCNHG_MTU_REQ\000"
 7709      4C455F45 
 7709      56545F47 
 7709      41545453 
 7709      5F58434E 
 7710              	.LASF186:
 7711 1a9d 43595F42 		.ascii	"CY_BLE_EVT_GATTC_STOP_CMD_COMPLETE\000"
 7711      4C455F45 
 7711      56545F47 
 7711      41545443 
 7711      5F53544F 
 7712              	.LASF140:
 7713 1ac0 43595F42 		.ascii	"CY_BLE_EVT_GAP_PASSKEY_ENTRY_REQUEST\000"
 7713      4C455F45 
 7713      56545F47 
 7713      41505F50 
 7713      4153534B 
 7714              	.LASF201:
 7715 1ae5 62644861 		.ascii	"bdHandle\000"
 7715      6E646C65 
 7715      00
 7716              	.LASF305:
 7717 1aee 64617461 		.ascii	"dataLineOdd\000"
 7717      4C696E65 
 7717      4F646400 
 7718              	.LASF45:
 7719 1afa 5644445F 		.ascii	"VDD_INTR_MASK\000"
 7719      494E5452 
 7719      5F4D4153 
 7719      4B00
 7720              	.LASF248:
 7721 1b08 50565F45 		.ascii	"PV_EINK_ERROR_BUSY\000"
 7721      494E4B5F 
 7721      4552524F 
 7721      525F4255 
 7721      535900
 7722              	.LASF10:
 7723 1b1b 73686F72 		.ascii	"short unsigned int\000"
 7723      7420756E 
 7723      7369676E 
 7723      65642069 
 7723      6E7400
 7724              	.LASF139:
 7725 1b2e 43595F42 		.ascii	"CY_BLE_EVT_GAP_AUTH_REQ\000"
 7725      4C455F45 
 7725      56545F47 
 7725      41505F41 
 7725      5554485F 
 7726              	.LASF178:
 7727 1b46 43595F42 		.ascii	"CY_BLE_EVT_GATTS_WRITE_CMD_REQ\000"
 7727      4C455F45 
 7727      56545F47 
 7727      41545453 
 7727      5F575249 
 7728              	.LASF124:
ARM GAS  C:\Users\codyg\AppData\Local\Temp\ccQipZVL.s 			page 188


 7729 1b65 43595F42 		.ascii	"CY_BLE_EVT_GET_CLK_CONFIG_COMPLETE\000"
 7729      4C455F45 
 7729      56545F47 
 7729      45545F43 
 7729      4C4B5F43 
 7730              	.LASF242:
 7731 1b88 6D697363 		.ascii	"miscConfig\000"
 7731      436F6E66 
 7731      696700
 7732              	.LASF43:
 7733 1b93 5644445F 		.ascii	"VDD_ACTIVE\000"
 7733      41435449 
 7733      564500
 7734              	.LASF319:
 7735 1b9e 43795F45 		.ascii	"Cy_EINK_ReadSPI\000"
 7735      494E4B5F 
 7735      52656164 
 7735      53504900 
 7736              	.LASF251:
 7737 1bae 50565F45 		.ascii	"PV_EINK_ERROR_DC\000"
 7737      494E4B5F 
 7737      4552524F 
 7737      525F4443 
 7737      00
 7738              	.LASF285:
 7739 1bbf 696D6167 		.ascii	"imagePtr\000"
 7739      65507472 
 7739      00
 7740              	.LASF189:
 7741 1bc8 43595F42 		.ascii	"CY_BLE_EVT_L2CAP_CONN_PARAM_UPDATE_REQ\000"
 7741      4C455F45 
 7741      56545F4C 
 7741      32434150 
 7741      5F434F4E 
 7742              	.LASF83:
 7743 1bef 636F6E66 		.ascii	"configRouting\000"
 7743      6967526F 
 7743      7574696E 
 7743      6700
 7744              	.LASF283:
 7745 1bfd 75706461 		.ascii	"updateCycles\000"
 7745      74654379 
 7745      636C6573 
 7745      00
 7746              	.LASF80:
 7747 1c0a 72616E67 		.ascii	"rangeIntrMask\000"
 7747      65496E74 
 7747      724D6173 
 7747      6B00
 7748              	.LASF254:
 7749 1c18 50565F45 		.ascii	"PV_EINK_STAGE1\000"
 7749      494E4B5F 
 7749      53544147 
 7749      453100
 7750              	.LASF255:
 7751 1c27 50565F45 		.ascii	"PV_EINK_STAGE2\000"
 7751      494E4B5F 
ARM GAS  C:\Users\codyg\AppData\Local\Temp\ccQipZVL.s 			page 189


 7751      53544147 
 7751      453200
 7752              	.LASF256:
 7753 1c36 50565F45 		.ascii	"PV_EINK_STAGE3\000"
 7753      494E4B5F 
 7753      53544147 
 7753      453300
 7754              	.LASF257:
 7755 1c45 50565F45 		.ascii	"PV_EINK_STAGE4\000"
 7755      494E4B5F 
 7755      53544147 
 7755      453400
 7756              	.LASF69:
 7757 1c54 63795F65 		.ascii	"cy_en_sar_range_detect_condition_t\000"
 7757      6E5F7361 
 7757      725F7261 
 7757      6E67655F 
 7757      64657465 
 7758              	.LASF92:
 7759 1c77 43595F42 		.ascii	"CY_BLE_EVT_FLASH_CORRUPT\000"
 7759      4C455F45 
 7759      56545F46 
 7759      4C415348 
 7759      5F434F52 
 7760              	.LASF160:
 7761 1c90 43595F42 		.ascii	"CY_BLE_EVT_GAP_GEN_SET_LOCAL_P256_KEYS_COMPLETE\000"
 7761      4C455F45 
 7761      56545F47 
 7761      41505F47 
 7761      454E5F53 
 7762              	.LASF143:
 7763 1cc0 43595F42 		.ascii	"CY_BLE_EVT_GAP_AUTH_FAILED\000"
 7763      4C455F45 
 7763      56545F47 
 7763      41505F41 
 7763      5554485F 
 7764              	.LASF209:
 7765 1cdb 43595F42 		.ascii	"CY_BLE_CONN_STATE_DISCONNECTED\000"
 7765      4C455F43 
 7765      4F4E4E5F 
 7765      53544154 
 7765      455F4449 
 7766              	.LASF306:
 7767 1cfa 64617461 		.ascii	"dataLineScan\000"
 7767      4C696E65 
 7767      5363616E 
 7767      00
 7768              	.LASF212:
 7769 1d07 43595F42 		.ascii	"CY_BLE_CONN_STATE_CLIENT_SRVC_DISCOVERING\000"
 7769      4C455F43 
 7769      4F4E4E5F 
 7769      53544154 
 7769      455F434C 
 7770              	.LASF78:
 7771 1d31 696E7472 		.ascii	"intrMask\000"
 7771      4D61736B 
 7771      00
ARM GAS  C:\Users\codyg\AppData\Local\Temp\ccQipZVL.s 			page 190


 7772              	.LASF57:
 7773 1d3a 72784275 		.ascii	"rxBufSize\000"
 7773      6653697A 
 7773      6500
 7774              	.LASF148:
 7775 1d44 43595F42 		.ascii	"CY_BLE_EVT_GAP_CONNECTION_UPDATE_COMPLETE\000"
 7775      4C455F45 
 7775      56545F47 
 7775      41505F43 
 7775      4F4E4E45 
 7776              		.ident	"GCC: (GNU Tools for ARM Embedded Processors) 5.4.1 20160609 (release) [ARM/embedded-5-bran
