ARM GAS  C:\Users\codyg\AppData\Local\Temp\ccCwzev2.s 			page 1


   1              		.syntax unified
   2              		.cpu cortex-m4
   3              		.eabi_attribute 27, 1
   4              		.fpu fpv4-sp-d16
   5              		.eabi_attribute 20, 1
   6              		.eabi_attribute 21, 1
   7              		.eabi_attribute 23, 3
   8              		.eabi_attribute 24, 1
   9              		.eabi_attribute 25, 1
  10              		.eabi_attribute 26, 1
  11              		.eabi_attribute 30, 1
  12              		.eabi_attribute 34, 1
  13              		.eabi_attribute 18, 4
  14              		.thumb
  15              		.syntax unified
  16              		.file	"timers.c"
  17              		.text
  18              	.Ltext0:
  19              		.cfi_sections	.debug_frame
  20              		.section	.text.prvGetNextExpireTime,"ax",%progbits
  21              		.align	2
  22              		.thumb
  23              		.thumb_func
  24              		.type	prvGetNextExpireTime, %function
  25              	prvGetNextExpireTime:
  26              	.LFB532:
  27              		.file 1 "Generated_Source\\PSoC6\\pdl\\rtos\\FreeRTOS\\9.0.0\\Source\\timers.c"
   1:Generated_Source\PSoC6\pdl\rtos\FreeRTOS\9.0.0\Source/timers.c **** /*
   2:Generated_Source\PSoC6\pdl\rtos\FreeRTOS\9.0.0\Source/timers.c ****     FreeRTOS V9.0.0 - Copyright (C) 2016 Real Time Engineers Ltd.
   3:Generated_Source\PSoC6\pdl\rtos\FreeRTOS\9.0.0\Source/timers.c ****     All rights reserved
   4:Generated_Source\PSoC6\pdl\rtos\FreeRTOS\9.0.0\Source/timers.c **** 
   5:Generated_Source\PSoC6\pdl\rtos\FreeRTOS\9.0.0\Source/timers.c ****     VISIT http://www.FreeRTOS.org TO ENSURE YOU ARE USING THE LATEST VERSION.
   6:Generated_Source\PSoC6\pdl\rtos\FreeRTOS\9.0.0\Source/timers.c **** 
   7:Generated_Source\PSoC6\pdl\rtos\FreeRTOS\9.0.0\Source/timers.c ****     This file is part of the FreeRTOS distribution.
   8:Generated_Source\PSoC6\pdl\rtos\FreeRTOS\9.0.0\Source/timers.c **** 
   9:Generated_Source\PSoC6\pdl\rtos\FreeRTOS\9.0.0\Source/timers.c ****     FreeRTOS is free software; you can redistribute it and/or modify it under
  10:Generated_Source\PSoC6\pdl\rtos\FreeRTOS\9.0.0\Source/timers.c ****     the terms of the GNU General Public License (version 2) as published by the
  11:Generated_Source\PSoC6\pdl\rtos\FreeRTOS\9.0.0\Source/timers.c ****     Free Software Foundation >>>> AND MODIFIED BY <<<< the FreeRTOS exception.
  12:Generated_Source\PSoC6\pdl\rtos\FreeRTOS\9.0.0\Source/timers.c **** 
  13:Generated_Source\PSoC6\pdl\rtos\FreeRTOS\9.0.0\Source/timers.c ****     ***************************************************************************
  14:Generated_Source\PSoC6\pdl\rtos\FreeRTOS\9.0.0\Source/timers.c ****     >>!   NOTE: The modification to the GPL is included to allow you to     !<<
  15:Generated_Source\PSoC6\pdl\rtos\FreeRTOS\9.0.0\Source/timers.c ****     >>!   distribute a combined work that includes FreeRTOS without being   !<<
  16:Generated_Source\PSoC6\pdl\rtos\FreeRTOS\9.0.0\Source/timers.c ****     >>!   obliged to provide the source code for proprietary components     !<<
  17:Generated_Source\PSoC6\pdl\rtos\FreeRTOS\9.0.0\Source/timers.c ****     >>!   outside of the FreeRTOS kernel.                                   !<<
  18:Generated_Source\PSoC6\pdl\rtos\FreeRTOS\9.0.0\Source/timers.c ****     ***************************************************************************
  19:Generated_Source\PSoC6\pdl\rtos\FreeRTOS\9.0.0\Source/timers.c **** 
  20:Generated_Source\PSoC6\pdl\rtos\FreeRTOS\9.0.0\Source/timers.c ****     FreeRTOS is distributed in the hope that it will be useful, but WITHOUT ANY
  21:Generated_Source\PSoC6\pdl\rtos\FreeRTOS\9.0.0\Source/timers.c ****     WARRANTY; without even the implied warranty of MERCHANTABILITY or FITNESS
  22:Generated_Source\PSoC6\pdl\rtos\FreeRTOS\9.0.0\Source/timers.c ****     FOR A PARTICULAR PURPOSE.  Full license text is available on the following
  23:Generated_Source\PSoC6\pdl\rtos\FreeRTOS\9.0.0\Source/timers.c ****     link: http://www.freertos.org/a00114.html
  24:Generated_Source\PSoC6\pdl\rtos\FreeRTOS\9.0.0\Source/timers.c **** 
  25:Generated_Source\PSoC6\pdl\rtos\FreeRTOS\9.0.0\Source/timers.c ****     ***************************************************************************
  26:Generated_Source\PSoC6\pdl\rtos\FreeRTOS\9.0.0\Source/timers.c ****      *                                                                       *
  27:Generated_Source\PSoC6\pdl\rtos\FreeRTOS\9.0.0\Source/timers.c ****      *    FreeRTOS provides completely free yet professionally developed,    *
  28:Generated_Source\PSoC6\pdl\rtos\FreeRTOS\9.0.0\Source/timers.c ****      *    robust, strictly quality controlled, supported, and cross          *
  29:Generated_Source\PSoC6\pdl\rtos\FreeRTOS\9.0.0\Source/timers.c ****      *    platform software that is more than just the market leader, it     *
  30:Generated_Source\PSoC6\pdl\rtos\FreeRTOS\9.0.0\Source/timers.c ****      *    is the industry's de facto standard.                               *
ARM GAS  C:\Users\codyg\AppData\Local\Temp\ccCwzev2.s 			page 2


  31:Generated_Source\PSoC6\pdl\rtos\FreeRTOS\9.0.0\Source/timers.c ****      *                                                                       *
  32:Generated_Source\PSoC6\pdl\rtos\FreeRTOS\9.0.0\Source/timers.c ****      *    Help yourself get started quickly while simultaneously helping     *
  33:Generated_Source\PSoC6\pdl\rtos\FreeRTOS\9.0.0\Source/timers.c ****      *    to support the FreeRTOS project by purchasing a FreeRTOS           *
  34:Generated_Source\PSoC6\pdl\rtos\FreeRTOS\9.0.0\Source/timers.c ****      *    tutorial book, reference manual, or both:                          *
  35:Generated_Source\PSoC6\pdl\rtos\FreeRTOS\9.0.0\Source/timers.c ****      *    http://www.FreeRTOS.org/Documentation                              *
  36:Generated_Source\PSoC6\pdl\rtos\FreeRTOS\9.0.0\Source/timers.c ****      *                                                                       *
  37:Generated_Source\PSoC6\pdl\rtos\FreeRTOS\9.0.0\Source/timers.c ****     ***************************************************************************
  38:Generated_Source\PSoC6\pdl\rtos\FreeRTOS\9.0.0\Source/timers.c **** 
  39:Generated_Source\PSoC6\pdl\rtos\FreeRTOS\9.0.0\Source/timers.c ****     http://www.FreeRTOS.org/FAQHelp.html - Having a problem?  Start by reading
  40:Generated_Source\PSoC6\pdl\rtos\FreeRTOS\9.0.0\Source/timers.c ****     the FAQ page "My application does not run, what could be wrong?".  Have you
  41:Generated_Source\PSoC6\pdl\rtos\FreeRTOS\9.0.0\Source/timers.c ****     defined configASSERT()?
  42:Generated_Source\PSoC6\pdl\rtos\FreeRTOS\9.0.0\Source/timers.c **** 
  43:Generated_Source\PSoC6\pdl\rtos\FreeRTOS\9.0.0\Source/timers.c ****     http://www.FreeRTOS.org/support - In return for receiving this top quality
  44:Generated_Source\PSoC6\pdl\rtos\FreeRTOS\9.0.0\Source/timers.c ****     embedded software for free we request you assist our global community by
  45:Generated_Source\PSoC6\pdl\rtos\FreeRTOS\9.0.0\Source/timers.c ****     participating in the support forum.
  46:Generated_Source\PSoC6\pdl\rtos\FreeRTOS\9.0.0\Source/timers.c **** 
  47:Generated_Source\PSoC6\pdl\rtos\FreeRTOS\9.0.0\Source/timers.c ****     http://www.FreeRTOS.org/training - Investing in training allows your team to
  48:Generated_Source\PSoC6\pdl\rtos\FreeRTOS\9.0.0\Source/timers.c ****     be as productive as possible as early as possible.  Now you can receive
  49:Generated_Source\PSoC6\pdl\rtos\FreeRTOS\9.0.0\Source/timers.c ****     FreeRTOS training directly from Richard Barry, CEO of Real Time Engineers
  50:Generated_Source\PSoC6\pdl\rtos\FreeRTOS\9.0.0\Source/timers.c ****     Ltd, and the world's leading authority on the world's leading RTOS.
  51:Generated_Source\PSoC6\pdl\rtos\FreeRTOS\9.0.0\Source/timers.c **** 
  52:Generated_Source\PSoC6\pdl\rtos\FreeRTOS\9.0.0\Source/timers.c ****     http://www.FreeRTOS.org/plus - A selection of FreeRTOS ecosystem products,
  53:Generated_Source\PSoC6\pdl\rtos\FreeRTOS\9.0.0\Source/timers.c ****     including FreeRTOS+Trace - an indispensable productivity tool, a DOS
  54:Generated_Source\PSoC6\pdl\rtos\FreeRTOS\9.0.0\Source/timers.c ****     compatible FAT file system, and our tiny thread aware UDP/IP stack.
  55:Generated_Source\PSoC6\pdl\rtos\FreeRTOS\9.0.0\Source/timers.c **** 
  56:Generated_Source\PSoC6\pdl\rtos\FreeRTOS\9.0.0\Source/timers.c ****     http://www.FreeRTOS.org/labs - Where new FreeRTOS products go to incubate.
  57:Generated_Source\PSoC6\pdl\rtos\FreeRTOS\9.0.0\Source/timers.c ****     Come and try FreeRTOS+TCP, our new open source TCP/IP stack for FreeRTOS.
  58:Generated_Source\PSoC6\pdl\rtos\FreeRTOS\9.0.0\Source/timers.c **** 
  59:Generated_Source\PSoC6\pdl\rtos\FreeRTOS\9.0.0\Source/timers.c ****     http://www.OpenRTOS.com - Real Time Engineers ltd. license FreeRTOS to High
  60:Generated_Source\PSoC6\pdl\rtos\FreeRTOS\9.0.0\Source/timers.c ****     Integrity Systems ltd. to sell under the OpenRTOS brand.  Low cost OpenRTOS
  61:Generated_Source\PSoC6\pdl\rtos\FreeRTOS\9.0.0\Source/timers.c ****     licenses offer ticketed support, indemnification and commercial middleware.
  62:Generated_Source\PSoC6\pdl\rtos\FreeRTOS\9.0.0\Source/timers.c **** 
  63:Generated_Source\PSoC6\pdl\rtos\FreeRTOS\9.0.0\Source/timers.c ****     http://www.SafeRTOS.com - High Integrity Systems also provide a safety
  64:Generated_Source\PSoC6\pdl\rtos\FreeRTOS\9.0.0\Source/timers.c ****     engineered and independently SIL3 certified version for use in safety and
  65:Generated_Source\PSoC6\pdl\rtos\FreeRTOS\9.0.0\Source/timers.c ****     mission critical applications that require provable dependability.
  66:Generated_Source\PSoC6\pdl\rtos\FreeRTOS\9.0.0\Source/timers.c **** 
  67:Generated_Source\PSoC6\pdl\rtos\FreeRTOS\9.0.0\Source/timers.c ****     1 tab == 4 spaces!
  68:Generated_Source\PSoC6\pdl\rtos\FreeRTOS\9.0.0\Source/timers.c **** */
  69:Generated_Source\PSoC6\pdl\rtos\FreeRTOS\9.0.0\Source/timers.c **** 
  70:Generated_Source\PSoC6\pdl\rtos\FreeRTOS\9.0.0\Source/timers.c **** /* Standard includes. */
  71:Generated_Source\PSoC6\pdl\rtos\FreeRTOS\9.0.0\Source/timers.c **** #include <stdlib.h>
  72:Generated_Source\PSoC6\pdl\rtos\FreeRTOS\9.0.0\Source/timers.c **** 
  73:Generated_Source\PSoC6\pdl\rtos\FreeRTOS\9.0.0\Source/timers.c **** /* Defining MPU_WRAPPERS_INCLUDED_FROM_API_FILE prevents task.h from redefining
  74:Generated_Source\PSoC6\pdl\rtos\FreeRTOS\9.0.0\Source/timers.c **** all the API functions to use the MPU wrappers.  That should only be done when
  75:Generated_Source\PSoC6\pdl\rtos\FreeRTOS\9.0.0\Source/timers.c **** task.h is included from an application file. */
  76:Generated_Source\PSoC6\pdl\rtos\FreeRTOS\9.0.0\Source/timers.c **** #define MPU_WRAPPERS_INCLUDED_FROM_API_FILE
  77:Generated_Source\PSoC6\pdl\rtos\FreeRTOS\9.0.0\Source/timers.c **** 
  78:Generated_Source\PSoC6\pdl\rtos\FreeRTOS\9.0.0\Source/timers.c **** #include "FreeRTOS.h"
  79:Generated_Source\PSoC6\pdl\rtos\FreeRTOS\9.0.0\Source/timers.c **** #include "task.h"
  80:Generated_Source\PSoC6\pdl\rtos\FreeRTOS\9.0.0\Source/timers.c **** #include "queue.h"
  81:Generated_Source\PSoC6\pdl\rtos\FreeRTOS\9.0.0\Source/timers.c **** #include "timers.h"
  82:Generated_Source\PSoC6\pdl\rtos\FreeRTOS\9.0.0\Source/timers.c **** 
  83:Generated_Source\PSoC6\pdl\rtos\FreeRTOS\9.0.0\Source/timers.c **** #if ( INCLUDE_xTimerPendFunctionCall == 1 ) && ( configUSE_TIMERS == 0 )
  84:Generated_Source\PSoC6\pdl\rtos\FreeRTOS\9.0.0\Source/timers.c **** 	#error configUSE_TIMERS must be set to 1 to make the xTimerPendFunctionCall() function available.
  85:Generated_Source\PSoC6\pdl\rtos\FreeRTOS\9.0.0\Source/timers.c **** #endif
  86:Generated_Source\PSoC6\pdl\rtos\FreeRTOS\9.0.0\Source/timers.c **** 
  87:Generated_Source\PSoC6\pdl\rtos\FreeRTOS\9.0.0\Source/timers.c **** /* Lint e961 and e750 are suppressed as a MISRA exception justified because the
ARM GAS  C:\Users\codyg\AppData\Local\Temp\ccCwzev2.s 			page 3


  88:Generated_Source\PSoC6\pdl\rtos\FreeRTOS\9.0.0\Source/timers.c **** MPU ports require MPU_WRAPPERS_INCLUDED_FROM_API_FILE to be defined for the
  89:Generated_Source\PSoC6\pdl\rtos\FreeRTOS\9.0.0\Source/timers.c **** header files above, but not in this file, in order to generate the correct
  90:Generated_Source\PSoC6\pdl\rtos\FreeRTOS\9.0.0\Source/timers.c **** privileged Vs unprivileged linkage and placement. */
  91:Generated_Source\PSoC6\pdl\rtos\FreeRTOS\9.0.0\Source/timers.c **** #undef MPU_WRAPPERS_INCLUDED_FROM_API_FILE /*lint !e961 !e750. */
  92:Generated_Source\PSoC6\pdl\rtos\FreeRTOS\9.0.0\Source/timers.c **** 
  93:Generated_Source\PSoC6\pdl\rtos\FreeRTOS\9.0.0\Source/timers.c **** 
  94:Generated_Source\PSoC6\pdl\rtos\FreeRTOS\9.0.0\Source/timers.c **** /* This entire source file will be skipped if the application is not configured
  95:Generated_Source\PSoC6\pdl\rtos\FreeRTOS\9.0.0\Source/timers.c **** to include software timer functionality.  This #if is closed at the very bottom
  96:Generated_Source\PSoC6\pdl\rtos\FreeRTOS\9.0.0\Source/timers.c **** of this file.  If you want to include software timer functionality then ensure
  97:Generated_Source\PSoC6\pdl\rtos\FreeRTOS\9.0.0\Source/timers.c **** configUSE_TIMERS is set to 1 in FreeRTOSConfig.h. */
  98:Generated_Source\PSoC6\pdl\rtos\FreeRTOS\9.0.0\Source/timers.c **** #if ( configUSE_TIMERS == 1 )
  99:Generated_Source\PSoC6\pdl\rtos\FreeRTOS\9.0.0\Source/timers.c **** 
 100:Generated_Source\PSoC6\pdl\rtos\FreeRTOS\9.0.0\Source/timers.c **** /* Misc definitions. */
 101:Generated_Source\PSoC6\pdl\rtos\FreeRTOS\9.0.0\Source/timers.c **** #define tmrNO_DELAY		( TickType_t ) 0U
 102:Generated_Source\PSoC6\pdl\rtos\FreeRTOS\9.0.0\Source/timers.c **** 
 103:Generated_Source\PSoC6\pdl\rtos\FreeRTOS\9.0.0\Source/timers.c **** /* The definition of the timers themselves. */
 104:Generated_Source\PSoC6\pdl\rtos\FreeRTOS\9.0.0\Source/timers.c **** typedef struct tmrTimerControl
 105:Generated_Source\PSoC6\pdl\rtos\FreeRTOS\9.0.0\Source/timers.c **** {
 106:Generated_Source\PSoC6\pdl\rtos\FreeRTOS\9.0.0\Source/timers.c **** 	const char				*pcTimerName;		/*<< Text name.  This is not used by the kernel, it is included simpl
 107:Generated_Source\PSoC6\pdl\rtos\FreeRTOS\9.0.0\Source/timers.c **** 	ListItem_t				xTimerListItem;		/*<< Standard linked list item as used by all kernel features for e
 108:Generated_Source\PSoC6\pdl\rtos\FreeRTOS\9.0.0\Source/timers.c **** 	TickType_t				xTimerPeriodInTicks;/*<< How quickly and often the timer expires. */
 109:Generated_Source\PSoC6\pdl\rtos\FreeRTOS\9.0.0\Source/timers.c **** 	UBaseType_t				uxAutoReload;		/*<< Set to pdTRUE if the timer should be automatically restarted on
 110:Generated_Source\PSoC6\pdl\rtos\FreeRTOS\9.0.0\Source/timers.c **** 	void 					*pvTimerID;			/*<< An ID to identify the timer.  This allows the timer to be identified 
 111:Generated_Source\PSoC6\pdl\rtos\FreeRTOS\9.0.0\Source/timers.c **** 	TimerCallbackFunction_t	pxCallbackFunction;	/*<< The function that will be called when the timer e
 112:Generated_Source\PSoC6\pdl\rtos\FreeRTOS\9.0.0\Source/timers.c **** 	#if( configUSE_TRACE_FACILITY == 1 )
 113:Generated_Source\PSoC6\pdl\rtos\FreeRTOS\9.0.0\Source/timers.c **** 		UBaseType_t			uxTimerNumber;		/*<< An ID assigned by trace tools such as FreeRTOS+Trace */
 114:Generated_Source\PSoC6\pdl\rtos\FreeRTOS\9.0.0\Source/timers.c **** 	#endif
 115:Generated_Source\PSoC6\pdl\rtos\FreeRTOS\9.0.0\Source/timers.c **** 
 116:Generated_Source\PSoC6\pdl\rtos\FreeRTOS\9.0.0\Source/timers.c **** 	#if( ( configSUPPORT_STATIC_ALLOCATION == 1 ) && ( configSUPPORT_DYNAMIC_ALLOCATION == 1 ) )
 117:Generated_Source\PSoC6\pdl\rtos\FreeRTOS\9.0.0\Source/timers.c **** 		uint8_t 			ucStaticallyAllocated; /*<< Set to pdTRUE if the timer was created statically so no at
 118:Generated_Source\PSoC6\pdl\rtos\FreeRTOS\9.0.0\Source/timers.c **** 	#endif
 119:Generated_Source\PSoC6\pdl\rtos\FreeRTOS\9.0.0\Source/timers.c **** } xTIMER;
 120:Generated_Source\PSoC6\pdl\rtos\FreeRTOS\9.0.0\Source/timers.c **** 
 121:Generated_Source\PSoC6\pdl\rtos\FreeRTOS\9.0.0\Source/timers.c **** /* The old xTIMER name is maintained above then typedefed to the new Timer_t
 122:Generated_Source\PSoC6\pdl\rtos\FreeRTOS\9.0.0\Source/timers.c **** name below to enable the use of older kernel aware debuggers. */
 123:Generated_Source\PSoC6\pdl\rtos\FreeRTOS\9.0.0\Source/timers.c **** typedef xTIMER Timer_t;
 124:Generated_Source\PSoC6\pdl\rtos\FreeRTOS\9.0.0\Source/timers.c **** 
 125:Generated_Source\PSoC6\pdl\rtos\FreeRTOS\9.0.0\Source/timers.c **** /* The definition of messages that can be sent and received on the timer queue.
 126:Generated_Source\PSoC6\pdl\rtos\FreeRTOS\9.0.0\Source/timers.c **** Two types of message can be queued - messages that manipulate a software timer,
 127:Generated_Source\PSoC6\pdl\rtos\FreeRTOS\9.0.0\Source/timers.c **** and messages that request the execution of a non-timer related callback.  The
 128:Generated_Source\PSoC6\pdl\rtos\FreeRTOS\9.0.0\Source/timers.c **** two message types are defined in two separate structures, xTimerParametersType
 129:Generated_Source\PSoC6\pdl\rtos\FreeRTOS\9.0.0\Source/timers.c **** and xCallbackParametersType respectively. */
 130:Generated_Source\PSoC6\pdl\rtos\FreeRTOS\9.0.0\Source/timers.c **** typedef struct tmrTimerParameters
 131:Generated_Source\PSoC6\pdl\rtos\FreeRTOS\9.0.0\Source/timers.c **** {
 132:Generated_Source\PSoC6\pdl\rtos\FreeRTOS\9.0.0\Source/timers.c **** 	TickType_t			xMessageValue;		/*<< An optional value used by a subset of commands, for example, whe
 133:Generated_Source\PSoC6\pdl\rtos\FreeRTOS\9.0.0\Source/timers.c **** 	Timer_t *			pxTimer;			/*<< The timer to which the command will be applied. */
 134:Generated_Source\PSoC6\pdl\rtos\FreeRTOS\9.0.0\Source/timers.c **** } TimerParameter_t;
 135:Generated_Source\PSoC6\pdl\rtos\FreeRTOS\9.0.0\Source/timers.c **** 
 136:Generated_Source\PSoC6\pdl\rtos\FreeRTOS\9.0.0\Source/timers.c **** 
 137:Generated_Source\PSoC6\pdl\rtos\FreeRTOS\9.0.0\Source/timers.c **** typedef struct tmrCallbackParameters
 138:Generated_Source\PSoC6\pdl\rtos\FreeRTOS\9.0.0\Source/timers.c **** {
 139:Generated_Source\PSoC6\pdl\rtos\FreeRTOS\9.0.0\Source/timers.c **** 	PendedFunction_t	pxCallbackFunction;	/* << The callback function to execute. */
 140:Generated_Source\PSoC6\pdl\rtos\FreeRTOS\9.0.0\Source/timers.c **** 	void *pvParameter1;						/* << The value that will be used as the callback functions first paramet
 141:Generated_Source\PSoC6\pdl\rtos\FreeRTOS\9.0.0\Source/timers.c **** 	uint32_t ulParameter2;					/* << The value that will be used as the callback functions second para
 142:Generated_Source\PSoC6\pdl\rtos\FreeRTOS\9.0.0\Source/timers.c **** } CallbackParameters_t;
 143:Generated_Source\PSoC6\pdl\rtos\FreeRTOS\9.0.0\Source/timers.c **** 
 144:Generated_Source\PSoC6\pdl\rtos\FreeRTOS\9.0.0\Source/timers.c **** /* The structure that contains the two message types, along with an identifier
ARM GAS  C:\Users\codyg\AppData\Local\Temp\ccCwzev2.s 			page 4


 145:Generated_Source\PSoC6\pdl\rtos\FreeRTOS\9.0.0\Source/timers.c **** that is used to determine which message type is valid. */
 146:Generated_Source\PSoC6\pdl\rtos\FreeRTOS\9.0.0\Source/timers.c **** typedef struct tmrTimerQueueMessage
 147:Generated_Source\PSoC6\pdl\rtos\FreeRTOS\9.0.0\Source/timers.c **** {
 148:Generated_Source\PSoC6\pdl\rtos\FreeRTOS\9.0.0\Source/timers.c **** 	BaseType_t			xMessageID;			/*<< The command being sent to the timer service task. */
 149:Generated_Source\PSoC6\pdl\rtos\FreeRTOS\9.0.0\Source/timers.c **** 	union
 150:Generated_Source\PSoC6\pdl\rtos\FreeRTOS\9.0.0\Source/timers.c **** 	{
 151:Generated_Source\PSoC6\pdl\rtos\FreeRTOS\9.0.0\Source/timers.c **** 		TimerParameter_t xTimerParameters;
 152:Generated_Source\PSoC6\pdl\rtos\FreeRTOS\9.0.0\Source/timers.c **** 
 153:Generated_Source\PSoC6\pdl\rtos\FreeRTOS\9.0.0\Source/timers.c **** 		/* Don't include xCallbackParameters if it is not going to be used as
 154:Generated_Source\PSoC6\pdl\rtos\FreeRTOS\9.0.0\Source/timers.c **** 		it makes the structure (and therefore the timer queue) larger. */
 155:Generated_Source\PSoC6\pdl\rtos\FreeRTOS\9.0.0\Source/timers.c **** 		#if ( INCLUDE_xTimerPendFunctionCall == 1 )
 156:Generated_Source\PSoC6\pdl\rtos\FreeRTOS\9.0.0\Source/timers.c **** 			CallbackParameters_t xCallbackParameters;
 157:Generated_Source\PSoC6\pdl\rtos\FreeRTOS\9.0.0\Source/timers.c **** 		#endif /* INCLUDE_xTimerPendFunctionCall */
 158:Generated_Source\PSoC6\pdl\rtos\FreeRTOS\9.0.0\Source/timers.c **** 	} u;
 159:Generated_Source\PSoC6\pdl\rtos\FreeRTOS\9.0.0\Source/timers.c **** } DaemonTaskMessage_t;
 160:Generated_Source\PSoC6\pdl\rtos\FreeRTOS\9.0.0\Source/timers.c **** 
 161:Generated_Source\PSoC6\pdl\rtos\FreeRTOS\9.0.0\Source/timers.c **** /*lint -e956 A manual analysis and inspection has been used to determine which
 162:Generated_Source\PSoC6\pdl\rtos\FreeRTOS\9.0.0\Source/timers.c **** static variables must be declared volatile. */
 163:Generated_Source\PSoC6\pdl\rtos\FreeRTOS\9.0.0\Source/timers.c **** 
 164:Generated_Source\PSoC6\pdl\rtos\FreeRTOS\9.0.0\Source/timers.c **** /* The list in which active timers are stored.  Timers are referenced in expire
 165:Generated_Source\PSoC6\pdl\rtos\FreeRTOS\9.0.0\Source/timers.c **** time order, with the nearest expiry time at the front of the list.  Only the
 166:Generated_Source\PSoC6\pdl\rtos\FreeRTOS\9.0.0\Source/timers.c **** timer service task is allowed to access these lists. */
 167:Generated_Source\PSoC6\pdl\rtos\FreeRTOS\9.0.0\Source/timers.c **** PRIVILEGED_DATA static List_t xActiveTimerList1;
 168:Generated_Source\PSoC6\pdl\rtos\FreeRTOS\9.0.0\Source/timers.c **** PRIVILEGED_DATA static List_t xActiveTimerList2;
 169:Generated_Source\PSoC6\pdl\rtos\FreeRTOS\9.0.0\Source/timers.c **** PRIVILEGED_DATA static List_t *pxCurrentTimerList;
 170:Generated_Source\PSoC6\pdl\rtos\FreeRTOS\9.0.0\Source/timers.c **** PRIVILEGED_DATA static List_t *pxOverflowTimerList;
 171:Generated_Source\PSoC6\pdl\rtos\FreeRTOS\9.0.0\Source/timers.c **** 
 172:Generated_Source\PSoC6\pdl\rtos\FreeRTOS\9.0.0\Source/timers.c **** /* A queue that is used to send commands to the timer service task. */
 173:Generated_Source\PSoC6\pdl\rtos\FreeRTOS\9.0.0\Source/timers.c **** PRIVILEGED_DATA static QueueHandle_t xTimerQueue = NULL;
 174:Generated_Source\PSoC6\pdl\rtos\FreeRTOS\9.0.0\Source/timers.c **** PRIVILEGED_DATA static TaskHandle_t xTimerTaskHandle = NULL;
 175:Generated_Source\PSoC6\pdl\rtos\FreeRTOS\9.0.0\Source/timers.c **** 
 176:Generated_Source\PSoC6\pdl\rtos\FreeRTOS\9.0.0\Source/timers.c **** /*lint +e956 */
 177:Generated_Source\PSoC6\pdl\rtos\FreeRTOS\9.0.0\Source/timers.c **** 
 178:Generated_Source\PSoC6\pdl\rtos\FreeRTOS\9.0.0\Source/timers.c **** /*-----------------------------------------------------------*/
 179:Generated_Source\PSoC6\pdl\rtos\FreeRTOS\9.0.0\Source/timers.c **** 
 180:Generated_Source\PSoC6\pdl\rtos\FreeRTOS\9.0.0\Source/timers.c **** #if( configSUPPORT_STATIC_ALLOCATION == 1 )
 181:Generated_Source\PSoC6\pdl\rtos\FreeRTOS\9.0.0\Source/timers.c **** 
 182:Generated_Source\PSoC6\pdl\rtos\FreeRTOS\9.0.0\Source/timers.c **** 	/* If static allocation is supported then the application must provide the
 183:Generated_Source\PSoC6\pdl\rtos\FreeRTOS\9.0.0\Source/timers.c **** 	following callback function - which enables the application to optionally
 184:Generated_Source\PSoC6\pdl\rtos\FreeRTOS\9.0.0\Source/timers.c **** 	provide the memory that will be used by the timer task as the task's stack
 185:Generated_Source\PSoC6\pdl\rtos\FreeRTOS\9.0.0\Source/timers.c **** 	and TCB. */
 186:Generated_Source\PSoC6\pdl\rtos\FreeRTOS\9.0.0\Source/timers.c **** 	extern void vApplicationGetTimerTaskMemory( StaticTask_t **ppxTimerTaskTCBBuffer, StackType_t **pp
 187:Generated_Source\PSoC6\pdl\rtos\FreeRTOS\9.0.0\Source/timers.c **** 
 188:Generated_Source\PSoC6\pdl\rtos\FreeRTOS\9.0.0\Source/timers.c **** #endif
 189:Generated_Source\PSoC6\pdl\rtos\FreeRTOS\9.0.0\Source/timers.c **** 
 190:Generated_Source\PSoC6\pdl\rtos\FreeRTOS\9.0.0\Source/timers.c **** /*
 191:Generated_Source\PSoC6\pdl\rtos\FreeRTOS\9.0.0\Source/timers.c ****  * Initialise the infrastructure used by the timer service task if it has not
 192:Generated_Source\PSoC6\pdl\rtos\FreeRTOS\9.0.0\Source/timers.c ****  * been initialised already.
 193:Generated_Source\PSoC6\pdl\rtos\FreeRTOS\9.0.0\Source/timers.c ****  */
 194:Generated_Source\PSoC6\pdl\rtos\FreeRTOS\9.0.0\Source/timers.c **** static void prvCheckForValidListAndQueue( void ) PRIVILEGED_FUNCTION;
 195:Generated_Source\PSoC6\pdl\rtos\FreeRTOS\9.0.0\Source/timers.c **** 
 196:Generated_Source\PSoC6\pdl\rtos\FreeRTOS\9.0.0\Source/timers.c **** /*
 197:Generated_Source\PSoC6\pdl\rtos\FreeRTOS\9.0.0\Source/timers.c ****  * The timer service task (daemon).  Timer functionality is controlled by this
 198:Generated_Source\PSoC6\pdl\rtos\FreeRTOS\9.0.0\Source/timers.c ****  * task.  Other tasks communicate with the timer service task using the
 199:Generated_Source\PSoC6\pdl\rtos\FreeRTOS\9.0.0\Source/timers.c ****  * xTimerQueue queue.
 200:Generated_Source\PSoC6\pdl\rtos\FreeRTOS\9.0.0\Source/timers.c ****  */
 201:Generated_Source\PSoC6\pdl\rtos\FreeRTOS\9.0.0\Source/timers.c **** static void prvTimerTask( void *pvParameters ) PRIVILEGED_FUNCTION;
ARM GAS  C:\Users\codyg\AppData\Local\Temp\ccCwzev2.s 			page 5


 202:Generated_Source\PSoC6\pdl\rtos\FreeRTOS\9.0.0\Source/timers.c **** 
 203:Generated_Source\PSoC6\pdl\rtos\FreeRTOS\9.0.0\Source/timers.c **** /*
 204:Generated_Source\PSoC6\pdl\rtos\FreeRTOS\9.0.0\Source/timers.c ****  * Called by the timer service task to interpret and process a command it
 205:Generated_Source\PSoC6\pdl\rtos\FreeRTOS\9.0.0\Source/timers.c ****  * received on the timer queue.
 206:Generated_Source\PSoC6\pdl\rtos\FreeRTOS\9.0.0\Source/timers.c ****  */
 207:Generated_Source\PSoC6\pdl\rtos\FreeRTOS\9.0.0\Source/timers.c **** static void prvProcessReceivedCommands( void ) PRIVILEGED_FUNCTION;
 208:Generated_Source\PSoC6\pdl\rtos\FreeRTOS\9.0.0\Source/timers.c **** 
 209:Generated_Source\PSoC6\pdl\rtos\FreeRTOS\9.0.0\Source/timers.c **** /*
 210:Generated_Source\PSoC6\pdl\rtos\FreeRTOS\9.0.0\Source/timers.c ****  * Insert the timer into either xActiveTimerList1, or xActiveTimerList2,
 211:Generated_Source\PSoC6\pdl\rtos\FreeRTOS\9.0.0\Source/timers.c ****  * depending on if the expire time causes a timer counter overflow.
 212:Generated_Source\PSoC6\pdl\rtos\FreeRTOS\9.0.0\Source/timers.c ****  */
 213:Generated_Source\PSoC6\pdl\rtos\FreeRTOS\9.0.0\Source/timers.c **** static BaseType_t prvInsertTimerInActiveList( Timer_t * const pxTimer, const TickType_t xNextExpiry
 214:Generated_Source\PSoC6\pdl\rtos\FreeRTOS\9.0.0\Source/timers.c **** 
 215:Generated_Source\PSoC6\pdl\rtos\FreeRTOS\9.0.0\Source/timers.c **** /*
 216:Generated_Source\PSoC6\pdl\rtos\FreeRTOS\9.0.0\Source/timers.c ****  * An active timer has reached its expire time.  Reload the timer if it is an
 217:Generated_Source\PSoC6\pdl\rtos\FreeRTOS\9.0.0\Source/timers.c ****  * auto reload timer, then call its callback.
 218:Generated_Source\PSoC6\pdl\rtos\FreeRTOS\9.0.0\Source/timers.c ****  */
 219:Generated_Source\PSoC6\pdl\rtos\FreeRTOS\9.0.0\Source/timers.c **** static void prvProcessExpiredTimer( const TickType_t xNextExpireTime, const TickType_t xTimeNow ) P
 220:Generated_Source\PSoC6\pdl\rtos\FreeRTOS\9.0.0\Source/timers.c **** 
 221:Generated_Source\PSoC6\pdl\rtos\FreeRTOS\9.0.0\Source/timers.c **** /*
 222:Generated_Source\PSoC6\pdl\rtos\FreeRTOS\9.0.0\Source/timers.c ****  * The tick count has overflowed.  Switch the timer lists after ensuring the
 223:Generated_Source\PSoC6\pdl\rtos\FreeRTOS\9.0.0\Source/timers.c ****  * current timer list does not still reference some timers.
 224:Generated_Source\PSoC6\pdl\rtos\FreeRTOS\9.0.0\Source/timers.c ****  */
 225:Generated_Source\PSoC6\pdl\rtos\FreeRTOS\9.0.0\Source/timers.c **** static void prvSwitchTimerLists( void ) PRIVILEGED_FUNCTION;
 226:Generated_Source\PSoC6\pdl\rtos\FreeRTOS\9.0.0\Source/timers.c **** 
 227:Generated_Source\PSoC6\pdl\rtos\FreeRTOS\9.0.0\Source/timers.c **** /*
 228:Generated_Source\PSoC6\pdl\rtos\FreeRTOS\9.0.0\Source/timers.c ****  * Obtain the current tick count, setting *pxTimerListsWereSwitched to pdTRUE
 229:Generated_Source\PSoC6\pdl\rtos\FreeRTOS\9.0.0\Source/timers.c ****  * if a tick count overflow occurred since prvSampleTimeNow() was last called.
 230:Generated_Source\PSoC6\pdl\rtos\FreeRTOS\9.0.0\Source/timers.c ****  */
 231:Generated_Source\PSoC6\pdl\rtos\FreeRTOS\9.0.0\Source/timers.c **** static TickType_t prvSampleTimeNow( BaseType_t * const pxTimerListsWereSwitched ) PRIVILEGED_FUNCTI
 232:Generated_Source\PSoC6\pdl\rtos\FreeRTOS\9.0.0\Source/timers.c **** 
 233:Generated_Source\PSoC6\pdl\rtos\FreeRTOS\9.0.0\Source/timers.c **** /*
 234:Generated_Source\PSoC6\pdl\rtos\FreeRTOS\9.0.0\Source/timers.c ****  * If the timer list contains any active timers then return the expire time of
 235:Generated_Source\PSoC6\pdl\rtos\FreeRTOS\9.0.0\Source/timers.c ****  * the timer that will expire first and set *pxListWasEmpty to false.  If the
 236:Generated_Source\PSoC6\pdl\rtos\FreeRTOS\9.0.0\Source/timers.c ****  * timer list does not contain any timers then return 0 and set *pxListWasEmpty
 237:Generated_Source\PSoC6\pdl\rtos\FreeRTOS\9.0.0\Source/timers.c ****  * to pdTRUE.
 238:Generated_Source\PSoC6\pdl\rtos\FreeRTOS\9.0.0\Source/timers.c ****  */
 239:Generated_Source\PSoC6\pdl\rtos\FreeRTOS\9.0.0\Source/timers.c **** static TickType_t prvGetNextExpireTime( BaseType_t * const pxListWasEmpty ) PRIVILEGED_FUNCTION;
 240:Generated_Source\PSoC6\pdl\rtos\FreeRTOS\9.0.0\Source/timers.c **** 
 241:Generated_Source\PSoC6\pdl\rtos\FreeRTOS\9.0.0\Source/timers.c **** /*
 242:Generated_Source\PSoC6\pdl\rtos\FreeRTOS\9.0.0\Source/timers.c ****  * If a timer has expired, process it.  Otherwise, block the timer service task
 243:Generated_Source\PSoC6\pdl\rtos\FreeRTOS\9.0.0\Source/timers.c ****  * until either a timer does expire or a command is received.
 244:Generated_Source\PSoC6\pdl\rtos\FreeRTOS\9.0.0\Source/timers.c ****  */
 245:Generated_Source\PSoC6\pdl\rtos\FreeRTOS\9.0.0\Source/timers.c **** static void prvProcessTimerOrBlockTask( const TickType_t xNextExpireTime, BaseType_t xListWasEmpty 
 246:Generated_Source\PSoC6\pdl\rtos\FreeRTOS\9.0.0\Source/timers.c **** 
 247:Generated_Source\PSoC6\pdl\rtos\FreeRTOS\9.0.0\Source/timers.c **** /*
 248:Generated_Source\PSoC6\pdl\rtos\FreeRTOS\9.0.0\Source/timers.c ****  * Called after a Timer_t structure has been allocated either statically or
 249:Generated_Source\PSoC6\pdl\rtos\FreeRTOS\9.0.0\Source/timers.c ****  * dynamically to fill in the structure's members.
 250:Generated_Source\PSoC6\pdl\rtos\FreeRTOS\9.0.0\Source/timers.c ****  */
 251:Generated_Source\PSoC6\pdl\rtos\FreeRTOS\9.0.0\Source/timers.c **** static void prvInitialiseNewTimer(	const char * const pcTimerName,
 252:Generated_Source\PSoC6\pdl\rtos\FreeRTOS\9.0.0\Source/timers.c **** 									const TickType_t xTimerPeriodInTicks,
 253:Generated_Source\PSoC6\pdl\rtos\FreeRTOS\9.0.0\Source/timers.c **** 									const UBaseType_t uxAutoReload,
 254:Generated_Source\PSoC6\pdl\rtos\FreeRTOS\9.0.0\Source/timers.c **** 									void * const pvTimerID,
 255:Generated_Source\PSoC6\pdl\rtos\FreeRTOS\9.0.0\Source/timers.c **** 									TimerCallbackFunction_t pxCallbackFunction,
 256:Generated_Source\PSoC6\pdl\rtos\FreeRTOS\9.0.0\Source/timers.c **** 									Timer_t *pxNewTimer ) PRIVILEGED_FUNCTION; /*lint !e971 Unqualified char types are allowed
 257:Generated_Source\PSoC6\pdl\rtos\FreeRTOS\9.0.0\Source/timers.c **** /*-----------------------------------------------------------*/
 258:Generated_Source\PSoC6\pdl\rtos\FreeRTOS\9.0.0\Source/timers.c **** 
ARM GAS  C:\Users\codyg\AppData\Local\Temp\ccCwzev2.s 			page 6


 259:Generated_Source\PSoC6\pdl\rtos\FreeRTOS\9.0.0\Source/timers.c **** BaseType_t xTimerCreateTimerTask( void )
 260:Generated_Source\PSoC6\pdl\rtos\FreeRTOS\9.0.0\Source/timers.c **** {
 261:Generated_Source\PSoC6\pdl\rtos\FreeRTOS\9.0.0\Source/timers.c **** BaseType_t xReturn = pdFAIL;
 262:Generated_Source\PSoC6\pdl\rtos\FreeRTOS\9.0.0\Source/timers.c **** 
 263:Generated_Source\PSoC6\pdl\rtos\FreeRTOS\9.0.0\Source/timers.c **** 	/* This function is called when the scheduler is started if
 264:Generated_Source\PSoC6\pdl\rtos\FreeRTOS\9.0.0\Source/timers.c **** 	configUSE_TIMERS is set to 1.  Check that the infrastructure used by the
 265:Generated_Source\PSoC6\pdl\rtos\FreeRTOS\9.0.0\Source/timers.c **** 	timer service task has been created/initialised.  If timers have already
 266:Generated_Source\PSoC6\pdl\rtos\FreeRTOS\9.0.0\Source/timers.c **** 	been created then the initialisation will already have been performed. */
 267:Generated_Source\PSoC6\pdl\rtos\FreeRTOS\9.0.0\Source/timers.c **** 	prvCheckForValidListAndQueue();
 268:Generated_Source\PSoC6\pdl\rtos\FreeRTOS\9.0.0\Source/timers.c **** 
 269:Generated_Source\PSoC6\pdl\rtos\FreeRTOS\9.0.0\Source/timers.c **** 	if( xTimerQueue != NULL )
 270:Generated_Source\PSoC6\pdl\rtos\FreeRTOS\9.0.0\Source/timers.c **** 	{
 271:Generated_Source\PSoC6\pdl\rtos\FreeRTOS\9.0.0\Source/timers.c **** 		#if( configSUPPORT_STATIC_ALLOCATION == 1 )
 272:Generated_Source\PSoC6\pdl\rtos\FreeRTOS\9.0.0\Source/timers.c **** 		{
 273:Generated_Source\PSoC6\pdl\rtos\FreeRTOS\9.0.0\Source/timers.c **** 			StaticTask_t *pxTimerTaskTCBBuffer = NULL;
 274:Generated_Source\PSoC6\pdl\rtos\FreeRTOS\9.0.0\Source/timers.c **** 			StackType_t *pxTimerTaskStackBuffer = NULL;
 275:Generated_Source\PSoC6\pdl\rtos\FreeRTOS\9.0.0\Source/timers.c **** 			uint32_t ulTimerTaskStackSize;
 276:Generated_Source\PSoC6\pdl\rtos\FreeRTOS\9.0.0\Source/timers.c **** 
 277:Generated_Source\PSoC6\pdl\rtos\FreeRTOS\9.0.0\Source/timers.c **** 			vApplicationGetTimerTaskMemory( &pxTimerTaskTCBBuffer, &pxTimerTaskStackBuffer, &ulTimerTaskStac
 278:Generated_Source\PSoC6\pdl\rtos\FreeRTOS\9.0.0\Source/timers.c **** 			xTimerTaskHandle = xTaskCreateStatic(	prvTimerTask,
 279:Generated_Source\PSoC6\pdl\rtos\FreeRTOS\9.0.0\Source/timers.c **** 													"Tmr Svc",
 280:Generated_Source\PSoC6\pdl\rtos\FreeRTOS\9.0.0\Source/timers.c **** 													ulTimerTaskStackSize,
 281:Generated_Source\PSoC6\pdl\rtos\FreeRTOS\9.0.0\Source/timers.c **** 													NULL,
 282:Generated_Source\PSoC6\pdl\rtos\FreeRTOS\9.0.0\Source/timers.c **** 													( ( UBaseType_t ) configTIMER_TASK_PRIORITY ) | portPRIVILEGE_BIT,
 283:Generated_Source\PSoC6\pdl\rtos\FreeRTOS\9.0.0\Source/timers.c **** 													pxTimerTaskStackBuffer,
 284:Generated_Source\PSoC6\pdl\rtos\FreeRTOS\9.0.0\Source/timers.c **** 													pxTimerTaskTCBBuffer );
 285:Generated_Source\PSoC6\pdl\rtos\FreeRTOS\9.0.0\Source/timers.c **** 
 286:Generated_Source\PSoC6\pdl\rtos\FreeRTOS\9.0.0\Source/timers.c **** 			if( xTimerTaskHandle != NULL )
 287:Generated_Source\PSoC6\pdl\rtos\FreeRTOS\9.0.0\Source/timers.c **** 			{
 288:Generated_Source\PSoC6\pdl\rtos\FreeRTOS\9.0.0\Source/timers.c **** 				xReturn = pdPASS;
 289:Generated_Source\PSoC6\pdl\rtos\FreeRTOS\9.0.0\Source/timers.c **** 			}
 290:Generated_Source\PSoC6\pdl\rtos\FreeRTOS\9.0.0\Source/timers.c **** 		}
 291:Generated_Source\PSoC6\pdl\rtos\FreeRTOS\9.0.0\Source/timers.c **** 		#else
 292:Generated_Source\PSoC6\pdl\rtos\FreeRTOS\9.0.0\Source/timers.c **** 		{
 293:Generated_Source\PSoC6\pdl\rtos\FreeRTOS\9.0.0\Source/timers.c **** 			xReturn = xTaskCreate(	prvTimerTask,
 294:Generated_Source\PSoC6\pdl\rtos\FreeRTOS\9.0.0\Source/timers.c **** 									"Tmr Svc",
 295:Generated_Source\PSoC6\pdl\rtos\FreeRTOS\9.0.0\Source/timers.c **** 									configTIMER_TASK_STACK_DEPTH,
 296:Generated_Source\PSoC6\pdl\rtos\FreeRTOS\9.0.0\Source/timers.c **** 									NULL,
 297:Generated_Source\PSoC6\pdl\rtos\FreeRTOS\9.0.0\Source/timers.c **** 									( ( UBaseType_t ) configTIMER_TASK_PRIORITY ) | portPRIVILEGE_BIT,
 298:Generated_Source\PSoC6\pdl\rtos\FreeRTOS\9.0.0\Source/timers.c **** 									&xTimerTaskHandle );
 299:Generated_Source\PSoC6\pdl\rtos\FreeRTOS\9.0.0\Source/timers.c **** 		}
 300:Generated_Source\PSoC6\pdl\rtos\FreeRTOS\9.0.0\Source/timers.c **** 		#endif /* configSUPPORT_STATIC_ALLOCATION */
 301:Generated_Source\PSoC6\pdl\rtos\FreeRTOS\9.0.0\Source/timers.c **** 	}
 302:Generated_Source\PSoC6\pdl\rtos\FreeRTOS\9.0.0\Source/timers.c **** 	else
 303:Generated_Source\PSoC6\pdl\rtos\FreeRTOS\9.0.0\Source/timers.c **** 	{
 304:Generated_Source\PSoC6\pdl\rtos\FreeRTOS\9.0.0\Source/timers.c **** 		mtCOVERAGE_TEST_MARKER();
 305:Generated_Source\PSoC6\pdl\rtos\FreeRTOS\9.0.0\Source/timers.c **** 	}
 306:Generated_Source\PSoC6\pdl\rtos\FreeRTOS\9.0.0\Source/timers.c **** 
 307:Generated_Source\PSoC6\pdl\rtos\FreeRTOS\9.0.0\Source/timers.c **** 	configASSERT( xReturn );
 308:Generated_Source\PSoC6\pdl\rtos\FreeRTOS\9.0.0\Source/timers.c **** 	return xReturn;
 309:Generated_Source\PSoC6\pdl\rtos\FreeRTOS\9.0.0\Source/timers.c **** }
 310:Generated_Source\PSoC6\pdl\rtos\FreeRTOS\9.0.0\Source/timers.c **** /*-----------------------------------------------------------*/
 311:Generated_Source\PSoC6\pdl\rtos\FreeRTOS\9.0.0\Source/timers.c **** 
 312:Generated_Source\PSoC6\pdl\rtos\FreeRTOS\9.0.0\Source/timers.c **** #if( configSUPPORT_DYNAMIC_ALLOCATION == 1 )
 313:Generated_Source\PSoC6\pdl\rtos\FreeRTOS\9.0.0\Source/timers.c **** 
 314:Generated_Source\PSoC6\pdl\rtos\FreeRTOS\9.0.0\Source/timers.c **** 	TimerHandle_t xTimerCreate(	const char * const pcTimerName,
 315:Generated_Source\PSoC6\pdl\rtos\FreeRTOS\9.0.0\Source/timers.c **** 								const TickType_t xTimerPeriodInTicks,
ARM GAS  C:\Users\codyg\AppData\Local\Temp\ccCwzev2.s 			page 7


 316:Generated_Source\PSoC6\pdl\rtos\FreeRTOS\9.0.0\Source/timers.c **** 								const UBaseType_t uxAutoReload,
 317:Generated_Source\PSoC6\pdl\rtos\FreeRTOS\9.0.0\Source/timers.c **** 								void * const pvTimerID,
 318:Generated_Source\PSoC6\pdl\rtos\FreeRTOS\9.0.0\Source/timers.c **** 								TimerCallbackFunction_t pxCallbackFunction ) /*lint !e971 Unqualified char types are allowe
 319:Generated_Source\PSoC6\pdl\rtos\FreeRTOS\9.0.0\Source/timers.c **** 	{
 320:Generated_Source\PSoC6\pdl\rtos\FreeRTOS\9.0.0\Source/timers.c **** 	Timer_t *pxNewTimer;
 321:Generated_Source\PSoC6\pdl\rtos\FreeRTOS\9.0.0\Source/timers.c **** 
 322:Generated_Source\PSoC6\pdl\rtos\FreeRTOS\9.0.0\Source/timers.c **** 		pxNewTimer = ( Timer_t * ) pvPortMalloc( sizeof( Timer_t ) );
 323:Generated_Source\PSoC6\pdl\rtos\FreeRTOS\9.0.0\Source/timers.c **** 
 324:Generated_Source\PSoC6\pdl\rtos\FreeRTOS\9.0.0\Source/timers.c **** 		if( pxNewTimer != NULL )
 325:Generated_Source\PSoC6\pdl\rtos\FreeRTOS\9.0.0\Source/timers.c **** 		{
 326:Generated_Source\PSoC6\pdl\rtos\FreeRTOS\9.0.0\Source/timers.c **** 			prvInitialiseNewTimer( pcTimerName, xTimerPeriodInTicks, uxAutoReload, pvTimerID, pxCallbackFunc
 327:Generated_Source\PSoC6\pdl\rtos\FreeRTOS\9.0.0\Source/timers.c **** 
 328:Generated_Source\PSoC6\pdl\rtos\FreeRTOS\9.0.0\Source/timers.c **** 			#if( configSUPPORT_STATIC_ALLOCATION == 1 )
 329:Generated_Source\PSoC6\pdl\rtos\FreeRTOS\9.0.0\Source/timers.c **** 			{
 330:Generated_Source\PSoC6\pdl\rtos\FreeRTOS\9.0.0\Source/timers.c **** 				/* Timers can be created statically or dynamically, so note this
 331:Generated_Source\PSoC6\pdl\rtos\FreeRTOS\9.0.0\Source/timers.c **** 				timer was created dynamically in case the timer is later
 332:Generated_Source\PSoC6\pdl\rtos\FreeRTOS\9.0.0\Source/timers.c **** 				deleted. */
 333:Generated_Source\PSoC6\pdl\rtos\FreeRTOS\9.0.0\Source/timers.c **** 				pxNewTimer->ucStaticallyAllocated = pdFALSE;
 334:Generated_Source\PSoC6\pdl\rtos\FreeRTOS\9.0.0\Source/timers.c **** 			}
 335:Generated_Source\PSoC6\pdl\rtos\FreeRTOS\9.0.0\Source/timers.c **** 			#endif /* configSUPPORT_STATIC_ALLOCATION */
 336:Generated_Source\PSoC6\pdl\rtos\FreeRTOS\9.0.0\Source/timers.c **** 		}
 337:Generated_Source\PSoC6\pdl\rtos\FreeRTOS\9.0.0\Source/timers.c **** 
 338:Generated_Source\PSoC6\pdl\rtos\FreeRTOS\9.0.0\Source/timers.c **** 		return pxNewTimer;
 339:Generated_Source\PSoC6\pdl\rtos\FreeRTOS\9.0.0\Source/timers.c **** 	}
 340:Generated_Source\PSoC6\pdl\rtos\FreeRTOS\9.0.0\Source/timers.c **** 
 341:Generated_Source\PSoC6\pdl\rtos\FreeRTOS\9.0.0\Source/timers.c **** #endif /* configSUPPORT_STATIC_ALLOCATION */
 342:Generated_Source\PSoC6\pdl\rtos\FreeRTOS\9.0.0\Source/timers.c **** /*-----------------------------------------------------------*/
 343:Generated_Source\PSoC6\pdl\rtos\FreeRTOS\9.0.0\Source/timers.c **** 
 344:Generated_Source\PSoC6\pdl\rtos\FreeRTOS\9.0.0\Source/timers.c **** #if( configSUPPORT_STATIC_ALLOCATION == 1 )
 345:Generated_Source\PSoC6\pdl\rtos\FreeRTOS\9.0.0\Source/timers.c **** 
 346:Generated_Source\PSoC6\pdl\rtos\FreeRTOS\9.0.0\Source/timers.c **** 	TimerHandle_t xTimerCreateStatic(	const char * const pcTimerName,
 347:Generated_Source\PSoC6\pdl\rtos\FreeRTOS\9.0.0\Source/timers.c **** 										const TickType_t xTimerPeriodInTicks,
 348:Generated_Source\PSoC6\pdl\rtos\FreeRTOS\9.0.0\Source/timers.c **** 										const UBaseType_t uxAutoReload,
 349:Generated_Source\PSoC6\pdl\rtos\FreeRTOS\9.0.0\Source/timers.c **** 										void * const pvTimerID,
 350:Generated_Source\PSoC6\pdl\rtos\FreeRTOS\9.0.0\Source/timers.c **** 										TimerCallbackFunction_t pxCallbackFunction,
 351:Generated_Source\PSoC6\pdl\rtos\FreeRTOS\9.0.0\Source/timers.c **** 										StaticTimer_t *pxTimerBuffer ) /*lint !e971 Unqualified char types are allowed for string
 352:Generated_Source\PSoC6\pdl\rtos\FreeRTOS\9.0.0\Source/timers.c **** 	{
 353:Generated_Source\PSoC6\pdl\rtos\FreeRTOS\9.0.0\Source/timers.c **** 	Timer_t *pxNewTimer;
 354:Generated_Source\PSoC6\pdl\rtos\FreeRTOS\9.0.0\Source/timers.c **** 
 355:Generated_Source\PSoC6\pdl\rtos\FreeRTOS\9.0.0\Source/timers.c **** 		#if( configASSERT_DEFINED == 1 )
 356:Generated_Source\PSoC6\pdl\rtos\FreeRTOS\9.0.0\Source/timers.c **** 		{
 357:Generated_Source\PSoC6\pdl\rtos\FreeRTOS\9.0.0\Source/timers.c **** 			/* Sanity check that the size of the structure used to declare a
 358:Generated_Source\PSoC6\pdl\rtos\FreeRTOS\9.0.0\Source/timers.c **** 			variable of type StaticTimer_t equals the size of the real timer
 359:Generated_Source\PSoC6\pdl\rtos\FreeRTOS\9.0.0\Source/timers.c **** 			structures. */
 360:Generated_Source\PSoC6\pdl\rtos\FreeRTOS\9.0.0\Source/timers.c **** 			volatile size_t xSize = sizeof( StaticTimer_t );
 361:Generated_Source\PSoC6\pdl\rtos\FreeRTOS\9.0.0\Source/timers.c **** 			configASSERT( xSize == sizeof( Timer_t ) );
 362:Generated_Source\PSoC6\pdl\rtos\FreeRTOS\9.0.0\Source/timers.c **** 		}
 363:Generated_Source\PSoC6\pdl\rtos\FreeRTOS\9.0.0\Source/timers.c **** 		#endif /* configASSERT_DEFINED */
 364:Generated_Source\PSoC6\pdl\rtos\FreeRTOS\9.0.0\Source/timers.c **** 
 365:Generated_Source\PSoC6\pdl\rtos\FreeRTOS\9.0.0\Source/timers.c **** 		/* A pointer to a StaticTimer_t structure MUST be provided, use it. */
 366:Generated_Source\PSoC6\pdl\rtos\FreeRTOS\9.0.0\Source/timers.c **** 		configASSERT( pxTimerBuffer );
 367:Generated_Source\PSoC6\pdl\rtos\FreeRTOS\9.0.0\Source/timers.c **** 		pxNewTimer = ( Timer_t * ) pxTimerBuffer; /*lint !e740 Unusual cast is ok as the structures are d
 368:Generated_Source\PSoC6\pdl\rtos\FreeRTOS\9.0.0\Source/timers.c **** 
 369:Generated_Source\PSoC6\pdl\rtos\FreeRTOS\9.0.0\Source/timers.c **** 		if( pxNewTimer != NULL )
 370:Generated_Source\PSoC6\pdl\rtos\FreeRTOS\9.0.0\Source/timers.c **** 		{
 371:Generated_Source\PSoC6\pdl\rtos\FreeRTOS\9.0.0\Source/timers.c **** 			prvInitialiseNewTimer( pcTimerName, xTimerPeriodInTicks, uxAutoReload, pvTimerID, pxCallbackFunc
 372:Generated_Source\PSoC6\pdl\rtos\FreeRTOS\9.0.0\Source/timers.c **** 
ARM GAS  C:\Users\codyg\AppData\Local\Temp\ccCwzev2.s 			page 8


 373:Generated_Source\PSoC6\pdl\rtos\FreeRTOS\9.0.0\Source/timers.c **** 			#if( configSUPPORT_DYNAMIC_ALLOCATION == 1 )
 374:Generated_Source\PSoC6\pdl\rtos\FreeRTOS\9.0.0\Source/timers.c **** 			{
 375:Generated_Source\PSoC6\pdl\rtos\FreeRTOS\9.0.0\Source/timers.c **** 				/* Timers can be created statically or dynamically so note this
 376:Generated_Source\PSoC6\pdl\rtos\FreeRTOS\9.0.0\Source/timers.c **** 				timer was created statically in case it is later deleted. */
 377:Generated_Source\PSoC6\pdl\rtos\FreeRTOS\9.0.0\Source/timers.c **** 				pxNewTimer->ucStaticallyAllocated = pdTRUE;
 378:Generated_Source\PSoC6\pdl\rtos\FreeRTOS\9.0.0\Source/timers.c **** 			}
 379:Generated_Source\PSoC6\pdl\rtos\FreeRTOS\9.0.0\Source/timers.c **** 			#endif /* configSUPPORT_DYNAMIC_ALLOCATION */
 380:Generated_Source\PSoC6\pdl\rtos\FreeRTOS\9.0.0\Source/timers.c **** 		}
 381:Generated_Source\PSoC6\pdl\rtos\FreeRTOS\9.0.0\Source/timers.c **** 
 382:Generated_Source\PSoC6\pdl\rtos\FreeRTOS\9.0.0\Source/timers.c **** 		return pxNewTimer;
 383:Generated_Source\PSoC6\pdl\rtos\FreeRTOS\9.0.0\Source/timers.c **** 	}
 384:Generated_Source\PSoC6\pdl\rtos\FreeRTOS\9.0.0\Source/timers.c **** 
 385:Generated_Source\PSoC6\pdl\rtos\FreeRTOS\9.0.0\Source/timers.c **** #endif /* configSUPPORT_STATIC_ALLOCATION */
 386:Generated_Source\PSoC6\pdl\rtos\FreeRTOS\9.0.0\Source/timers.c **** /*-----------------------------------------------------------*/
 387:Generated_Source\PSoC6\pdl\rtos\FreeRTOS\9.0.0\Source/timers.c **** 
 388:Generated_Source\PSoC6\pdl\rtos\FreeRTOS\9.0.0\Source/timers.c **** static void prvInitialiseNewTimer(	const char * const pcTimerName,
 389:Generated_Source\PSoC6\pdl\rtos\FreeRTOS\9.0.0\Source/timers.c **** 									const TickType_t xTimerPeriodInTicks,
 390:Generated_Source\PSoC6\pdl\rtos\FreeRTOS\9.0.0\Source/timers.c **** 									const UBaseType_t uxAutoReload,
 391:Generated_Source\PSoC6\pdl\rtos\FreeRTOS\9.0.0\Source/timers.c **** 									void * const pvTimerID,
 392:Generated_Source\PSoC6\pdl\rtos\FreeRTOS\9.0.0\Source/timers.c **** 									TimerCallbackFunction_t pxCallbackFunction,
 393:Generated_Source\PSoC6\pdl\rtos\FreeRTOS\9.0.0\Source/timers.c **** 									Timer_t *pxNewTimer ) /*lint !e971 Unqualified char types are allowed for strings and sing
 394:Generated_Source\PSoC6\pdl\rtos\FreeRTOS\9.0.0\Source/timers.c **** {
 395:Generated_Source\PSoC6\pdl\rtos\FreeRTOS\9.0.0\Source/timers.c **** 	/* 0 is not a valid value for xTimerPeriodInTicks. */
 396:Generated_Source\PSoC6\pdl\rtos\FreeRTOS\9.0.0\Source/timers.c **** 	configASSERT( ( xTimerPeriodInTicks > 0 ) );
 397:Generated_Source\PSoC6\pdl\rtos\FreeRTOS\9.0.0\Source/timers.c **** 
 398:Generated_Source\PSoC6\pdl\rtos\FreeRTOS\9.0.0\Source/timers.c **** 	if( pxNewTimer != NULL )
 399:Generated_Source\PSoC6\pdl\rtos\FreeRTOS\9.0.0\Source/timers.c **** 	{
 400:Generated_Source\PSoC6\pdl\rtos\FreeRTOS\9.0.0\Source/timers.c **** 		/* Ensure the infrastructure used by the timer service task has been
 401:Generated_Source\PSoC6\pdl\rtos\FreeRTOS\9.0.0\Source/timers.c **** 		created/initialised. */
 402:Generated_Source\PSoC6\pdl\rtos\FreeRTOS\9.0.0\Source/timers.c **** 		prvCheckForValidListAndQueue();
 403:Generated_Source\PSoC6\pdl\rtos\FreeRTOS\9.0.0\Source/timers.c **** 
 404:Generated_Source\PSoC6\pdl\rtos\FreeRTOS\9.0.0\Source/timers.c **** 		/* Initialise the timer structure members using the function
 405:Generated_Source\PSoC6\pdl\rtos\FreeRTOS\9.0.0\Source/timers.c **** 		parameters. */
 406:Generated_Source\PSoC6\pdl\rtos\FreeRTOS\9.0.0\Source/timers.c **** 		pxNewTimer->pcTimerName = pcTimerName;
 407:Generated_Source\PSoC6\pdl\rtos\FreeRTOS\9.0.0\Source/timers.c **** 		pxNewTimer->xTimerPeriodInTicks = xTimerPeriodInTicks;
 408:Generated_Source\PSoC6\pdl\rtos\FreeRTOS\9.0.0\Source/timers.c **** 		pxNewTimer->uxAutoReload = uxAutoReload;
 409:Generated_Source\PSoC6\pdl\rtos\FreeRTOS\9.0.0\Source/timers.c **** 		pxNewTimer->pvTimerID = pvTimerID;
 410:Generated_Source\PSoC6\pdl\rtos\FreeRTOS\9.0.0\Source/timers.c **** 		pxNewTimer->pxCallbackFunction = pxCallbackFunction;
 411:Generated_Source\PSoC6\pdl\rtos\FreeRTOS\9.0.0\Source/timers.c **** 		vListInitialiseItem( &( pxNewTimer->xTimerListItem ) );
 412:Generated_Source\PSoC6\pdl\rtos\FreeRTOS\9.0.0\Source/timers.c **** 		traceTIMER_CREATE( pxNewTimer );
 413:Generated_Source\PSoC6\pdl\rtos\FreeRTOS\9.0.0\Source/timers.c **** 	}
 414:Generated_Source\PSoC6\pdl\rtos\FreeRTOS\9.0.0\Source/timers.c **** }
 415:Generated_Source\PSoC6\pdl\rtos\FreeRTOS\9.0.0\Source/timers.c **** /*-----------------------------------------------------------*/
 416:Generated_Source\PSoC6\pdl\rtos\FreeRTOS\9.0.0\Source/timers.c **** 
 417:Generated_Source\PSoC6\pdl\rtos\FreeRTOS\9.0.0\Source/timers.c **** BaseType_t xTimerGenericCommand( TimerHandle_t xTimer, const BaseType_t xCommandID, const TickType_
 418:Generated_Source\PSoC6\pdl\rtos\FreeRTOS\9.0.0\Source/timers.c **** {
 419:Generated_Source\PSoC6\pdl\rtos\FreeRTOS\9.0.0\Source/timers.c **** BaseType_t xReturn = pdFAIL;
 420:Generated_Source\PSoC6\pdl\rtos\FreeRTOS\9.0.0\Source/timers.c **** DaemonTaskMessage_t xMessage;
 421:Generated_Source\PSoC6\pdl\rtos\FreeRTOS\9.0.0\Source/timers.c **** 
 422:Generated_Source\PSoC6\pdl\rtos\FreeRTOS\9.0.0\Source/timers.c **** 	configASSERT( xTimer );
 423:Generated_Source\PSoC6\pdl\rtos\FreeRTOS\9.0.0\Source/timers.c **** 
 424:Generated_Source\PSoC6\pdl\rtos\FreeRTOS\9.0.0\Source/timers.c **** 	/* Send a message to the timer service task to perform a particular action
 425:Generated_Source\PSoC6\pdl\rtos\FreeRTOS\9.0.0\Source/timers.c **** 	on a particular timer definition. */
 426:Generated_Source\PSoC6\pdl\rtos\FreeRTOS\9.0.0\Source/timers.c **** 	if( xTimerQueue != NULL )
 427:Generated_Source\PSoC6\pdl\rtos\FreeRTOS\9.0.0\Source/timers.c **** 	{
 428:Generated_Source\PSoC6\pdl\rtos\FreeRTOS\9.0.0\Source/timers.c **** 		/* Send a command to the timer service task to start the xTimer timer. */
 429:Generated_Source\PSoC6\pdl\rtos\FreeRTOS\9.0.0\Source/timers.c **** 		xMessage.xMessageID = xCommandID;
ARM GAS  C:\Users\codyg\AppData\Local\Temp\ccCwzev2.s 			page 9


 430:Generated_Source\PSoC6\pdl\rtos\FreeRTOS\9.0.0\Source/timers.c **** 		xMessage.u.xTimerParameters.xMessageValue = xOptionalValue;
 431:Generated_Source\PSoC6\pdl\rtos\FreeRTOS\9.0.0\Source/timers.c **** 		xMessage.u.xTimerParameters.pxTimer = ( Timer_t * ) xTimer;
 432:Generated_Source\PSoC6\pdl\rtos\FreeRTOS\9.0.0\Source/timers.c **** 
 433:Generated_Source\PSoC6\pdl\rtos\FreeRTOS\9.0.0\Source/timers.c **** 		if( xCommandID < tmrFIRST_FROM_ISR_COMMAND )
 434:Generated_Source\PSoC6\pdl\rtos\FreeRTOS\9.0.0\Source/timers.c **** 		{
 435:Generated_Source\PSoC6\pdl\rtos\FreeRTOS\9.0.0\Source/timers.c **** 			if( xTaskGetSchedulerState() == taskSCHEDULER_RUNNING )
 436:Generated_Source\PSoC6\pdl\rtos\FreeRTOS\9.0.0\Source/timers.c **** 			{
 437:Generated_Source\PSoC6\pdl\rtos\FreeRTOS\9.0.0\Source/timers.c **** 				xReturn = xQueueSendToBack( xTimerQueue, &xMessage, xTicksToWait );
 438:Generated_Source\PSoC6\pdl\rtos\FreeRTOS\9.0.0\Source/timers.c **** 			}
 439:Generated_Source\PSoC6\pdl\rtos\FreeRTOS\9.0.0\Source/timers.c **** 			else
 440:Generated_Source\PSoC6\pdl\rtos\FreeRTOS\9.0.0\Source/timers.c **** 			{
 441:Generated_Source\PSoC6\pdl\rtos\FreeRTOS\9.0.0\Source/timers.c **** 				xReturn = xQueueSendToBack( xTimerQueue, &xMessage, tmrNO_DELAY );
 442:Generated_Source\PSoC6\pdl\rtos\FreeRTOS\9.0.0\Source/timers.c **** 			}
 443:Generated_Source\PSoC6\pdl\rtos\FreeRTOS\9.0.0\Source/timers.c **** 		}
 444:Generated_Source\PSoC6\pdl\rtos\FreeRTOS\9.0.0\Source/timers.c **** 		else
 445:Generated_Source\PSoC6\pdl\rtos\FreeRTOS\9.0.0\Source/timers.c **** 		{
 446:Generated_Source\PSoC6\pdl\rtos\FreeRTOS\9.0.0\Source/timers.c **** 			xReturn = xQueueSendToBackFromISR( xTimerQueue, &xMessage, pxHigherPriorityTaskWoken );
 447:Generated_Source\PSoC6\pdl\rtos\FreeRTOS\9.0.0\Source/timers.c **** 		}
 448:Generated_Source\PSoC6\pdl\rtos\FreeRTOS\9.0.0\Source/timers.c **** 
 449:Generated_Source\PSoC6\pdl\rtos\FreeRTOS\9.0.0\Source/timers.c **** 		traceTIMER_COMMAND_SEND( xTimer, xCommandID, xOptionalValue, xReturn );
 450:Generated_Source\PSoC6\pdl\rtos\FreeRTOS\9.0.0\Source/timers.c **** 	}
 451:Generated_Source\PSoC6\pdl\rtos\FreeRTOS\9.0.0\Source/timers.c **** 	else
 452:Generated_Source\PSoC6\pdl\rtos\FreeRTOS\9.0.0\Source/timers.c **** 	{
 453:Generated_Source\PSoC6\pdl\rtos\FreeRTOS\9.0.0\Source/timers.c **** 		mtCOVERAGE_TEST_MARKER();
 454:Generated_Source\PSoC6\pdl\rtos\FreeRTOS\9.0.0\Source/timers.c **** 	}
 455:Generated_Source\PSoC6\pdl\rtos\FreeRTOS\9.0.0\Source/timers.c **** 
 456:Generated_Source\PSoC6\pdl\rtos\FreeRTOS\9.0.0\Source/timers.c **** 	return xReturn;
 457:Generated_Source\PSoC6\pdl\rtos\FreeRTOS\9.0.0\Source/timers.c **** }
 458:Generated_Source\PSoC6\pdl\rtos\FreeRTOS\9.0.0\Source/timers.c **** /*-----------------------------------------------------------*/
 459:Generated_Source\PSoC6\pdl\rtos\FreeRTOS\9.0.0\Source/timers.c **** 
 460:Generated_Source\PSoC6\pdl\rtos\FreeRTOS\9.0.0\Source/timers.c **** TaskHandle_t xTimerGetTimerDaemonTaskHandle( void )
 461:Generated_Source\PSoC6\pdl\rtos\FreeRTOS\9.0.0\Source/timers.c **** {
 462:Generated_Source\PSoC6\pdl\rtos\FreeRTOS\9.0.0\Source/timers.c **** 	/* If xTimerGetTimerDaemonTaskHandle() is called before the scheduler has been
 463:Generated_Source\PSoC6\pdl\rtos\FreeRTOS\9.0.0\Source/timers.c **** 	started, then xTimerTaskHandle will be NULL. */
 464:Generated_Source\PSoC6\pdl\rtos\FreeRTOS\9.0.0\Source/timers.c **** 	configASSERT( ( xTimerTaskHandle != NULL ) );
 465:Generated_Source\PSoC6\pdl\rtos\FreeRTOS\9.0.0\Source/timers.c **** 	return xTimerTaskHandle;
 466:Generated_Source\PSoC6\pdl\rtos\FreeRTOS\9.0.0\Source/timers.c **** }
 467:Generated_Source\PSoC6\pdl\rtos\FreeRTOS\9.0.0\Source/timers.c **** /*-----------------------------------------------------------*/
 468:Generated_Source\PSoC6\pdl\rtos\FreeRTOS\9.0.0\Source/timers.c **** 
 469:Generated_Source\PSoC6\pdl\rtos\FreeRTOS\9.0.0\Source/timers.c **** TickType_t xTimerGetPeriod( TimerHandle_t xTimer )
 470:Generated_Source\PSoC6\pdl\rtos\FreeRTOS\9.0.0\Source/timers.c **** {
 471:Generated_Source\PSoC6\pdl\rtos\FreeRTOS\9.0.0\Source/timers.c **** Timer_t *pxTimer = ( Timer_t * ) xTimer;
 472:Generated_Source\PSoC6\pdl\rtos\FreeRTOS\9.0.0\Source/timers.c **** 
 473:Generated_Source\PSoC6\pdl\rtos\FreeRTOS\9.0.0\Source/timers.c **** 	configASSERT( xTimer );
 474:Generated_Source\PSoC6\pdl\rtos\FreeRTOS\9.0.0\Source/timers.c **** 	return pxTimer->xTimerPeriodInTicks;
 475:Generated_Source\PSoC6\pdl\rtos\FreeRTOS\9.0.0\Source/timers.c **** }
 476:Generated_Source\PSoC6\pdl\rtos\FreeRTOS\9.0.0\Source/timers.c **** /*-----------------------------------------------------------*/
 477:Generated_Source\PSoC6\pdl\rtos\FreeRTOS\9.0.0\Source/timers.c **** 
 478:Generated_Source\PSoC6\pdl\rtos\FreeRTOS\9.0.0\Source/timers.c **** TickType_t xTimerGetExpiryTime( TimerHandle_t xTimer )
 479:Generated_Source\PSoC6\pdl\rtos\FreeRTOS\9.0.0\Source/timers.c **** {
 480:Generated_Source\PSoC6\pdl\rtos\FreeRTOS\9.0.0\Source/timers.c **** Timer_t * pxTimer = ( Timer_t * ) xTimer;
 481:Generated_Source\PSoC6\pdl\rtos\FreeRTOS\9.0.0\Source/timers.c **** TickType_t xReturn;
 482:Generated_Source\PSoC6\pdl\rtos\FreeRTOS\9.0.0\Source/timers.c **** 
 483:Generated_Source\PSoC6\pdl\rtos\FreeRTOS\9.0.0\Source/timers.c **** 	configASSERT( xTimer );
 484:Generated_Source\PSoC6\pdl\rtos\FreeRTOS\9.0.0\Source/timers.c **** 	xReturn = listGET_LIST_ITEM_VALUE( &( pxTimer->xTimerListItem ) );
 485:Generated_Source\PSoC6\pdl\rtos\FreeRTOS\9.0.0\Source/timers.c **** 	return xReturn;
 486:Generated_Source\PSoC6\pdl\rtos\FreeRTOS\9.0.0\Source/timers.c **** }
ARM GAS  C:\Users\codyg\AppData\Local\Temp\ccCwzev2.s 			page 10


 487:Generated_Source\PSoC6\pdl\rtos\FreeRTOS\9.0.0\Source/timers.c **** /*-----------------------------------------------------------*/
 488:Generated_Source\PSoC6\pdl\rtos\FreeRTOS\9.0.0\Source/timers.c **** 
 489:Generated_Source\PSoC6\pdl\rtos\FreeRTOS\9.0.0\Source/timers.c **** const char * pcTimerGetName( TimerHandle_t xTimer ) /*lint !e971 Unqualified char types are allowed
 490:Generated_Source\PSoC6\pdl\rtos\FreeRTOS\9.0.0\Source/timers.c **** {
 491:Generated_Source\PSoC6\pdl\rtos\FreeRTOS\9.0.0\Source/timers.c **** Timer_t *pxTimer = ( Timer_t * ) xTimer;
 492:Generated_Source\PSoC6\pdl\rtos\FreeRTOS\9.0.0\Source/timers.c **** 
 493:Generated_Source\PSoC6\pdl\rtos\FreeRTOS\9.0.0\Source/timers.c **** 	configASSERT( xTimer );
 494:Generated_Source\PSoC6\pdl\rtos\FreeRTOS\9.0.0\Source/timers.c **** 	return pxTimer->pcTimerName;
 495:Generated_Source\PSoC6\pdl\rtos\FreeRTOS\9.0.0\Source/timers.c **** }
 496:Generated_Source\PSoC6\pdl\rtos\FreeRTOS\9.0.0\Source/timers.c **** /*-----------------------------------------------------------*/
 497:Generated_Source\PSoC6\pdl\rtos\FreeRTOS\9.0.0\Source/timers.c **** 
 498:Generated_Source\PSoC6\pdl\rtos\FreeRTOS\9.0.0\Source/timers.c **** static void prvProcessExpiredTimer( const TickType_t xNextExpireTime, const TickType_t xTimeNow )
 499:Generated_Source\PSoC6\pdl\rtos\FreeRTOS\9.0.0\Source/timers.c **** {
 500:Generated_Source\PSoC6\pdl\rtos\FreeRTOS\9.0.0\Source/timers.c **** BaseType_t xResult;
 501:Generated_Source\PSoC6\pdl\rtos\FreeRTOS\9.0.0\Source/timers.c **** Timer_t * const pxTimer = ( Timer_t * ) listGET_OWNER_OF_HEAD_ENTRY( pxCurrentTimerList );
 502:Generated_Source\PSoC6\pdl\rtos\FreeRTOS\9.0.0\Source/timers.c **** 
 503:Generated_Source\PSoC6\pdl\rtos\FreeRTOS\9.0.0\Source/timers.c **** 	/* Remove the timer from the list of active timers.  A check has already
 504:Generated_Source\PSoC6\pdl\rtos\FreeRTOS\9.0.0\Source/timers.c **** 	been performed to ensure the list is not empty. */
 505:Generated_Source\PSoC6\pdl\rtos\FreeRTOS\9.0.0\Source/timers.c **** 	( void ) uxListRemove( &( pxTimer->xTimerListItem ) );
 506:Generated_Source\PSoC6\pdl\rtos\FreeRTOS\9.0.0\Source/timers.c **** 	traceTIMER_EXPIRED( pxTimer );
 507:Generated_Source\PSoC6\pdl\rtos\FreeRTOS\9.0.0\Source/timers.c **** 
 508:Generated_Source\PSoC6\pdl\rtos\FreeRTOS\9.0.0\Source/timers.c **** 	/* If the timer is an auto reload timer then calculate the next
 509:Generated_Source\PSoC6\pdl\rtos\FreeRTOS\9.0.0\Source/timers.c **** 	expiry time and re-insert the timer in the list of active timers. */
 510:Generated_Source\PSoC6\pdl\rtos\FreeRTOS\9.0.0\Source/timers.c **** 	if( pxTimer->uxAutoReload == ( UBaseType_t ) pdTRUE )
 511:Generated_Source\PSoC6\pdl\rtos\FreeRTOS\9.0.0\Source/timers.c **** 	{
 512:Generated_Source\PSoC6\pdl\rtos\FreeRTOS\9.0.0\Source/timers.c **** 		/* The timer is inserted into a list using a time relative to anything
 513:Generated_Source\PSoC6\pdl\rtos\FreeRTOS\9.0.0\Source/timers.c **** 		other than the current time.  It will therefore be inserted into the
 514:Generated_Source\PSoC6\pdl\rtos\FreeRTOS\9.0.0\Source/timers.c **** 		correct list relative to the time this task thinks it is now. */
 515:Generated_Source\PSoC6\pdl\rtos\FreeRTOS\9.0.0\Source/timers.c **** 		if( prvInsertTimerInActiveList( pxTimer, ( xNextExpireTime + pxTimer->xTimerPeriodInTicks ), xTim
 516:Generated_Source\PSoC6\pdl\rtos\FreeRTOS\9.0.0\Source/timers.c **** 		{
 517:Generated_Source\PSoC6\pdl\rtos\FreeRTOS\9.0.0\Source/timers.c **** 			/* The timer expired before it was added to the active timer
 518:Generated_Source\PSoC6\pdl\rtos\FreeRTOS\9.0.0\Source/timers.c **** 			list.  Reload it now.  */
 519:Generated_Source\PSoC6\pdl\rtos\FreeRTOS\9.0.0\Source/timers.c **** 			xResult = xTimerGenericCommand( pxTimer, tmrCOMMAND_START_DONT_TRACE, xNextExpireTime, NULL, tmr
 520:Generated_Source\PSoC6\pdl\rtos\FreeRTOS\9.0.0\Source/timers.c **** 			configASSERT( xResult );
 521:Generated_Source\PSoC6\pdl\rtos\FreeRTOS\9.0.0\Source/timers.c **** 			( void ) xResult;
 522:Generated_Source\PSoC6\pdl\rtos\FreeRTOS\9.0.0\Source/timers.c **** 		}
 523:Generated_Source\PSoC6\pdl\rtos\FreeRTOS\9.0.0\Source/timers.c **** 		else
 524:Generated_Source\PSoC6\pdl\rtos\FreeRTOS\9.0.0\Source/timers.c **** 		{
 525:Generated_Source\PSoC6\pdl\rtos\FreeRTOS\9.0.0\Source/timers.c **** 			mtCOVERAGE_TEST_MARKER();
 526:Generated_Source\PSoC6\pdl\rtos\FreeRTOS\9.0.0\Source/timers.c **** 		}
 527:Generated_Source\PSoC6\pdl\rtos\FreeRTOS\9.0.0\Source/timers.c **** 	}
 528:Generated_Source\PSoC6\pdl\rtos\FreeRTOS\9.0.0\Source/timers.c **** 	else
 529:Generated_Source\PSoC6\pdl\rtos\FreeRTOS\9.0.0\Source/timers.c **** 	{
 530:Generated_Source\PSoC6\pdl\rtos\FreeRTOS\9.0.0\Source/timers.c **** 		mtCOVERAGE_TEST_MARKER();
 531:Generated_Source\PSoC6\pdl\rtos\FreeRTOS\9.0.0\Source/timers.c **** 	}
 532:Generated_Source\PSoC6\pdl\rtos\FreeRTOS\9.0.0\Source/timers.c **** 
 533:Generated_Source\PSoC6\pdl\rtos\FreeRTOS\9.0.0\Source/timers.c **** 	/* Call the timer callback. */
 534:Generated_Source\PSoC6\pdl\rtos\FreeRTOS\9.0.0\Source/timers.c **** 	pxTimer->pxCallbackFunction( ( TimerHandle_t ) pxTimer );
 535:Generated_Source\PSoC6\pdl\rtos\FreeRTOS\9.0.0\Source/timers.c **** }
 536:Generated_Source\PSoC6\pdl\rtos\FreeRTOS\9.0.0\Source/timers.c **** /*-----------------------------------------------------------*/
 537:Generated_Source\PSoC6\pdl\rtos\FreeRTOS\9.0.0\Source/timers.c **** 
 538:Generated_Source\PSoC6\pdl\rtos\FreeRTOS\9.0.0\Source/timers.c **** static void prvTimerTask( void *pvParameters )
 539:Generated_Source\PSoC6\pdl\rtos\FreeRTOS\9.0.0\Source/timers.c **** {
 540:Generated_Source\PSoC6\pdl\rtos\FreeRTOS\9.0.0\Source/timers.c **** TickType_t xNextExpireTime;
 541:Generated_Source\PSoC6\pdl\rtos\FreeRTOS\9.0.0\Source/timers.c **** BaseType_t xListWasEmpty;
 542:Generated_Source\PSoC6\pdl\rtos\FreeRTOS\9.0.0\Source/timers.c **** 
 543:Generated_Source\PSoC6\pdl\rtos\FreeRTOS\9.0.0\Source/timers.c **** 	/* Just to avoid compiler warnings. */
ARM GAS  C:\Users\codyg\AppData\Local\Temp\ccCwzev2.s 			page 11


 544:Generated_Source\PSoC6\pdl\rtos\FreeRTOS\9.0.0\Source/timers.c **** 	( void ) pvParameters;
 545:Generated_Source\PSoC6\pdl\rtos\FreeRTOS\9.0.0\Source/timers.c **** 
 546:Generated_Source\PSoC6\pdl\rtos\FreeRTOS\9.0.0\Source/timers.c **** 	#if( configUSE_DAEMON_TASK_STARTUP_HOOK == 1 )
 547:Generated_Source\PSoC6\pdl\rtos\FreeRTOS\9.0.0\Source/timers.c **** 	{
 548:Generated_Source\PSoC6\pdl\rtos\FreeRTOS\9.0.0\Source/timers.c **** 		extern void vApplicationDaemonTaskStartupHook( void );
 549:Generated_Source\PSoC6\pdl\rtos\FreeRTOS\9.0.0\Source/timers.c **** 
 550:Generated_Source\PSoC6\pdl\rtos\FreeRTOS\9.0.0\Source/timers.c **** 		/* Allow the application writer to execute some code in the context of
 551:Generated_Source\PSoC6\pdl\rtos\FreeRTOS\9.0.0\Source/timers.c **** 		this task at the point the task starts executing.  This is useful if the
 552:Generated_Source\PSoC6\pdl\rtos\FreeRTOS\9.0.0\Source/timers.c **** 		application includes initialisation code that would benefit from
 553:Generated_Source\PSoC6\pdl\rtos\FreeRTOS\9.0.0\Source/timers.c **** 		executing after the scheduler has been started. */
 554:Generated_Source\PSoC6\pdl\rtos\FreeRTOS\9.0.0\Source/timers.c **** 		vApplicationDaemonTaskStartupHook();
 555:Generated_Source\PSoC6\pdl\rtos\FreeRTOS\9.0.0\Source/timers.c **** 	}
 556:Generated_Source\PSoC6\pdl\rtos\FreeRTOS\9.0.0\Source/timers.c **** 	#endif /* configUSE_DAEMON_TASK_STARTUP_HOOK */
 557:Generated_Source\PSoC6\pdl\rtos\FreeRTOS\9.0.0\Source/timers.c **** 
 558:Generated_Source\PSoC6\pdl\rtos\FreeRTOS\9.0.0\Source/timers.c **** 	for( ;; )
 559:Generated_Source\PSoC6\pdl\rtos\FreeRTOS\9.0.0\Source/timers.c **** 	{
 560:Generated_Source\PSoC6\pdl\rtos\FreeRTOS\9.0.0\Source/timers.c **** 		/* Query the timers list to see if it contains any timers, and if so,
 561:Generated_Source\PSoC6\pdl\rtos\FreeRTOS\9.0.0\Source/timers.c **** 		obtain the time at which the next timer will expire. */
 562:Generated_Source\PSoC6\pdl\rtos\FreeRTOS\9.0.0\Source/timers.c **** 		xNextExpireTime = prvGetNextExpireTime( &xListWasEmpty );
 563:Generated_Source\PSoC6\pdl\rtos\FreeRTOS\9.0.0\Source/timers.c **** 
 564:Generated_Source\PSoC6\pdl\rtos\FreeRTOS\9.0.0\Source/timers.c **** 		/* If a timer has expired, process it.  Otherwise, block this task
 565:Generated_Source\PSoC6\pdl\rtos\FreeRTOS\9.0.0\Source/timers.c **** 		until either a timer does expire, or a command is received. */
 566:Generated_Source\PSoC6\pdl\rtos\FreeRTOS\9.0.0\Source/timers.c **** 		prvProcessTimerOrBlockTask( xNextExpireTime, xListWasEmpty );
 567:Generated_Source\PSoC6\pdl\rtos\FreeRTOS\9.0.0\Source/timers.c **** 
 568:Generated_Source\PSoC6\pdl\rtos\FreeRTOS\9.0.0\Source/timers.c **** 		/* Empty the command queue. */
 569:Generated_Source\PSoC6\pdl\rtos\FreeRTOS\9.0.0\Source/timers.c **** 		prvProcessReceivedCommands();
 570:Generated_Source\PSoC6\pdl\rtos\FreeRTOS\9.0.0\Source/timers.c **** 	}
 571:Generated_Source\PSoC6\pdl\rtos\FreeRTOS\9.0.0\Source/timers.c **** }
 572:Generated_Source\PSoC6\pdl\rtos\FreeRTOS\9.0.0\Source/timers.c **** /*-----------------------------------------------------------*/
 573:Generated_Source\PSoC6\pdl\rtos\FreeRTOS\9.0.0\Source/timers.c **** 
 574:Generated_Source\PSoC6\pdl\rtos\FreeRTOS\9.0.0\Source/timers.c **** static void prvProcessTimerOrBlockTask( const TickType_t xNextExpireTime, BaseType_t xListWasEmpty 
 575:Generated_Source\PSoC6\pdl\rtos\FreeRTOS\9.0.0\Source/timers.c **** {
 576:Generated_Source\PSoC6\pdl\rtos\FreeRTOS\9.0.0\Source/timers.c **** TickType_t xTimeNow;
 577:Generated_Source\PSoC6\pdl\rtos\FreeRTOS\9.0.0\Source/timers.c **** BaseType_t xTimerListsWereSwitched;
 578:Generated_Source\PSoC6\pdl\rtos\FreeRTOS\9.0.0\Source/timers.c **** 
 579:Generated_Source\PSoC6\pdl\rtos\FreeRTOS\9.0.0\Source/timers.c **** 	vTaskSuspendAll();
 580:Generated_Source\PSoC6\pdl\rtos\FreeRTOS\9.0.0\Source/timers.c **** 	{
 581:Generated_Source\PSoC6\pdl\rtos\FreeRTOS\9.0.0\Source/timers.c **** 		/* Obtain the time now to make an assessment as to whether the timer
 582:Generated_Source\PSoC6\pdl\rtos\FreeRTOS\9.0.0\Source/timers.c **** 		has expired or not.  If obtaining the time causes the lists to switch
 583:Generated_Source\PSoC6\pdl\rtos\FreeRTOS\9.0.0\Source/timers.c **** 		then don't process this timer as any timers that remained in the list
 584:Generated_Source\PSoC6\pdl\rtos\FreeRTOS\9.0.0\Source/timers.c **** 		when the lists were switched will have been processed within the
 585:Generated_Source\PSoC6\pdl\rtos\FreeRTOS\9.0.0\Source/timers.c **** 		prvSampleTimeNow() function. */
 586:Generated_Source\PSoC6\pdl\rtos\FreeRTOS\9.0.0\Source/timers.c **** 		xTimeNow = prvSampleTimeNow( &xTimerListsWereSwitched );
 587:Generated_Source\PSoC6\pdl\rtos\FreeRTOS\9.0.0\Source/timers.c **** 		if( xTimerListsWereSwitched == pdFALSE )
 588:Generated_Source\PSoC6\pdl\rtos\FreeRTOS\9.0.0\Source/timers.c **** 		{
 589:Generated_Source\PSoC6\pdl\rtos\FreeRTOS\9.0.0\Source/timers.c **** 			/* The tick count has not overflowed, has the timer expired? */
 590:Generated_Source\PSoC6\pdl\rtos\FreeRTOS\9.0.0\Source/timers.c **** 			if( ( xListWasEmpty == pdFALSE ) && ( xNextExpireTime <= xTimeNow ) )
 591:Generated_Source\PSoC6\pdl\rtos\FreeRTOS\9.0.0\Source/timers.c **** 			{
 592:Generated_Source\PSoC6\pdl\rtos\FreeRTOS\9.0.0\Source/timers.c **** 				( void ) xTaskResumeAll();
 593:Generated_Source\PSoC6\pdl\rtos\FreeRTOS\9.0.0\Source/timers.c **** 				prvProcessExpiredTimer( xNextExpireTime, xTimeNow );
 594:Generated_Source\PSoC6\pdl\rtos\FreeRTOS\9.0.0\Source/timers.c **** 			}
 595:Generated_Source\PSoC6\pdl\rtos\FreeRTOS\9.0.0\Source/timers.c **** 			else
 596:Generated_Source\PSoC6\pdl\rtos\FreeRTOS\9.0.0\Source/timers.c **** 			{
 597:Generated_Source\PSoC6\pdl\rtos\FreeRTOS\9.0.0\Source/timers.c **** 				/* The tick count has not overflowed, and the next expire
 598:Generated_Source\PSoC6\pdl\rtos\FreeRTOS\9.0.0\Source/timers.c **** 				time has not been reached yet.  This task should therefore
 599:Generated_Source\PSoC6\pdl\rtos\FreeRTOS\9.0.0\Source/timers.c **** 				block to wait for the next expire time or a command to be
 600:Generated_Source\PSoC6\pdl\rtos\FreeRTOS\9.0.0\Source/timers.c **** 				received - whichever comes first.  The following line cannot
ARM GAS  C:\Users\codyg\AppData\Local\Temp\ccCwzev2.s 			page 12


 601:Generated_Source\PSoC6\pdl\rtos\FreeRTOS\9.0.0\Source/timers.c **** 				be reached unless xNextExpireTime > xTimeNow, except in the
 602:Generated_Source\PSoC6\pdl\rtos\FreeRTOS\9.0.0\Source/timers.c **** 				case when the current timer list is empty. */
 603:Generated_Source\PSoC6\pdl\rtos\FreeRTOS\9.0.0\Source/timers.c **** 				if( xListWasEmpty != pdFALSE )
 604:Generated_Source\PSoC6\pdl\rtos\FreeRTOS\9.0.0\Source/timers.c **** 				{
 605:Generated_Source\PSoC6\pdl\rtos\FreeRTOS\9.0.0\Source/timers.c **** 					/* The current timer list is empty - is the overflow list
 606:Generated_Source\PSoC6\pdl\rtos\FreeRTOS\9.0.0\Source/timers.c **** 					also empty? */
 607:Generated_Source\PSoC6\pdl\rtos\FreeRTOS\9.0.0\Source/timers.c **** 					xListWasEmpty = listLIST_IS_EMPTY( pxOverflowTimerList );
 608:Generated_Source\PSoC6\pdl\rtos\FreeRTOS\9.0.0\Source/timers.c **** 				}
 609:Generated_Source\PSoC6\pdl\rtos\FreeRTOS\9.0.0\Source/timers.c **** 
 610:Generated_Source\PSoC6\pdl\rtos\FreeRTOS\9.0.0\Source/timers.c **** 				vQueueWaitForMessageRestricted( xTimerQueue, ( xNextExpireTime - xTimeNow ), xListWasEmpty );
 611:Generated_Source\PSoC6\pdl\rtos\FreeRTOS\9.0.0\Source/timers.c **** 
 612:Generated_Source\PSoC6\pdl\rtos\FreeRTOS\9.0.0\Source/timers.c **** 				if( xTaskResumeAll() == pdFALSE )
 613:Generated_Source\PSoC6\pdl\rtos\FreeRTOS\9.0.0\Source/timers.c **** 				{
 614:Generated_Source\PSoC6\pdl\rtos\FreeRTOS\9.0.0\Source/timers.c **** 					/* Yield to wait for either a command to arrive, or the
 615:Generated_Source\PSoC6\pdl\rtos\FreeRTOS\9.0.0\Source/timers.c **** 					block time to expire.  If a command arrived between the
 616:Generated_Source\PSoC6\pdl\rtos\FreeRTOS\9.0.0\Source/timers.c **** 					critical section being exited and this yield then the yield
 617:Generated_Source\PSoC6\pdl\rtos\FreeRTOS\9.0.0\Source/timers.c **** 					will not cause the task to block. */
 618:Generated_Source\PSoC6\pdl\rtos\FreeRTOS\9.0.0\Source/timers.c **** 					portYIELD_WITHIN_API();
 619:Generated_Source\PSoC6\pdl\rtos\FreeRTOS\9.0.0\Source/timers.c **** 				}
 620:Generated_Source\PSoC6\pdl\rtos\FreeRTOS\9.0.0\Source/timers.c **** 				else
 621:Generated_Source\PSoC6\pdl\rtos\FreeRTOS\9.0.0\Source/timers.c **** 				{
 622:Generated_Source\PSoC6\pdl\rtos\FreeRTOS\9.0.0\Source/timers.c **** 					mtCOVERAGE_TEST_MARKER();
 623:Generated_Source\PSoC6\pdl\rtos\FreeRTOS\9.0.0\Source/timers.c **** 				}
 624:Generated_Source\PSoC6\pdl\rtos\FreeRTOS\9.0.0\Source/timers.c **** 			}
 625:Generated_Source\PSoC6\pdl\rtos\FreeRTOS\9.0.0\Source/timers.c **** 		}
 626:Generated_Source\PSoC6\pdl\rtos\FreeRTOS\9.0.0\Source/timers.c **** 		else
 627:Generated_Source\PSoC6\pdl\rtos\FreeRTOS\9.0.0\Source/timers.c **** 		{
 628:Generated_Source\PSoC6\pdl\rtos\FreeRTOS\9.0.0\Source/timers.c **** 			( void ) xTaskResumeAll();
 629:Generated_Source\PSoC6\pdl\rtos\FreeRTOS\9.0.0\Source/timers.c **** 		}
 630:Generated_Source\PSoC6\pdl\rtos\FreeRTOS\9.0.0\Source/timers.c **** 	}
 631:Generated_Source\PSoC6\pdl\rtos\FreeRTOS\9.0.0\Source/timers.c **** }
 632:Generated_Source\PSoC6\pdl\rtos\FreeRTOS\9.0.0\Source/timers.c **** /*-----------------------------------------------------------*/
 633:Generated_Source\PSoC6\pdl\rtos\FreeRTOS\9.0.0\Source/timers.c **** 
 634:Generated_Source\PSoC6\pdl\rtos\FreeRTOS\9.0.0\Source/timers.c **** static TickType_t prvGetNextExpireTime( BaseType_t * const pxListWasEmpty )
 635:Generated_Source\PSoC6\pdl\rtos\FreeRTOS\9.0.0\Source/timers.c **** {
  28              		.loc 1 635 0
  29              		.cfi_startproc
  30              		@ args = 0, pretend = 0, frame = 0
  31              		@ frame_needed = 0, uses_anonymous_args = 0
  32              		@ link register save eliminated.
  33              	.LVL0:
 636:Generated_Source\PSoC6\pdl\rtos\FreeRTOS\9.0.0\Source/timers.c **** TickType_t xNextExpireTime;
 637:Generated_Source\PSoC6\pdl\rtos\FreeRTOS\9.0.0\Source/timers.c **** 
 638:Generated_Source\PSoC6\pdl\rtos\FreeRTOS\9.0.0\Source/timers.c **** 	/* Timers are listed in expiry time order, with the head of the list
 639:Generated_Source\PSoC6\pdl\rtos\FreeRTOS\9.0.0\Source/timers.c **** 	referencing the task that will expire first.  Obtain the time at which
 640:Generated_Source\PSoC6\pdl\rtos\FreeRTOS\9.0.0\Source/timers.c **** 	the timer with the nearest expiry time will expire.  If there are no
 641:Generated_Source\PSoC6\pdl\rtos\FreeRTOS\9.0.0\Source/timers.c **** 	active timers then just set the next expire time to 0.  That will cause
 642:Generated_Source\PSoC6\pdl\rtos\FreeRTOS\9.0.0\Source/timers.c **** 	this task to unblock when the tick count overflows, at which point the
 643:Generated_Source\PSoC6\pdl\rtos\FreeRTOS\9.0.0\Source/timers.c **** 	timer lists will be switched and the next expiry time can be
 644:Generated_Source\PSoC6\pdl\rtos\FreeRTOS\9.0.0\Source/timers.c **** 	re-assessed.  */
 645:Generated_Source\PSoC6\pdl\rtos\FreeRTOS\9.0.0\Source/timers.c **** 	*pxListWasEmpty = listLIST_IS_EMPTY( pxCurrentTimerList );
  34              		.loc 1 645 0
  35 0000 064B     		ldr	r3, .L4
  36 0002 1A68     		ldr	r2, [r3]
  37 0004 1368     		ldr	r3, [r2]
  38 0006 B3FA83F3 		clz	r3, r3
  39 000a 5B09     		lsrs	r3, r3, #5
ARM GAS  C:\Users\codyg\AppData\Local\Temp\ccCwzev2.s 			page 13


  40 000c 0360     		str	r3, [r0]
 646:Generated_Source\PSoC6\pdl\rtos\FreeRTOS\9.0.0\Source/timers.c **** 	if( *pxListWasEmpty == pdFALSE )
  41              		.loc 1 646 0
  42 000e 13B9     		cbnz	r3, .L3
 647:Generated_Source\PSoC6\pdl\rtos\FreeRTOS\9.0.0\Source/timers.c **** 	{
 648:Generated_Source\PSoC6\pdl\rtos\FreeRTOS\9.0.0\Source/timers.c **** 		xNextExpireTime = listGET_ITEM_VALUE_OF_HEAD_ENTRY( pxCurrentTimerList );
  43              		.loc 1 648 0
  44 0010 D368     		ldr	r3, [r2, #12]
  45 0012 1868     		ldr	r0, [r3]
  46              	.LVL1:
  47 0014 7047     		bx	lr
  48              	.LVL2:
  49              	.L3:
 649:Generated_Source\PSoC6\pdl\rtos\FreeRTOS\9.0.0\Source/timers.c **** 	}
 650:Generated_Source\PSoC6\pdl\rtos\FreeRTOS\9.0.0\Source/timers.c **** 	else
 651:Generated_Source\PSoC6\pdl\rtos\FreeRTOS\9.0.0\Source/timers.c **** 	{
 652:Generated_Source\PSoC6\pdl\rtos\FreeRTOS\9.0.0\Source/timers.c **** 		/* Ensure the task unblocks when the tick count rolls over. */
 653:Generated_Source\PSoC6\pdl\rtos\FreeRTOS\9.0.0\Source/timers.c **** 		xNextExpireTime = ( TickType_t ) 0U;
  50              		.loc 1 653 0
  51 0016 0020     		movs	r0, #0
  52              	.LVL3:
 654:Generated_Source\PSoC6\pdl\rtos\FreeRTOS\9.0.0\Source/timers.c **** 	}
 655:Generated_Source\PSoC6\pdl\rtos\FreeRTOS\9.0.0\Source/timers.c **** 
 656:Generated_Source\PSoC6\pdl\rtos\FreeRTOS\9.0.0\Source/timers.c **** 	return xNextExpireTime;
 657:Generated_Source\PSoC6\pdl\rtos\FreeRTOS\9.0.0\Source/timers.c **** }
  53              		.loc 1 657 0
  54 0018 7047     		bx	lr
  55              	.L5:
  56 001a 00BF     		.align	2
  57              	.L4:
  58 001c 00000000 		.word	.LANCHOR0
  59              		.cfi_endproc
  60              	.LFE532:
  61              		.size	prvGetNextExpireTime, .-prvGetNextExpireTime
  62              		.section	.text.prvInsertTimerInActiveList,"ax",%progbits
  63              		.align	2
  64              		.thumb
  65              		.thumb_func
  66              		.type	prvInsertTimerInActiveList, %function
  67              	prvInsertTimerInActiveList:
  68              	.LFB534:
 658:Generated_Source\PSoC6\pdl\rtos\FreeRTOS\9.0.0\Source/timers.c **** /*-----------------------------------------------------------*/
 659:Generated_Source\PSoC6\pdl\rtos\FreeRTOS\9.0.0\Source/timers.c **** 
 660:Generated_Source\PSoC6\pdl\rtos\FreeRTOS\9.0.0\Source/timers.c **** static TickType_t prvSampleTimeNow( BaseType_t * const pxTimerListsWereSwitched )
 661:Generated_Source\PSoC6\pdl\rtos\FreeRTOS\9.0.0\Source/timers.c **** {
 662:Generated_Source\PSoC6\pdl\rtos\FreeRTOS\9.0.0\Source/timers.c **** TickType_t xTimeNow;
 663:Generated_Source\PSoC6\pdl\rtos\FreeRTOS\9.0.0\Source/timers.c **** PRIVILEGED_DATA static TickType_t xLastTime = ( TickType_t ) 0U; /*lint !e956 Variable is only acce
 664:Generated_Source\PSoC6\pdl\rtos\FreeRTOS\9.0.0\Source/timers.c **** 
 665:Generated_Source\PSoC6\pdl\rtos\FreeRTOS\9.0.0\Source/timers.c **** 	xTimeNow = xTaskGetTickCount();
 666:Generated_Source\PSoC6\pdl\rtos\FreeRTOS\9.0.0\Source/timers.c **** 
 667:Generated_Source\PSoC6\pdl\rtos\FreeRTOS\9.0.0\Source/timers.c **** 	if( xTimeNow < xLastTime )
 668:Generated_Source\PSoC6\pdl\rtos\FreeRTOS\9.0.0\Source/timers.c **** 	{
 669:Generated_Source\PSoC6\pdl\rtos\FreeRTOS\9.0.0\Source/timers.c **** 		prvSwitchTimerLists();
 670:Generated_Source\PSoC6\pdl\rtos\FreeRTOS\9.0.0\Source/timers.c **** 		*pxTimerListsWereSwitched = pdTRUE;
 671:Generated_Source\PSoC6\pdl\rtos\FreeRTOS\9.0.0\Source/timers.c **** 	}
 672:Generated_Source\PSoC6\pdl\rtos\FreeRTOS\9.0.0\Source/timers.c **** 	else
 673:Generated_Source\PSoC6\pdl\rtos\FreeRTOS\9.0.0\Source/timers.c **** 	{
ARM GAS  C:\Users\codyg\AppData\Local\Temp\ccCwzev2.s 			page 14


 674:Generated_Source\PSoC6\pdl\rtos\FreeRTOS\9.0.0\Source/timers.c **** 		*pxTimerListsWereSwitched = pdFALSE;
 675:Generated_Source\PSoC6\pdl\rtos\FreeRTOS\9.0.0\Source/timers.c **** 	}
 676:Generated_Source\PSoC6\pdl\rtos\FreeRTOS\9.0.0\Source/timers.c **** 
 677:Generated_Source\PSoC6\pdl\rtos\FreeRTOS\9.0.0\Source/timers.c **** 	xLastTime = xTimeNow;
 678:Generated_Source\PSoC6\pdl\rtos\FreeRTOS\9.0.0\Source/timers.c **** 
 679:Generated_Source\PSoC6\pdl\rtos\FreeRTOS\9.0.0\Source/timers.c **** 	return xTimeNow;
 680:Generated_Source\PSoC6\pdl\rtos\FreeRTOS\9.0.0\Source/timers.c **** }
 681:Generated_Source\PSoC6\pdl\rtos\FreeRTOS\9.0.0\Source/timers.c **** /*-----------------------------------------------------------*/
 682:Generated_Source\PSoC6\pdl\rtos\FreeRTOS\9.0.0\Source/timers.c **** 
 683:Generated_Source\PSoC6\pdl\rtos\FreeRTOS\9.0.0\Source/timers.c **** static BaseType_t prvInsertTimerInActiveList( Timer_t * const pxTimer, const TickType_t xNextExpiry
 684:Generated_Source\PSoC6\pdl\rtos\FreeRTOS\9.0.0\Source/timers.c **** {
  69              		.loc 1 684 0
  70              		.cfi_startproc
  71              		@ args = 0, pretend = 0, frame = 0
  72              		@ frame_needed = 0, uses_anonymous_args = 0
  73              	.LVL4:
  74 0000 08B5     		push	{r3, lr}
  75              		.cfi_def_cfa_offset 8
  76              		.cfi_offset 3, -8
  77              		.cfi_offset 14, -4
  78              	.LVL5:
 685:Generated_Source\PSoC6\pdl\rtos\FreeRTOS\9.0.0\Source/timers.c **** BaseType_t xProcessTimerNow = pdFALSE;
 686:Generated_Source\PSoC6\pdl\rtos\FreeRTOS\9.0.0\Source/timers.c **** 
 687:Generated_Source\PSoC6\pdl\rtos\FreeRTOS\9.0.0\Source/timers.c **** 	listSET_LIST_ITEM_VALUE( &( pxTimer->xTimerListItem ), xNextExpiryTime );
  79              		.loc 1 687 0
  80 0002 4160     		str	r1, [r0, #4]
 688:Generated_Source\PSoC6\pdl\rtos\FreeRTOS\9.0.0\Source/timers.c **** 	listSET_LIST_ITEM_OWNER( &( pxTimer->xTimerListItem ), pxTimer );
  81              		.loc 1 688 0
  82 0004 0061     		str	r0, [r0, #16]
 689:Generated_Source\PSoC6\pdl\rtos\FreeRTOS\9.0.0\Source/timers.c **** 
 690:Generated_Source\PSoC6\pdl\rtos\FreeRTOS\9.0.0\Source/timers.c **** 	if( xNextExpiryTime <= xTimeNow )
  83              		.loc 1 690 0
  84 0006 9142     		cmp	r1, r2
  85 0008 0AD8     		bhi	.L7
 691:Generated_Source\PSoC6\pdl\rtos\FreeRTOS\9.0.0\Source/timers.c **** 	{
 692:Generated_Source\PSoC6\pdl\rtos\FreeRTOS\9.0.0\Source/timers.c **** 		/* Has the expiry time elapsed between the command to start/reset a
 693:Generated_Source\PSoC6\pdl\rtos\FreeRTOS\9.0.0\Source/timers.c **** 		timer was issued, and the time the command was processed? */
 694:Generated_Source\PSoC6\pdl\rtos\FreeRTOS\9.0.0\Source/timers.c **** 		if( ( ( TickType_t ) ( xTimeNow - xCommandTime ) ) >= pxTimer->xTimerPeriodInTicks ) /*lint !e961
  86              		.loc 1 694 0
  87 000a D21A     		subs	r2, r2, r3
  88              	.LVL6:
  89 000c 8369     		ldr	r3, [r0, #24]
  90              	.LVL7:
  91 000e 9A42     		cmp	r2, r3
  92 0010 11D2     		bcs	.L10
 695:Generated_Source\PSoC6\pdl\rtos\FreeRTOS\9.0.0\Source/timers.c **** 		{
 696:Generated_Source\PSoC6\pdl\rtos\FreeRTOS\9.0.0\Source/timers.c **** 			/* The time between a command being issued and the command being
 697:Generated_Source\PSoC6\pdl\rtos\FreeRTOS\9.0.0\Source/timers.c **** 			processed actually exceeds the timers period.  */
 698:Generated_Source\PSoC6\pdl\rtos\FreeRTOS\9.0.0\Source/timers.c **** 			xProcessTimerNow = pdTRUE;
 699:Generated_Source\PSoC6\pdl\rtos\FreeRTOS\9.0.0\Source/timers.c **** 		}
 700:Generated_Source\PSoC6\pdl\rtos\FreeRTOS\9.0.0\Source/timers.c **** 		else
 701:Generated_Source\PSoC6\pdl\rtos\FreeRTOS\9.0.0\Source/timers.c **** 		{
 702:Generated_Source\PSoC6\pdl\rtos\FreeRTOS\9.0.0\Source/timers.c **** 			vListInsert( pxOverflowTimerList, &( pxTimer->xTimerListItem ) );
  93              		.loc 1 702 0
  94 0012 011D     		adds	r1, r0, #4
  95              	.LVL8:
  96 0014 0A4B     		ldr	r3, .L13
ARM GAS  C:\Users\codyg\AppData\Local\Temp\ccCwzev2.s 			page 15


  97 0016 5868     		ldr	r0, [r3, #4]
  98              	.LVL9:
  99 0018 FFF7FEFF 		bl	vListInsert
 100              	.LVL10:
 685:Generated_Source\PSoC6\pdl\rtos\FreeRTOS\9.0.0\Source/timers.c **** 
 101              		.loc 1 685 0
 102 001c 0020     		movs	r0, #0
 103 001e 08BD     		pop	{r3, pc}
 104              	.LVL11:
 105              	.L7:
 703:Generated_Source\PSoC6\pdl\rtos\FreeRTOS\9.0.0\Source/timers.c **** 		}
 704:Generated_Source\PSoC6\pdl\rtos\FreeRTOS\9.0.0\Source/timers.c **** 	}
 705:Generated_Source\PSoC6\pdl\rtos\FreeRTOS\9.0.0\Source/timers.c **** 	else
 706:Generated_Source\PSoC6\pdl\rtos\FreeRTOS\9.0.0\Source/timers.c **** 	{
 707:Generated_Source\PSoC6\pdl\rtos\FreeRTOS\9.0.0\Source/timers.c **** 		if( ( xTimeNow < xCommandTime ) && ( xNextExpiryTime >= xCommandTime ) )
 106              		.loc 1 707 0
 107 0020 9A42     		cmp	r2, r3
 108 0022 01D2     		bcs	.L9
 109              		.loc 1 707 0 is_stmt 0 discriminator 1
 110 0024 9942     		cmp	r1, r3
 111 0026 08D2     		bcs	.L11
 112              	.L9:
 708:Generated_Source\PSoC6\pdl\rtos\FreeRTOS\9.0.0\Source/timers.c **** 		{
 709:Generated_Source\PSoC6\pdl\rtos\FreeRTOS\9.0.0\Source/timers.c **** 			/* If, since the command was issued, the tick count has overflowed
 710:Generated_Source\PSoC6\pdl\rtos\FreeRTOS\9.0.0\Source/timers.c **** 			but the expiry time has not, then the timer must have already passed
 711:Generated_Source\PSoC6\pdl\rtos\FreeRTOS\9.0.0\Source/timers.c **** 			its expiry time and should be processed immediately. */
 712:Generated_Source\PSoC6\pdl\rtos\FreeRTOS\9.0.0\Source/timers.c **** 			xProcessTimerNow = pdTRUE;
 713:Generated_Source\PSoC6\pdl\rtos\FreeRTOS\9.0.0\Source/timers.c **** 		}
 714:Generated_Source\PSoC6\pdl\rtos\FreeRTOS\9.0.0\Source/timers.c **** 		else
 715:Generated_Source\PSoC6\pdl\rtos\FreeRTOS\9.0.0\Source/timers.c **** 		{
 716:Generated_Source\PSoC6\pdl\rtos\FreeRTOS\9.0.0\Source/timers.c **** 			vListInsert( pxCurrentTimerList, &( pxTimer->xTimerListItem ) );
 113              		.loc 1 716 0 is_stmt 1
 114 0028 011D     		adds	r1, r0, #4
 115              	.LVL12:
 116 002a 054B     		ldr	r3, .L13
 117              	.LVL13:
 118 002c 1868     		ldr	r0, [r3]
 119              	.LVL14:
 120 002e FFF7FEFF 		bl	vListInsert
 121              	.LVL15:
 685:Generated_Source\PSoC6\pdl\rtos\FreeRTOS\9.0.0\Source/timers.c **** 
 122              		.loc 1 685 0
 123 0032 0020     		movs	r0, #0
 124 0034 08BD     		pop	{r3, pc}
 125              	.LVL16:
 126              	.L10:
 698:Generated_Source\PSoC6\pdl\rtos\FreeRTOS\9.0.0\Source/timers.c **** 		}
 127              		.loc 1 698 0
 128 0036 0120     		movs	r0, #1
 129              	.LVL17:
 130 0038 08BD     		pop	{r3, pc}
 131              	.LVL18:
 132              	.L11:
 712:Generated_Source\PSoC6\pdl\rtos\FreeRTOS\9.0.0\Source/timers.c **** 		}
 133              		.loc 1 712 0
 134 003a 0120     		movs	r0, #1
 135              	.LVL19:
ARM GAS  C:\Users\codyg\AppData\Local\Temp\ccCwzev2.s 			page 16


 717:Generated_Source\PSoC6\pdl\rtos\FreeRTOS\9.0.0\Source/timers.c **** 		}
 718:Generated_Source\PSoC6\pdl\rtos\FreeRTOS\9.0.0\Source/timers.c **** 	}
 719:Generated_Source\PSoC6\pdl\rtos\FreeRTOS\9.0.0\Source/timers.c **** 
 720:Generated_Source\PSoC6\pdl\rtos\FreeRTOS\9.0.0\Source/timers.c **** 	return xProcessTimerNow;
 721:Generated_Source\PSoC6\pdl\rtos\FreeRTOS\9.0.0\Source/timers.c **** }
 136              		.loc 1 721 0
 137 003c 08BD     		pop	{r3, pc}
 138              	.LVL20:
 139              	.L14:
 140 003e 00BF     		.align	2
 141              	.L13:
 142 0040 00000000 		.word	.LANCHOR0
 143              		.cfi_endproc
 144              	.LFE534:
 145              		.size	prvInsertTimerInActiveList, .-prvInsertTimerInActiveList
 146              		.section	.text.prvCheckForValidListAndQueue,"ax",%progbits
 147              		.align	2
 148              		.thumb
 149              		.thumb_func
 150              		.type	prvCheckForValidListAndQueue, %function
 151              	prvCheckForValidListAndQueue:
 152              	.LFB537:
 722:Generated_Source\PSoC6\pdl\rtos\FreeRTOS\9.0.0\Source/timers.c **** /*-----------------------------------------------------------*/
 723:Generated_Source\PSoC6\pdl\rtos\FreeRTOS\9.0.0\Source/timers.c **** 
 724:Generated_Source\PSoC6\pdl\rtos\FreeRTOS\9.0.0\Source/timers.c **** static void	prvProcessReceivedCommands( void )
 725:Generated_Source\PSoC6\pdl\rtos\FreeRTOS\9.0.0\Source/timers.c **** {
 726:Generated_Source\PSoC6\pdl\rtos\FreeRTOS\9.0.0\Source/timers.c **** DaemonTaskMessage_t xMessage;
 727:Generated_Source\PSoC6\pdl\rtos\FreeRTOS\9.0.0\Source/timers.c **** Timer_t *pxTimer;
 728:Generated_Source\PSoC6\pdl\rtos\FreeRTOS\9.0.0\Source/timers.c **** BaseType_t xTimerListsWereSwitched, xResult;
 729:Generated_Source\PSoC6\pdl\rtos\FreeRTOS\9.0.0\Source/timers.c **** TickType_t xTimeNow;
 730:Generated_Source\PSoC6\pdl\rtos\FreeRTOS\9.0.0\Source/timers.c **** 
 731:Generated_Source\PSoC6\pdl\rtos\FreeRTOS\9.0.0\Source/timers.c **** 	while( xQueueReceive( xTimerQueue, &xMessage, tmrNO_DELAY ) != pdFAIL ) /*lint !e603 xMessage does
 732:Generated_Source\PSoC6\pdl\rtos\FreeRTOS\9.0.0\Source/timers.c **** 	{
 733:Generated_Source\PSoC6\pdl\rtos\FreeRTOS\9.0.0\Source/timers.c **** 		#if ( INCLUDE_xTimerPendFunctionCall == 1 )
 734:Generated_Source\PSoC6\pdl\rtos\FreeRTOS\9.0.0\Source/timers.c **** 		{
 735:Generated_Source\PSoC6\pdl\rtos\FreeRTOS\9.0.0\Source/timers.c **** 			/* Negative commands are pended function calls rather than timer
 736:Generated_Source\PSoC6\pdl\rtos\FreeRTOS\9.0.0\Source/timers.c **** 			commands. */
 737:Generated_Source\PSoC6\pdl\rtos\FreeRTOS\9.0.0\Source/timers.c **** 			if( xMessage.xMessageID < ( BaseType_t ) 0 )
 738:Generated_Source\PSoC6\pdl\rtos\FreeRTOS\9.0.0\Source/timers.c **** 			{
 739:Generated_Source\PSoC6\pdl\rtos\FreeRTOS\9.0.0\Source/timers.c **** 				const CallbackParameters_t * const pxCallback = &( xMessage.u.xCallbackParameters );
 740:Generated_Source\PSoC6\pdl\rtos\FreeRTOS\9.0.0\Source/timers.c **** 
 741:Generated_Source\PSoC6\pdl\rtos\FreeRTOS\9.0.0\Source/timers.c **** 				/* The timer uses the xCallbackParameters member to request a
 742:Generated_Source\PSoC6\pdl\rtos\FreeRTOS\9.0.0\Source/timers.c **** 				callback be executed.  Check the callback is not NULL. */
 743:Generated_Source\PSoC6\pdl\rtos\FreeRTOS\9.0.0\Source/timers.c **** 				configASSERT( pxCallback );
 744:Generated_Source\PSoC6\pdl\rtos\FreeRTOS\9.0.0\Source/timers.c **** 
 745:Generated_Source\PSoC6\pdl\rtos\FreeRTOS\9.0.0\Source/timers.c **** 				/* Call the function. */
 746:Generated_Source\PSoC6\pdl\rtos\FreeRTOS\9.0.0\Source/timers.c **** 				pxCallback->pxCallbackFunction( pxCallback->pvParameter1, pxCallback->ulParameter2 );
 747:Generated_Source\PSoC6\pdl\rtos\FreeRTOS\9.0.0\Source/timers.c **** 			}
 748:Generated_Source\PSoC6\pdl\rtos\FreeRTOS\9.0.0\Source/timers.c **** 			else
 749:Generated_Source\PSoC6\pdl\rtos\FreeRTOS\9.0.0\Source/timers.c **** 			{
 750:Generated_Source\PSoC6\pdl\rtos\FreeRTOS\9.0.0\Source/timers.c **** 				mtCOVERAGE_TEST_MARKER();
 751:Generated_Source\PSoC6\pdl\rtos\FreeRTOS\9.0.0\Source/timers.c **** 			}
 752:Generated_Source\PSoC6\pdl\rtos\FreeRTOS\9.0.0\Source/timers.c **** 		}
 753:Generated_Source\PSoC6\pdl\rtos\FreeRTOS\9.0.0\Source/timers.c **** 		#endif /* INCLUDE_xTimerPendFunctionCall */
 754:Generated_Source\PSoC6\pdl\rtos\FreeRTOS\9.0.0\Source/timers.c **** 
 755:Generated_Source\PSoC6\pdl\rtos\FreeRTOS\9.0.0\Source/timers.c **** 		/* Commands that are positive are timer commands rather than pended
 756:Generated_Source\PSoC6\pdl\rtos\FreeRTOS\9.0.0\Source/timers.c **** 		function calls. */
ARM GAS  C:\Users\codyg\AppData\Local\Temp\ccCwzev2.s 			page 17


 757:Generated_Source\PSoC6\pdl\rtos\FreeRTOS\9.0.0\Source/timers.c **** 		if( xMessage.xMessageID >= ( BaseType_t ) 0 )
 758:Generated_Source\PSoC6\pdl\rtos\FreeRTOS\9.0.0\Source/timers.c **** 		{
 759:Generated_Source\PSoC6\pdl\rtos\FreeRTOS\9.0.0\Source/timers.c **** 			/* The messages uses the xTimerParameters member to work on a
 760:Generated_Source\PSoC6\pdl\rtos\FreeRTOS\9.0.0\Source/timers.c **** 			software timer. */
 761:Generated_Source\PSoC6\pdl\rtos\FreeRTOS\9.0.0\Source/timers.c **** 			pxTimer = xMessage.u.xTimerParameters.pxTimer;
 762:Generated_Source\PSoC6\pdl\rtos\FreeRTOS\9.0.0\Source/timers.c **** 
 763:Generated_Source\PSoC6\pdl\rtos\FreeRTOS\9.0.0\Source/timers.c **** 			if( listIS_CONTAINED_WITHIN( NULL, &( pxTimer->xTimerListItem ) ) == pdFALSE )
 764:Generated_Source\PSoC6\pdl\rtos\FreeRTOS\9.0.0\Source/timers.c **** 			{
 765:Generated_Source\PSoC6\pdl\rtos\FreeRTOS\9.0.0\Source/timers.c **** 				/* The timer is in a list, remove it. */
 766:Generated_Source\PSoC6\pdl\rtos\FreeRTOS\9.0.0\Source/timers.c **** 				( void ) uxListRemove( &( pxTimer->xTimerListItem ) );
 767:Generated_Source\PSoC6\pdl\rtos\FreeRTOS\9.0.0\Source/timers.c **** 			}
 768:Generated_Source\PSoC6\pdl\rtos\FreeRTOS\9.0.0\Source/timers.c **** 			else
 769:Generated_Source\PSoC6\pdl\rtos\FreeRTOS\9.0.0\Source/timers.c **** 			{
 770:Generated_Source\PSoC6\pdl\rtos\FreeRTOS\9.0.0\Source/timers.c **** 				mtCOVERAGE_TEST_MARKER();
 771:Generated_Source\PSoC6\pdl\rtos\FreeRTOS\9.0.0\Source/timers.c **** 			}
 772:Generated_Source\PSoC6\pdl\rtos\FreeRTOS\9.0.0\Source/timers.c **** 
 773:Generated_Source\PSoC6\pdl\rtos\FreeRTOS\9.0.0\Source/timers.c **** 			traceTIMER_COMMAND_RECEIVED( pxTimer, xMessage.xMessageID, xMessage.u.xTimerParameters.xMessageV
 774:Generated_Source\PSoC6\pdl\rtos\FreeRTOS\9.0.0\Source/timers.c **** 
 775:Generated_Source\PSoC6\pdl\rtos\FreeRTOS\9.0.0\Source/timers.c **** 			/* In this case the xTimerListsWereSwitched parameter is not used, but
 776:Generated_Source\PSoC6\pdl\rtos\FreeRTOS\9.0.0\Source/timers.c **** 			it must be present in the function call.  prvSampleTimeNow() must be
 777:Generated_Source\PSoC6\pdl\rtos\FreeRTOS\9.0.0\Source/timers.c **** 			called after the message is received from xTimerQueue so there is no
 778:Generated_Source\PSoC6\pdl\rtos\FreeRTOS\9.0.0\Source/timers.c **** 			possibility of a higher priority task adding a message to the message
 779:Generated_Source\PSoC6\pdl\rtos\FreeRTOS\9.0.0\Source/timers.c **** 			queue with a time that is ahead of the timer daemon task (because it
 780:Generated_Source\PSoC6\pdl\rtos\FreeRTOS\9.0.0\Source/timers.c **** 			pre-empted the timer daemon task after the xTimeNow value was set). */
 781:Generated_Source\PSoC6\pdl\rtos\FreeRTOS\9.0.0\Source/timers.c **** 			xTimeNow = prvSampleTimeNow( &xTimerListsWereSwitched );
 782:Generated_Source\PSoC6\pdl\rtos\FreeRTOS\9.0.0\Source/timers.c **** 
 783:Generated_Source\PSoC6\pdl\rtos\FreeRTOS\9.0.0\Source/timers.c **** 			switch( xMessage.xMessageID )
 784:Generated_Source\PSoC6\pdl\rtos\FreeRTOS\9.0.0\Source/timers.c **** 			{
 785:Generated_Source\PSoC6\pdl\rtos\FreeRTOS\9.0.0\Source/timers.c **** 				case tmrCOMMAND_START :
 786:Generated_Source\PSoC6\pdl\rtos\FreeRTOS\9.0.0\Source/timers.c **** 			    case tmrCOMMAND_START_FROM_ISR :
 787:Generated_Source\PSoC6\pdl\rtos\FreeRTOS\9.0.0\Source/timers.c **** 			    case tmrCOMMAND_RESET :
 788:Generated_Source\PSoC6\pdl\rtos\FreeRTOS\9.0.0\Source/timers.c **** 			    case tmrCOMMAND_RESET_FROM_ISR :
 789:Generated_Source\PSoC6\pdl\rtos\FreeRTOS\9.0.0\Source/timers.c **** 				case tmrCOMMAND_START_DONT_TRACE :
 790:Generated_Source\PSoC6\pdl\rtos\FreeRTOS\9.0.0\Source/timers.c **** 					/* Start or restart a timer. */
 791:Generated_Source\PSoC6\pdl\rtos\FreeRTOS\9.0.0\Source/timers.c **** 					if( prvInsertTimerInActiveList( pxTimer,  xMessage.u.xTimerParameters.xMessageValue + pxTimer-
 792:Generated_Source\PSoC6\pdl\rtos\FreeRTOS\9.0.0\Source/timers.c **** 					{
 793:Generated_Source\PSoC6\pdl\rtos\FreeRTOS\9.0.0\Source/timers.c **** 						/* The timer expired before it was added to the active
 794:Generated_Source\PSoC6\pdl\rtos\FreeRTOS\9.0.0\Source/timers.c **** 						timer list.  Process it now. */
 795:Generated_Source\PSoC6\pdl\rtos\FreeRTOS\9.0.0\Source/timers.c **** 						pxTimer->pxCallbackFunction( ( TimerHandle_t ) pxTimer );
 796:Generated_Source\PSoC6\pdl\rtos\FreeRTOS\9.0.0\Source/timers.c **** 						traceTIMER_EXPIRED( pxTimer );
 797:Generated_Source\PSoC6\pdl\rtos\FreeRTOS\9.0.0\Source/timers.c **** 
 798:Generated_Source\PSoC6\pdl\rtos\FreeRTOS\9.0.0\Source/timers.c **** 						if( pxTimer->uxAutoReload == ( UBaseType_t ) pdTRUE )
 799:Generated_Source\PSoC6\pdl\rtos\FreeRTOS\9.0.0\Source/timers.c **** 						{
 800:Generated_Source\PSoC6\pdl\rtos\FreeRTOS\9.0.0\Source/timers.c **** 							xResult = xTimerGenericCommand( pxTimer, tmrCOMMAND_START_DONT_TRACE, xMessage.u.xTimerParam
 801:Generated_Source\PSoC6\pdl\rtos\FreeRTOS\9.0.0\Source/timers.c **** 							configASSERT( xResult );
 802:Generated_Source\PSoC6\pdl\rtos\FreeRTOS\9.0.0\Source/timers.c **** 							( void ) xResult;
 803:Generated_Source\PSoC6\pdl\rtos\FreeRTOS\9.0.0\Source/timers.c **** 						}
 804:Generated_Source\PSoC6\pdl\rtos\FreeRTOS\9.0.0\Source/timers.c **** 						else
 805:Generated_Source\PSoC6\pdl\rtos\FreeRTOS\9.0.0\Source/timers.c **** 						{
 806:Generated_Source\PSoC6\pdl\rtos\FreeRTOS\9.0.0\Source/timers.c **** 							mtCOVERAGE_TEST_MARKER();
 807:Generated_Source\PSoC6\pdl\rtos\FreeRTOS\9.0.0\Source/timers.c **** 						}
 808:Generated_Source\PSoC6\pdl\rtos\FreeRTOS\9.0.0\Source/timers.c **** 					}
 809:Generated_Source\PSoC6\pdl\rtos\FreeRTOS\9.0.0\Source/timers.c **** 					else
 810:Generated_Source\PSoC6\pdl\rtos\FreeRTOS\9.0.0\Source/timers.c **** 					{
 811:Generated_Source\PSoC6\pdl\rtos\FreeRTOS\9.0.0\Source/timers.c **** 						mtCOVERAGE_TEST_MARKER();
 812:Generated_Source\PSoC6\pdl\rtos\FreeRTOS\9.0.0\Source/timers.c **** 					}
 813:Generated_Source\PSoC6\pdl\rtos\FreeRTOS\9.0.0\Source/timers.c **** 					break;
ARM GAS  C:\Users\codyg\AppData\Local\Temp\ccCwzev2.s 			page 18


 814:Generated_Source\PSoC6\pdl\rtos\FreeRTOS\9.0.0\Source/timers.c **** 
 815:Generated_Source\PSoC6\pdl\rtos\FreeRTOS\9.0.0\Source/timers.c **** 				case tmrCOMMAND_STOP :
 816:Generated_Source\PSoC6\pdl\rtos\FreeRTOS\9.0.0\Source/timers.c **** 				case tmrCOMMAND_STOP_FROM_ISR :
 817:Generated_Source\PSoC6\pdl\rtos\FreeRTOS\9.0.0\Source/timers.c **** 					/* The timer has already been removed from the active list.
 818:Generated_Source\PSoC6\pdl\rtos\FreeRTOS\9.0.0\Source/timers.c **** 					There is nothing to do here. */
 819:Generated_Source\PSoC6\pdl\rtos\FreeRTOS\9.0.0\Source/timers.c **** 					break;
 820:Generated_Source\PSoC6\pdl\rtos\FreeRTOS\9.0.0\Source/timers.c **** 
 821:Generated_Source\PSoC6\pdl\rtos\FreeRTOS\9.0.0\Source/timers.c **** 				case tmrCOMMAND_CHANGE_PERIOD :
 822:Generated_Source\PSoC6\pdl\rtos\FreeRTOS\9.0.0\Source/timers.c **** 				case tmrCOMMAND_CHANGE_PERIOD_FROM_ISR :
 823:Generated_Source\PSoC6\pdl\rtos\FreeRTOS\9.0.0\Source/timers.c **** 					pxTimer->xTimerPeriodInTicks = xMessage.u.xTimerParameters.xMessageValue;
 824:Generated_Source\PSoC6\pdl\rtos\FreeRTOS\9.0.0\Source/timers.c **** 					configASSERT( ( pxTimer->xTimerPeriodInTicks > 0 ) );
 825:Generated_Source\PSoC6\pdl\rtos\FreeRTOS\9.0.0\Source/timers.c **** 
 826:Generated_Source\PSoC6\pdl\rtos\FreeRTOS\9.0.0\Source/timers.c **** 					/* The new period does not really have a reference, and can
 827:Generated_Source\PSoC6\pdl\rtos\FreeRTOS\9.0.0\Source/timers.c **** 					be longer or shorter than the old one.  The command time is
 828:Generated_Source\PSoC6\pdl\rtos\FreeRTOS\9.0.0\Source/timers.c **** 					therefore set to the current time, and as the period cannot
 829:Generated_Source\PSoC6\pdl\rtos\FreeRTOS\9.0.0\Source/timers.c **** 					be zero the next expiry time can only be in the future,
 830:Generated_Source\PSoC6\pdl\rtos\FreeRTOS\9.0.0\Source/timers.c **** 					meaning (unlike for the xTimerStart() case above) there is
 831:Generated_Source\PSoC6\pdl\rtos\FreeRTOS\9.0.0\Source/timers.c **** 					no fail case that needs to be handled here. */
 832:Generated_Source\PSoC6\pdl\rtos\FreeRTOS\9.0.0\Source/timers.c **** 					( void ) prvInsertTimerInActiveList( pxTimer, ( xTimeNow + pxTimer->xTimerPeriodInTicks ), xTi
 833:Generated_Source\PSoC6\pdl\rtos\FreeRTOS\9.0.0\Source/timers.c **** 					break;
 834:Generated_Source\PSoC6\pdl\rtos\FreeRTOS\9.0.0\Source/timers.c **** 
 835:Generated_Source\PSoC6\pdl\rtos\FreeRTOS\9.0.0\Source/timers.c **** 				case tmrCOMMAND_DELETE :
 836:Generated_Source\PSoC6\pdl\rtos\FreeRTOS\9.0.0\Source/timers.c **** 					/* The timer has already been removed from the active list,
 837:Generated_Source\PSoC6\pdl\rtos\FreeRTOS\9.0.0\Source/timers.c **** 					just free up the memory if the memory was dynamically
 838:Generated_Source\PSoC6\pdl\rtos\FreeRTOS\9.0.0\Source/timers.c **** 					allocated. */
 839:Generated_Source\PSoC6\pdl\rtos\FreeRTOS\9.0.0\Source/timers.c **** 					#if( ( configSUPPORT_DYNAMIC_ALLOCATION == 1 ) && ( configSUPPORT_STATIC_ALLOCATION == 0 ) )
 840:Generated_Source\PSoC6\pdl\rtos\FreeRTOS\9.0.0\Source/timers.c **** 					{
 841:Generated_Source\PSoC6\pdl\rtos\FreeRTOS\9.0.0\Source/timers.c **** 						/* The timer can only have been allocated dynamically -
 842:Generated_Source\PSoC6\pdl\rtos\FreeRTOS\9.0.0\Source/timers.c **** 						free it again. */
 843:Generated_Source\PSoC6\pdl\rtos\FreeRTOS\9.0.0\Source/timers.c **** 						vPortFree( pxTimer );
 844:Generated_Source\PSoC6\pdl\rtos\FreeRTOS\9.0.0\Source/timers.c **** 					}
 845:Generated_Source\PSoC6\pdl\rtos\FreeRTOS\9.0.0\Source/timers.c **** 					#elif( ( configSUPPORT_DYNAMIC_ALLOCATION == 1 ) && ( configSUPPORT_STATIC_ALLOCATION == 1 ) )
 846:Generated_Source\PSoC6\pdl\rtos\FreeRTOS\9.0.0\Source/timers.c **** 					{
 847:Generated_Source\PSoC6\pdl\rtos\FreeRTOS\9.0.0\Source/timers.c **** 						/* The timer could have been allocated statically or
 848:Generated_Source\PSoC6\pdl\rtos\FreeRTOS\9.0.0\Source/timers.c **** 						dynamically, so check before attempting to free the
 849:Generated_Source\PSoC6\pdl\rtos\FreeRTOS\9.0.0\Source/timers.c **** 						memory. */
 850:Generated_Source\PSoC6\pdl\rtos\FreeRTOS\9.0.0\Source/timers.c **** 						if( pxTimer->ucStaticallyAllocated == ( uint8_t ) pdFALSE )
 851:Generated_Source\PSoC6\pdl\rtos\FreeRTOS\9.0.0\Source/timers.c **** 						{
 852:Generated_Source\PSoC6\pdl\rtos\FreeRTOS\9.0.0\Source/timers.c **** 							vPortFree( pxTimer );
 853:Generated_Source\PSoC6\pdl\rtos\FreeRTOS\9.0.0\Source/timers.c **** 						}
 854:Generated_Source\PSoC6\pdl\rtos\FreeRTOS\9.0.0\Source/timers.c **** 						else
 855:Generated_Source\PSoC6\pdl\rtos\FreeRTOS\9.0.0\Source/timers.c **** 						{
 856:Generated_Source\PSoC6\pdl\rtos\FreeRTOS\9.0.0\Source/timers.c **** 							mtCOVERAGE_TEST_MARKER();
 857:Generated_Source\PSoC6\pdl\rtos\FreeRTOS\9.0.0\Source/timers.c **** 						}
 858:Generated_Source\PSoC6\pdl\rtos\FreeRTOS\9.0.0\Source/timers.c **** 					}
 859:Generated_Source\PSoC6\pdl\rtos\FreeRTOS\9.0.0\Source/timers.c **** 					#endif /* configSUPPORT_DYNAMIC_ALLOCATION */
 860:Generated_Source\PSoC6\pdl\rtos\FreeRTOS\9.0.0\Source/timers.c **** 					break;
 861:Generated_Source\PSoC6\pdl\rtos\FreeRTOS\9.0.0\Source/timers.c **** 
 862:Generated_Source\PSoC6\pdl\rtos\FreeRTOS\9.0.0\Source/timers.c **** 				default	:
 863:Generated_Source\PSoC6\pdl\rtos\FreeRTOS\9.0.0\Source/timers.c **** 					/* Don't expect to get here. */
 864:Generated_Source\PSoC6\pdl\rtos\FreeRTOS\9.0.0\Source/timers.c **** 					break;
 865:Generated_Source\PSoC6\pdl\rtos\FreeRTOS\9.0.0\Source/timers.c **** 			}
 866:Generated_Source\PSoC6\pdl\rtos\FreeRTOS\9.0.0\Source/timers.c **** 		}
 867:Generated_Source\PSoC6\pdl\rtos\FreeRTOS\9.0.0\Source/timers.c **** 	}
 868:Generated_Source\PSoC6\pdl\rtos\FreeRTOS\9.0.0\Source/timers.c **** }
 869:Generated_Source\PSoC6\pdl\rtos\FreeRTOS\9.0.0\Source/timers.c **** /*-----------------------------------------------------------*/
 870:Generated_Source\PSoC6\pdl\rtos\FreeRTOS\9.0.0\Source/timers.c **** 
ARM GAS  C:\Users\codyg\AppData\Local\Temp\ccCwzev2.s 			page 19


 871:Generated_Source\PSoC6\pdl\rtos\FreeRTOS\9.0.0\Source/timers.c **** static void prvSwitchTimerLists( void )
 872:Generated_Source\PSoC6\pdl\rtos\FreeRTOS\9.0.0\Source/timers.c **** {
 873:Generated_Source\PSoC6\pdl\rtos\FreeRTOS\9.0.0\Source/timers.c **** TickType_t xNextExpireTime, xReloadTime;
 874:Generated_Source\PSoC6\pdl\rtos\FreeRTOS\9.0.0\Source/timers.c **** List_t *pxTemp;
 875:Generated_Source\PSoC6\pdl\rtos\FreeRTOS\9.0.0\Source/timers.c **** Timer_t *pxTimer;
 876:Generated_Source\PSoC6\pdl\rtos\FreeRTOS\9.0.0\Source/timers.c **** BaseType_t xResult;
 877:Generated_Source\PSoC6\pdl\rtos\FreeRTOS\9.0.0\Source/timers.c **** 
 878:Generated_Source\PSoC6\pdl\rtos\FreeRTOS\9.0.0\Source/timers.c **** 	/* The tick count has overflowed.  The timer lists must be switched.
 879:Generated_Source\PSoC6\pdl\rtos\FreeRTOS\9.0.0\Source/timers.c **** 	If there are any timers still referenced from the current timer list
 880:Generated_Source\PSoC6\pdl\rtos\FreeRTOS\9.0.0\Source/timers.c **** 	then they must have expired and should be processed before the lists
 881:Generated_Source\PSoC6\pdl\rtos\FreeRTOS\9.0.0\Source/timers.c **** 	are switched. */
 882:Generated_Source\PSoC6\pdl\rtos\FreeRTOS\9.0.0\Source/timers.c **** 	while( listLIST_IS_EMPTY( pxCurrentTimerList ) == pdFALSE )
 883:Generated_Source\PSoC6\pdl\rtos\FreeRTOS\9.0.0\Source/timers.c **** 	{
 884:Generated_Source\PSoC6\pdl\rtos\FreeRTOS\9.0.0\Source/timers.c **** 		xNextExpireTime = listGET_ITEM_VALUE_OF_HEAD_ENTRY( pxCurrentTimerList );
 885:Generated_Source\PSoC6\pdl\rtos\FreeRTOS\9.0.0\Source/timers.c **** 
 886:Generated_Source\PSoC6\pdl\rtos\FreeRTOS\9.0.0\Source/timers.c **** 		/* Remove the timer from the list. */
 887:Generated_Source\PSoC6\pdl\rtos\FreeRTOS\9.0.0\Source/timers.c **** 		pxTimer = ( Timer_t * ) listGET_OWNER_OF_HEAD_ENTRY( pxCurrentTimerList );
 888:Generated_Source\PSoC6\pdl\rtos\FreeRTOS\9.0.0\Source/timers.c **** 		( void ) uxListRemove( &( pxTimer->xTimerListItem ) );
 889:Generated_Source\PSoC6\pdl\rtos\FreeRTOS\9.0.0\Source/timers.c **** 		traceTIMER_EXPIRED( pxTimer );
 890:Generated_Source\PSoC6\pdl\rtos\FreeRTOS\9.0.0\Source/timers.c **** 
 891:Generated_Source\PSoC6\pdl\rtos\FreeRTOS\9.0.0\Source/timers.c **** 		/* Execute its callback, then send a command to restart the timer if
 892:Generated_Source\PSoC6\pdl\rtos\FreeRTOS\9.0.0\Source/timers.c **** 		it is an auto-reload timer.  It cannot be restarted here as the lists
 893:Generated_Source\PSoC6\pdl\rtos\FreeRTOS\9.0.0\Source/timers.c **** 		have not yet been switched. */
 894:Generated_Source\PSoC6\pdl\rtos\FreeRTOS\9.0.0\Source/timers.c **** 		pxTimer->pxCallbackFunction( ( TimerHandle_t ) pxTimer );
 895:Generated_Source\PSoC6\pdl\rtos\FreeRTOS\9.0.0\Source/timers.c **** 
 896:Generated_Source\PSoC6\pdl\rtos\FreeRTOS\9.0.0\Source/timers.c **** 		if( pxTimer->uxAutoReload == ( UBaseType_t ) pdTRUE )
 897:Generated_Source\PSoC6\pdl\rtos\FreeRTOS\9.0.0\Source/timers.c **** 		{
 898:Generated_Source\PSoC6\pdl\rtos\FreeRTOS\9.0.0\Source/timers.c **** 			/* Calculate the reload value, and if the reload value results in
 899:Generated_Source\PSoC6\pdl\rtos\FreeRTOS\9.0.0\Source/timers.c **** 			the timer going into the same timer list then it has already expired
 900:Generated_Source\PSoC6\pdl\rtos\FreeRTOS\9.0.0\Source/timers.c **** 			and the timer should be re-inserted into the current list so it is
 901:Generated_Source\PSoC6\pdl\rtos\FreeRTOS\9.0.0\Source/timers.c **** 			processed again within this loop.  Otherwise a command should be sent
 902:Generated_Source\PSoC6\pdl\rtos\FreeRTOS\9.0.0\Source/timers.c **** 			to restart the timer to ensure it is only inserted into a list after
 903:Generated_Source\PSoC6\pdl\rtos\FreeRTOS\9.0.0\Source/timers.c **** 			the lists have been swapped. */
 904:Generated_Source\PSoC6\pdl\rtos\FreeRTOS\9.0.0\Source/timers.c **** 			xReloadTime = ( xNextExpireTime + pxTimer->xTimerPeriodInTicks );
 905:Generated_Source\PSoC6\pdl\rtos\FreeRTOS\9.0.0\Source/timers.c **** 			if( xReloadTime > xNextExpireTime )
 906:Generated_Source\PSoC6\pdl\rtos\FreeRTOS\9.0.0\Source/timers.c **** 			{
 907:Generated_Source\PSoC6\pdl\rtos\FreeRTOS\9.0.0\Source/timers.c **** 				listSET_LIST_ITEM_VALUE( &( pxTimer->xTimerListItem ), xReloadTime );
 908:Generated_Source\PSoC6\pdl\rtos\FreeRTOS\9.0.0\Source/timers.c **** 				listSET_LIST_ITEM_OWNER( &( pxTimer->xTimerListItem ), pxTimer );
 909:Generated_Source\PSoC6\pdl\rtos\FreeRTOS\9.0.0\Source/timers.c **** 				vListInsert( pxCurrentTimerList, &( pxTimer->xTimerListItem ) );
 910:Generated_Source\PSoC6\pdl\rtos\FreeRTOS\9.0.0\Source/timers.c **** 			}
 911:Generated_Source\PSoC6\pdl\rtos\FreeRTOS\9.0.0\Source/timers.c **** 			else
 912:Generated_Source\PSoC6\pdl\rtos\FreeRTOS\9.0.0\Source/timers.c **** 			{
 913:Generated_Source\PSoC6\pdl\rtos\FreeRTOS\9.0.0\Source/timers.c **** 				xResult = xTimerGenericCommand( pxTimer, tmrCOMMAND_START_DONT_TRACE, xNextExpireTime, NULL, tm
 914:Generated_Source\PSoC6\pdl\rtos\FreeRTOS\9.0.0\Source/timers.c **** 				configASSERT( xResult );
 915:Generated_Source\PSoC6\pdl\rtos\FreeRTOS\9.0.0\Source/timers.c **** 				( void ) xResult;
 916:Generated_Source\PSoC6\pdl\rtos\FreeRTOS\9.0.0\Source/timers.c **** 			}
 917:Generated_Source\PSoC6\pdl\rtos\FreeRTOS\9.0.0\Source/timers.c **** 		}
 918:Generated_Source\PSoC6\pdl\rtos\FreeRTOS\9.0.0\Source/timers.c **** 		else
 919:Generated_Source\PSoC6\pdl\rtos\FreeRTOS\9.0.0\Source/timers.c **** 		{
 920:Generated_Source\PSoC6\pdl\rtos\FreeRTOS\9.0.0\Source/timers.c **** 			mtCOVERAGE_TEST_MARKER();
 921:Generated_Source\PSoC6\pdl\rtos\FreeRTOS\9.0.0\Source/timers.c **** 		}
 922:Generated_Source\PSoC6\pdl\rtos\FreeRTOS\9.0.0\Source/timers.c **** 	}
 923:Generated_Source\PSoC6\pdl\rtos\FreeRTOS\9.0.0\Source/timers.c **** 
 924:Generated_Source\PSoC6\pdl\rtos\FreeRTOS\9.0.0\Source/timers.c **** 	pxTemp = pxCurrentTimerList;
 925:Generated_Source\PSoC6\pdl\rtos\FreeRTOS\9.0.0\Source/timers.c **** 	pxCurrentTimerList = pxOverflowTimerList;
 926:Generated_Source\PSoC6\pdl\rtos\FreeRTOS\9.0.0\Source/timers.c **** 	pxOverflowTimerList = pxTemp;
 927:Generated_Source\PSoC6\pdl\rtos\FreeRTOS\9.0.0\Source/timers.c **** }
ARM GAS  C:\Users\codyg\AppData\Local\Temp\ccCwzev2.s 			page 20


 928:Generated_Source\PSoC6\pdl\rtos\FreeRTOS\9.0.0\Source/timers.c **** /*-----------------------------------------------------------*/
 929:Generated_Source\PSoC6\pdl\rtos\FreeRTOS\9.0.0\Source/timers.c **** 
 930:Generated_Source\PSoC6\pdl\rtos\FreeRTOS\9.0.0\Source/timers.c **** static void prvCheckForValidListAndQueue( void )
 931:Generated_Source\PSoC6\pdl\rtos\FreeRTOS\9.0.0\Source/timers.c **** {
 153              		.loc 1 931 0
 154              		.cfi_startproc
 155              		@ args = 0, pretend = 0, frame = 0
 156              		@ frame_needed = 0, uses_anonymous_args = 0
 157 0000 70B5     		push	{r4, r5, r6, lr}
 158              		.cfi_def_cfa_offset 16
 159              		.cfi_offset 4, -16
 160              		.cfi_offset 5, -12
 161              		.cfi_offset 6, -8
 162              		.cfi_offset 14, -4
 932:Generated_Source\PSoC6\pdl\rtos\FreeRTOS\9.0.0\Source/timers.c **** 	/* Check that the list from which active timers are referenced, and the
 933:Generated_Source\PSoC6\pdl\rtos\FreeRTOS\9.0.0\Source/timers.c **** 	queue used to communicate with the timer service, have been
 934:Generated_Source\PSoC6\pdl\rtos\FreeRTOS\9.0.0\Source/timers.c **** 	initialised. */
 935:Generated_Source\PSoC6\pdl\rtos\FreeRTOS\9.0.0\Source/timers.c **** 	taskENTER_CRITICAL();
 163              		.loc 1 935 0
 164 0002 FFF7FEFF 		bl	vPortEnterCritical
 165              	.LVL21:
 936:Generated_Source\PSoC6\pdl\rtos\FreeRTOS\9.0.0\Source/timers.c **** 	{
 937:Generated_Source\PSoC6\pdl\rtos\FreeRTOS\9.0.0\Source/timers.c **** 		if( xTimerQueue == NULL )
 166              		.loc 1 937 0
 167 0006 0E4B     		ldr	r3, .L18
 168 0008 9B68     		ldr	r3, [r3, #8]
 169 000a B3B9     		cbnz	r3, .L16
 938:Generated_Source\PSoC6\pdl\rtos\FreeRTOS\9.0.0\Source/timers.c **** 		{
 939:Generated_Source\PSoC6\pdl\rtos\FreeRTOS\9.0.0\Source/timers.c **** 			vListInitialise( &xActiveTimerList1 );
 170              		.loc 1 939 0
 171 000c 0C4C     		ldr	r4, .L18
 172 000e 04F10C06 		add	r6, r4, #12
 173 0012 3046     		mov	r0, r6
 174 0014 FFF7FEFF 		bl	vListInitialise
 175              	.LVL22:
 940:Generated_Source\PSoC6\pdl\rtos\FreeRTOS\9.0.0\Source/timers.c **** 			vListInitialise( &xActiveTimerList2 );
 176              		.loc 1 940 0
 177 0018 04F12005 		add	r5, r4, #32
 178 001c 2846     		mov	r0, r5
 179 001e FFF7FEFF 		bl	vListInitialise
 180              	.LVL23:
 941:Generated_Source\PSoC6\pdl\rtos\FreeRTOS\9.0.0\Source/timers.c **** 			pxCurrentTimerList = &xActiveTimerList1;
 181              		.loc 1 941 0
 182 0022 2660     		str	r6, [r4]
 942:Generated_Source\PSoC6\pdl\rtos\FreeRTOS\9.0.0\Source/timers.c **** 			pxOverflowTimerList = &xActiveTimerList2;
 183              		.loc 1 942 0
 184 0024 6560     		str	r5, [r4, #4]
 943:Generated_Source\PSoC6\pdl\rtos\FreeRTOS\9.0.0\Source/timers.c **** 
 944:Generated_Source\PSoC6\pdl\rtos\FreeRTOS\9.0.0\Source/timers.c **** 			#if( configSUPPORT_STATIC_ALLOCATION == 1 )
 945:Generated_Source\PSoC6\pdl\rtos\FreeRTOS\9.0.0\Source/timers.c **** 			{
 946:Generated_Source\PSoC6\pdl\rtos\FreeRTOS\9.0.0\Source/timers.c **** 				/* The timer queue is allocated statically in case
 947:Generated_Source\PSoC6\pdl\rtos\FreeRTOS\9.0.0\Source/timers.c **** 				configSUPPORT_DYNAMIC_ALLOCATION is 0. */
 948:Generated_Source\PSoC6\pdl\rtos\FreeRTOS\9.0.0\Source/timers.c **** 				static StaticQueue_t xStaticTimerQueue;
 949:Generated_Source\PSoC6\pdl\rtos\FreeRTOS\9.0.0\Source/timers.c **** 				static uint8_t ucStaticTimerQueueStorage[ configTIMER_QUEUE_LENGTH * sizeof( DaemonTaskMessage_
 950:Generated_Source\PSoC6\pdl\rtos\FreeRTOS\9.0.0\Source/timers.c **** 
 951:Generated_Source\PSoC6\pdl\rtos\FreeRTOS\9.0.0\Source/timers.c **** 				xTimerQueue = xQueueCreateStatic( ( UBaseType_t ) configTIMER_QUEUE_LENGTH, sizeof( DaemonTaskM
 952:Generated_Source\PSoC6\pdl\rtos\FreeRTOS\9.0.0\Source/timers.c **** 			}
ARM GAS  C:\Users\codyg\AppData\Local\Temp\ccCwzev2.s 			page 21


 953:Generated_Source\PSoC6\pdl\rtos\FreeRTOS\9.0.0\Source/timers.c **** 			#else
 954:Generated_Source\PSoC6\pdl\rtos\FreeRTOS\9.0.0\Source/timers.c **** 			{
 955:Generated_Source\PSoC6\pdl\rtos\FreeRTOS\9.0.0\Source/timers.c **** 				xTimerQueue = xQueueCreate( ( UBaseType_t ) configTIMER_QUEUE_LENGTH, sizeof( DaemonTaskMessage
 185              		.loc 1 955 0
 186 0026 0022     		movs	r2, #0
 187 0028 0C21     		movs	r1, #12
 188 002a 0A20     		movs	r0, #10
 189 002c FFF7FEFF 		bl	xQueueGenericCreate
 190              	.LVL24:
 191 0030 A060     		str	r0, [r4, #8]
 956:Generated_Source\PSoC6\pdl\rtos\FreeRTOS\9.0.0\Source/timers.c **** 			}
 957:Generated_Source\PSoC6\pdl\rtos\FreeRTOS\9.0.0\Source/timers.c **** 			#endif
 958:Generated_Source\PSoC6\pdl\rtos\FreeRTOS\9.0.0\Source/timers.c **** 
 959:Generated_Source\PSoC6\pdl\rtos\FreeRTOS\9.0.0\Source/timers.c **** 			#if ( configQUEUE_REGISTRY_SIZE > 0 )
 960:Generated_Source\PSoC6\pdl\rtos\FreeRTOS\9.0.0\Source/timers.c **** 			{
 961:Generated_Source\PSoC6\pdl\rtos\FreeRTOS\9.0.0\Source/timers.c **** 				if( xTimerQueue != NULL )
 192              		.loc 1 961 0
 193 0032 10B1     		cbz	r0, .L16
 962:Generated_Source\PSoC6\pdl\rtos\FreeRTOS\9.0.0\Source/timers.c **** 				{
 963:Generated_Source\PSoC6\pdl\rtos\FreeRTOS\9.0.0\Source/timers.c **** 					vQueueAddToRegistry( xTimerQueue, "TmrQ" );
 194              		.loc 1 963 0
 195 0034 0349     		ldr	r1, .L18+4
 196 0036 FFF7FEFF 		bl	vQueueAddToRegistry
 197              	.LVL25:
 198              	.L16:
 964:Generated_Source\PSoC6\pdl\rtos\FreeRTOS\9.0.0\Source/timers.c **** 				}
 965:Generated_Source\PSoC6\pdl\rtos\FreeRTOS\9.0.0\Source/timers.c **** 				else
 966:Generated_Source\PSoC6\pdl\rtos\FreeRTOS\9.0.0\Source/timers.c **** 				{
 967:Generated_Source\PSoC6\pdl\rtos\FreeRTOS\9.0.0\Source/timers.c **** 					mtCOVERAGE_TEST_MARKER();
 968:Generated_Source\PSoC6\pdl\rtos\FreeRTOS\9.0.0\Source/timers.c **** 				}
 969:Generated_Source\PSoC6\pdl\rtos\FreeRTOS\9.0.0\Source/timers.c **** 			}
 970:Generated_Source\PSoC6\pdl\rtos\FreeRTOS\9.0.0\Source/timers.c **** 			#endif /* configQUEUE_REGISTRY_SIZE */
 971:Generated_Source\PSoC6\pdl\rtos\FreeRTOS\9.0.0\Source/timers.c **** 		}
 972:Generated_Source\PSoC6\pdl\rtos\FreeRTOS\9.0.0\Source/timers.c **** 		else
 973:Generated_Source\PSoC6\pdl\rtos\FreeRTOS\9.0.0\Source/timers.c **** 		{
 974:Generated_Source\PSoC6\pdl\rtos\FreeRTOS\9.0.0\Source/timers.c **** 			mtCOVERAGE_TEST_MARKER();
 975:Generated_Source\PSoC6\pdl\rtos\FreeRTOS\9.0.0\Source/timers.c **** 		}
 976:Generated_Source\PSoC6\pdl\rtos\FreeRTOS\9.0.0\Source/timers.c **** 	}
 977:Generated_Source\PSoC6\pdl\rtos\FreeRTOS\9.0.0\Source/timers.c **** 	taskEXIT_CRITICAL();
 199              		.loc 1 977 0
 200 003a FFF7FEFF 		bl	vPortExitCritical
 201              	.LVL26:
 202 003e 70BD     		pop	{r4, r5, r6, pc}
 203              	.L19:
 204              		.align	2
 205              	.L18:
 206 0040 00000000 		.word	.LANCHOR0
 207 0044 00000000 		.word	.LC0
 208              		.cfi_endproc
 209              	.LFE537:
 210              		.size	prvCheckForValidListAndQueue, .-prvCheckForValidListAndQueue
 211              		.section	.text.prvInitialiseNewTimer,"ax",%progbits
 212              		.align	2
 213              		.thumb
 214              		.thumb_func
 215              		.type	prvInitialiseNewTimer, %function
 216              	prvInitialiseNewTimer:
ARM GAS  C:\Users\codyg\AppData\Local\Temp\ccCwzev2.s 			page 22


 217              	.LFB523:
 394:Generated_Source\PSoC6\pdl\rtos\FreeRTOS\9.0.0\Source/timers.c **** 	/* 0 is not a valid value for xTimerPeriodInTicks. */
 218              		.loc 1 394 0
 219              		.cfi_startproc
 220              		@ args = 8, pretend = 0, frame = 0
 221              		@ frame_needed = 0, uses_anonymous_args = 0
 222              	.LVL27:
 223 0000 2DE9F041 		push	{r4, r5, r6, r7, r8, lr}
 224              		.cfi_def_cfa_offset 24
 225              		.cfi_offset 4, -24
 226              		.cfi_offset 5, -20
 227              		.cfi_offset 6, -16
 228              		.cfi_offset 7, -12
 229              		.cfi_offset 8, -8
 230              		.cfi_offset 14, -4
 231 0004 079C     		ldr	r4, [sp, #28]
 396:Generated_Source\PSoC6\pdl\rtos\FreeRTOS\9.0.0\Source/timers.c **** 
 232              		.loc 1 396 0
 233 0006 09B9     		cbnz	r1, .L21
 396:Generated_Source\PSoC6\pdl\rtos\FreeRTOS\9.0.0\Source/timers.c **** 
 234              		.loc 1 396 0 is_stmt 0 discriminator 1
 235              		.syntax unified
 236              	@ 396 "Generated_Source\PSoC6\pdl\rtos\FreeRTOS\9.0.0\Source\timers.c" 1
 237 0008 72B6     		 cpsid i 
 238              	@ 0 "" 2
 239              		.thumb
 240              		.syntax unified
 241              	.L22:
 242 000a FEE7     		b	.L22
 243              	.L21:
 244 000c 0F46     		mov	r7, r1
 398:Generated_Source\PSoC6\pdl\rtos\FreeRTOS\9.0.0\Source/timers.c **** 	{
 245              		.loc 1 398 0 is_stmt 1
 246 000e 74B1     		cbz	r4, .L20
 247 0010 1D46     		mov	r5, r3
 248 0012 1646     		mov	r6, r2
 249 0014 8046     		mov	r8, r0
 402:Generated_Source\PSoC6\pdl\rtos\FreeRTOS\9.0.0\Source/timers.c **** 
 250              		.loc 1 402 0
 251 0016 FFF7FEFF 		bl	prvCheckForValidListAndQueue
 252              	.LVL28:
 406:Generated_Source\PSoC6\pdl\rtos\FreeRTOS\9.0.0\Source/timers.c **** 		pxNewTimer->xTimerPeriodInTicks = xTimerPeriodInTicks;
 253              		.loc 1 406 0
 254 001a C4F80080 		str	r8, [r4]
 407:Generated_Source\PSoC6\pdl\rtos\FreeRTOS\9.0.0\Source/timers.c **** 		pxNewTimer->uxAutoReload = uxAutoReload;
 255              		.loc 1 407 0
 256 001e A761     		str	r7, [r4, #24]
 408:Generated_Source\PSoC6\pdl\rtos\FreeRTOS\9.0.0\Source/timers.c **** 		pxNewTimer->pvTimerID = pvTimerID;
 257              		.loc 1 408 0
 258 0020 E661     		str	r6, [r4, #28]
 409:Generated_Source\PSoC6\pdl\rtos\FreeRTOS\9.0.0\Source/timers.c **** 		pxNewTimer->pxCallbackFunction = pxCallbackFunction;
 259              		.loc 1 409 0
 260 0022 2562     		str	r5, [r4, #32]
 410:Generated_Source\PSoC6\pdl\rtos\FreeRTOS\9.0.0\Source/timers.c **** 		vListInitialiseItem( &( pxNewTimer->xTimerListItem ) );
 261              		.loc 1 410 0
 262 0024 069B     		ldr	r3, [sp, #24]
 263 0026 6362     		str	r3, [r4, #36]
ARM GAS  C:\Users\codyg\AppData\Local\Temp\ccCwzev2.s 			page 23


 411:Generated_Source\PSoC6\pdl\rtos\FreeRTOS\9.0.0\Source/timers.c **** 		traceTIMER_CREATE( pxNewTimer );
 264              		.loc 1 411 0
 265 0028 201D     		adds	r0, r4, #4
 266 002a FFF7FEFF 		bl	vListInitialiseItem
 267              	.LVL29:
 268              	.L20:
 269 002e BDE8F081 		pop	{r4, r5, r6, r7, r8, pc}
 270              		.cfi_endproc
 271              	.LFE523:
 272              		.size	prvInitialiseNewTimer, .-prvInitialiseNewTimer
 273 0032 00BF     		.section	.text.xTimerCreateTimerTask,"ax",%progbits
 274              		.align	2
 275              		.global	xTimerCreateTimerTask
 276              		.thumb
 277              		.thumb_func
 278              		.type	xTimerCreateTimerTask, %function
 279              	xTimerCreateTimerTask:
 280              	.LFB521:
 260:Generated_Source\PSoC6\pdl\rtos\FreeRTOS\9.0.0\Source/timers.c **** BaseType_t xReturn = pdFAIL;
 281              		.loc 1 260 0
 282              		.cfi_startproc
 283              		@ args = 0, pretend = 0, frame = 0
 284              		@ frame_needed = 0, uses_anonymous_args = 0
 285 0000 00B5     		push	{lr}
 286              		.cfi_def_cfa_offset 4
 287              		.cfi_offset 14, -4
 288 0002 83B0     		sub	sp, sp, #12
 289              		.cfi_def_cfa_offset 16
 290              	.LVL30:
 267:Generated_Source\PSoC6\pdl\rtos\FreeRTOS\9.0.0\Source/timers.c **** 
 291              		.loc 1 267 0
 292 0004 FFF7FEFF 		bl	prvCheckForValidListAndQueue
 293              	.LVL31:
 269:Generated_Source\PSoC6\pdl\rtos\FreeRTOS\9.0.0\Source/timers.c **** 	{
 294              		.loc 1 269 0
 295 0008 0A4B     		ldr	r3, .L31
 296 000a 9B68     		ldr	r3, [r3, #8]
 297 000c 53B1     		cbz	r3, .L29
 293:Generated_Source\PSoC6\pdl\rtos\FreeRTOS\9.0.0\Source/timers.c **** 									"Tmr Svc",
 298              		.loc 1 293 0
 299 000e 0A4B     		ldr	r3, .L31+4
 300 0010 0193     		str	r3, [sp, #4]
 301 0012 1423     		movs	r3, #20
 302 0014 0093     		str	r3, [sp]
 303 0016 0023     		movs	r3, #0
 304 0018 8022     		movs	r2, #128
 305 001a 0849     		ldr	r1, .L31+8
 306 001c 0848     		ldr	r0, .L31+12
 307 001e FFF7FEFF 		bl	xTaskCreate
 308              	.LVL32:
 309 0022 00E0     		b	.L26
 310              	.LVL33:
 311              	.L29:
 261:Generated_Source\PSoC6\pdl\rtos\FreeRTOS\9.0.0\Source/timers.c **** 
 312              		.loc 1 261 0
 313 0024 0020     		movs	r0, #0
 314              	.LVL34:
ARM GAS  C:\Users\codyg\AppData\Local\Temp\ccCwzev2.s 			page 24


 315              	.L26:
 307:Generated_Source\PSoC6\pdl\rtos\FreeRTOS\9.0.0\Source/timers.c **** 	return xReturn;
 316              		.loc 1 307 0
 317 0026 08B9     		cbnz	r0, .L27
 307:Generated_Source\PSoC6\pdl\rtos\FreeRTOS\9.0.0\Source/timers.c **** 	return xReturn;
 318              		.loc 1 307 0 is_stmt 0 discriminator 1
 319              		.syntax unified
 320              	@ 307 "Generated_Source\PSoC6\pdl\rtos\FreeRTOS\9.0.0\Source\timers.c" 1
 321 0028 72B6     		 cpsid i 
 322              	@ 0 "" 2
 323              		.thumb
 324              		.syntax unified
 325              	.L28:
 326 002a FEE7     		b	.L28
 327              	.L27:
 309:Generated_Source\PSoC6\pdl\rtos\FreeRTOS\9.0.0\Source/timers.c **** /*-----------------------------------------------------------*/
 328              		.loc 1 309 0 is_stmt 1
 329 002c 03B0     		add	sp, sp, #12
 330              		.cfi_def_cfa_offset 4
 331              		@ sp needed
 332 002e 5DF804FB 		ldr	pc, [sp], #4
 333              	.L32:
 334 0032 00BF     		.align	2
 335              	.L31:
 336 0034 00000000 		.word	.LANCHOR0
 337 0038 34000000 		.word	.LANCHOR0+52
 338 003c 08000000 		.word	.LC1
 339 0040 00000000 		.word	prvTimerTask
 340              		.cfi_endproc
 341              	.LFE521:
 342              		.size	xTimerCreateTimerTask, .-xTimerCreateTimerTask
 343              		.section	.text.xTimerCreate,"ax",%progbits
 344              		.align	2
 345              		.global	xTimerCreate
 346              		.thumb
 347              		.thumb_func
 348              		.type	xTimerCreate, %function
 349              	xTimerCreate:
 350              	.LFB522:
 319:Generated_Source\PSoC6\pdl\rtos\FreeRTOS\9.0.0\Source/timers.c **** 	Timer_t *pxNewTimer;
 351              		.loc 1 319 0
 352              		.cfi_startproc
 353              		@ args = 4, pretend = 0, frame = 0
 354              		@ frame_needed = 0, uses_anonymous_args = 0
 355              	.LVL35:
 356 0000 2DE9F041 		push	{r4, r5, r6, r7, r8, lr}
 357              		.cfi_def_cfa_offset 24
 358              		.cfi_offset 4, -24
 359              		.cfi_offset 5, -20
 360              		.cfi_offset 6, -16
 361              		.cfi_offset 7, -12
 362              		.cfi_offset 8, -8
 363              		.cfi_offset 14, -4
 364 0004 82B0     		sub	sp, sp, #8
 365              		.cfi_def_cfa_offset 32
 366 0006 0546     		mov	r5, r0
 367 0008 0E46     		mov	r6, r1
ARM GAS  C:\Users\codyg\AppData\Local\Temp\ccCwzev2.s 			page 25


 368 000a 1746     		mov	r7, r2
 369 000c 9846     		mov	r8, r3
 322:Generated_Source\PSoC6\pdl\rtos\FreeRTOS\9.0.0\Source/timers.c **** 
 370              		.loc 1 322 0
 371 000e 2820     		movs	r0, #40
 372              	.LVL36:
 373 0010 FFF7FEFF 		bl	pvPortMalloc
 374              	.LVL37:
 324:Generated_Source\PSoC6\pdl\rtos\FreeRTOS\9.0.0\Source/timers.c **** 		{
 375              		.loc 1 324 0
 376 0014 0446     		mov	r4, r0
 377 0016 40B1     		cbz	r0, .L34
 326:Generated_Source\PSoC6\pdl\rtos\FreeRTOS\9.0.0\Source/timers.c **** 
 378              		.loc 1 326 0
 379 0018 0190     		str	r0, [sp, #4]
 380 001a 089B     		ldr	r3, [sp, #32]
 381 001c 0093     		str	r3, [sp]
 382 001e 4346     		mov	r3, r8
 383 0020 3A46     		mov	r2, r7
 384 0022 3146     		mov	r1, r6
 385 0024 2846     		mov	r0, r5
 386              	.LVL38:
 387 0026 FFF7FEFF 		bl	prvInitialiseNewTimer
 388              	.LVL39:
 389              	.L34:
 339:Generated_Source\PSoC6\pdl\rtos\FreeRTOS\9.0.0\Source/timers.c **** 
 390              		.loc 1 339 0
 391 002a 2046     		mov	r0, r4
 392 002c 02B0     		add	sp, sp, #8
 393              		.cfi_def_cfa_offset 24
 394              		@ sp needed
 395 002e BDE8F081 		pop	{r4, r5, r6, r7, r8, pc}
 396              		.cfi_endproc
 397              	.LFE522:
 398              		.size	xTimerCreate, .-xTimerCreate
 399 0032 00BF     		.section	.text.xTimerGenericCommand,"ax",%progbits
 400              		.align	2
 401              		.global	xTimerGenericCommand
 402              		.thumb
 403              		.thumb_func
 404              		.type	xTimerGenericCommand, %function
 405              	xTimerGenericCommand:
 406              	.LFB524:
 418:Generated_Source\PSoC6\pdl\rtos\FreeRTOS\9.0.0\Source/timers.c **** BaseType_t xReturn = pdFAIL;
 407              		.loc 1 418 0
 408              		.cfi_startproc
 409              		@ args = 4, pretend = 0, frame = 16
 410              		@ frame_needed = 0, uses_anonymous_args = 0
 411              	.LVL40:
 422:Generated_Source\PSoC6\pdl\rtos\FreeRTOS\9.0.0\Source/timers.c **** 
 412              		.loc 1 422 0
 413 0000 08B9     		cbnz	r0, .L37
 422:Generated_Source\PSoC6\pdl\rtos\FreeRTOS\9.0.0\Source/timers.c **** 
 414              		.loc 1 422 0 is_stmt 0 discriminator 1
 415              		.syntax unified
 416              	@ 422 "Generated_Source\PSoC6\pdl\rtos\FreeRTOS\9.0.0\Source\timers.c" 1
 417 0002 72B6     		 cpsid i 
ARM GAS  C:\Users\codyg\AppData\Local\Temp\ccCwzev2.s 			page 26


 418              	@ 0 "" 2
 419              		.thumb
 420              		.syntax unified
 421              	.L38:
 422 0004 FEE7     		b	.L38
 423              	.L37:
 418:Generated_Source\PSoC6\pdl\rtos\FreeRTOS\9.0.0\Source/timers.c **** BaseType_t xReturn = pdFAIL;
 424              		.loc 1 418 0 is_stmt 1
 425 0006 30B5     		push	{r4, r5, lr}
 426              		.cfi_def_cfa_offset 12
 427              		.cfi_offset 4, -12
 428              		.cfi_offset 5, -8
 429              		.cfi_offset 14, -4
 430 0008 85B0     		sub	sp, sp, #20
 431              		.cfi_def_cfa_offset 32
 432 000a 1546     		mov	r5, r2
 433 000c 0446     		mov	r4, r0
 426:Generated_Source\PSoC6\pdl\rtos\FreeRTOS\9.0.0\Source/timers.c **** 	{
 434              		.loc 1 426 0
 435 000e 124A     		ldr	r2, .L44
 436              	.LVL41:
 437 0010 9068     		ldr	r0, [r2, #8]
 438              	.LVL42:
 439 0012 F0B1     		cbz	r0, .L42
 440 0014 1A46     		mov	r2, r3
 429:Generated_Source\PSoC6\pdl\rtos\FreeRTOS\9.0.0\Source/timers.c **** 		xMessage.u.xTimerParameters.xMessageValue = xOptionalValue;
 441              		.loc 1 429 0
 442 0016 0191     		str	r1, [sp, #4]
 430:Generated_Source\PSoC6\pdl\rtos\FreeRTOS\9.0.0\Source/timers.c **** 		xMessage.u.xTimerParameters.pxTimer = ( Timer_t * ) xTimer;
 443              		.loc 1 430 0
 444 0018 0295     		str	r5, [sp, #8]
 431:Generated_Source\PSoC6\pdl\rtos\FreeRTOS\9.0.0\Source/timers.c **** 
 445              		.loc 1 431 0
 446 001a 0394     		str	r4, [sp, #12]
 433:Generated_Source\PSoC6\pdl\rtos\FreeRTOS\9.0.0\Source/timers.c **** 		{
 447              		.loc 1 433 0
 448 001c 0529     		cmp	r1, #5
 449 001e 13DC     		bgt	.L40
 450              	.LVL43:
 435:Generated_Source\PSoC6\pdl\rtos\FreeRTOS\9.0.0\Source/timers.c **** 			{
 451              		.loc 1 435 0
 452 0020 FFF7FEFF 		bl	xTaskGetSchedulerState
 453              	.LVL44:
 454 0024 0228     		cmp	r0, #2
 455 0026 07D1     		bne	.L41
 437:Generated_Source\PSoC6\pdl\rtos\FreeRTOS\9.0.0\Source/timers.c **** 			}
 456              		.loc 1 437 0
 457 0028 0023     		movs	r3, #0
 458 002a 089A     		ldr	r2, [sp, #32]
 459 002c 01A9     		add	r1, sp, #4
 460 002e 0A48     		ldr	r0, .L44
 461 0030 8068     		ldr	r0, [r0, #8]
 462 0032 FFF7FEFF 		bl	xQueueGenericSend
 463              	.LVL45:
 464 0036 0DE0     		b	.L39
 465              	.LVL46:
 466              	.L41:
ARM GAS  C:\Users\codyg\AppData\Local\Temp\ccCwzev2.s 			page 27


 441:Generated_Source\PSoC6\pdl\rtos\FreeRTOS\9.0.0\Source/timers.c **** 			}
 467              		.loc 1 441 0
 468 0038 0023     		movs	r3, #0
 469 003a 1A46     		mov	r2, r3
 470 003c 01A9     		add	r1, sp, #4
 471 003e 0648     		ldr	r0, .L44
 472 0040 8068     		ldr	r0, [r0, #8]
 473 0042 FFF7FEFF 		bl	xQueueGenericSend
 474              	.LVL47:
 475 0046 05E0     		b	.L39
 476              	.LVL48:
 477              	.L40:
 446:Generated_Source\PSoC6\pdl\rtos\FreeRTOS\9.0.0\Source/timers.c **** 		}
 478              		.loc 1 446 0
 479 0048 0023     		movs	r3, #0
 480 004a 01A9     		add	r1, sp, #4
 481              	.LVL49:
 482 004c FFF7FEFF 		bl	xQueueGenericSendFromISR
 483              	.LVL50:
 484 0050 00E0     		b	.L39
 485              	.LVL51:
 486              	.L42:
 419:Generated_Source\PSoC6\pdl\rtos\FreeRTOS\9.0.0\Source/timers.c **** DaemonTaskMessage_t xMessage;
 487              		.loc 1 419 0
 488 0052 0020     		movs	r0, #0
 489              	.LVL52:
 490              	.L39:
 457:Generated_Source\PSoC6\pdl\rtos\FreeRTOS\9.0.0\Source/timers.c **** /*-----------------------------------------------------------*/
 491              		.loc 1 457 0
 492 0054 05B0     		add	sp, sp, #20
 493              		.cfi_def_cfa_offset 12
 494              		@ sp needed
 495 0056 30BD     		pop	{r4, r5, pc}
 496              	.LVL53:
 497              	.L45:
 498              		.align	2
 499              	.L44:
 500 0058 00000000 		.word	.LANCHOR0
 501              		.cfi_endproc
 502              	.LFE524:
 503              		.size	xTimerGenericCommand, .-xTimerGenericCommand
 504              		.section	.text.prvSwitchTimerLists,"ax",%progbits
 505              		.align	2
 506              		.thumb
 507              		.thumb_func
 508              		.type	prvSwitchTimerLists, %function
 509              	prvSwitchTimerLists:
 510              	.LFB536:
 872:Generated_Source\PSoC6\pdl\rtos\FreeRTOS\9.0.0\Source/timers.c **** TickType_t xNextExpireTime, xReloadTime;
 511              		.loc 1 872 0
 512              		.cfi_startproc
 513              		@ args = 0, pretend = 0, frame = 0
 514              		@ frame_needed = 0, uses_anonymous_args = 0
 515 0000 70B5     		push	{r4, r5, r6, lr}
 516              		.cfi_def_cfa_offset 16
 517              		.cfi_offset 4, -16
 518              		.cfi_offset 5, -12
ARM GAS  C:\Users\codyg\AppData\Local\Temp\ccCwzev2.s 			page 28


 519              		.cfi_offset 6, -8
 520              		.cfi_offset 14, -4
 521 0002 82B0     		sub	sp, sp, #8
 522              		.cfi_def_cfa_offset 24
 882:Generated_Source\PSoC6\pdl\rtos\FreeRTOS\9.0.0\Source/timers.c **** 	{
 523              		.loc 1 882 0
 524 0004 22E0     		b	.L48
 525              	.L52:
 884:Generated_Source\PSoC6\pdl\rtos\FreeRTOS\9.0.0\Source/timers.c **** 
 526              		.loc 1 884 0
 527 0006 DB68     		ldr	r3, [r3, #12]
 528 0008 1E68     		ldr	r6, [r3]
 529              	.LVL54:
 887:Generated_Source\PSoC6\pdl\rtos\FreeRTOS\9.0.0\Source/timers.c **** 		( void ) uxListRemove( &( pxTimer->xTimerListItem ) );
 530              		.loc 1 887 0
 531 000a DC68     		ldr	r4, [r3, #12]
 532              	.LVL55:
 888:Generated_Source\PSoC6\pdl\rtos\FreeRTOS\9.0.0\Source/timers.c **** 		traceTIMER_EXPIRED( pxTimer );
 533              		.loc 1 888 0
 534 000c 251D     		adds	r5, r4, #4
 535 000e 2846     		mov	r0, r5
 536 0010 FFF7FEFF 		bl	uxListRemove
 537              	.LVL56:
 894:Generated_Source\PSoC6\pdl\rtos\FreeRTOS\9.0.0\Source/timers.c **** 
 538              		.loc 1 894 0
 539 0014 636A     		ldr	r3, [r4, #36]
 540 0016 2046     		mov	r0, r4
 541 0018 9847     		blx	r3
 542              	.LVL57:
 896:Generated_Source\PSoC6\pdl\rtos\FreeRTOS\9.0.0\Source/timers.c **** 		{
 543              		.loc 1 896 0
 544 001a E369     		ldr	r3, [r4, #28]
 545 001c 012B     		cmp	r3, #1
 546 001e 15D1     		bne	.L48
 904:Generated_Source\PSoC6\pdl\rtos\FreeRTOS\9.0.0\Source/timers.c **** 			if( xReloadTime > xNextExpireTime )
 547              		.loc 1 904 0
 548 0020 A369     		ldr	r3, [r4, #24]
 549 0022 3344     		add	r3, r3, r6
 550              	.LVL58:
 905:Generated_Source\PSoC6\pdl\rtos\FreeRTOS\9.0.0\Source/timers.c **** 			{
 551              		.loc 1 905 0
 552 0024 9E42     		cmp	r6, r3
 553 0026 07D2     		bcs	.L49
 907:Generated_Source\PSoC6\pdl\rtos\FreeRTOS\9.0.0\Source/timers.c **** 				listSET_LIST_ITEM_OWNER( &( pxTimer->xTimerListItem ), pxTimer );
 554              		.loc 1 907 0
 555 0028 6360     		str	r3, [r4, #4]
 908:Generated_Source\PSoC6\pdl\rtos\FreeRTOS\9.0.0\Source/timers.c **** 				vListInsert( pxCurrentTimerList, &( pxTimer->xTimerListItem ) );
 556              		.loc 1 908 0
 557 002a 2461     		str	r4, [r4, #16]
 909:Generated_Source\PSoC6\pdl\rtos\FreeRTOS\9.0.0\Source/timers.c **** 			}
 558              		.loc 1 909 0
 559 002c 2946     		mov	r1, r5
 560 002e 0D4B     		ldr	r3, .L54
 561              	.LVL59:
 562 0030 1868     		ldr	r0, [r3]
 563 0032 FFF7FEFF 		bl	vListInsert
 564              	.LVL60:
ARM GAS  C:\Users\codyg\AppData\Local\Temp\ccCwzev2.s 			page 29


 565 0036 09E0     		b	.L48
 566              	.LVL61:
 567              	.L49:
 913:Generated_Source\PSoC6\pdl\rtos\FreeRTOS\9.0.0\Source/timers.c **** 				configASSERT( xResult );
 568              		.loc 1 913 0
 569 0038 0021     		movs	r1, #0
 570 003a 0091     		str	r1, [sp]
 571 003c 0B46     		mov	r3, r1
 572              	.LVL62:
 573 003e 3246     		mov	r2, r6
 574 0040 2046     		mov	r0, r4
 575 0042 FFF7FEFF 		bl	xTimerGenericCommand
 576              	.LVL63:
 914:Generated_Source\PSoC6\pdl\rtos\FreeRTOS\9.0.0\Source/timers.c **** 				( void ) xResult;
 577              		.loc 1 914 0
 578 0046 08B9     		cbnz	r0, .L48
 914:Generated_Source\PSoC6\pdl\rtos\FreeRTOS\9.0.0\Source/timers.c **** 				( void ) xResult;
 579              		.loc 1 914 0 is_stmt 0 discriminator 1
 580              		.syntax unified
 581              	@ 914 "Generated_Source\PSoC6\pdl\rtos\FreeRTOS\9.0.0\Source\timers.c" 1
 582 0048 72B6     		 cpsid i 
 583              	@ 0 "" 2
 584              		.thumb
 585              		.syntax unified
 586              	.L51:
 587 004a FEE7     		b	.L51
 588              	.LVL64:
 589              	.L48:
 882:Generated_Source\PSoC6\pdl\rtos\FreeRTOS\9.0.0\Source/timers.c **** 	{
 590              		.loc 1 882 0 is_stmt 1
 591 004c 054B     		ldr	r3, .L54
 592 004e 1B68     		ldr	r3, [r3]
 593 0050 1A68     		ldr	r2, [r3]
 594 0052 002A     		cmp	r2, #0
 595 0054 D7D1     		bne	.L52
 596              	.LVL65:
 925:Generated_Source\PSoC6\pdl\rtos\FreeRTOS\9.0.0\Source/timers.c **** 	pxOverflowTimerList = pxTemp;
 597              		.loc 1 925 0
 598 0056 034A     		ldr	r2, .L54
 599 0058 5168     		ldr	r1, [r2, #4]
 600 005a 1160     		str	r1, [r2]
 926:Generated_Source\PSoC6\pdl\rtos\FreeRTOS\9.0.0\Source/timers.c **** }
 601              		.loc 1 926 0
 602 005c 5360     		str	r3, [r2, #4]
 927:Generated_Source\PSoC6\pdl\rtos\FreeRTOS\9.0.0\Source/timers.c **** /*-----------------------------------------------------------*/
 603              		.loc 1 927 0
 604 005e 02B0     		add	sp, sp, #8
 605              		.cfi_def_cfa_offset 16
 606              		@ sp needed
 607 0060 70BD     		pop	{r4, r5, r6, pc}
 608              	.L55:
 609 0062 00BF     		.align	2
 610              	.L54:
 611 0064 00000000 		.word	.LANCHOR0
 612              		.cfi_endproc
 613              	.LFE536:
 614              		.size	prvSwitchTimerLists, .-prvSwitchTimerLists
ARM GAS  C:\Users\codyg\AppData\Local\Temp\ccCwzev2.s 			page 30


 615              		.section	.text.prvSampleTimeNow,"ax",%progbits
 616              		.align	2
 617              		.thumb
 618              		.thumb_func
 619              		.type	prvSampleTimeNow, %function
 620              	prvSampleTimeNow:
 621              	.LFB533:
 661:Generated_Source\PSoC6\pdl\rtos\FreeRTOS\9.0.0\Source/timers.c **** TickType_t xTimeNow;
 622              		.loc 1 661 0
 623              		.cfi_startproc
 624              		@ args = 0, pretend = 0, frame = 0
 625              		@ frame_needed = 0, uses_anonymous_args = 0
 626              	.LVL66:
 627 0000 38B5     		push	{r3, r4, r5, lr}
 628              		.cfi_def_cfa_offset 16
 629              		.cfi_offset 3, -16
 630              		.cfi_offset 4, -12
 631              		.cfi_offset 5, -8
 632              		.cfi_offset 14, -4
 633 0002 0546     		mov	r5, r0
 665:Generated_Source\PSoC6\pdl\rtos\FreeRTOS\9.0.0\Source/timers.c **** 
 634              		.loc 1 665 0
 635 0004 FFF7FEFF 		bl	xTaskGetTickCount
 636              	.LVL67:
 637 0008 0446     		mov	r4, r0
 638              	.LVL68:
 667:Generated_Source\PSoC6\pdl\rtos\FreeRTOS\9.0.0\Source/timers.c **** 	{
 639              		.loc 1 667 0
 640 000a 074B     		ldr	r3, .L60
 641 000c 9B6B     		ldr	r3, [r3, #56]
 642 000e 9842     		cmp	r0, r3
 643 0010 04D2     		bcs	.L57
 669:Generated_Source\PSoC6\pdl\rtos\FreeRTOS\9.0.0\Source/timers.c **** 		*pxTimerListsWereSwitched = pdTRUE;
 644              		.loc 1 669 0
 645 0012 FFF7FEFF 		bl	prvSwitchTimerLists
 646              	.LVL69:
 670:Generated_Source\PSoC6\pdl\rtos\FreeRTOS\9.0.0\Source/timers.c **** 	}
 647              		.loc 1 670 0
 648 0016 0123     		movs	r3, #1
 649 0018 2B60     		str	r3, [r5]
 650 001a 01E0     		b	.L58
 651              	.LVL70:
 652              	.L57:
 674:Generated_Source\PSoC6\pdl\rtos\FreeRTOS\9.0.0\Source/timers.c **** 	}
 653              		.loc 1 674 0
 654 001c 0023     		movs	r3, #0
 655 001e 2B60     		str	r3, [r5]
 656              	.LVL71:
 657              	.L58:
 677:Generated_Source\PSoC6\pdl\rtos\FreeRTOS\9.0.0\Source/timers.c **** 
 658              		.loc 1 677 0
 659 0020 014B     		ldr	r3, .L60
 660 0022 9C63     		str	r4, [r3, #56]
 680:Generated_Source\PSoC6\pdl\rtos\FreeRTOS\9.0.0\Source/timers.c **** /*-----------------------------------------------------------*/
 661              		.loc 1 680 0
 662 0024 2046     		mov	r0, r4
 663 0026 38BD     		pop	{r3, r4, r5, pc}
ARM GAS  C:\Users\codyg\AppData\Local\Temp\ccCwzev2.s 			page 31


 664              	.LVL72:
 665              	.L61:
 666              		.align	2
 667              	.L60:
 668 0028 00000000 		.word	.LANCHOR0
 669              		.cfi_endproc
 670              	.LFE533:
 671              		.size	prvSampleTimeNow, .-prvSampleTimeNow
 672              		.section	.text.prvProcessExpiredTimer,"ax",%progbits
 673              		.align	2
 674              		.thumb
 675              		.thumb_func
 676              		.type	prvProcessExpiredTimer, %function
 677              	prvProcessExpiredTimer:
 678              	.LFB529:
 499:Generated_Source\PSoC6\pdl\rtos\FreeRTOS\9.0.0\Source/timers.c **** BaseType_t xResult;
 679              		.loc 1 499 0
 680              		.cfi_startproc
 681              		@ args = 0, pretend = 0, frame = 0
 682              		@ frame_needed = 0, uses_anonymous_args = 0
 683              	.LVL73:
 684 0000 70B5     		push	{r4, r5, r6, lr}
 685              		.cfi_def_cfa_offset 16
 686              		.cfi_offset 4, -16
 687              		.cfi_offset 5, -12
 688              		.cfi_offset 6, -8
 689              		.cfi_offset 14, -4
 690 0002 82B0     		sub	sp, sp, #8
 691              		.cfi_def_cfa_offset 24
 692 0004 0546     		mov	r5, r0
 693 0006 0E46     		mov	r6, r1
 501:Generated_Source\PSoC6\pdl\rtos\FreeRTOS\9.0.0\Source/timers.c **** 
 694              		.loc 1 501 0
 695 0008 104B     		ldr	r3, .L66
 696 000a 1B68     		ldr	r3, [r3]
 697 000c DB68     		ldr	r3, [r3, #12]
 698 000e DC68     		ldr	r4, [r3, #12]
 699              	.LVL74:
 505:Generated_Source\PSoC6\pdl\rtos\FreeRTOS\9.0.0\Source/timers.c **** 	traceTIMER_EXPIRED( pxTimer );
 700              		.loc 1 505 0
 701 0010 201D     		adds	r0, r4, #4
 702              	.LVL75:
 703 0012 FFF7FEFF 		bl	uxListRemove
 704              	.LVL76:
 510:Generated_Source\PSoC6\pdl\rtos\FreeRTOS\9.0.0\Source/timers.c **** 	{
 705              		.loc 1 510 0
 706 0016 E369     		ldr	r3, [r4, #28]
 707 0018 012B     		cmp	r3, #1
 708 001a 11D1     		bne	.L63
 515:Generated_Source\PSoC6\pdl\rtos\FreeRTOS\9.0.0\Source/timers.c **** 		{
 709              		.loc 1 515 0
 710 001c A169     		ldr	r1, [r4, #24]
 711 001e 2B46     		mov	r3, r5
 712 0020 3246     		mov	r2, r6
 713 0022 2944     		add	r1, r1, r5
 714 0024 2046     		mov	r0, r4
 715 0026 FFF7FEFF 		bl	prvInsertTimerInActiveList
ARM GAS  C:\Users\codyg\AppData\Local\Temp\ccCwzev2.s 			page 32


 716              	.LVL77:
 717 002a 48B1     		cbz	r0, .L63
 519:Generated_Source\PSoC6\pdl\rtos\FreeRTOS\9.0.0\Source/timers.c **** 			configASSERT( xResult );
 718              		.loc 1 519 0
 719 002c 0021     		movs	r1, #0
 720 002e 0091     		str	r1, [sp]
 721 0030 0B46     		mov	r3, r1
 722 0032 2A46     		mov	r2, r5
 723 0034 2046     		mov	r0, r4
 724 0036 FFF7FEFF 		bl	xTimerGenericCommand
 725              	.LVL78:
 520:Generated_Source\PSoC6\pdl\rtos\FreeRTOS\9.0.0\Source/timers.c **** 			( void ) xResult;
 726              		.loc 1 520 0
 727 003a 08B9     		cbnz	r0, .L63
 520:Generated_Source\PSoC6\pdl\rtos\FreeRTOS\9.0.0\Source/timers.c **** 			( void ) xResult;
 728              		.loc 1 520 0 is_stmt 0 discriminator 1
 729              		.syntax unified
 730              	@ 520 "Generated_Source\PSoC6\pdl\rtos\FreeRTOS\9.0.0\Source\timers.c" 1
 731 003c 72B6     		 cpsid i 
 732              	@ 0 "" 2
 733              		.thumb
 734              		.syntax unified
 735              	.L64:
 736 003e FEE7     		b	.L64
 737              	.LVL79:
 738              	.L63:
 534:Generated_Source\PSoC6\pdl\rtos\FreeRTOS\9.0.0\Source/timers.c **** }
 739              		.loc 1 534 0 is_stmt 1
 740 0040 636A     		ldr	r3, [r4, #36]
 741 0042 2046     		mov	r0, r4
 742 0044 9847     		blx	r3
 743              	.LVL80:
 535:Generated_Source\PSoC6\pdl\rtos\FreeRTOS\9.0.0\Source/timers.c **** /*-----------------------------------------------------------*/
 744              		.loc 1 535 0
 745 0046 02B0     		add	sp, sp, #8
 746              		.cfi_def_cfa_offset 16
 747              		@ sp needed
 748 0048 70BD     		pop	{r4, r5, r6, pc}
 749              	.LVL81:
 750              	.L67:
 751 004a 00BF     		.align	2
 752              	.L66:
 753 004c 00000000 		.word	.LANCHOR0
 754              		.cfi_endproc
 755              	.LFE529:
 756              		.size	prvProcessExpiredTimer, .-prvProcessExpiredTimer
 757              		.section	.text.prvProcessTimerOrBlockTask,"ax",%progbits
 758              		.align	2
 759              		.thumb
 760              		.thumb_func
 761              		.type	prvProcessTimerOrBlockTask, %function
 762              	prvProcessTimerOrBlockTask:
 763              	.LFB531:
 575:Generated_Source\PSoC6\pdl\rtos\FreeRTOS\9.0.0\Source/timers.c **** TickType_t xTimeNow;
 764              		.loc 1 575 0
 765              		.cfi_startproc
 766              		@ args = 0, pretend = 0, frame = 8
ARM GAS  C:\Users\codyg\AppData\Local\Temp\ccCwzev2.s 			page 33


 767              		@ frame_needed = 0, uses_anonymous_args = 0
 768              	.LVL82:
 769 0000 70B5     		push	{r4, r5, r6, lr}
 770              		.cfi_def_cfa_offset 16
 771              		.cfi_offset 4, -16
 772              		.cfi_offset 5, -12
 773              		.cfi_offset 6, -8
 774              		.cfi_offset 14, -4
 775 0002 82B0     		sub	sp, sp, #8
 776              		.cfi_def_cfa_offset 24
 777 0004 0646     		mov	r6, r0
 778 0006 0C46     		mov	r4, r1
 579:Generated_Source\PSoC6\pdl\rtos\FreeRTOS\9.0.0\Source/timers.c **** 	{
 779              		.loc 1 579 0
 780 0008 FFF7FEFF 		bl	vTaskSuspendAll
 781              	.LVL83:
 586:Generated_Source\PSoC6\pdl\rtos\FreeRTOS\9.0.0\Source/timers.c **** 		if( xTimerListsWereSwitched == pdFALSE )
 782              		.loc 1 586 0
 783 000c 01A8     		add	r0, sp, #4
 784 000e FFF7FEFF 		bl	prvSampleTimeNow
 785              	.LVL84:
 587:Generated_Source\PSoC6\pdl\rtos\FreeRTOS\9.0.0\Source/timers.c **** 		{
 786              		.loc 1 587 0
 787 0012 019B     		ldr	r3, [sp, #4]
 788 0014 1BBB     		cbnz	r3, .L69
 789 0016 0546     		mov	r5, r0
 590:Generated_Source\PSoC6\pdl\rtos\FreeRTOS\9.0.0\Source/timers.c **** 			{
 790              		.loc 1 590 0
 791 0018 44B9     		cbnz	r4, .L70
 590:Generated_Source\PSoC6\pdl\rtos\FreeRTOS\9.0.0\Source/timers.c **** 			{
 792              		.loc 1 590 0 is_stmt 0 discriminator 1
 793 001a B042     		cmp	r0, r6
 794 001c 06D3     		bcc	.L70
 592:Generated_Source\PSoC6\pdl\rtos\FreeRTOS\9.0.0\Source/timers.c **** 				prvProcessExpiredTimer( xNextExpireTime, xTimeNow );
 795              		.loc 1 592 0 is_stmt 1
 796 001e FFF7FEFF 		bl	xTaskResumeAll
 797              	.LVL85:
 593:Generated_Source\PSoC6\pdl\rtos\FreeRTOS\9.0.0\Source/timers.c **** 			}
 798              		.loc 1 593 0
 799 0022 2946     		mov	r1, r5
 800 0024 3046     		mov	r0, r6
 801 0026 FFF7FEFF 		bl	prvProcessExpiredTimer
 802              	.LVL86:
 803 002a 1AE0     		b	.L68
 804              	.LVL87:
 805              	.L70:
 603:Generated_Source\PSoC6\pdl\rtos\FreeRTOS\9.0.0\Source/timers.c **** 				{
 806              		.loc 1 603 0
 807 002c 2CB1     		cbz	r4, .L72
 607:Generated_Source\PSoC6\pdl\rtos\FreeRTOS\9.0.0\Source/timers.c **** 				}
 808              		.loc 1 607 0
 809 002e 0E4B     		ldr	r3, .L74
 810 0030 5B68     		ldr	r3, [r3, #4]
 811 0032 1C68     		ldr	r4, [r3]
 812              	.LVL88:
 813 0034 B4FA84F4 		clz	r4, r4
 814 0038 6409     		lsrs	r4, r4, #5
ARM GAS  C:\Users\codyg\AppData\Local\Temp\ccCwzev2.s 			page 34


 815              	.LVL89:
 816              	.L72:
 610:Generated_Source\PSoC6\pdl\rtos\FreeRTOS\9.0.0\Source/timers.c **** 
 817              		.loc 1 610 0
 818 003a 2246     		mov	r2, r4
 819 003c 711B     		subs	r1, r6, r5
 820 003e 0A4B     		ldr	r3, .L74
 821 0040 9868     		ldr	r0, [r3, #8]
 822              	.LVL90:
 823 0042 FFF7FEFF 		bl	vQueueWaitForMessageRestricted
 824              	.LVL91:
 612:Generated_Source\PSoC6\pdl\rtos\FreeRTOS\9.0.0\Source/timers.c **** 				{
 825              		.loc 1 612 0
 826 0046 FFF7FEFF 		bl	xTaskResumeAll
 827              	.LVL92:
 828 004a 50B9     		cbnz	r0, .L68
 618:Generated_Source\PSoC6\pdl\rtos\FreeRTOS\9.0.0\Source/timers.c **** 				}
 829              		.loc 1 618 0
 830 004c 4FF08052 		mov	r2, #268435456
 831 0050 064B     		ldr	r3, .L74+4
 832 0052 1A60     		str	r2, [r3]
 833              		.syntax unified
 834              	@ 618 "Generated_Source\PSoC6\pdl\rtos\FreeRTOS\9.0.0\Source\timers.c" 1
 835 0054 BFF34F8F 		dsb
 836              	@ 0 "" 2
 837              	@ 618 "Generated_Source\PSoC6\pdl\rtos\FreeRTOS\9.0.0\Source\timers.c" 1
 838 0058 BFF36F8F 		isb
 839              	@ 0 "" 2
 840              		.thumb
 841              		.syntax unified
 842 005c 01E0     		b	.L68
 843              	.LVL93:
 844              	.L69:
 628:Generated_Source\PSoC6\pdl\rtos\FreeRTOS\9.0.0\Source/timers.c **** 		}
 845              		.loc 1 628 0
 846 005e FFF7FEFF 		bl	xTaskResumeAll
 847              	.LVL94:
 848              	.L68:
 631:Generated_Source\PSoC6\pdl\rtos\FreeRTOS\9.0.0\Source/timers.c **** /*-----------------------------------------------------------*/
 849              		.loc 1 631 0
 850 0062 02B0     		add	sp, sp, #8
 851              		.cfi_def_cfa_offset 16
 852              		@ sp needed
 853 0064 70BD     		pop	{r4, r5, r6, pc}
 854              	.LVL95:
 855              	.L75:
 856 0066 00BF     		.align	2
 857              	.L74:
 858 0068 00000000 		.word	.LANCHOR0
 859 006c 04ED00E0 		.word	-536810236
 860              		.cfi_endproc
 861              	.LFE531:
 862              		.size	prvProcessTimerOrBlockTask, .-prvProcessTimerOrBlockTask
 863              		.section	.text.prvProcessReceivedCommands,"ax",%progbits
 864              		.align	2
 865              		.thumb
 866              		.thumb_func
ARM GAS  C:\Users\codyg\AppData\Local\Temp\ccCwzev2.s 			page 35


 867              		.type	prvProcessReceivedCommands, %function
 868              	prvProcessReceivedCommands:
 869              	.LFB535:
 725:Generated_Source\PSoC6\pdl\rtos\FreeRTOS\9.0.0\Source/timers.c **** DaemonTaskMessage_t xMessage;
 870              		.loc 1 725 0
 871              		.cfi_startproc
 872              		@ args = 0, pretend = 0, frame = 16
 873              		@ frame_needed = 0, uses_anonymous_args = 0
 874 0000 30B5     		push	{r4, r5, lr}
 875              		.cfi_def_cfa_offset 12
 876              		.cfi_offset 4, -12
 877              		.cfi_offset 5, -8
 878              		.cfi_offset 14, -4
 879 0002 87B0     		sub	sp, sp, #28
 880              		.cfi_def_cfa_offset 40
 731:Generated_Source\PSoC6\pdl\rtos\FreeRTOS\9.0.0\Source/timers.c **** 	{
 881              		.loc 1 731 0
 882 0004 3FE0     		b	.L78
 883              	.L89:
 757:Generated_Source\PSoC6\pdl\rtos\FreeRTOS\9.0.0\Source/timers.c **** 		{
 884              		.loc 1 757 0
 885 0006 039B     		ldr	r3, [sp, #12]
 886 0008 002B     		cmp	r3, #0
 887 000a 3CDB     		blt	.L78
 761:Generated_Source\PSoC6\pdl\rtos\FreeRTOS\9.0.0\Source/timers.c **** 
 888              		.loc 1 761 0
 889 000c 059C     		ldr	r4, [sp, #20]
 890              	.LVL96:
 763:Generated_Source\PSoC6\pdl\rtos\FreeRTOS\9.0.0\Source/timers.c **** 			{
 891              		.loc 1 763 0
 892 000e 6369     		ldr	r3, [r4, #20]
 893 0010 13B1     		cbz	r3, .L79
 766:Generated_Source\PSoC6\pdl\rtos\FreeRTOS\9.0.0\Source/timers.c **** 			}
 894              		.loc 1 766 0
 895 0012 201D     		adds	r0, r4, #4
 896 0014 FFF7FEFF 		bl	uxListRemove
 897              	.LVL97:
 898              	.L79:
 781:Generated_Source\PSoC6\pdl\rtos\FreeRTOS\9.0.0\Source/timers.c **** 
 899              		.loc 1 781 0
 900 0018 02A8     		add	r0, sp, #8
 901 001a FFF7FEFF 		bl	prvSampleTimeNow
 902              	.LVL98:
 783:Generated_Source\PSoC6\pdl\rtos\FreeRTOS\9.0.0\Source/timers.c **** 			{
 903              		.loc 1 783 0
 904 001e 039B     		ldr	r3, [sp, #12]
 905 0020 092B     		cmp	r3, #9
 906 0022 30D8     		bhi	.L78
 907 0024 DFE803F0 		tbb	[pc, r3]
 908              	.L82:
 909 0028 05       		.byte	(.L81-.L82)/2
 910 0029 05       		.byte	(.L81-.L82)/2
 911 002a 05       		.byte	(.L81-.L82)/2
 912 002b 2F       		.byte	(.L78-.L82)/2
 913 002c 20       		.byte	(.L83-.L82)/2
 914 002d 2C       		.byte	(.L84-.L82)/2
 915 002e 05       		.byte	(.L81-.L82)/2
ARM GAS  C:\Users\codyg\AppData\Local\Temp\ccCwzev2.s 			page 36


 916 002f 05       		.byte	(.L81-.L82)/2
 917 0030 2F       		.byte	(.L78-.L82)/2
 918 0031 20       		.byte	(.L83-.L82)/2
 919              		.p2align 1
 920              	.L81:
 791:Generated_Source\PSoC6\pdl\rtos\FreeRTOS\9.0.0\Source/timers.c **** 					{
 921              		.loc 1 791 0
 922 0032 0499     		ldr	r1, [sp, #16]
 923 0034 A569     		ldr	r5, [r4, #24]
 924 0036 0B46     		mov	r3, r1
 925 0038 0246     		mov	r2, r0
 926 003a 2944     		add	r1, r1, r5
 927 003c 2046     		mov	r0, r4
 928              	.LVL99:
 929 003e FFF7FEFF 		bl	prvInsertTimerInActiveList
 930              	.LVL100:
 931 0042 00B3     		cbz	r0, .L78
 795:Generated_Source\PSoC6\pdl\rtos\FreeRTOS\9.0.0\Source/timers.c **** 						traceTIMER_EXPIRED( pxTimer );
 932              		.loc 1 795 0
 933 0044 636A     		ldr	r3, [r4, #36]
 934 0046 2046     		mov	r0, r4
 935 0048 9847     		blx	r3
 936              	.LVL101:
 798:Generated_Source\PSoC6\pdl\rtos\FreeRTOS\9.0.0\Source/timers.c **** 						{
 937              		.loc 1 798 0
 938 004a E369     		ldr	r3, [r4, #28]
 939 004c 012B     		cmp	r3, #1
 940 004e 1AD1     		bne	.L78
 800:Generated_Source\PSoC6\pdl\rtos\FreeRTOS\9.0.0\Source/timers.c **** 							configASSERT( xResult );
 941              		.loc 1 800 0
 942 0050 A269     		ldr	r2, [r4, #24]
 943 0052 0021     		movs	r1, #0
 944 0054 0091     		str	r1, [sp]
 945 0056 0B46     		mov	r3, r1
 946 0058 0498     		ldr	r0, [sp, #16]
 947 005a 0244     		add	r2, r2, r0
 948 005c 2046     		mov	r0, r4
 949 005e FFF7FEFF 		bl	xTimerGenericCommand
 950              	.LVL102:
 801:Generated_Source\PSoC6\pdl\rtos\FreeRTOS\9.0.0\Source/timers.c **** 							( void ) xResult;
 951              		.loc 1 801 0
 952 0062 80B9     		cbnz	r0, .L78
 801:Generated_Source\PSoC6\pdl\rtos\FreeRTOS\9.0.0\Source/timers.c **** 							( void ) xResult;
 953              		.loc 1 801 0 is_stmt 0 discriminator 1
 954              		.syntax unified
 955              	@ 801 "Generated_Source\PSoC6\pdl\rtos\FreeRTOS\9.0.0\Source\timers.c" 1
 956 0064 72B6     		 cpsid i 
 957              	@ 0 "" 2
 958              		.thumb
 959              		.syntax unified
 960              	.L86:
 961 0066 FEE7     		b	.L86
 962              	.LVL103:
 963              	.L83:
 823:Generated_Source\PSoC6\pdl\rtos\FreeRTOS\9.0.0\Source/timers.c **** 					configASSERT( ( pxTimer->xTimerPeriodInTicks > 0 ) );
 964              		.loc 1 823 0 is_stmt 1
 965 0068 0499     		ldr	r1, [sp, #16]
ARM GAS  C:\Users\codyg\AppData\Local\Temp\ccCwzev2.s 			page 37


 966 006a A161     		str	r1, [r4, #24]
 824:Generated_Source\PSoC6\pdl\rtos\FreeRTOS\9.0.0\Source/timers.c **** 
 967              		.loc 1 824 0
 968 006c 09B9     		cbnz	r1, .L87
 824:Generated_Source\PSoC6\pdl\rtos\FreeRTOS\9.0.0\Source/timers.c **** 
 969              		.loc 1 824 0 is_stmt 0 discriminator 1
 970              		.syntax unified
 971              	@ 824 "Generated_Source\PSoC6\pdl\rtos\FreeRTOS\9.0.0\Source\timers.c" 1
 972 006e 72B6     		 cpsid i 
 973              	@ 0 "" 2
 974              		.thumb
 975              		.syntax unified
 976              	.L88:
 977 0070 FEE7     		b	.L88
 978              	.L87:
 832:Generated_Source\PSoC6\pdl\rtos\FreeRTOS\9.0.0\Source/timers.c **** 					break;
 979              		.loc 1 832 0 is_stmt 1
 980 0072 0346     		mov	r3, r0
 981 0074 0246     		mov	r2, r0
 982 0076 0144     		add	r1, r1, r0
 983 0078 2046     		mov	r0, r4
 984              	.LVL104:
 985 007a FFF7FEFF 		bl	prvInsertTimerInActiveList
 986              	.LVL105:
 833:Generated_Source\PSoC6\pdl\rtos\FreeRTOS\9.0.0\Source/timers.c **** 
 987              		.loc 1 833 0
 988 007e 02E0     		b	.L78
 989              	.LVL106:
 990              	.L84:
 843:Generated_Source\PSoC6\pdl\rtos\FreeRTOS\9.0.0\Source/timers.c **** 					}
 991              		.loc 1 843 0
 992 0080 2046     		mov	r0, r4
 993              	.LVL107:
 994 0082 FFF7FEFF 		bl	vPortFree
 995              	.LVL108:
 996              	.L78:
 731:Generated_Source\PSoC6\pdl\rtos\FreeRTOS\9.0.0\Source/timers.c **** 	{
 997              		.loc 1 731 0
 998 0086 0023     		movs	r3, #0
 999 0088 1A46     		mov	r2, r3
 1000 008a 03A9     		add	r1, sp, #12
 1001 008c 0348     		ldr	r0, .L91
 1002 008e 8068     		ldr	r0, [r0, #8]
 1003 0090 FFF7FEFF 		bl	xQueueGenericReceive
 1004              	.LVL109:
 1005 0094 0028     		cmp	r0, #0
 1006 0096 B6D1     		bne	.L89
 868:Generated_Source\PSoC6\pdl\rtos\FreeRTOS\9.0.0\Source/timers.c **** /*-----------------------------------------------------------*/
 1007              		.loc 1 868 0
 1008 0098 07B0     		add	sp, sp, #28
 1009              		.cfi_def_cfa_offset 12
 1010              		@ sp needed
 1011 009a 30BD     		pop	{r4, r5, pc}
 1012              	.L92:
 1013              		.align	2
 1014              	.L91:
 1015 009c 00000000 		.word	.LANCHOR0
ARM GAS  C:\Users\codyg\AppData\Local\Temp\ccCwzev2.s 			page 38


 1016              		.cfi_endproc
 1017              	.LFE535:
 1018              		.size	prvProcessReceivedCommands, .-prvProcessReceivedCommands
 1019              		.section	.text.prvTimerTask,"ax",%progbits
 1020              		.align	2
 1021              		.thumb
 1022              		.thumb_func
 1023              		.type	prvTimerTask, %function
 1024              	prvTimerTask:
 1025              	.LFB530:
 539:Generated_Source\PSoC6\pdl\rtos\FreeRTOS\9.0.0\Source/timers.c **** TickType_t xNextExpireTime;
 1026              		.loc 1 539 0
 1027              		.cfi_startproc
 1028              		@ args = 0, pretend = 0, frame = 8
 1029              		@ frame_needed = 0, uses_anonymous_args = 0
 1030              	.LVL110:
 1031 0000 00B5     		push	{lr}
 1032              		.cfi_def_cfa_offset 4
 1033              		.cfi_offset 14, -4
 1034 0002 83B0     		sub	sp, sp, #12
 1035              		.cfi_def_cfa_offset 16
 1036              	.LVL111:
 1037              	.L94:
 562:Generated_Source\PSoC6\pdl\rtos\FreeRTOS\9.0.0\Source/timers.c **** 
 1038              		.loc 1 562 0 discriminator 1
 1039 0004 01A8     		add	r0, sp, #4
 1040 0006 FFF7FEFF 		bl	prvGetNextExpireTime
 1041              	.LVL112:
 566:Generated_Source\PSoC6\pdl\rtos\FreeRTOS\9.0.0\Source/timers.c **** 
 1042              		.loc 1 566 0 discriminator 1
 1043 000a 0199     		ldr	r1, [sp, #4]
 1044 000c FFF7FEFF 		bl	prvProcessTimerOrBlockTask
 1045              	.LVL113:
 569:Generated_Source\PSoC6\pdl\rtos\FreeRTOS\9.0.0\Source/timers.c **** 	}
 1046              		.loc 1 569 0 discriminator 1
 1047 0010 FFF7FEFF 		bl	prvProcessReceivedCommands
 1048              	.LVL114:
 1049 0014 F6E7     		b	.L94
 1050              		.cfi_endproc
 1051              	.LFE530:
 1052              		.size	prvTimerTask, .-prvTimerTask
 1053 0016 00BF     		.section	.text.xTimerGetTimerDaemonTaskHandle,"ax",%progbits
 1054              		.align	2
 1055              		.global	xTimerGetTimerDaemonTaskHandle
 1056              		.thumb
 1057              		.thumb_func
 1058              		.type	xTimerGetTimerDaemonTaskHandle, %function
 1059              	xTimerGetTimerDaemonTaskHandle:
 1060              	.LFB525:
 461:Generated_Source\PSoC6\pdl\rtos\FreeRTOS\9.0.0\Source/timers.c **** 	/* If xTimerGetTimerDaemonTaskHandle() is called before the scheduler has been
 1061              		.loc 1 461 0
 1062              		.cfi_startproc
 1063              		@ args = 0, pretend = 0, frame = 0
 1064              		@ frame_needed = 0, uses_anonymous_args = 0
 1065              		@ link register save eliminated.
 464:Generated_Source\PSoC6\pdl\rtos\FreeRTOS\9.0.0\Source/timers.c **** 	return xTimerTaskHandle;
 1066              		.loc 1 464 0
ARM GAS  C:\Users\codyg\AppData\Local\Temp\ccCwzev2.s 			page 39


 1067 0000 024B     		ldr	r3, .L99
 1068 0002 586B     		ldr	r0, [r3, #52]
 1069 0004 08B9     		cbnz	r0, .L97
 464:Generated_Source\PSoC6\pdl\rtos\FreeRTOS\9.0.0\Source/timers.c **** 	return xTimerTaskHandle;
 1070              		.loc 1 464 0 is_stmt 0 discriminator 1
 1071              		.syntax unified
 1072              	@ 464 "Generated_Source\PSoC6\pdl\rtos\FreeRTOS\9.0.0\Source\timers.c" 1
 1073 0006 72B6     		 cpsid i 
 1074              	@ 0 "" 2
 1075              		.thumb
 1076              		.syntax unified
 1077              	.L98:
 1078 0008 FEE7     		b	.L98
 1079              	.L97:
 466:Generated_Source\PSoC6\pdl\rtos\FreeRTOS\9.0.0\Source/timers.c **** /*-----------------------------------------------------------*/
 1080              		.loc 1 466 0 is_stmt 1
 1081 000a 7047     		bx	lr
 1082              	.L100:
 1083              		.align	2
 1084              	.L99:
 1085 000c 00000000 		.word	.LANCHOR0
 1086              		.cfi_endproc
 1087              	.LFE525:
 1088              		.size	xTimerGetTimerDaemonTaskHandle, .-xTimerGetTimerDaemonTaskHandle
 1089              		.section	.text.xTimerGetPeriod,"ax",%progbits
 1090              		.align	2
 1091              		.global	xTimerGetPeriod
 1092              		.thumb
 1093              		.thumb_func
 1094              		.type	xTimerGetPeriod, %function
 1095              	xTimerGetPeriod:
 1096              	.LFB526:
 470:Generated_Source\PSoC6\pdl\rtos\FreeRTOS\9.0.0\Source/timers.c **** Timer_t *pxTimer = ( Timer_t * ) xTimer;
 1097              		.loc 1 470 0
 1098              		.cfi_startproc
 1099              		@ args = 0, pretend = 0, frame = 0
 1100              		@ frame_needed = 0, uses_anonymous_args = 0
 1101              		@ link register save eliminated.
 1102              	.LVL115:
 473:Generated_Source\PSoC6\pdl\rtos\FreeRTOS\9.0.0\Source/timers.c **** 	return pxTimer->xTimerPeriodInTicks;
 1103              		.loc 1 473 0
 1104 0000 08B9     		cbnz	r0, .L102
 473:Generated_Source\PSoC6\pdl\rtos\FreeRTOS\9.0.0\Source/timers.c **** 	return pxTimer->xTimerPeriodInTicks;
 1105              		.loc 1 473 0 is_stmt 0 discriminator 1
 1106              		.syntax unified
 1107              	@ 473 "Generated_Source\PSoC6\pdl\rtos\FreeRTOS\9.0.0\Source\timers.c" 1
 1108 0002 72B6     		 cpsid i 
 1109              	@ 0 "" 2
 1110              		.thumb
 1111              		.syntax unified
 1112              	.L103:
 1113 0004 FEE7     		b	.L103
 1114              	.L102:
 475:Generated_Source\PSoC6\pdl\rtos\FreeRTOS\9.0.0\Source/timers.c **** /*-----------------------------------------------------------*/
 1115              		.loc 1 475 0 is_stmt 1
 1116 0006 8069     		ldr	r0, [r0, #24]
 1117              	.LVL116:
ARM GAS  C:\Users\codyg\AppData\Local\Temp\ccCwzev2.s 			page 40


 1118 0008 7047     		bx	lr
 1119              		.cfi_endproc
 1120              	.LFE526:
 1121              		.size	xTimerGetPeriod, .-xTimerGetPeriod
 1122 000a 00BF     		.section	.text.xTimerGetExpiryTime,"ax",%progbits
 1123              		.align	2
 1124              		.global	xTimerGetExpiryTime
 1125              		.thumb
 1126              		.thumb_func
 1127              		.type	xTimerGetExpiryTime, %function
 1128              	xTimerGetExpiryTime:
 1129              	.LFB527:
 479:Generated_Source\PSoC6\pdl\rtos\FreeRTOS\9.0.0\Source/timers.c **** Timer_t * pxTimer = ( Timer_t * ) xTimer;
 1130              		.loc 1 479 0
 1131              		.cfi_startproc
 1132              		@ args = 0, pretend = 0, frame = 0
 1133              		@ frame_needed = 0, uses_anonymous_args = 0
 1134              		@ link register save eliminated.
 1135              	.LVL117:
 483:Generated_Source\PSoC6\pdl\rtos\FreeRTOS\9.0.0\Source/timers.c **** 	xReturn = listGET_LIST_ITEM_VALUE( &( pxTimer->xTimerListItem ) );
 1136              		.loc 1 483 0
 1137 0000 08B9     		cbnz	r0, .L105
 483:Generated_Source\PSoC6\pdl\rtos\FreeRTOS\9.0.0\Source/timers.c **** 	xReturn = listGET_LIST_ITEM_VALUE( &( pxTimer->xTimerListItem ) );
 1138              		.loc 1 483 0 is_stmt 0 discriminator 1
 1139              		.syntax unified
 1140              	@ 483 "Generated_Source\PSoC6\pdl\rtos\FreeRTOS\9.0.0\Source\timers.c" 1
 1141 0002 72B6     		 cpsid i 
 1142              	@ 0 "" 2
 1143              		.thumb
 1144              		.syntax unified
 1145              	.L106:
 1146 0004 FEE7     		b	.L106
 1147              	.L105:
 1148              	.LVL118:
 486:Generated_Source\PSoC6\pdl\rtos\FreeRTOS\9.0.0\Source/timers.c **** /*-----------------------------------------------------------*/
 1149              		.loc 1 486 0 is_stmt 1
 1150 0006 4068     		ldr	r0, [r0, #4]
 1151              	.LVL119:
 1152 0008 7047     		bx	lr
 1153              		.cfi_endproc
 1154              	.LFE527:
 1155              		.size	xTimerGetExpiryTime, .-xTimerGetExpiryTime
 1156 000a 00BF     		.section	.text.pcTimerGetName,"ax",%progbits
 1157              		.align	2
 1158              		.global	pcTimerGetName
 1159              		.thumb
 1160              		.thumb_func
 1161              		.type	pcTimerGetName, %function
 1162              	pcTimerGetName:
 1163              	.LFB528:
 490:Generated_Source\PSoC6\pdl\rtos\FreeRTOS\9.0.0\Source/timers.c **** Timer_t *pxTimer = ( Timer_t * ) xTimer;
 1164              		.loc 1 490 0
 1165              		.cfi_startproc
 1166              		@ args = 0, pretend = 0, frame = 0
 1167              		@ frame_needed = 0, uses_anonymous_args = 0
 1168              		@ link register save eliminated.
 1169              	.LVL120:
ARM GAS  C:\Users\codyg\AppData\Local\Temp\ccCwzev2.s 			page 41


 493:Generated_Source\PSoC6\pdl\rtos\FreeRTOS\9.0.0\Source/timers.c **** 	return pxTimer->pcTimerName;
 1170              		.loc 1 493 0
 1171 0000 08B9     		cbnz	r0, .L108
 493:Generated_Source\PSoC6\pdl\rtos\FreeRTOS\9.0.0\Source/timers.c **** 	return pxTimer->pcTimerName;
 1172              		.loc 1 493 0 is_stmt 0 discriminator 1
 1173              		.syntax unified
 1174              	@ 493 "Generated_Source\PSoC6\pdl\rtos\FreeRTOS\9.0.0\Source\timers.c" 1
 1175 0002 72B6     		 cpsid i 
 1176              	@ 0 "" 2
 1177              		.thumb
 1178              		.syntax unified
 1179              	.L109:
 1180 0004 FEE7     		b	.L109
 1181              	.L108:
 495:Generated_Source\PSoC6\pdl\rtos\FreeRTOS\9.0.0\Source/timers.c **** /*-----------------------------------------------------------*/
 1182              		.loc 1 495 0 is_stmt 1
 1183 0006 0068     		ldr	r0, [r0]
 1184              	.LVL121:
 1185 0008 7047     		bx	lr
 1186              		.cfi_endproc
 1187              	.LFE528:
 1188              		.size	pcTimerGetName, .-pcTimerGetName
 1189 000a 00BF     		.section	.text.xTimerIsTimerActive,"ax",%progbits
 1190              		.align	2
 1191              		.global	xTimerIsTimerActive
 1192              		.thumb
 1193              		.thumb_func
 1194              		.type	xTimerIsTimerActive, %function
 1195              	xTimerIsTimerActive:
 1196              	.LFB538:
 978:Generated_Source\PSoC6\pdl\rtos\FreeRTOS\9.0.0\Source/timers.c **** }
 979:Generated_Source\PSoC6\pdl\rtos\FreeRTOS\9.0.0\Source/timers.c **** /*-----------------------------------------------------------*/
 980:Generated_Source\PSoC6\pdl\rtos\FreeRTOS\9.0.0\Source/timers.c **** 
 981:Generated_Source\PSoC6\pdl\rtos\FreeRTOS\9.0.0\Source/timers.c **** BaseType_t xTimerIsTimerActive( TimerHandle_t xTimer )
 982:Generated_Source\PSoC6\pdl\rtos\FreeRTOS\9.0.0\Source/timers.c **** {
 1197              		.loc 1 982 0
 1198              		.cfi_startproc
 1199              		@ args = 0, pretend = 0, frame = 0
 1200              		@ frame_needed = 0, uses_anonymous_args = 0
 1201              	.LVL122:
 983:Generated_Source\PSoC6\pdl\rtos\FreeRTOS\9.0.0\Source/timers.c **** BaseType_t xTimerIsInActiveList;
 984:Generated_Source\PSoC6\pdl\rtos\FreeRTOS\9.0.0\Source/timers.c **** Timer_t *pxTimer = ( Timer_t * ) xTimer;
 985:Generated_Source\PSoC6\pdl\rtos\FreeRTOS\9.0.0\Source/timers.c **** 
 986:Generated_Source\PSoC6\pdl\rtos\FreeRTOS\9.0.0\Source/timers.c **** 	configASSERT( xTimer );
 1202              		.loc 1 986 0
 1203 0000 08B9     		cbnz	r0, .L111
 1204              		.loc 1 986 0 is_stmt 0 discriminator 1
 1205              		.syntax unified
 1206              	@ 986 "Generated_Source\PSoC6\pdl\rtos\FreeRTOS\9.0.0\Source\timers.c" 1
 1207 0002 72B6     		 cpsid i 
 1208              	@ 0 "" 2
 1209              		.thumb
 1210              		.syntax unified
 1211              	.L112:
 1212 0004 FEE7     		b	.L112
 1213              	.L111:
 982:Generated_Source\PSoC6\pdl\rtos\FreeRTOS\9.0.0\Source/timers.c **** BaseType_t xTimerIsInActiveList;
ARM GAS  C:\Users\codyg\AppData\Local\Temp\ccCwzev2.s 			page 42


 1214              		.loc 1 982 0 is_stmt 1
 1215 0006 10B5     		push	{r4, lr}
 1216              		.cfi_def_cfa_offset 8
 1217              		.cfi_offset 4, -8
 1218              		.cfi_offset 14, -4
 1219 0008 0446     		mov	r4, r0
 987:Generated_Source\PSoC6\pdl\rtos\FreeRTOS\9.0.0\Source/timers.c **** 
 988:Generated_Source\PSoC6\pdl\rtos\FreeRTOS\9.0.0\Source/timers.c **** 	/* Is the timer in the list of active timers? */
 989:Generated_Source\PSoC6\pdl\rtos\FreeRTOS\9.0.0\Source/timers.c **** 	taskENTER_CRITICAL();
 1220              		.loc 1 989 0
 1221 000a FFF7FEFF 		bl	vPortEnterCritical
 1222              	.LVL123:
 990:Generated_Source\PSoC6\pdl\rtos\FreeRTOS\9.0.0\Source/timers.c **** 	{
 991:Generated_Source\PSoC6\pdl\rtos\FreeRTOS\9.0.0\Source/timers.c **** 		/* Checking to see if it is in the NULL list in effect checks to see if
 992:Generated_Source\PSoC6\pdl\rtos\FreeRTOS\9.0.0\Source/timers.c **** 		it is referenced from either the current or the overflow timer lists in
 993:Generated_Source\PSoC6\pdl\rtos\FreeRTOS\9.0.0\Source/timers.c **** 		one go, but the logic has to be reversed, hence the '!'. */
 994:Generated_Source\PSoC6\pdl\rtos\FreeRTOS\9.0.0\Source/timers.c **** 		xTimerIsInActiveList = ( BaseType_t ) !( listIS_CONTAINED_WITHIN( NULL, &( pxTimer->xTimerListIte
 1223              		.loc 1 994 0
 1224 000e 6469     		ldr	r4, [r4, #20]
 1225              	.LVL124:
 1226 0010 0034     		adds	r4, r4, #0
 1227 0012 18BF     		it	ne
 1228 0014 0124     		movne	r4, #1
 1229              	.LVL125:
 995:Generated_Source\PSoC6\pdl\rtos\FreeRTOS\9.0.0\Source/timers.c **** 	}
 996:Generated_Source\PSoC6\pdl\rtos\FreeRTOS\9.0.0\Source/timers.c **** 	taskEXIT_CRITICAL();
 1230              		.loc 1 996 0
 1231 0016 FFF7FEFF 		bl	vPortExitCritical
 1232              	.LVL126:
 997:Generated_Source\PSoC6\pdl\rtos\FreeRTOS\9.0.0\Source/timers.c **** 
 998:Generated_Source\PSoC6\pdl\rtos\FreeRTOS\9.0.0\Source/timers.c **** 	return xTimerIsInActiveList;
 999:Generated_Source\PSoC6\pdl\rtos\FreeRTOS\9.0.0\Source/timers.c **** } /*lint !e818 Can't be pointer to const due to the typedef. */
 1233              		.loc 1 999 0
 1234 001a 2046     		mov	r0, r4
 1235 001c 10BD     		pop	{r4, pc}
 1236              		.cfi_endproc
 1237              	.LFE538:
 1238              		.size	xTimerIsTimerActive, .-xTimerIsTimerActive
 1239 001e 00BF     		.section	.text.pvTimerGetTimerID,"ax",%progbits
 1240              		.align	2
 1241              		.global	pvTimerGetTimerID
 1242              		.thumb
 1243              		.thumb_func
 1244              		.type	pvTimerGetTimerID, %function
 1245              	pvTimerGetTimerID:
 1246              	.LFB539:
1000:Generated_Source\PSoC6\pdl\rtos\FreeRTOS\9.0.0\Source/timers.c **** /*-----------------------------------------------------------*/
1001:Generated_Source\PSoC6\pdl\rtos\FreeRTOS\9.0.0\Source/timers.c **** 
1002:Generated_Source\PSoC6\pdl\rtos\FreeRTOS\9.0.0\Source/timers.c **** void *pvTimerGetTimerID( const TimerHandle_t xTimer )
1003:Generated_Source\PSoC6\pdl\rtos\FreeRTOS\9.0.0\Source/timers.c **** {
 1247              		.loc 1 1003 0
 1248              		.cfi_startproc
 1249              		@ args = 0, pretend = 0, frame = 0
 1250              		@ frame_needed = 0, uses_anonymous_args = 0
 1251              	.LVL127:
1004:Generated_Source\PSoC6\pdl\rtos\FreeRTOS\9.0.0\Source/timers.c **** Timer_t * const pxTimer = ( Timer_t * ) xTimer;
1005:Generated_Source\PSoC6\pdl\rtos\FreeRTOS\9.0.0\Source/timers.c **** void *pvReturn;
ARM GAS  C:\Users\codyg\AppData\Local\Temp\ccCwzev2.s 			page 43


1006:Generated_Source\PSoC6\pdl\rtos\FreeRTOS\9.0.0\Source/timers.c **** 
1007:Generated_Source\PSoC6\pdl\rtos\FreeRTOS\9.0.0\Source/timers.c **** 	configASSERT( xTimer );
 1252              		.loc 1 1007 0
 1253 0000 08B9     		cbnz	r0, .L115
 1254              		.loc 1 1007 0 is_stmt 0 discriminator 1
 1255              		.syntax unified
 1256              	@ 1007 "Generated_Source\PSoC6\pdl\rtos\FreeRTOS\9.0.0\Source\timers.c" 1
 1257 0002 72B6     		 cpsid i 
 1258              	@ 0 "" 2
 1259              		.thumb
 1260              		.syntax unified
 1261              	.L116:
 1262 0004 FEE7     		b	.L116
 1263              	.L115:
1003:Generated_Source\PSoC6\pdl\rtos\FreeRTOS\9.0.0\Source/timers.c **** Timer_t * const pxTimer = ( Timer_t * ) xTimer;
 1264              		.loc 1 1003 0 is_stmt 1
 1265 0006 10B5     		push	{r4, lr}
 1266              		.cfi_def_cfa_offset 8
 1267              		.cfi_offset 4, -8
 1268              		.cfi_offset 14, -4
 1269 0008 0446     		mov	r4, r0
1008:Generated_Source\PSoC6\pdl\rtos\FreeRTOS\9.0.0\Source/timers.c **** 
1009:Generated_Source\PSoC6\pdl\rtos\FreeRTOS\9.0.0\Source/timers.c **** 	taskENTER_CRITICAL();
 1270              		.loc 1 1009 0
 1271 000a FFF7FEFF 		bl	vPortEnterCritical
 1272              	.LVL128:
1010:Generated_Source\PSoC6\pdl\rtos\FreeRTOS\9.0.0\Source/timers.c **** 	{
1011:Generated_Source\PSoC6\pdl\rtos\FreeRTOS\9.0.0\Source/timers.c **** 		pvReturn = pxTimer->pvTimerID;
 1273              		.loc 1 1011 0
 1274 000e 246A     		ldr	r4, [r4, #32]
 1275              	.LVL129:
1012:Generated_Source\PSoC6\pdl\rtos\FreeRTOS\9.0.0\Source/timers.c **** 	}
1013:Generated_Source\PSoC6\pdl\rtos\FreeRTOS\9.0.0\Source/timers.c **** 	taskEXIT_CRITICAL();
 1276              		.loc 1 1013 0
 1277 0010 FFF7FEFF 		bl	vPortExitCritical
 1278              	.LVL130:
1014:Generated_Source\PSoC6\pdl\rtos\FreeRTOS\9.0.0\Source/timers.c **** 
1015:Generated_Source\PSoC6\pdl\rtos\FreeRTOS\9.0.0\Source/timers.c **** 	return pvReturn;
1016:Generated_Source\PSoC6\pdl\rtos\FreeRTOS\9.0.0\Source/timers.c **** }
 1279              		.loc 1 1016 0
 1280 0014 2046     		mov	r0, r4
 1281 0016 10BD     		pop	{r4, pc}
 1282              		.cfi_endproc
 1283              	.LFE539:
 1284              		.size	pvTimerGetTimerID, .-pvTimerGetTimerID
 1285              		.section	.text.vTimerSetTimerID,"ax",%progbits
 1286              		.align	2
 1287              		.global	vTimerSetTimerID
 1288              		.thumb
 1289              		.thumb_func
 1290              		.type	vTimerSetTimerID, %function
 1291              	vTimerSetTimerID:
 1292              	.LFB540:
1017:Generated_Source\PSoC6\pdl\rtos\FreeRTOS\9.0.0\Source/timers.c **** /*-----------------------------------------------------------*/
1018:Generated_Source\PSoC6\pdl\rtos\FreeRTOS\9.0.0\Source/timers.c **** 
1019:Generated_Source\PSoC6\pdl\rtos\FreeRTOS\9.0.0\Source/timers.c **** void vTimerSetTimerID( TimerHandle_t xTimer, void *pvNewID )
1020:Generated_Source\PSoC6\pdl\rtos\FreeRTOS\9.0.0\Source/timers.c **** {
ARM GAS  C:\Users\codyg\AppData\Local\Temp\ccCwzev2.s 			page 44


 1293              		.loc 1 1020 0
 1294              		.cfi_startproc
 1295              		@ args = 0, pretend = 0, frame = 0
 1296              		@ frame_needed = 0, uses_anonymous_args = 0
 1297              	.LVL131:
1021:Generated_Source\PSoC6\pdl\rtos\FreeRTOS\9.0.0\Source/timers.c **** Timer_t * const pxTimer = ( Timer_t * ) xTimer;
1022:Generated_Source\PSoC6\pdl\rtos\FreeRTOS\9.0.0\Source/timers.c **** 
1023:Generated_Source\PSoC6\pdl\rtos\FreeRTOS\9.0.0\Source/timers.c **** 	configASSERT( xTimer );
 1298              		.loc 1 1023 0
 1299 0000 08B9     		cbnz	r0, .L119
 1300              		.loc 1 1023 0 is_stmt 0 discriminator 1
 1301              		.syntax unified
 1302              	@ 1023 "Generated_Source\PSoC6\pdl\rtos\FreeRTOS\9.0.0\Source\timers.c" 1
 1303 0002 72B6     		 cpsid i 
 1304              	@ 0 "" 2
 1305              		.thumb
 1306              		.syntax unified
 1307              	.L120:
 1308 0004 FEE7     		b	.L120
 1309              	.L119:
1020:Generated_Source\PSoC6\pdl\rtos\FreeRTOS\9.0.0\Source/timers.c **** Timer_t * const pxTimer = ( Timer_t * ) xTimer;
 1310              		.loc 1 1020 0 is_stmt 1
 1311 0006 38B5     		push	{r3, r4, r5, lr}
 1312              		.cfi_def_cfa_offset 16
 1313              		.cfi_offset 3, -16
 1314              		.cfi_offset 4, -12
 1315              		.cfi_offset 5, -8
 1316              		.cfi_offset 14, -4
 1317 0008 0446     		mov	r4, r0
 1318 000a 0D46     		mov	r5, r1
1024:Generated_Source\PSoC6\pdl\rtos\FreeRTOS\9.0.0\Source/timers.c **** 
1025:Generated_Source\PSoC6\pdl\rtos\FreeRTOS\9.0.0\Source/timers.c **** 	taskENTER_CRITICAL();
 1319              		.loc 1 1025 0
 1320 000c FFF7FEFF 		bl	vPortEnterCritical
 1321              	.LVL132:
1026:Generated_Source\PSoC6\pdl\rtos\FreeRTOS\9.0.0\Source/timers.c **** 	{
1027:Generated_Source\PSoC6\pdl\rtos\FreeRTOS\9.0.0\Source/timers.c **** 		pxTimer->pvTimerID = pvNewID;
 1322              		.loc 1 1027 0
 1323 0010 2562     		str	r5, [r4, #32]
1028:Generated_Source\PSoC6\pdl\rtos\FreeRTOS\9.0.0\Source/timers.c **** 	}
1029:Generated_Source\PSoC6\pdl\rtos\FreeRTOS\9.0.0\Source/timers.c **** 	taskEXIT_CRITICAL();
 1324              		.loc 1 1029 0
 1325 0012 FFF7FEFF 		bl	vPortExitCritical
 1326              	.LVL133:
 1327 0016 38BD     		pop	{r3, r4, r5, pc}
 1328              		.cfi_endproc
 1329              	.LFE540:
 1330              		.size	vTimerSetTimerID, .-vTimerSetTimerID
 1331              		.section	.rodata.str1.4,"aMS",%progbits,1
 1332              		.align	2
 1333              	.LC0:
 1334 0000 546D7251 		.ascii	"TmrQ\000"
 1334      00
 1335 0005 000000   		.space	3
 1336              	.LC1:
 1337 0008 546D7220 		.ascii	"Tmr Svc\000"
 1337      53766300 
ARM GAS  C:\Users\codyg\AppData\Local\Temp\ccCwzev2.s 			page 45


 1338              		.bss
 1339              		.align	2
 1340              		.set	.LANCHOR0,. + 0
 1341              		.type	pxCurrentTimerList, %object
 1342              		.size	pxCurrentTimerList, 4
 1343              	pxCurrentTimerList:
 1344 0000 00000000 		.space	4
 1345              		.type	pxOverflowTimerList, %object
 1346              		.size	pxOverflowTimerList, 4
 1347              	pxOverflowTimerList:
 1348 0004 00000000 		.space	4
 1349              		.type	xTimerQueue, %object
 1350              		.size	xTimerQueue, 4
 1351              	xTimerQueue:
 1352 0008 00000000 		.space	4
 1353              		.type	xActiveTimerList1, %object
 1354              		.size	xActiveTimerList1, 20
 1355              	xActiveTimerList1:
 1356 000c 00000000 		.space	20
 1356      00000000 
 1356      00000000 
 1356      00000000 
 1356      00000000 
 1357              		.type	xActiveTimerList2, %object
 1358              		.size	xActiveTimerList2, 20
 1359              	xActiveTimerList2:
 1360 0020 00000000 		.space	20
 1360      00000000 
 1360      00000000 
 1360      00000000 
 1360      00000000 
 1361              		.type	xTimerTaskHandle, %object
 1362              		.size	xTimerTaskHandle, 4
 1363              	xTimerTaskHandle:
 1364 0034 00000000 		.space	4
 1365              		.type	xLastTime.18141, %object
 1366              		.size	xLastTime.18141, 4
 1367              	xLastTime.18141:
 1368 0038 00000000 		.space	4
 1369              		.text
 1370              	.Letext0:
 1371              		.file 2 "c:\\program files (x86)\\cypress\\psoc creator\\4.2\\psoc creator\\import\\gnu\\arm\\5.4.
 1372              		.file 3 "c:\\program files (x86)\\cypress\\psoc creator\\4.2\\psoc creator\\import\\gnu\\arm\\5.4.
 1373              		.file 4 "Generated_Source\\PSoC6\\pdl\\drivers/peripheral/scb/cy_scb_spi.h"
 1374              		.file 5 "Generated_Source\\PSoC6\\pdl\\drivers/peripheral/sar/cy_sar.h"
 1375              		.file 6 "Generated_Source\\PSoC6\\pdl\\middleware/ble/cy_ble_stack.h"
 1376              		.file 7 "Generated_Source\\PSoC6\\pdl\\middleware/ble/cy_ble_stack_host_main.h"
 1377              		.file 8 "Generated_Source\\PSoC6\\pdl\\middleware/ble/cy_ble_gap.h"
 1378              		.file 9 "Generated_Source\\PSoC6\\pdl\\middleware/ble/cy_ble_dis.h"
 1379              		.file 10 "Generated_Source\\PSoC6\\pdl\\middleware/ble/cy_ble_hts.h"
 1380              		.file 11 "Generated_Source\\PSoC6\\pdl\\middleware/ble/cy_ble_event_handler.h"
 1381              		.file 12 "Generated_Source\\PSoC6/ADC.h"
 1382              		.file 13 "Generated_Source\\PSoC6\\pdl\\rtos/FreeRTOS/9.0.0/Source/portable/GCC/CM4F/portmacro.h"
 1383              		.file 14 "Generated_Source\\PSoC6\\pdl\\rtos/FreeRTOS/9.0.0/Source/include/list.h"
 1384              		.file 15 "Generated_Source\\PSoC6\\pdl\\rtos/FreeRTOS/9.0.0/Source/include/task.h"
 1385              		.file 16 "Generated_Source\\PSoC6\\pdl\\rtos/FreeRTOS/9.0.0/Source/include/queue.h"
 1386              		.file 17 "Generated_Source\\PSoC6\\pdl\\rtos/FreeRTOS/9.0.0/Source/include/timers.h"
ARM GAS  C:\Users\codyg\AppData\Local\Temp\ccCwzev2.s 			page 46


 1387              		.file 18 "Generated_Source\\PSoC6\\pdl\\cmsis/include/core_cm4.h"
 1388              		.file 19 "Generated_Source\\PSoC6/CY_EINK_SPIM.h"
 1389              		.file 20 "Generated_Source\\PSoC6\\pdl\\rtos/FreeRTOS/9.0.0/Source/include/portable.h"
 1390              		.section	.debug_info,"",%progbits
 1391              	.Ldebug_info0:
 1392 0000 BE150000 		.4byte	0x15be
 1393 0004 0400     		.2byte	0x4
 1394 0006 00000000 		.4byte	.Ldebug_abbrev0
 1395 000a 04       		.byte	0x4
 1396 000b 01       		.uleb128 0x1
 1397 000c B7040000 		.4byte	.LASF325
 1398 0010 0C       		.byte	0xc
 1399 0011 950C0000 		.4byte	.LASF326
 1400 0015 D6100000 		.4byte	.LASF327
 1401 0019 00000000 		.4byte	.Ldebug_ranges0+0
 1402 001d 00000000 		.4byte	0
 1403 0021 00000000 		.4byte	.Ldebug_line0
 1404 0025 02       		.uleb128 0x2
 1405 0026 04       		.byte	0x4
 1406 0027 07       		.byte	0x7
 1407 0028 CA020000 		.4byte	.LASF0
 1408 002c 03       		.uleb128 0x3
 1409 002d 04       		.byte	0x4
 1410 002e 05       		.byte	0x5
 1411 002f 696E7400 		.ascii	"int\000"
 1412 0033 02       		.uleb128 0x2
 1413 0034 08       		.byte	0x8
 1414 0035 05       		.byte	0x5
 1415 0036 40100000 		.4byte	.LASF1
 1416 003a 02       		.uleb128 0x2
 1417 003b 08       		.byte	0x8
 1418 003c 04       		.byte	0x4
 1419 003d 11140000 		.4byte	.LASF2
 1420 0041 02       		.uleb128 0x2
 1421 0042 01       		.byte	0x1
 1422 0043 06       		.byte	0x6
 1423 0044 481C0000 		.4byte	.LASF3
 1424 0048 04       		.uleb128 0x4
 1425 0049 11180000 		.4byte	.LASF7
 1426 004d 02       		.byte	0x2
 1427 004e 1D       		.byte	0x1d
 1428 004f 53000000 		.4byte	0x53
 1429 0053 02       		.uleb128 0x2
 1430 0054 01       		.byte	0x1
 1431 0055 08       		.byte	0x8
 1432 0056 DE190000 		.4byte	.LASF4
 1433 005a 02       		.uleb128 0x2
 1434 005b 02       		.byte	0x2
 1435 005c 05       		.byte	0x5
 1436 005d 2D160000 		.4byte	.LASF5
 1437 0061 02       		.uleb128 0x2
 1438 0062 02       		.byte	0x2
 1439 0063 07       		.byte	0x7
 1440 0064 541C0000 		.4byte	.LASF6
 1441 0068 04       		.uleb128 0x4
 1442 0069 39030000 		.4byte	.LASF8
 1443 006d 02       		.byte	0x2
ARM GAS  C:\Users\codyg\AppData\Local\Temp\ccCwzev2.s 			page 47


 1444 006e 3F       		.byte	0x3f
 1445 006f 73000000 		.4byte	0x73
 1446 0073 02       		.uleb128 0x2
 1447 0074 04       		.byte	0x4
 1448 0075 05       		.byte	0x5
 1449 0076 25000000 		.4byte	.LASF9
 1450 007a 04       		.uleb128 0x4
 1451 007b 1F1A0000 		.4byte	.LASF10
 1452 007f 02       		.byte	0x2
 1453 0080 41       		.byte	0x41
 1454 0081 85000000 		.4byte	0x85
 1455 0085 02       		.uleb128 0x2
 1456 0086 04       		.byte	0x4
 1457 0087 07       		.byte	0x7
 1458 0088 4A190000 		.4byte	.LASF11
 1459 008c 02       		.uleb128 0x2
 1460 008d 08       		.byte	0x8
 1461 008e 07       		.byte	0x7
 1462 008f 44080000 		.4byte	.LASF12
 1463 0093 02       		.uleb128 0x2
 1464 0094 04       		.byte	0x4
 1465 0095 07       		.byte	0x7
 1466 0096 41190000 		.4byte	.LASF13
 1467 009a 05       		.uleb128 0x5
 1468 009b 04       		.byte	0x4
 1469 009c 02       		.uleb128 0x2
 1470 009d 01       		.byte	0x1
 1471 009e 08       		.byte	0x8
 1472 009f 660D0000 		.4byte	.LASF14
 1473 00a3 06       		.uleb128 0x6
 1474 00a4 04       		.byte	0x4
 1475 00a5 A9000000 		.4byte	0xa9
 1476 00a9 07       		.uleb128 0x7
 1477 00aa 9C000000 		.4byte	0x9c
 1478 00ae 04       		.uleb128 0x4
 1479 00af E20E0000 		.4byte	.LASF15
 1480 00b3 03       		.byte	0x3
 1481 00b4 18       		.byte	0x18
 1482 00b5 48000000 		.4byte	0x48
 1483 00b9 04       		.uleb128 0x4
 1484 00ba 6F190000 		.4byte	.LASF16
 1485 00be 03       		.byte	0x3
 1486 00bf 2C       		.byte	0x2c
 1487 00c0 68000000 		.4byte	0x68
 1488 00c4 04       		.uleb128 0x4
 1489 00c5 A2060000 		.4byte	.LASF17
 1490 00c9 03       		.byte	0x3
 1491 00ca 30       		.byte	0x30
 1492 00cb 7A000000 		.4byte	0x7a
 1493 00cf 08       		.uleb128 0x8
 1494 00d0 C4000000 		.4byte	0xc4
 1495 00d4 02       		.uleb128 0x2
 1496 00d5 04       		.byte	0x4
 1497 00d6 04       		.byte	0x4
 1498 00d7 69190000 		.4byte	.LASF18
 1499 00db 02       		.uleb128 0x2
 1500 00dc 08       		.byte	0x8
ARM GAS  C:\Users\codyg\AppData\Local\Temp\ccCwzev2.s 			page 48


 1501 00dd 04       		.byte	0x4
 1502 00de 680A0000 		.4byte	.LASF19
 1503 00e2 02       		.uleb128 0x2
 1504 00e3 01       		.byte	0x1
 1505 00e4 02       		.byte	0x2
 1506 00e5 7F0A0000 		.4byte	.LASF20
 1507 00e9 06       		.uleb128 0x6
 1508 00ea 04       		.byte	0x4
 1509 00eb EF000000 		.4byte	0xef
 1510 00ef 09       		.uleb128 0x9
 1511 00f0 FA000000 		.4byte	0xfa
 1512 00f4 0A       		.uleb128 0xa
 1513 00f5 C4000000 		.4byte	0xc4
 1514 00f9 00       		.byte	0
 1515 00fa 0B       		.uleb128 0xb
 1516 00fb A9000000 		.4byte	.LASF21
 1517 00ff 04       		.byte	0x4
 1518 0100 BF01     		.2byte	0x1bf
 1519 0102 E9000000 		.4byte	0xe9
 1520 0106 0C       		.uleb128 0xc
 1521 0107 D5180000 		.4byte	.LASF215
 1522 010b 24       		.byte	0x24
 1523 010c 04       		.byte	0x4
 1524 010d 4102     		.2byte	0x241
 1525 010f 89010000 		.4byte	0x189
 1526 0113 0D       		.uleb128 0xd
 1527 0114 EA0E0000 		.4byte	.LASF22
 1528 0118 04       		.byte	0x4
 1529 0119 4402     		.2byte	0x244
 1530 011b CF000000 		.4byte	0xcf
 1531 011f 00       		.byte	0
 1532 0120 0D       		.uleb128 0xd
 1533 0121 A6090000 		.4byte	.LASF23
 1534 0125 04       		.byte	0x4
 1535 0126 4602     		.2byte	0x246
 1536 0128 9A000000 		.4byte	0x9a
 1537 012c 04       		.byte	0x4
 1538 012d 0D       		.uleb128 0xd
 1539 012e 481E0000 		.4byte	.LASF24
 1540 0132 04       		.byte	0x4
 1541 0133 4702     		.2byte	0x247
 1542 0135 C4000000 		.4byte	0xc4
 1543 0139 08       		.byte	0x8
 1544 013a 0D       		.uleb128 0xd
 1545 013b 8D0E0000 		.4byte	.LASF25
 1546 013f 04       		.byte	0x4
 1547 0140 4802     		.2byte	0x248
 1548 0142 CF000000 		.4byte	0xcf
 1549 0146 0C       		.byte	0xc
 1550 0147 0D       		.uleb128 0xd
 1551 0148 AF130000 		.4byte	.LASF26
 1552 014c 04       		.byte	0x4
 1553 014d 4A02     		.2byte	0x24a
 1554 014f 9A000000 		.4byte	0x9a
 1555 0153 10       		.byte	0x10
 1556 0154 0D       		.uleb128 0xd
 1557 0155 39120000 		.4byte	.LASF27
ARM GAS  C:\Users\codyg\AppData\Local\Temp\ccCwzev2.s 			page 49


 1558 0159 04       		.byte	0x4
 1559 015a 4B02     		.2byte	0x24b
 1560 015c C4000000 		.4byte	0xc4
 1561 0160 14       		.byte	0x14
 1562 0161 0D       		.uleb128 0xd
 1563 0162 17030000 		.4byte	.LASF28
 1564 0166 04       		.byte	0x4
 1565 0167 4C02     		.2byte	0x24c
 1566 0169 CF000000 		.4byte	0xcf
 1567 016d 18       		.byte	0x18
 1568 016e 0D       		.uleb128 0xd
 1569 016f 470A0000 		.4byte	.LASF29
 1570 0173 04       		.byte	0x4
 1571 0174 5202     		.2byte	0x252
 1572 0176 FA000000 		.4byte	0xfa
 1573 017a 1C       		.byte	0x1c
 1574 017b 0D       		.uleb128 0xd
 1575 017c DA0E0000 		.4byte	.LASF30
 1576 0180 04       		.byte	0x4
 1577 0181 5502     		.2byte	0x255
 1578 0183 C4000000 		.4byte	0xc4
 1579 0187 20       		.byte	0x20
 1580 0188 00       		.byte	0
 1581 0189 0B       		.uleb128 0xb
 1582 018a A5110000 		.4byte	.LASF31
 1583 018e 04       		.byte	0x4
 1584 018f 5802     		.2byte	0x258
 1585 0191 06010000 		.4byte	0x106
 1586 0195 0E       		.uleb128 0xe
 1587 0196 01       		.byte	0x1
 1588 0197 53000000 		.4byte	0x53
 1589 019b 05       		.byte	0x5
 1590 019c 0504     		.2byte	0x405
 1591 019e BB010000 		.4byte	0x1bb
 1592 01a2 0F       		.uleb128 0xf
 1593 01a3 91050000 		.4byte	.LASF32
 1594 01a7 00       		.byte	0
 1595 01a8 0F       		.uleb128 0xf
 1596 01a9 8D090000 		.4byte	.LASF33
 1597 01ad 01       		.byte	0x1
 1598 01ae 0F       		.uleb128 0xf
 1599 01af 4E0D0000 		.4byte	.LASF34
 1600 01b3 02       		.byte	0x2
 1601 01b4 0F       		.uleb128 0xf
 1602 01b5 F1020000 		.4byte	.LASF35
 1603 01b9 03       		.byte	0x3
 1604 01ba 00       		.byte	0
 1605 01bb 0B       		.uleb128 0xb
 1606 01bc 221D0000 		.4byte	.LASF36
 1607 01c0 05       		.byte	0x5
 1608 01c1 0A04     		.2byte	0x40a
 1609 01c3 95010000 		.4byte	0x195
 1610 01c7 10       		.uleb128 0x10
 1611 01c8 78       		.byte	0x78
 1612 01c9 05       		.byte	0x5
 1613 01ca F404     		.2byte	0x4f4
 1614 01cc 94020000 		.4byte	0x294
ARM GAS  C:\Users\codyg\AppData\Local\Temp\ccCwzev2.s 			page 50


 1615 01d0 0D       		.uleb128 0xd
 1616 01d1 3A090000 		.4byte	.LASF37
 1617 01d5 05       		.byte	0x5
 1618 01d6 F604     		.2byte	0x4f6
 1619 01d8 C4000000 		.4byte	0xc4
 1620 01dc 00       		.byte	0
 1621 01dd 0D       		.uleb128 0xd
 1622 01de D3190000 		.4byte	.LASF38
 1623 01e2 05       		.byte	0x5
 1624 01e3 F704     		.2byte	0x4f7
 1625 01e5 C4000000 		.4byte	0xc4
 1626 01e9 04       		.byte	0x4
 1627 01ea 0D       		.uleb128 0xd
 1628 01eb 3C140000 		.4byte	.LASF39
 1629 01ef 05       		.byte	0x5
 1630 01f0 F804     		.2byte	0x4f8
 1631 01f2 C4000000 		.4byte	0xc4
 1632 01f6 08       		.byte	0x8
 1633 01f7 0D       		.uleb128 0xd
 1634 01f8 3A0A0000 		.4byte	.LASF40
 1635 01fc 05       		.byte	0x5
 1636 01fd F904     		.2byte	0x4f9
 1637 01ff C4000000 		.4byte	0xc4
 1638 0203 0C       		.byte	0xc
 1639 0204 0D       		.uleb128 0xd
 1640 0205 A4080000 		.4byte	.LASF41
 1641 0209 05       		.byte	0x5
 1642 020a FA04     		.2byte	0x4fa
 1643 020c C4000000 		.4byte	0xc4
 1644 0210 10       		.byte	0x10
 1645 0211 0D       		.uleb128 0xd
 1646 0212 F10F0000 		.4byte	.LASF42
 1647 0216 05       		.byte	0x5
 1648 0217 FB04     		.2byte	0x4fb
 1649 0219 BB010000 		.4byte	0x1bb
 1650 021d 14       		.byte	0x14
 1651 021e 0D       		.uleb128 0xd
 1652 021f 9A0D0000 		.4byte	.LASF43
 1653 0223 05       		.byte	0x5
 1654 0224 FC04     		.2byte	0x4fc
 1655 0226 C4000000 		.4byte	0xc4
 1656 022a 18       		.byte	0x18
 1657 022b 0D       		.uleb128 0xd
 1658 022c DC110000 		.4byte	.LASF44
 1659 0230 05       		.byte	0x5
 1660 0231 FD04     		.2byte	0x4fd
 1661 0233 94020000 		.4byte	0x294
 1662 0237 1C       		.byte	0x1c
 1663 0238 0D       		.uleb128 0xd
 1664 0239 2D1E0000 		.4byte	.LASF45
 1665 023d 05       		.byte	0x5
 1666 023e FE04     		.2byte	0x4fe
 1667 0240 C4000000 		.4byte	0xc4
 1668 0244 5C       		.byte	0x5c
 1669 0245 0D       		.uleb128 0xd
 1670 0246 52040000 		.4byte	.LASF46
 1671 024a 05       		.byte	0x5
ARM GAS  C:\Users\codyg\AppData\Local\Temp\ccCwzev2.s 			page 51


 1672 024b FF04     		.2byte	0x4ff
 1673 024d C4000000 		.4byte	0xc4
 1674 0251 60       		.byte	0x60
 1675 0252 0D       		.uleb128 0xd
 1676 0253 141D0000 		.4byte	.LASF47
 1677 0257 05       		.byte	0x5
 1678 0258 0005     		.2byte	0x500
 1679 025a C4000000 		.4byte	0xc4
 1680 025e 64       		.byte	0x64
 1681 025f 0D       		.uleb128 0xd
 1682 0260 C5140000 		.4byte	.LASF48
 1683 0264 05       		.byte	0x5
 1684 0265 0105     		.2byte	0x501
 1685 0267 C4000000 		.4byte	0xc4
 1686 026b 68       		.byte	0x68
 1687 026c 0D       		.uleb128 0xd
 1688 026d 9A0F0000 		.4byte	.LASF49
 1689 0271 05       		.byte	0x5
 1690 0272 0205     		.2byte	0x502
 1691 0274 C4000000 		.4byte	0xc4
 1692 0278 6C       		.byte	0x6c
 1693 0279 0D       		.uleb128 0xd
 1694 027a 061D0000 		.4byte	.LASF50
 1695 027e 05       		.byte	0x5
 1696 027f 0305     		.2byte	0x503
 1697 0281 E2000000 		.4byte	0xe2
 1698 0285 70       		.byte	0x70
 1699 0286 0D       		.uleb128 0xd
 1700 0287 5C0C0000 		.4byte	.LASF51
 1701 028b 05       		.byte	0x5
 1702 028c 0405     		.2byte	0x504
 1703 028e C4000000 		.4byte	0xc4
 1704 0292 74       		.byte	0x74
 1705 0293 00       		.byte	0
 1706 0294 11       		.uleb128 0x11
 1707 0295 C4000000 		.4byte	0xc4
 1708 0299 A4020000 		.4byte	0x2a4
 1709 029d 12       		.uleb128 0x12
 1710 029e 93000000 		.4byte	0x93
 1711 02a2 0F       		.byte	0xf
 1712 02a3 00       		.byte	0
 1713 02a4 0B       		.uleb128 0xb
 1714 02a5 20090000 		.4byte	.LASF52
 1715 02a9 05       		.byte	0x5
 1716 02aa 0505     		.2byte	0x505
 1717 02ac C7010000 		.4byte	0x1c7
 1718 02b0 0E       		.uleb128 0xe
 1719 02b1 02       		.byte	0x2
 1720 02b2 61000000 		.4byte	0x61
 1721 02b6 06       		.byte	0x6
 1722 02b7 3F01     		.2byte	0x13f
 1723 02b9 E2050000 		.4byte	0x5e2
 1724 02bd 0F       		.uleb128 0xf
 1725 02be B8070000 		.4byte	.LASF53
 1726 02c2 00       		.byte	0
 1727 02c3 13       		.uleb128 0x13
 1728 02c4 FB060000 		.4byte	.LASF54
ARM GAS  C:\Users\codyg\AppData\Local\Temp\ccCwzev2.s 			page 52


 1729 02c8 0010     		.2byte	0x1000
 1730 02ca 13       		.uleb128 0x13
 1731 02cb 1D190000 		.4byte	.LASF55
 1732 02cf 0110     		.2byte	0x1001
 1733 02d1 13       		.uleb128 0x13
 1734 02d2 C70B0000 		.4byte	.LASF56
 1735 02d6 0210     		.2byte	0x1002
 1736 02d8 13       		.uleb128 0x13
 1737 02d9 420C0000 		.4byte	.LASF57
 1738 02dd 0310     		.2byte	0x1003
 1739 02df 13       		.uleb128 0x13
 1740 02e0 3C010000 		.4byte	.LASF58
 1741 02e4 0410     		.2byte	0x1004
 1742 02e6 13       		.uleb128 0x13
 1743 02e7 451D0000 		.4byte	.LASF59
 1744 02eb 0510     		.2byte	0x1005
 1745 02ed 13       		.uleb128 0x13
 1746 02ee 49140000 		.4byte	.LASF60
 1747 02f2 0020     		.2byte	0x2000
 1748 02f4 13       		.uleb128 0x13
 1749 02f5 B4170000 		.4byte	.LASF61
 1750 02f9 0120     		.2byte	0x2001
 1751 02fb 13       		.uleb128 0x13
 1752 02fc 50000000 		.4byte	.LASF62
 1753 0300 0220     		.2byte	0x2002
 1754 0302 13       		.uleb128 0x13
 1755 0303 010C0000 		.4byte	.LASF63
 1756 0307 0320     		.2byte	0x2003
 1757 0309 13       		.uleb128 0x13
 1758 030a 670E0000 		.4byte	.LASF64
 1759 030e 0420     		.2byte	0x2004
 1760 0310 13       		.uleb128 0x13
 1761 0311 2E0D0000 		.4byte	.LASF65
 1762 0315 0520     		.2byte	0x2005
 1763 0317 13       		.uleb128 0x13
 1764 0318 4B0B0000 		.4byte	.LASF66
 1765 031c 0620     		.2byte	0x2006
 1766 031e 13       		.uleb128 0x13
 1767 031f 4C180000 		.4byte	.LASF67
 1768 0323 0720     		.2byte	0x2007
 1769 0325 13       		.uleb128 0x13
 1770 0326 C41A0000 		.4byte	.LASF68
 1771 032a 0820     		.2byte	0x2008
 1772 032c 13       		.uleb128 0x13
 1773 032d BE110000 		.4byte	.LASF69
 1774 0331 0920     		.2byte	0x2009
 1775 0333 13       		.uleb128 0x13
 1776 0334 97070000 		.4byte	.LASF70
 1777 0338 0A20     		.2byte	0x200a
 1778 033a 13       		.uleb128 0x13
 1779 033b CB070000 		.4byte	.LASF71
 1780 033f 0B20     		.2byte	0x200b
 1781 0341 13       		.uleb128 0x13
 1782 0342 1D140000 		.4byte	.LASF72
 1783 0346 0C20     		.2byte	0x200c
 1784 0348 13       		.uleb128 0x13
 1785 0349 CA060000 		.4byte	.LASF73
ARM GAS  C:\Users\codyg\AppData\Local\Temp\ccCwzev2.s 			page 53


 1786 034d 0D20     		.2byte	0x200d
 1787 034f 13       		.uleb128 0x13
 1788 0350 420E0000 		.4byte	.LASF74
 1789 0354 0E20     		.2byte	0x200e
 1790 0356 13       		.uleb128 0x13
 1791 0357 41150000 		.4byte	.LASF75
 1792 035b 0F20     		.2byte	0x200f
 1793 035d 13       		.uleb128 0x13
 1794 035e 7F100000 		.4byte	.LASF76
 1795 0362 1020     		.2byte	0x2010
 1796 0364 13       		.uleb128 0x13
 1797 0365 0C120000 		.4byte	.LASF77
 1798 0369 1120     		.2byte	0x2011
 1799 036b 13       		.uleb128 0x13
 1800 036c 921A0000 		.4byte	.LASF78
 1801 0370 1220     		.2byte	0x2012
 1802 0372 13       		.uleb128 0x13
 1803 0373 4A020000 		.4byte	.LASF79
 1804 0377 1320     		.2byte	0x2013
 1805 0379 13       		.uleb128 0x13
 1806 037a 760F0000 		.4byte	.LASF80
 1807 037e 1420     		.2byte	0x2014
 1808 0380 13       		.uleb128 0x13
 1809 0381 71040000 		.4byte	.LASF81
 1810 0385 1520     		.2byte	0x2015
 1811 0387 13       		.uleb128 0x13
 1812 0388 D51D0000 		.4byte	.LASF82
 1813 038c 1620     		.2byte	0x2016
 1814 038e 13       		.uleb128 0x13
 1815 038f A9030000 		.4byte	.LASF83
 1816 0393 1720     		.2byte	0x2017
 1817 0395 13       		.uleb128 0x13
 1818 0396 0F070000 		.4byte	.LASF84
 1819 039a 0030     		.2byte	0x3000
 1820 039c 13       		.uleb128 0x13
 1821 039d DE090000 		.4byte	.LASF85
 1822 03a1 0130     		.2byte	0x3001
 1823 03a3 13       		.uleb128 0x13
 1824 03a4 FC080000 		.4byte	.LASF86
 1825 03a8 0230     		.2byte	0x3002
 1826 03aa 13       		.uleb128 0x13
 1827 03ab 97120000 		.4byte	.LASF87
 1828 03af 0330     		.2byte	0x3003
 1829 03b1 13       		.uleb128 0x13
 1830 03b2 71080000 		.4byte	.LASF88
 1831 03b6 0430     		.2byte	0x3004
 1832 03b8 13       		.uleb128 0x13
 1833 03b9 B6180000 		.4byte	.LASF89
 1834 03bd 0530     		.2byte	0x3005
 1835 03bf 13       		.uleb128 0x13
 1836 03c0 1A020000 		.4byte	.LASF90
 1837 03c4 0630     		.2byte	0x3006
 1838 03c6 13       		.uleb128 0x13
 1839 03c7 9E1C0000 		.4byte	.LASF91
 1840 03cb 0730     		.2byte	0x3007
 1841 03cd 13       		.uleb128 0x13
 1842 03ce 3B110000 		.4byte	.LASF92
ARM GAS  C:\Users\codyg\AppData\Local\Temp\ccCwzev2.s 			page 54


 1843 03d2 0830     		.2byte	0x3008
 1844 03d4 13       		.uleb128 0x13
 1845 03d5 CA0A0000 		.4byte	.LASF93
 1846 03d9 0930     		.2byte	0x3009
 1847 03db 13       		.uleb128 0x13
 1848 03dc 96180000 		.4byte	.LASF94
 1849 03e0 0A30     		.2byte	0x300a
 1850 03e2 13       		.uleb128 0x13
 1851 03e3 6B0D0000 		.4byte	.LASF95
 1852 03e7 0B30     		.2byte	0x300b
 1853 03e9 13       		.uleb128 0x13
 1854 03ea 5B010000 		.4byte	.LASF96
 1855 03ee 0C30     		.2byte	0x300c
 1856 03f0 13       		.uleb128 0x13
 1857 03f1 020F0000 		.4byte	.LASF97
 1858 03f5 1130     		.2byte	0x3011
 1859 03f7 13       		.uleb128 0x13
 1860 03f8 96150000 		.4byte	.LASF98
 1861 03fc 1230     		.2byte	0x3012
 1862 03fe 13       		.uleb128 0x13
 1863 03ff 77190000 		.4byte	.LASF99
 1864 0403 1330     		.2byte	0x3013
 1865 0405 13       		.uleb128 0x13
 1866 0406 DE170000 		.4byte	.LASF100
 1867 040a 1430     		.2byte	0x3014
 1868 040c 13       		.uleb128 0x13
 1869 040d EF160000 		.4byte	.LASF101
 1870 0411 1530     		.2byte	0x3015
 1871 0413 13       		.uleb128 0x13
 1872 0414 1D100000 		.4byte	.LASF102
 1873 0418 1630     		.2byte	0x3016
 1874 041a 13       		.uleb128 0x13
 1875 041b FB0F0000 		.4byte	.LASF103
 1876 041f 1730     		.2byte	0x3017
 1877 0421 13       		.uleb128 0x13
 1878 0422 63140000 		.4byte	.LASF104
 1879 0426 1830     		.2byte	0x3018
 1880 0428 13       		.uleb128 0x13
 1881 0429 BB120000 		.4byte	.LASF105
 1882 042d 0040     		.2byte	0x4000
 1883 042f 13       		.uleb128 0x13
 1884 0430 671C0000 		.4byte	.LASF106
 1885 0434 0140     		.2byte	0x4001
 1886 0436 13       		.uleb128 0x13
 1887 0437 1A1C0000 		.4byte	.LASF107
 1888 043b 0240     		.2byte	0x4002
 1889 043d 13       		.uleb128 0x13
 1890 043e 94190000 		.4byte	.LASF108
 1891 0442 0340     		.2byte	0x4003
 1892 0444 13       		.uleb128 0x13
 1893 0445 590F0000 		.4byte	.LASF109
 1894 0449 0440     		.2byte	0x4004
 1895 044b 13       		.uleb128 0x13
 1896 044c BA1D0000 		.4byte	.LASF110
 1897 0450 0540     		.2byte	0x4005
 1898 0452 13       		.uleb128 0x13
 1899 0453 C7000000 		.4byte	.LASF111
ARM GAS  C:\Users\codyg\AppData\Local\Temp\ccCwzev2.s 			page 55


 1900 0457 0640     		.2byte	0x4006
 1901 0459 13       		.uleb128 0x13
 1902 045a BE090000 		.4byte	.LASF112
 1903 045e 0740     		.2byte	0x4007
 1904 0460 13       		.uleb128 0x13
 1905 0461 72160000 		.4byte	.LASF113
 1906 0465 0840     		.2byte	0x4008
 1907 0467 13       		.uleb128 0x13
 1908 0468 DE080000 		.4byte	.LASF114
 1909 046c 0940     		.2byte	0x4009
 1910 046e 13       		.uleb128 0x13
 1911 046f 671E0000 		.4byte	.LASF115
 1912 0473 0A40     		.2byte	0x400a
 1913 0475 13       		.uleb128 0x13
 1914 0476 D90D0000 		.4byte	.LASF116
 1915 047a 0B40     		.2byte	0x400b
 1916 047c 13       		.uleb128 0x13
 1917 047d E7110000 		.4byte	.LASF117
 1918 0481 0C40     		.2byte	0x400c
 1919 0483 13       		.uleb128 0x13
 1920 0484 B00E0000 		.4byte	.LASF118
 1921 0488 0D40     		.2byte	0x400d
 1922 048a 13       		.uleb128 0x13
 1923 048b 20130000 		.4byte	.LASF119
 1924 048f 0E40     		.2byte	0x400e
 1925 0491 13       		.uleb128 0x13
 1926 0492 63090000 		.4byte	.LASF120
 1927 0496 0F40     		.2byte	0x400f
 1928 0498 13       		.uleb128 0x13
 1929 0499 1F080000 		.4byte	.LASF121
 1930 049d 1040     		.2byte	0x4010
 1931 049f 13       		.uleb128 0x13
 1932 04a0 FF1A0000 		.4byte	.LASF122
 1933 04a4 1140     		.2byte	0x4011
 1934 04a6 13       		.uleb128 0x13
 1935 04a7 0A0B0000 		.4byte	.LASF123
 1936 04ab 1240     		.2byte	0x4012
 1937 04ad 13       		.uleb128 0x13
 1938 04ae 37170000 		.4byte	.LASF124
 1939 04b2 1340     		.2byte	0x4013
 1940 04b4 13       		.uleb128 0x13
 1941 04b5 FF120000 		.4byte	.LASF125
 1942 04b9 1440     		.2byte	0x4014
 1943 04bb 13       		.uleb128 0x13
 1944 04bc 6A050000 		.4byte	.LASF126
 1945 04c0 1540     		.2byte	0x4015
 1946 04c2 13       		.uleb128 0x13
 1947 04c3 5E1D0000 		.4byte	.LASF127
 1948 04c7 1640     		.2byte	0x4016
 1949 04c9 13       		.uleb128 0x13
 1950 04ca 9A140000 		.4byte	.LASF128
 1951 04ce 1740     		.2byte	0x4017
 1952 04d0 13       		.uleb128 0x13
 1953 04d1 66100000 		.4byte	.LASF129
 1954 04d5 1840     		.2byte	0x4018
 1955 04d7 13       		.uleb128 0x13
 1956 04d8 D8150000 		.4byte	.LASF130
ARM GAS  C:\Users\codyg\AppData\Local\Temp\ccCwzev2.s 			page 56


 1957 04dc 1940     		.2byte	0x4019
 1958 04de 13       		.uleb128 0x13
 1959 04df FE140000 		.4byte	.LASF131
 1960 04e3 0050     		.2byte	0x5000
 1961 04e5 13       		.uleb128 0x13
 1962 04e6 11040000 		.4byte	.LASF132
 1963 04ea 0150     		.2byte	0x5001
 1964 04ec 13       		.uleb128 0x13
 1965 04ed 581B0000 		.4byte	.LASF133
 1966 04f1 0250     		.2byte	0x5002
 1967 04f3 13       		.uleb128 0x13
 1968 04f4 C41B0000 		.4byte	.LASF134
 1969 04f8 0350     		.2byte	0x5003
 1970 04fa 13       		.uleb128 0x13
 1971 04fb 09060000 		.4byte	.LASF135
 1972 04ff 0450     		.2byte	0x5004
 1973 0501 13       		.uleb128 0x13
 1974 0502 19150000 		.4byte	.LASF136
 1975 0506 0550     		.2byte	0x5005
 1976 0508 13       		.uleb128 0x13
 1977 0509 060E0000 		.4byte	.LASF137
 1978 050d 0650     		.2byte	0x5006
 1979 050f 13       		.uleb128 0x13
 1980 0510 8A030000 		.4byte	.LASF138
 1981 0514 0750     		.2byte	0x5007
 1982 0516 13       		.uleb128 0x13
 1983 0517 50070000 		.4byte	.LASF139
 1984 051b 0850     		.2byte	0x5008
 1985 051d 13       		.uleb128 0x13
 1986 051e EC180000 		.4byte	.LASF140
 1987 0522 0950     		.2byte	0x5009
 1988 0524 13       		.uleb128 0x13
 1989 0525 83060000 		.4byte	.LASF141
 1990 0529 0A50     		.2byte	0x500a
 1991 052b 13       		.uleb128 0x13
 1992 052c F1030000 		.4byte	.LASF142
 1993 0530 0B50     		.2byte	0x500b
 1994 0532 13       		.uleb128 0x13
 1995 0533 7B150000 		.4byte	.LASF143
 1996 0537 0C50     		.2byte	0x500c
 1997 0539 13       		.uleb128 0x13
 1998 053a 850B0000 		.4byte	.LASF144
 1999 053e 0D50     		.2byte	0x500d
 2000 0540 13       		.uleb128 0x13
 2001 0541 7F1C0000 		.4byte	.LASF145
 2002 0545 0E50     		.2byte	0x500e
 2003 0547 13       		.uleb128 0x13
 2004 0548 1A0A0000 		.4byte	.LASF146
 2005 054c 0F50     		.2byte	0x500f
 2006 054e 13       		.uleb128 0x13
 2007 054f 94170000 		.4byte	.LASF147
 2008 0553 1050     		.2byte	0x5010
 2009 0555 13       		.uleb128 0x13
 2010 0556 891B0000 		.4byte	.LASF148
 2011 055a 1150     		.2byte	0x5011
 2012 055c 13       		.uleb128 0x13
 2013 055d 92010000 		.4byte	.LASF149
ARM GAS  C:\Users\codyg\AppData\Local\Temp\ccCwzev2.s 			page 57


 2014 0561 1250     		.2byte	0x5012
 2015 0563 13       		.uleb128 0x13
 2016 0564 DC140000 		.4byte	.LASF150
 2017 0568 1350     		.2byte	0x5013
 2018 056a 13       		.uleb128 0x13
 2019 056b 3A060000 		.4byte	.LASF151
 2020 056f 1450     		.2byte	0x5014
 2021 0571 13       		.uleb128 0x13
 2022 0572 EC190000 		.4byte	.LASF152
 2023 0576 1550     		.2byte	0x5015
 2024 0578 13       		.uleb128 0x13
 2025 0579 E31B0000 		.4byte	.LASF153
 2026 057d 1650     		.2byte	0x5016
 2027 057f 13       		.uleb128 0x13
 2028 0580 8D040000 		.4byte	.LASF154
 2029 0584 1750     		.2byte	0x5017
 2030 0586 13       		.uleb128 0x13
 2031 0587 6E1A0000 		.4byte	.LASF155
 2032 058b 1850     		.2byte	0x5018
 2033 058d 13       		.uleb128 0x13
 2034 058e DF1C0000 		.4byte	.LASF156
 2035 0592 0060     		.2byte	0x6000
 2036 0594 13       		.uleb128 0x13
 2037 0595 06160000 		.4byte	.LASF157
 2038 0599 0160     		.2byte	0x6001
 2039 059b 13       		.uleb128 0x13
 2040 059c E40B0000 		.4byte	.LASF158
 2041 05a0 0260     		.2byte	0x6002
 2042 05a2 13       		.uleb128 0x13
 2043 05a3 E0120000 		.4byte	.LASF159
 2044 05a7 0360     		.2byte	0x6003
 2045 05a9 13       		.uleb128 0x13
 2046 05aa 78070000 		.4byte	.LASF160
 2047 05ae 0460     		.2byte	0x6004
 2048 05b0 13       		.uleb128 0x13
 2049 05b1 5F170000 		.4byte	.LASF161
 2050 05b5 0560     		.2byte	0x6005
 2051 05b7 13       		.uleb128 0x13
 2052 05b8 A80A0000 		.4byte	.LASF162
 2053 05bc 0660     		.2byte	0x6006
 2054 05be 13       		.uleb128 0x13
 2055 05bf 89000000 		.4byte	.LASF163
 2056 05c3 0760     		.2byte	0x6007
 2057 05c5 13       		.uleb128 0x13
 2058 05c6 A6020000 		.4byte	.LASF164
 2059 05ca 0860     		.2byte	0x6008
 2060 05cc 13       		.uleb128 0x13
 2061 05cd 18010000 		.4byte	.LASF165
 2062 05d1 0960     		.2byte	0x6009
 2063 05d3 13       		.uleb128 0x13
 2064 05d4 53120000 		.4byte	.LASF166
 2065 05d8 0A60     		.2byte	0x600a
 2066 05da 13       		.uleb128 0x13
 2067 05db 850A0000 		.4byte	.LASF167
 2068 05df FFFF     		.2byte	0xffff
 2069 05e1 00       		.byte	0
 2070 05e2 10       		.uleb128 0x10
ARM GAS  C:\Users\codyg\AppData\Local\Temp\ccCwzev2.s 			page 58


 2071 05e3 02       		.byte	0x2
 2072 05e4 07       		.byte	0x7
 2073 05e5 5B01     		.2byte	0x15b
 2074 05e7 06060000 		.4byte	0x606
 2075 05eb 0D       		.uleb128 0xd
 2076 05ec 3F1C0000 		.4byte	.LASF168
 2077 05f0 07       		.byte	0x7
 2078 05f1 6501     		.2byte	0x165
 2079 05f3 AE000000 		.4byte	0xae
 2080 05f7 00       		.byte	0
 2081 05f8 0D       		.uleb128 0xd
 2082 05f9 34090000 		.4byte	.LASF169
 2083 05fd 07       		.byte	0x7
 2084 05fe 6901     		.2byte	0x169
 2085 0600 AE000000 		.4byte	0xae
 2086 0604 01       		.byte	0x1
 2087 0605 00       		.byte	0
 2088 0606 0B       		.uleb128 0xb
 2089 0607 82110000 		.4byte	.LASF170
 2090 060b 07       		.byte	0x7
 2091 060c 6B01     		.2byte	0x16b
 2092 060e E2050000 		.4byte	0x5e2
 2093 0612 14       		.uleb128 0x14
 2094 0613 01       		.byte	0x1
 2095 0614 53000000 		.4byte	0x53
 2096 0618 08       		.byte	0x8
 2097 0619 7E       		.byte	0x7e
 2098 061a 37060000 		.4byte	0x637
 2099 061e 0F       		.uleb128 0xf
 2100 061f 39040000 		.4byte	.LASF171
 2101 0623 00       		.byte	0
 2102 0624 0F       		.uleb128 0xf
 2103 0625 AF080000 		.4byte	.LASF172
 2104 0629 01       		.byte	0x1
 2105 062a 0F       		.uleb128 0xf
 2106 062b ED0A0000 		.4byte	.LASF173
 2107 062f 02       		.byte	0x2
 2108 0630 0F       		.uleb128 0xf
 2109 0631 D40C0000 		.4byte	.LASF174
 2110 0635 03       		.byte	0x3
 2111 0636 00       		.byte	0
 2112 0637 04       		.uleb128 0x4
 2113 0638 5B080000 		.4byte	.LASF175
 2114 063c 08       		.byte	0x8
 2115 063d 83       		.byte	0x83
 2116 063e 12060000 		.4byte	0x612
 2117 0642 14       		.uleb128 0x14
 2118 0643 01       		.byte	0x1
 2119 0644 53000000 		.4byte	0x53
 2120 0648 08       		.byte	0x8
 2121 0649 87       		.byte	0x87
 2122 064a 7F060000 		.4byte	0x67f
 2123 064e 0F       		.uleb128 0xf
 2124 064f AB060000 		.4byte	.LASF176
 2125 0653 00       		.byte	0
 2126 0654 0F       		.uleb128 0xf
 2127 0655 A9050000 		.4byte	.LASF177
ARM GAS  C:\Users\codyg\AppData\Local\Temp\ccCwzev2.s 			page 59


 2128 0659 01       		.byte	0x1
 2129 065a 0F       		.uleb128 0xf
 2130 065b 77130000 		.4byte	.LASF178
 2131 065f 02       		.byte	0x2
 2132 0660 0F       		.uleb128 0xf
 2133 0661 031E0000 		.4byte	.LASF179
 2134 0665 03       		.byte	0x3
 2135 0666 0F       		.uleb128 0xf
 2136 0667 C0130000 		.4byte	.LASF180
 2137 066b 04       		.byte	0x4
 2138 066c 0F       		.uleb128 0xf
 2139 066d 040D0000 		.4byte	.LASF181
 2140 0671 05       		.byte	0x5
 2141 0672 0F       		.uleb128 0xf
 2142 0673 4C130000 		.4byte	.LASF182
 2143 0677 06       		.byte	0x6
 2144 0678 0F       		.uleb128 0xf
 2145 0679 D8010000 		.4byte	.LASF183
 2146 067d 07       		.byte	0x7
 2147 067e 00       		.byte	0
 2148 067f 04       		.uleb128 0x4
 2149 0680 73030000 		.4byte	.LASF184
 2150 0684 08       		.byte	0x8
 2151 0685 90       		.byte	0x90
 2152 0686 42060000 		.4byte	0x642
 2153 068a 14       		.uleb128 0x14
 2154 068b 01       		.byte	0x1
 2155 068c 53000000 		.4byte	0x53
 2156 0690 09       		.byte	0x9
 2157 0691 29       		.byte	0x29
 2158 0692 D3060000 		.4byte	0x6d3
 2159 0696 0F       		.uleb128 0xf
 2160 0697 65110000 		.4byte	.LASF185
 2161 069b 00       		.byte	0
 2162 069c 0F       		.uleb128 0xf
 2163 069d AD0D0000 		.4byte	.LASF186
 2164 06a1 01       		.byte	0x1
 2165 06a2 0F       		.uleb128 0xf
 2166 06a3 43030000 		.4byte	.LASF187
 2167 06a7 02       		.byte	0x2
 2168 06a8 0F       		.uleb128 0xf
 2169 06a9 5A160000 		.4byte	.LASF188
 2170 06ad 03       		.byte	0x3
 2171 06ae 0F       		.uleb128 0xf
 2172 06af F9130000 		.4byte	.LASF189
 2173 06b3 04       		.byte	0x4
 2174 06b4 0F       		.uleb128 0xf
 2175 06b5 500A0000 		.4byte	.LASF190
 2176 06b9 05       		.byte	0x5
 2177 06ba 0F       		.uleb128 0xf
 2178 06bb 23180000 		.4byte	.LASF191
 2179 06bf 06       		.byte	0x6
 2180 06c0 0F       		.uleb128 0xf
 2181 06c1 20030000 		.4byte	.LASF192
 2182 06c5 07       		.byte	0x7
 2183 06c6 0F       		.uleb128 0xf
 2184 06c7 AC090000 		.4byte	.LASF193
ARM GAS  C:\Users\codyg\AppData\Local\Temp\ccCwzev2.s 			page 60


 2185 06cb 08       		.byte	0x8
 2186 06cc 0F       		.uleb128 0xf
 2187 06cd 02010000 		.4byte	.LASF194
 2188 06d1 09       		.byte	0x9
 2189 06d2 00       		.byte	0
 2190 06d3 14       		.uleb128 0x14
 2191 06d4 01       		.byte	0x1
 2192 06d5 53000000 		.4byte	0x53
 2193 06d9 0A       		.byte	0xa
 2194 06da 28       		.byte	0x28
 2195 06db FE060000 		.4byte	0x6fe
 2196 06df 0F       		.uleb128 0xf
 2197 06e0 4E100000 		.4byte	.LASF195
 2198 06e4 00       		.byte	0
 2199 06e5 0F       		.uleb128 0xf
 2200 06e6 2E000000 		.4byte	.LASF196
 2201 06ea 01       		.byte	0x1
 2202 06eb 0F       		.uleb128 0xf
 2203 06ec E81A0000 		.4byte	.LASF197
 2204 06f0 02       		.byte	0x2
 2205 06f1 0F       		.uleb128 0xf
 2206 06f2 93130000 		.4byte	.LASF198
 2207 06f6 03       		.byte	0x3
 2208 06f7 0F       		.uleb128 0xf
 2209 06f8 250C0000 		.4byte	.LASF199
 2210 06fc 04       		.byte	0x4
 2211 06fd 00       		.byte	0
 2212 06fe 14       		.uleb128 0x14
 2213 06ff 01       		.byte	0x1
 2214 0700 53000000 		.4byte	0x53
 2215 0704 0A       		.byte	0xa
 2216 0705 32       		.byte	0x32
 2217 0706 1D070000 		.4byte	0x71d
 2218 070a 0F       		.uleb128 0xf
 2219 070b 7A180000 		.4byte	.LASF200
 2220 070f 00       		.byte	0
 2221 0710 0F       		.uleb128 0xf
 2222 0711 06190000 		.4byte	.LASF201
 2223 0715 01       		.byte	0x1
 2224 0716 0F       		.uleb128 0xf
 2225 0717 471A0000 		.4byte	.LASF202
 2226 071b 02       		.byte	0x2
 2227 071c 00       		.byte	0
 2228 071d 0E       		.uleb128 0xe
 2229 071e 01       		.byte	0x1
 2230 071f 53000000 		.4byte	0x53
 2231 0723 0B       		.byte	0xb
 2232 0724 B108     		.2byte	0x8b1
 2233 0726 3D070000 		.4byte	0x73d
 2234 072a 0F       		.uleb128 0xf
 2235 072b F40C0000 		.4byte	.LASF203
 2236 072f 00       		.byte	0
 2237 0730 0F       		.uleb128 0xf
 2238 0731 30190000 		.4byte	.LASF204
 2239 0735 01       		.byte	0x1
 2240 0736 0F       		.uleb128 0xf
 2241 0737 F0000000 		.4byte	.LASF205
ARM GAS  C:\Users\codyg\AppData\Local\Temp\ccCwzev2.s 			page 61


 2242 073b 02       		.byte	0x2
 2243 073c 00       		.byte	0
 2244 073d 15       		.uleb128 0x15
 2245 073e 14       		.byte	0x14
 2246 073f 0C       		.byte	0xc
 2247 0740 3B       		.byte	0x3b
 2248 0741 82070000 		.4byte	0x782
 2249 0745 16       		.uleb128 0x16
 2250 0746 67030000 		.4byte	.LASF206
 2251 074a 0C       		.byte	0xc
 2252 074b 3D       		.byte	0x3d
 2253 074c C4000000 		.4byte	0xc4
 2254 0750 00       		.byte	0
 2255 0751 16       		.uleb128 0x16
 2256 0752 02080000 		.4byte	.LASF207
 2257 0756 0C       		.byte	0xc
 2258 0757 3E       		.byte	0x3e
 2259 0758 C4000000 		.4byte	0xc4
 2260 075c 04       		.byte	0x4
 2261 075d 16       		.uleb128 0x16
 2262 075e CE030000 		.4byte	.LASF208
 2263 0762 0C       		.byte	0xc
 2264 0763 3F       		.byte	0x3f
 2265 0764 82070000 		.4byte	0x782
 2266 0768 08       		.byte	0x8
 2267 0769 16       		.uleb128 0x16
 2268 076a C11C0000 		.4byte	.LASF209
 2269 076e 0C       		.byte	0xc
 2270 076f 40       		.byte	0x40
 2271 0770 C4000000 		.4byte	0xc4
 2272 0774 0C       		.byte	0xc
 2273 0775 16       		.uleb128 0x16
 2274 0776 4D1B0000 		.4byte	.LASF210
 2275 077a 0C       		.byte	0xc
 2276 077b 45       		.byte	0x45
 2277 077c C4000000 		.4byte	0xc4
 2278 0780 10       		.byte	0x10
 2279 0781 00       		.byte	0
 2280 0782 06       		.uleb128 0x6
 2281 0783 04       		.byte	0x4
 2282 0784 88070000 		.4byte	0x788
 2283 0788 07       		.uleb128 0x7
 2284 0789 A4020000 		.4byte	0x2a4
 2285 078d 04       		.uleb128 0x4
 2286 078e 85120000 		.4byte	.LASF211
 2287 0792 0C       		.byte	0xc
 2288 0793 48       		.byte	0x48
 2289 0794 3D070000 		.4byte	0x73d
 2290 0798 04       		.uleb128 0x4
 2291 0799 B7100000 		.4byte	.LASF212
 2292 079d 0D       		.byte	0xd
 2293 079e 62       		.byte	0x62
 2294 079f 73000000 		.4byte	0x73
 2295 07a3 04       		.uleb128 0x4
 2296 07a4 A10D0000 		.4byte	.LASF213
 2297 07a8 0D       		.byte	0xd
 2298 07a9 63       		.byte	0x63
ARM GAS  C:\Users\codyg\AppData\Local\Temp\ccCwzev2.s 			page 62


 2299 07aa 85000000 		.4byte	0x85
 2300 07ae 04       		.uleb128 0x4
 2301 07af B5130000 		.4byte	.LASF214
 2302 07b3 0D       		.byte	0xd
 2303 07b4 69       		.byte	0x69
 2304 07b5 C4000000 		.4byte	0xc4
 2305 07b9 17       		.uleb128 0x17
 2306 07ba 5C030000 		.4byte	.LASF216
 2307 07be 14       		.byte	0x14
 2308 07bf 0E       		.byte	0xe
 2309 07c0 B5       		.byte	0xb5
 2310 07c1 02080000 		.4byte	0x802
 2311 07c5 16       		.uleb128 0x16
 2312 07c6 A2160000 		.4byte	.LASF217
 2313 07ca 0E       		.byte	0xe
 2314 07cb B8       		.byte	0xb8
 2315 07cc AE070000 		.4byte	0x7ae
 2316 07d0 00       		.byte	0
 2317 07d1 16       		.uleb128 0x16
 2318 07d2 5E110000 		.4byte	.LASF218
 2319 07d6 0E       		.byte	0xe
 2320 07d7 B9       		.byte	0xb9
 2321 07d8 02080000 		.4byte	0x802
 2322 07dc 04       		.byte	0x4
 2323 07dd 16       		.uleb128 0x16
 2324 07de 99080000 		.4byte	.LASF219
 2325 07e2 0E       		.byte	0xe
 2326 07e3 BA       		.byte	0xba
 2327 07e4 02080000 		.4byte	0x802
 2328 07e8 08       		.byte	0x8
 2329 07e9 16       		.uleb128 0x16
 2330 07ea 3D1B0000 		.4byte	.LASF220
 2331 07ee 0E       		.byte	0xe
 2332 07ef BB       		.byte	0xbb
 2333 07f0 9A000000 		.4byte	0x9a
 2334 07f4 0C       		.byte	0xc
 2335 07f5 16       		.uleb128 0x16
 2336 07f6 FD050000 		.4byte	.LASF221
 2337 07fa 0E       		.byte	0xe
 2338 07fb BC       		.byte	0xbc
 2339 07fc 9A000000 		.4byte	0x9a
 2340 0800 10       		.byte	0x10
 2341 0801 00       		.byte	0
 2342 0802 06       		.uleb128 0x6
 2343 0803 04       		.byte	0x4
 2344 0804 B9070000 		.4byte	0x7b9
 2345 0808 04       		.uleb128 0x4
 2346 0809 8F0D0000 		.4byte	.LASF222
 2347 080d 0E       		.byte	0xe
 2348 080e BF       		.byte	0xbf
 2349 080f B9070000 		.4byte	0x7b9
 2350 0813 17       		.uleb128 0x17
 2351 0814 6F0A0000 		.4byte	.LASF223
 2352 0818 0C       		.byte	0xc
 2353 0819 0E       		.byte	0xe
 2354 081a C1       		.byte	0xc1
 2355 081b 44080000 		.4byte	0x844
ARM GAS  C:\Users\codyg\AppData\Local\Temp\ccCwzev2.s 			page 63


 2356 081f 16       		.uleb128 0x16
 2357 0820 A2160000 		.4byte	.LASF217
 2358 0824 0E       		.byte	0xe
 2359 0825 C4       		.byte	0xc4
 2360 0826 AE070000 		.4byte	0x7ae
 2361 082a 00       		.byte	0
 2362 082b 16       		.uleb128 0x16
 2363 082c 5E110000 		.4byte	.LASF218
 2364 0830 0E       		.byte	0xe
 2365 0831 C5       		.byte	0xc5
 2366 0832 02080000 		.4byte	0x802
 2367 0836 04       		.byte	0x4
 2368 0837 16       		.uleb128 0x16
 2369 0838 99080000 		.4byte	.LASF219
 2370 083c 0E       		.byte	0xe
 2371 083d C6       		.byte	0xc6
 2372 083e 02080000 		.4byte	0x802
 2373 0842 08       		.byte	0x8
 2374 0843 00       		.byte	0
 2375 0844 04       		.uleb128 0x4
 2376 0845 F41D0000 		.4byte	.LASF224
 2377 0849 0E       		.byte	0xe
 2378 084a C8       		.byte	0xc8
 2379 084b 13080000 		.4byte	0x813
 2380 084f 17       		.uleb128 0x17
 2381 0850 DA030000 		.4byte	.LASF225
 2382 0854 14       		.byte	0x14
 2383 0855 0E       		.byte	0xe
 2384 0856 CD       		.byte	0xcd
 2385 0857 80080000 		.4byte	0x880
 2386 085b 16       		.uleb128 0x16
 2387 085c 79000000 		.4byte	.LASF226
 2388 0860 0E       		.byte	0xe
 2389 0861 D0       		.byte	0xd0
 2390 0862 A3070000 		.4byte	0x7a3
 2391 0866 00       		.byte	0
 2392 0867 16       		.uleb128 0x16
 2393 0868 E9020000 		.4byte	.LASF227
 2394 086c 0E       		.byte	0xe
 2395 086d D1       		.byte	0xd1
 2396 086e 80080000 		.4byte	0x880
 2397 0872 04       		.byte	0x4
 2398 0873 16       		.uleb128 0x16
 2399 0874 390E0000 		.4byte	.LASF228
 2400 0878 0E       		.byte	0xe
 2401 0879 D2       		.byte	0xd2
 2402 087a 44080000 		.4byte	0x844
 2403 087e 08       		.byte	0x8
 2404 087f 00       		.byte	0
 2405 0880 06       		.uleb128 0x6
 2406 0881 04       		.byte	0x4
 2407 0882 08080000 		.4byte	0x808
 2408 0886 04       		.uleb128 0x4
 2409 0887 45130000 		.4byte	.LASF229
 2410 088b 0E       		.byte	0xe
 2411 088c D4       		.byte	0xd4
 2412 088d 4F080000 		.4byte	0x84f
ARM GAS  C:\Users\codyg\AppData\Local\Temp\ccCwzev2.s 			page 64


 2413 0891 04       		.uleb128 0x4
 2414 0892 78120000 		.4byte	.LASF230
 2415 0896 0F       		.byte	0xf
 2416 0897 67       		.byte	0x67
 2417 0898 9A000000 		.4byte	0x9a
 2418 089c 07       		.uleb128 0x7
 2419 089d A3000000 		.4byte	0xa3
 2420 08a1 04       		.uleb128 0x4
 2421 08a2 960E0000 		.4byte	.LASF231
 2422 08a6 10       		.byte	0x10
 2423 08a7 58       		.byte	0x58
 2424 08a8 9A000000 		.4byte	0x9a
 2425 08ac 04       		.uleb128 0x4
 2426 08ad ED060000 		.4byte	.LASF232
 2427 08b1 11       		.byte	0x11
 2428 08b2 76       		.byte	0x76
 2429 08b3 9A000000 		.4byte	0x9a
 2430 08b7 04       		.uleb128 0x4
 2431 08b8 DA050000 		.4byte	.LASF233
 2432 08bc 11       		.byte	0x11
 2433 08bd 7B       		.byte	0x7b
 2434 08be C2080000 		.4byte	0x8c2
 2435 08c2 06       		.uleb128 0x6
 2436 08c3 04       		.byte	0x4
 2437 08c4 C8080000 		.4byte	0x8c8
 2438 08c8 09       		.uleb128 0x9
 2439 08c9 D3080000 		.4byte	0x8d3
 2440 08cd 0A       		.uleb128 0xa
 2441 08ce AC080000 		.4byte	0x8ac
 2442 08d2 00       		.byte	0
 2443 08d3 17       		.uleb128 0x17
 2444 08d4 CC0F0000 		.4byte	.LASF234
 2445 08d8 28       		.byte	0x28
 2446 08d9 01       		.byte	0x1
 2447 08da 68       		.byte	0x68
 2448 08db 28090000 		.4byte	0x928
 2449 08df 16       		.uleb128 0x16
 2450 08e0 0B030000 		.4byte	.LASF235
 2451 08e4 01       		.byte	0x1
 2452 08e5 6A       		.byte	0x6a
 2453 08e6 A3000000 		.4byte	0xa3
 2454 08ea 00       		.byte	0
 2455 08eb 16       		.uleb128 0x16
 2456 08ec EA130000 		.4byte	.LASF236
 2457 08f0 01       		.byte	0x1
 2458 08f1 6B       		.byte	0x6b
 2459 08f2 08080000 		.4byte	0x808
 2460 08f6 04       		.byte	0x4
 2461 08f7 16       		.uleb128 0x16
 2462 08f8 061C0000 		.4byte	.LASF237
 2463 08fc 01       		.byte	0x1
 2464 08fd 6C       		.byte	0x6c
 2465 08fe AE070000 		.4byte	0x7ae
 2466 0902 18       		.byte	0x18
 2467 0903 16       		.uleb128 0x16
 2468 0904 04180000 		.4byte	.LASF238
 2469 0908 01       		.byte	0x1
ARM GAS  C:\Users\codyg\AppData\Local\Temp\ccCwzev2.s 			page 65


 2470 0909 6D       		.byte	0x6d
 2471 090a A3070000 		.4byte	0x7a3
 2472 090e 1C       		.byte	0x1c
 2473 090f 16       		.uleb128 0x16
 2474 0910 9B110000 		.4byte	.LASF239
 2475 0914 01       		.byte	0x1
 2476 0915 6E       		.byte	0x6e
 2477 0916 9A000000 		.4byte	0x9a
 2478 091a 20       		.byte	0x20
 2479 091b 16       		.uleb128 0x16
 2480 091c 7F010000 		.4byte	.LASF240
 2481 0920 01       		.byte	0x1
 2482 0921 6F       		.byte	0x6f
 2483 0922 B7080000 		.4byte	0x8b7
 2484 0926 24       		.byte	0x24
 2485 0927 00       		.byte	0
 2486 0928 04       		.uleb128 0x4
 2487 0929 3B0C0000 		.4byte	.LASF241
 2488 092d 01       		.byte	0x1
 2489 092e 77       		.byte	0x77
 2490 092f D3080000 		.4byte	0x8d3
 2491 0933 04       		.uleb128 0x4
 2492 0934 1B180000 		.4byte	.LASF242
 2493 0938 01       		.byte	0x1
 2494 0939 7B       		.byte	0x7b
 2495 093a 28090000 		.4byte	0x928
 2496 093e 17       		.uleb128 0x17
 2497 093f CC1C0000 		.4byte	.LASF243
 2498 0943 08       		.byte	0x8
 2499 0944 01       		.byte	0x1
 2500 0945 82       		.byte	0x82
 2501 0946 63090000 		.4byte	0x963
 2502 094a 16       		.uleb128 0x16
 2503 094b 111A0000 		.4byte	.LASF244
 2504 094f 01       		.byte	0x1
 2505 0950 84       		.byte	0x84
 2506 0951 AE070000 		.4byte	0x7ae
 2507 0955 00       		.byte	0
 2508 0956 16       		.uleb128 0x16
 2509 0957 CB190000 		.4byte	.LASF245
 2510 095b 01       		.byte	0x1
 2511 095c 85       		.byte	0x85
 2512 095d 63090000 		.4byte	0x963
 2513 0961 04       		.byte	0x4
 2514 0962 00       		.byte	0
 2515 0963 06       		.uleb128 0x6
 2516 0964 04       		.byte	0x4
 2517 0965 33090000 		.4byte	0x933
 2518 0969 04       		.uleb128 0x4
 2519 096a E0030000 		.4byte	.LASF246
 2520 096e 01       		.byte	0x1
 2521 096f 86       		.byte	0x86
 2522 0970 3E090000 		.4byte	0x93e
 2523 0974 18       		.uleb128 0x18
 2524 0975 08       		.byte	0x8
 2525 0976 01       		.byte	0x1
 2526 0977 95       		.byte	0x95
ARM GAS  C:\Users\codyg\AppData\Local\Temp\ccCwzev2.s 			page 66


 2527 0978 88090000 		.4byte	0x988
 2528 097c 19       		.uleb128 0x19
 2529 097d 39020000 		.4byte	.LASF328
 2530 0981 01       		.byte	0x1
 2531 0982 97       		.byte	0x97
 2532 0983 69090000 		.4byte	0x969
 2533 0987 00       		.byte	0
 2534 0988 17       		.uleb128 0x17
 2535 0989 A00B0000 		.4byte	.LASF247
 2536 098d 0C       		.byte	0xc
 2537 098e 01       		.byte	0x1
 2538 098f 92       		.byte	0x92
 2539 0990 AB090000 		.4byte	0x9ab
 2540 0994 16       		.uleb128 0x16
 2541 0995 0F0A0000 		.4byte	.LASF248
 2542 0999 01       		.byte	0x1
 2543 099a 94       		.byte	0x94
 2544 099b 98070000 		.4byte	0x798
 2545 099f 00       		.byte	0
 2546 09a0 1A       		.uleb128 0x1a
 2547 09a1 7500     		.ascii	"u\000"
 2548 09a3 01       		.byte	0x1
 2549 09a4 9E       		.byte	0x9e
 2550 09a5 74090000 		.4byte	0x974
 2551 09a9 04       		.byte	0x4
 2552 09aa 00       		.byte	0
 2553 09ab 04       		.uleb128 0x4
 2554 09ac 38180000 		.4byte	.LASF249
 2555 09b0 01       		.byte	0x1
 2556 09b1 9F       		.byte	0x9f
 2557 09b2 88090000 		.4byte	0x988
 2558 09b6 1B       		.uleb128 0x1b
 2559 09b7 521E0000 		.4byte	.LASF250
 2560 09bb 01       		.byte	0x1
 2561 09bc 7A02     		.2byte	0x27a
 2562 09be AE070000 		.4byte	0x7ae
 2563 09c2 00000000 		.4byte	.LFB532
 2564 09c6 20000000 		.4byte	.LFE532-.LFB532
 2565 09ca 01       		.uleb128 0x1
 2566 09cb 9C       		.byte	0x9c
 2567 09cc F1090000 		.4byte	0x9f1
 2568 09d0 1C       		.uleb128 0x1c
 2569 09d1 C9010000 		.4byte	.LASF252
 2570 09d5 01       		.byte	0x1
 2571 09d6 7A02     		.2byte	0x27a
 2572 09d8 F7090000 		.4byte	0x9f7
 2573 09dc 00000000 		.4byte	.LLST0
 2574 09e0 1D       		.uleb128 0x1d
 2575 09e1 43120000 		.4byte	.LASF256
 2576 09e5 01       		.byte	0x1
 2577 09e6 7C02     		.2byte	0x27c
 2578 09e8 AE070000 		.4byte	0x7ae
 2579 09ec 3A000000 		.4byte	.LLST1
 2580 09f0 00       		.byte	0
 2581 09f1 06       		.uleb128 0x6
 2582 09f2 04       		.byte	0x4
 2583 09f3 98070000 		.4byte	0x798
ARM GAS  C:\Users\codyg\AppData\Local\Temp\ccCwzev2.s 			page 67


 2584 09f7 07       		.uleb128 0x7
 2585 09f8 F1090000 		.4byte	0x9f1
 2586 09fc 1B       		.uleb128 0x1b
 2587 09fd 7A0C0000 		.4byte	.LASF251
 2588 0a01 01       		.byte	0x1
 2589 0a02 AB02     		.2byte	0x2ab
 2590 0a04 98070000 		.4byte	0x798
 2591 0a08 00000000 		.4byte	.LFB534
 2592 0a0c 44000000 		.4byte	.LFE534-.LFB534
 2593 0a10 01       		.uleb128 0x1
 2594 0a11 9C       		.byte	0x9c
 2595 0a12 910A0000 		.4byte	0xa91
 2596 0a16 1C       		.uleb128 0x1c
 2597 0a17 CB190000 		.4byte	.LASF245
 2598 0a1b 01       		.byte	0x1
 2599 0a1c AB02     		.2byte	0x2ab
 2600 0a1e 910A0000 		.4byte	0xa91
 2601 0a22 58000000 		.4byte	.LLST2
 2602 0a26 1C       		.uleb128 0x1c
 2603 0a27 C8160000 		.4byte	.LASF253
 2604 0a2b 01       		.byte	0x1
 2605 0a2c AB02     		.2byte	0x2ab
 2606 0a2e 960A0000 		.4byte	0xa96
 2607 0a32 DE000000 		.4byte	.LLST3
 2608 0a36 1C       		.uleb128 0x1c
 2609 0a37 FC010000 		.4byte	.LASF254
 2610 0a3b 01       		.byte	0x1
 2611 0a3c AB02     		.2byte	0x2ab
 2612 0a3e 960A0000 		.4byte	0xa96
 2613 0a42 47010000 		.4byte	.LLST4
 2614 0a46 1C       		.uleb128 0x1c
 2615 0a47 43000000 		.4byte	.LASF255
 2616 0a4b 01       		.byte	0x1
 2617 0a4c AB02     		.2byte	0x2ab
 2618 0a4e 960A0000 		.4byte	0xa96
 2619 0a52 8C010000 		.4byte	.LLST5
 2620 0a56 1D       		.uleb128 0x1d
 2621 0a57 72060000 		.4byte	.LASF257
 2622 0a5b 01       		.byte	0x1
 2623 0a5c AD02     		.2byte	0x2ad
 2624 0a5e 98070000 		.4byte	0x798
 2625 0a62 DF010000 		.4byte	.LLST6
 2626 0a66 1E       		.uleb128 0x1e
 2627 0a67 1C000000 		.4byte	.LVL10
 2628 0a6b E1140000 		.4byte	0x14e1
 2629 0a6f 7D0A0000 		.4byte	0xa7d
 2630 0a73 1F       		.uleb128 0x1f
 2631 0a74 01       		.uleb128 0x1
 2632 0a75 51       		.byte	0x51
 2633 0a76 05       		.uleb128 0x5
 2634 0a77 F3       		.byte	0xf3
 2635 0a78 01       		.uleb128 0x1
 2636 0a79 50       		.byte	0x50
 2637 0a7a 23       		.byte	0x23
 2638 0a7b 04       		.uleb128 0x4
 2639 0a7c 00       		.byte	0
 2640 0a7d 20       		.uleb128 0x20
ARM GAS  C:\Users\codyg\AppData\Local\Temp\ccCwzev2.s 			page 68


 2641 0a7e 32000000 		.4byte	.LVL15
 2642 0a82 E1140000 		.4byte	0x14e1
 2643 0a86 1F       		.uleb128 0x1f
 2644 0a87 01       		.uleb128 0x1
 2645 0a88 51       		.byte	0x51
 2646 0a89 05       		.uleb128 0x5
 2647 0a8a F3       		.byte	0xf3
 2648 0a8b 01       		.uleb128 0x1
 2649 0a8c 50       		.byte	0x50
 2650 0a8d 23       		.byte	0x23
 2651 0a8e 04       		.uleb128 0x4
 2652 0a8f 00       		.byte	0
 2653 0a90 00       		.byte	0
 2654 0a91 07       		.uleb128 0x7
 2655 0a92 63090000 		.4byte	0x963
 2656 0a96 07       		.uleb128 0x7
 2657 0a97 AE070000 		.4byte	0x7ae
 2658 0a9b 21       		.uleb128 0x21
 2659 0a9c 2A1A0000 		.4byte	.LASF258
 2660 0aa0 01       		.byte	0x1
 2661 0aa1 A203     		.2byte	0x3a2
 2662 0aa3 00000000 		.4byte	.LFB537
 2663 0aa7 48000000 		.4byte	.LFE537-.LFB537
 2664 0aab 01       		.uleb128 0x1
 2665 0aac 9C       		.byte	0x9c
 2666 0aad 200B0000 		.4byte	0xb20
 2667 0ab1 22       		.uleb128 0x22
 2668 0ab2 06000000 		.4byte	.LVL21
 2669 0ab6 ED140000 		.4byte	0x14ed
 2670 0aba 1E       		.uleb128 0x1e
 2671 0abb 18000000 		.4byte	.LVL22
 2672 0abf F8140000 		.4byte	0x14f8
 2673 0ac3 CE0A0000 		.4byte	0xace
 2674 0ac7 1F       		.uleb128 0x1f
 2675 0ac8 01       		.uleb128 0x1
 2676 0ac9 50       		.byte	0x50
 2677 0aca 02       		.uleb128 0x2
 2678 0acb 76       		.byte	0x76
 2679 0acc 00       		.sleb128 0
 2680 0acd 00       		.byte	0
 2681 0ace 1E       		.uleb128 0x1e
 2682 0acf 22000000 		.4byte	.LVL23
 2683 0ad3 F8140000 		.4byte	0x14f8
 2684 0ad7 E20A0000 		.4byte	0xae2
 2685 0adb 1F       		.uleb128 0x1f
 2686 0adc 01       		.uleb128 0x1
 2687 0add 50       		.byte	0x50
 2688 0ade 02       		.uleb128 0x2
 2689 0adf 75       		.byte	0x75
 2690 0ae0 00       		.sleb128 0
 2691 0ae1 00       		.byte	0
 2692 0ae2 1E       		.uleb128 0x1e
 2693 0ae3 30000000 		.4byte	.LVL24
 2694 0ae7 04150000 		.4byte	0x1504
 2695 0aeb FF0A0000 		.4byte	0xaff
 2696 0aef 1F       		.uleb128 0x1f
 2697 0af0 01       		.uleb128 0x1
ARM GAS  C:\Users\codyg\AppData\Local\Temp\ccCwzev2.s 			page 69


 2698 0af1 50       		.byte	0x50
 2699 0af2 01       		.uleb128 0x1
 2700 0af3 3A       		.byte	0x3a
 2701 0af4 1F       		.uleb128 0x1f
 2702 0af5 01       		.uleb128 0x1
 2703 0af6 51       		.byte	0x51
 2704 0af7 01       		.uleb128 0x1
 2705 0af8 3C       		.byte	0x3c
 2706 0af9 1F       		.uleb128 0x1f
 2707 0afa 01       		.uleb128 0x1
 2708 0afb 52       		.byte	0x52
 2709 0afc 01       		.uleb128 0x1
 2710 0afd 30       		.byte	0x30
 2711 0afe 00       		.byte	0
 2712 0aff 1E       		.uleb128 0x1e
 2713 0b00 3A000000 		.4byte	.LVL25
 2714 0b04 10150000 		.4byte	0x1510
 2715 0b08 160B0000 		.4byte	0xb16
 2716 0b0c 1F       		.uleb128 0x1f
 2717 0b0d 01       		.uleb128 0x1
 2718 0b0e 51       		.byte	0x51
 2719 0b0f 05       		.uleb128 0x5
 2720 0b10 03       		.byte	0x3
 2721 0b11 00000000 		.4byte	.LC0
 2722 0b15 00       		.byte	0
 2723 0b16 22       		.uleb128 0x22
 2724 0b17 3E000000 		.4byte	.LVL26
 2725 0b1b 1C150000 		.4byte	0x151c
 2726 0b1f 00       		.byte	0
 2727 0b20 21       		.uleb128 0x21
 2728 0b21 6F0B0000 		.4byte	.LASF259
 2729 0b25 01       		.byte	0x1
 2730 0b26 8401     		.2byte	0x184
 2731 0b28 00000000 		.4byte	.LFB523
 2732 0b2c 32000000 		.4byte	.LFE523-.LFB523
 2733 0b30 01       		.uleb128 0x1
 2734 0b31 9C       		.byte	0x9c
 2735 0b32 AE0B0000 		.4byte	0xbae
 2736 0b36 1C       		.uleb128 0x1c
 2737 0b37 0B030000 		.4byte	.LASF235
 2738 0b3b 01       		.byte	0x1
 2739 0b3c 8401     		.2byte	0x184
 2740 0b3e 9C080000 		.4byte	0x89c
 2741 0b42 FE010000 		.4byte	.LLST7
 2742 0b46 1C       		.uleb128 0x1c
 2743 0b47 061C0000 		.4byte	.LASF237
 2744 0b4b 01       		.byte	0x1
 2745 0b4c 8501     		.2byte	0x185
 2746 0b4e 960A0000 		.4byte	0xa96
 2747 0b52 2A020000 		.4byte	.LLST8
 2748 0b56 1C       		.uleb128 0x1c
 2749 0b57 04180000 		.4byte	.LASF238
 2750 0b5b 01       		.byte	0x1
 2751 0b5c 8601     		.2byte	0x186
 2752 0b5e AE0B0000 		.4byte	0xbae
 2753 0b62 48020000 		.4byte	.LLST9
 2754 0b66 1C       		.uleb128 0x1c
ARM GAS  C:\Users\codyg\AppData\Local\Temp\ccCwzev2.s 			page 70


 2755 0b67 9B110000 		.4byte	.LASF239
 2756 0b6b 01       		.byte	0x1
 2757 0b6c 8701     		.2byte	0x187
 2758 0b6e B30B0000 		.4byte	0xbb3
 2759 0b72 74020000 		.4byte	.LLST10
 2760 0b76 23       		.uleb128 0x23
 2761 0b77 7F010000 		.4byte	.LASF240
 2762 0b7b 01       		.byte	0x1
 2763 0b7c 8801     		.2byte	0x188
 2764 0b7e B7080000 		.4byte	0x8b7
 2765 0b82 02       		.uleb128 0x2
 2766 0b83 91       		.byte	0x91
 2767 0b84 00       		.sleb128 0
 2768 0b85 23       		.uleb128 0x23
 2769 0b86 8E080000 		.4byte	.LASF260
 2770 0b8a 01       		.byte	0x1
 2771 0b8b 8901     		.2byte	0x189
 2772 0b8d 63090000 		.4byte	0x963
 2773 0b91 02       		.uleb128 0x2
 2774 0b92 91       		.byte	0x91
 2775 0b93 04       		.sleb128 4
 2776 0b94 22       		.uleb128 0x22
 2777 0b95 1A000000 		.4byte	.LVL28
 2778 0b99 9B0A0000 		.4byte	0xa9b
 2779 0b9d 20       		.uleb128 0x20
 2780 0b9e 2E000000 		.4byte	.LVL29
 2781 0ba2 27150000 		.4byte	0x1527
 2782 0ba6 1F       		.uleb128 0x1f
 2783 0ba7 01       		.uleb128 0x1
 2784 0ba8 50       		.byte	0x50
 2785 0ba9 02       		.uleb128 0x2
 2786 0baa 74       		.byte	0x74
 2787 0bab 04       		.sleb128 4
 2788 0bac 00       		.byte	0
 2789 0bad 00       		.byte	0
 2790 0bae 07       		.uleb128 0x7
 2791 0baf A3070000 		.4byte	0x7a3
 2792 0bb3 07       		.uleb128 0x7
 2793 0bb4 9A000000 		.4byte	0x9a
 2794 0bb8 24       		.uleb128 0x24
 2795 0bb9 5C060000 		.4byte	.LASF262
 2796 0bbd 01       		.byte	0x1
 2797 0bbe 0301     		.2byte	0x103
 2798 0bc0 98070000 		.4byte	0x798
 2799 0bc4 00000000 		.4byte	.LFB521
 2800 0bc8 44000000 		.4byte	.LFE521-.LFB521
 2801 0bcc 01       		.uleb128 0x1
 2802 0bcd 9C       		.byte	0x9c
 2803 0bce 230C0000 		.4byte	0xc23
 2804 0bd2 1D       		.uleb128 0x1d
 2805 0bd3 15190000 		.4byte	.LASF261
 2806 0bd7 01       		.byte	0x1
 2807 0bd8 0501     		.2byte	0x105
 2808 0bda 98070000 		.4byte	0x798
 2809 0bde A0020000 		.4byte	.LLST11
 2810 0be2 22       		.uleb128 0x22
 2811 0be3 08000000 		.4byte	.LVL31
ARM GAS  C:\Users\codyg\AppData\Local\Temp\ccCwzev2.s 			page 71


 2812 0be7 9B0A0000 		.4byte	0xa9b
 2813 0beb 20       		.uleb128 0x20
 2814 0bec 22000000 		.4byte	.LVL32
 2815 0bf0 33150000 		.4byte	0x1533
 2816 0bf4 1F       		.uleb128 0x1f
 2817 0bf5 01       		.uleb128 0x1
 2818 0bf6 50       		.byte	0x50
 2819 0bf7 05       		.uleb128 0x5
 2820 0bf8 03       		.byte	0x3
 2821 0bf9 00000000 		.4byte	prvTimerTask
 2822 0bfd 1F       		.uleb128 0x1f
 2823 0bfe 01       		.uleb128 0x1
 2824 0bff 51       		.byte	0x51
 2825 0c00 05       		.uleb128 0x5
 2826 0c01 03       		.byte	0x3
 2827 0c02 08000000 		.4byte	.LC1
 2828 0c06 1F       		.uleb128 0x1f
 2829 0c07 01       		.uleb128 0x1
 2830 0c08 52       		.byte	0x52
 2831 0c09 02       		.uleb128 0x2
 2832 0c0a 08       		.byte	0x8
 2833 0c0b 80       		.byte	0x80
 2834 0c0c 1F       		.uleb128 0x1f
 2835 0c0d 01       		.uleb128 0x1
 2836 0c0e 53       		.byte	0x53
 2837 0c0f 01       		.uleb128 0x1
 2838 0c10 30       		.byte	0x30
 2839 0c11 1F       		.uleb128 0x1f
 2840 0c12 02       		.uleb128 0x2
 2841 0c13 7D       		.byte	0x7d
 2842 0c14 00       		.sleb128 0
 2843 0c15 01       		.uleb128 0x1
 2844 0c16 44       		.byte	0x44
 2845 0c17 1F       		.uleb128 0x1f
 2846 0c18 02       		.uleb128 0x2
 2847 0c19 7D       		.byte	0x7d
 2848 0c1a 04       		.sleb128 4
 2849 0c1b 05       		.uleb128 0x5
 2850 0c1c 03       		.byte	0x3
 2851 0c1d 34000000 		.4byte	.LANCHOR0+52
 2852 0c21 00       		.byte	0
 2853 0c22 00       		.byte	0
 2854 0c23 24       		.uleb128 0x24
 2855 0c24 F90D0000 		.4byte	.LASF263
 2856 0c28 01       		.byte	0x1
 2857 0c29 3A01     		.2byte	0x13a
 2858 0c2b AC080000 		.4byte	0x8ac
 2859 0c2f 00000000 		.4byte	.LFB522
 2860 0c33 32000000 		.4byte	.LFE522-.LFB522
 2861 0c37 01       		.uleb128 0x1
 2862 0c38 9C       		.byte	0x9c
 2863 0c39 E20C0000 		.4byte	0xce2
 2864 0c3d 1C       		.uleb128 0x1c
 2865 0c3e 0B030000 		.4byte	.LASF235
 2866 0c42 01       		.byte	0x1
 2867 0c43 3A01     		.2byte	0x13a
 2868 0c45 9C080000 		.4byte	0x89c
ARM GAS  C:\Users\codyg\AppData\Local\Temp\ccCwzev2.s 			page 72


 2869 0c49 D6020000 		.4byte	.LLST12
 2870 0c4d 1C       		.uleb128 0x1c
 2871 0c4e 061C0000 		.4byte	.LASF237
 2872 0c52 01       		.byte	0x1
 2873 0c53 3B01     		.2byte	0x13b
 2874 0c55 960A0000 		.4byte	0xa96
 2875 0c59 F4020000 		.4byte	.LLST13
 2876 0c5d 1C       		.uleb128 0x1c
 2877 0c5e 04180000 		.4byte	.LASF238
 2878 0c62 01       		.byte	0x1
 2879 0c63 3C01     		.2byte	0x13c
 2880 0c65 AE0B0000 		.4byte	0xbae
 2881 0c69 12030000 		.4byte	.LLST14
 2882 0c6d 1C       		.uleb128 0x1c
 2883 0c6e 9B110000 		.4byte	.LASF239
 2884 0c72 01       		.byte	0x1
 2885 0c73 3D01     		.2byte	0x13d
 2886 0c75 B30B0000 		.4byte	0xbb3
 2887 0c79 30030000 		.4byte	.LLST15
 2888 0c7d 23       		.uleb128 0x23
 2889 0c7e 7F010000 		.4byte	.LASF240
 2890 0c82 01       		.byte	0x1
 2891 0c83 3E01     		.2byte	0x13e
 2892 0c85 B7080000 		.4byte	0x8b7
 2893 0c89 02       		.uleb128 0x2
 2894 0c8a 91       		.byte	0x91
 2895 0c8b 00       		.sleb128 0
 2896 0c8c 1D       		.uleb128 0x1d
 2897 0c8d 8E080000 		.4byte	.LASF260
 2898 0c91 01       		.byte	0x1
 2899 0c92 4001     		.2byte	0x140
 2900 0c94 63090000 		.4byte	0x963
 2901 0c98 4E030000 		.4byte	.LLST16
 2902 0c9c 1E       		.uleb128 0x1e
 2903 0c9d 14000000 		.4byte	.LVL37
 2904 0ca1 3F150000 		.4byte	0x153f
 2905 0ca5 B00C0000 		.4byte	0xcb0
 2906 0ca9 1F       		.uleb128 0x1f
 2907 0caa 01       		.uleb128 0x1
 2908 0cab 50       		.byte	0x50
 2909 0cac 02       		.uleb128 0x2
 2910 0cad 08       		.byte	0x8
 2911 0cae 28       		.byte	0x28
 2912 0caf 00       		.byte	0
 2913 0cb0 20       		.uleb128 0x20
 2914 0cb1 2A000000 		.4byte	.LVL39
 2915 0cb5 200B0000 		.4byte	0xb20
 2916 0cb9 1F       		.uleb128 0x1f
 2917 0cba 01       		.uleb128 0x1
 2918 0cbb 50       		.byte	0x50
 2919 0cbc 02       		.uleb128 0x2
 2920 0cbd 75       		.byte	0x75
 2921 0cbe 00       		.sleb128 0
 2922 0cbf 1F       		.uleb128 0x1f
 2923 0cc0 01       		.uleb128 0x1
 2924 0cc1 51       		.byte	0x51
 2925 0cc2 02       		.uleb128 0x2
ARM GAS  C:\Users\codyg\AppData\Local\Temp\ccCwzev2.s 			page 73


 2926 0cc3 76       		.byte	0x76
 2927 0cc4 00       		.sleb128 0
 2928 0cc5 1F       		.uleb128 0x1f
 2929 0cc6 01       		.uleb128 0x1
 2930 0cc7 52       		.byte	0x52
 2931 0cc8 02       		.uleb128 0x2
 2932 0cc9 77       		.byte	0x77
 2933 0cca 00       		.sleb128 0
 2934 0ccb 1F       		.uleb128 0x1f
 2935 0ccc 01       		.uleb128 0x1
 2936 0ccd 53       		.byte	0x53
 2937 0cce 02       		.uleb128 0x2
 2938 0ccf 78       		.byte	0x78
 2939 0cd0 00       		.sleb128 0
 2940 0cd1 1F       		.uleb128 0x1f
 2941 0cd2 02       		.uleb128 0x2
 2942 0cd3 7D       		.byte	0x7d
 2943 0cd4 00       		.sleb128 0
 2944 0cd5 03       		.uleb128 0x3
 2945 0cd6 91       		.byte	0x91
 2946 0cd7 00       		.sleb128 0
 2947 0cd8 06       		.byte	0x6
 2948 0cd9 1F       		.uleb128 0x1f
 2949 0cda 02       		.uleb128 0x2
 2950 0cdb 7D       		.byte	0x7d
 2951 0cdc 04       		.sleb128 4
 2952 0cdd 02       		.uleb128 0x2
 2953 0cde 74       		.byte	0x74
 2954 0cdf 00       		.sleb128 0
 2955 0ce0 00       		.byte	0
 2956 0ce1 00       		.byte	0
 2957 0ce2 24       		.uleb128 0x24
 2958 0ce3 05020000 		.4byte	.LASF264
 2959 0ce7 01       		.byte	0x1
 2960 0ce8 A101     		.2byte	0x1a1
 2961 0cea 98070000 		.4byte	0x798
 2962 0cee 00000000 		.4byte	.LFB524
 2963 0cf2 5C000000 		.4byte	.LFE524-.LFB524
 2964 0cf6 01       		.uleb128 0x1
 2965 0cf7 9C       		.byte	0x9c
 2966 0cf8 C80D0000 		.4byte	0xdc8
 2967 0cfc 1C       		.uleb128 0x1c
 2968 0cfd FD170000 		.4byte	.LASF265
 2969 0d01 01       		.byte	0x1
 2970 0d02 A101     		.2byte	0x1a1
 2971 0d04 AC080000 		.4byte	0x8ac
 2972 0d08 6C030000 		.4byte	.LLST17
 2973 0d0c 1C       		.uleb128 0x1c
 2974 0d0d F2050000 		.4byte	.LASF266
 2975 0d11 01       		.byte	0x1
 2976 0d12 A101     		.2byte	0x1a1
 2977 0d14 C80D0000 		.4byte	0xdc8
 2978 0d18 98030000 		.4byte	.LLST18
 2979 0d1c 1C       		.uleb128 0x1c
 2980 0d1d 66020000 		.4byte	.LASF267
 2981 0d21 01       		.byte	0x1
 2982 0d22 A101     		.2byte	0x1a1
ARM GAS  C:\Users\codyg\AppData\Local\Temp\ccCwzev2.s 			page 74


 2983 0d24 960A0000 		.4byte	0xa96
 2984 0d28 F7030000 		.4byte	.LLST19
 2985 0d2c 1C       		.uleb128 0x1c
 2986 0d2d 8C020000 		.4byte	.LASF268
 2987 0d31 01       		.byte	0x1
 2988 0d32 A101     		.2byte	0x1a1
 2989 0d34 F7090000 		.4byte	0x9f7
 2990 0d38 23040000 		.4byte	.LLST20
 2991 0d3c 1C       		.uleb128 0x1c
 2992 0d3d 301B0000 		.4byte	.LASF269
 2993 0d41 01       		.byte	0x1
 2994 0d42 A101     		.2byte	0x1a1
 2995 0d44 960A0000 		.4byte	0xa96
 2996 0d48 81040000 		.4byte	.LLST21
 2997 0d4c 1D       		.uleb128 0x1d
 2998 0d4d 15190000 		.4byte	.LASF261
 2999 0d51 01       		.byte	0x1
 3000 0d52 A301     		.2byte	0x1a3
 3001 0d54 98070000 		.4byte	0x798
 3002 0d58 A1040000 		.4byte	.LLST22
 3003 0d5c 25       		.uleb128 0x25
 3004 0d5d 81170000 		.4byte	.LASF270
 3005 0d61 01       		.byte	0x1
 3006 0d62 A401     		.2byte	0x1a4
 3007 0d64 AB090000 		.4byte	0x9ab
 3008 0d68 02       		.uleb128 0x2
 3009 0d69 91       		.byte	0x91
 3010 0d6a 64       		.sleb128 -28
 3011 0d6b 22       		.uleb128 0x22
 3012 0d6c 24000000 		.4byte	.LVL44
 3013 0d70 4A150000 		.4byte	0x154a
 3014 0d74 1E       		.uleb128 0x1e
 3015 0d75 36000000 		.4byte	.LVL45
 3016 0d79 56150000 		.4byte	0x1556
 3017 0d7d 940D0000 		.4byte	0xd94
 3018 0d81 1F       		.uleb128 0x1f
 3019 0d82 01       		.uleb128 0x1
 3020 0d83 51       		.byte	0x51
 3021 0d84 02       		.uleb128 0x2
 3022 0d85 91       		.byte	0x91
 3023 0d86 64       		.sleb128 -28
 3024 0d87 1F       		.uleb128 0x1f
 3025 0d88 01       		.uleb128 0x1
 3026 0d89 52       		.byte	0x52
 3027 0d8a 03       		.uleb128 0x3
 3028 0d8b 91       		.byte	0x91
 3029 0d8c 00       		.sleb128 0
 3030 0d8d 06       		.byte	0x6
 3031 0d8e 1F       		.uleb128 0x1f
 3032 0d8f 01       		.uleb128 0x1
 3033 0d90 53       		.byte	0x53
 3034 0d91 01       		.uleb128 0x1
 3035 0d92 30       		.byte	0x30
 3036 0d93 00       		.byte	0
 3037 0d94 1E       		.uleb128 0x1e
 3038 0d95 46000000 		.4byte	.LVL47
 3039 0d99 56150000 		.4byte	0x1556
ARM GAS  C:\Users\codyg\AppData\Local\Temp\ccCwzev2.s 			page 75


 3040 0d9d B20D0000 		.4byte	0xdb2
 3041 0da1 1F       		.uleb128 0x1f
 3042 0da2 01       		.uleb128 0x1
 3043 0da3 51       		.byte	0x51
 3044 0da4 02       		.uleb128 0x2
 3045 0da5 91       		.byte	0x91
 3046 0da6 64       		.sleb128 -28
 3047 0da7 1F       		.uleb128 0x1f
 3048 0da8 01       		.uleb128 0x1
 3049 0da9 52       		.byte	0x52
 3050 0daa 01       		.uleb128 0x1
 3051 0dab 30       		.byte	0x30
 3052 0dac 1F       		.uleb128 0x1f
 3053 0dad 01       		.uleb128 0x1
 3054 0dae 53       		.byte	0x53
 3055 0daf 01       		.uleb128 0x1
 3056 0db0 30       		.byte	0x30
 3057 0db1 00       		.byte	0
 3058 0db2 20       		.uleb128 0x20
 3059 0db3 50000000 		.4byte	.LVL50
 3060 0db7 62150000 		.4byte	0x1562
 3061 0dbb 1F       		.uleb128 0x1f
 3062 0dbc 01       		.uleb128 0x1
 3063 0dbd 51       		.byte	0x51
 3064 0dbe 02       		.uleb128 0x2
 3065 0dbf 91       		.byte	0x91
 3066 0dc0 64       		.sleb128 -28
 3067 0dc1 1F       		.uleb128 0x1f
 3068 0dc2 01       		.uleb128 0x1
 3069 0dc3 53       		.byte	0x53
 3070 0dc4 01       		.uleb128 0x1
 3071 0dc5 30       		.byte	0x30
 3072 0dc6 00       		.byte	0
 3073 0dc7 00       		.byte	0
 3074 0dc8 07       		.uleb128 0x7
 3075 0dc9 98070000 		.4byte	0x798
 3076 0dcd 21       		.uleb128 0x21
 3077 0dce C2100000 		.4byte	.LASF271
 3078 0dd2 01       		.byte	0x1
 3079 0dd3 6703     		.2byte	0x367
 3080 0dd5 00000000 		.4byte	.LFB536
 3081 0dd9 68000000 		.4byte	.LFE536-.LFB536
 3082 0ddd 01       		.uleb128 0x1
 3083 0dde 9C       		.byte	0x9c
 3084 0ddf 900E0000 		.4byte	0xe90
 3085 0de3 1D       		.uleb128 0x1d
 3086 0de4 43120000 		.4byte	.LASF256
 3087 0de8 01       		.byte	0x1
 3088 0de9 6903     		.2byte	0x369
 3089 0deb AE070000 		.4byte	0x7ae
 3090 0def 05050000 		.4byte	.LLST23
 3091 0df3 1D       		.uleb128 0x1d
 3092 0df4 8A180000 		.4byte	.LASF272
 3093 0df8 01       		.byte	0x1
 3094 0df9 6903     		.2byte	0x369
 3095 0dfb AE070000 		.4byte	0x7ae
 3096 0dff 18050000 		.4byte	.LLST24
ARM GAS  C:\Users\codyg\AppData\Local\Temp\ccCwzev2.s 			page 76


 3097 0e03 25       		.uleb128 0x25
 3098 0e04 D7080000 		.4byte	.LASF273
 3099 0e08 01       		.byte	0x1
 3100 0e09 6A03     		.2byte	0x36a
 3101 0e0b 900E0000 		.4byte	0xe90
 3102 0e0f 01       		.uleb128 0x1
 3103 0e10 53       		.byte	0x53
 3104 0e11 1D       		.uleb128 0x1d
 3105 0e12 CB190000 		.4byte	.LASF245
 3106 0e16 01       		.byte	0x1
 3107 0e17 6B03     		.2byte	0x36b
 3108 0e19 63090000 		.4byte	0x963
 3109 0e1d 42050000 		.4byte	.LLST25
 3110 0e21 1D       		.uleb128 0x1d
 3111 0e22 451B0000 		.4byte	.LASF274
 3112 0e26 01       		.byte	0x1
 3113 0e27 6C03     		.2byte	0x36c
 3114 0e29 98070000 		.4byte	0x798
 3115 0e2d 55050000 		.4byte	.LLST26
 3116 0e31 1E       		.uleb128 0x1e
 3117 0e32 14000000 		.4byte	.LVL56
 3118 0e36 6E150000 		.4byte	0x156e
 3119 0e3a 450E0000 		.4byte	0xe45
 3120 0e3e 1F       		.uleb128 0x1f
 3121 0e3f 01       		.uleb128 0x1
 3122 0e40 50       		.byte	0x50
 3123 0e41 02       		.uleb128 0x2
 3124 0e42 75       		.byte	0x75
 3125 0e43 00       		.sleb128 0
 3126 0e44 00       		.byte	0
 3127 0e45 26       		.uleb128 0x26
 3128 0e46 1A000000 		.4byte	.LVL57
 3129 0e4a 550E0000 		.4byte	0xe55
 3130 0e4e 1F       		.uleb128 0x1f
 3131 0e4f 01       		.uleb128 0x1
 3132 0e50 50       		.byte	0x50
 3133 0e51 02       		.uleb128 0x2
 3134 0e52 74       		.byte	0x74
 3135 0e53 00       		.sleb128 0
 3136 0e54 00       		.byte	0
 3137 0e55 1E       		.uleb128 0x1e
 3138 0e56 36000000 		.4byte	.LVL60
 3139 0e5a E1140000 		.4byte	0x14e1
 3140 0e5e 690E0000 		.4byte	0xe69
 3141 0e62 1F       		.uleb128 0x1f
 3142 0e63 01       		.uleb128 0x1
 3143 0e64 51       		.byte	0x51
 3144 0e65 02       		.uleb128 0x2
 3145 0e66 75       		.byte	0x75
 3146 0e67 00       		.sleb128 0
 3147 0e68 00       		.byte	0
 3148 0e69 20       		.uleb128 0x20
 3149 0e6a 46000000 		.4byte	.LVL63
 3150 0e6e E20C0000 		.4byte	0xce2
 3151 0e72 1F       		.uleb128 0x1f
 3152 0e73 01       		.uleb128 0x1
 3153 0e74 50       		.byte	0x50
ARM GAS  C:\Users\codyg\AppData\Local\Temp\ccCwzev2.s 			page 77


 3154 0e75 02       		.uleb128 0x2
 3155 0e76 74       		.byte	0x74
 3156 0e77 00       		.sleb128 0
 3157 0e78 1F       		.uleb128 0x1f
 3158 0e79 01       		.uleb128 0x1
 3159 0e7a 51       		.byte	0x51
 3160 0e7b 01       		.uleb128 0x1
 3161 0e7c 30       		.byte	0x30
 3162 0e7d 1F       		.uleb128 0x1f
 3163 0e7e 01       		.uleb128 0x1
 3164 0e7f 52       		.byte	0x52
 3165 0e80 02       		.uleb128 0x2
 3166 0e81 76       		.byte	0x76
 3167 0e82 00       		.sleb128 0
 3168 0e83 1F       		.uleb128 0x1f
 3169 0e84 01       		.uleb128 0x1
 3170 0e85 53       		.byte	0x53
 3171 0e86 01       		.uleb128 0x1
 3172 0e87 30       		.byte	0x30
 3173 0e88 1F       		.uleb128 0x1f
 3174 0e89 02       		.uleb128 0x2
 3175 0e8a 7D       		.byte	0x7d
 3176 0e8b 00       		.sleb128 0
 3177 0e8c 01       		.uleb128 0x1
 3178 0e8d 30       		.byte	0x30
 3179 0e8e 00       		.byte	0
 3180 0e8f 00       		.byte	0
 3181 0e90 06       		.uleb128 0x6
 3182 0e91 04       		.byte	0x4
 3183 0e92 86080000 		.4byte	0x886
 3184 0e96 1B       		.uleb128 0x1b
 3185 0e97 280E0000 		.4byte	.LASF275
 3186 0e9b 01       		.byte	0x1
 3187 0e9c 9402     		.2byte	0x294
 3188 0e9e AE070000 		.4byte	0x7ae
 3189 0ea2 00000000 		.4byte	.LFB533
 3190 0ea6 2C000000 		.4byte	.LFE533-.LFB533
 3191 0eaa 01       		.uleb128 0x1
 3192 0eab 9C       		.byte	0x9c
 3193 0eac F50E0000 		.4byte	0xef5
 3194 0eb0 1C       		.uleb128 0x1c
 3195 0eb1 00000000 		.4byte	.LASF276
 3196 0eb5 01       		.byte	0x1
 3197 0eb6 9402     		.2byte	0x294
 3198 0eb8 F7090000 		.4byte	0x9f7
 3199 0ebc 68050000 		.4byte	.LLST27
 3200 0ec0 1D       		.uleb128 0x1d
 3201 0ec1 FC010000 		.4byte	.LASF254
 3202 0ec5 01       		.byte	0x1
 3203 0ec6 9602     		.2byte	0x296
 3204 0ec8 AE070000 		.4byte	0x7ae
 3205 0ecc 94050000 		.4byte	.LLST28
 3206 0ed0 25       		.uleb128 0x25
 3207 0ed1 D8160000 		.4byte	.LASF277
 3208 0ed5 01       		.byte	0x1
 3209 0ed6 9702     		.2byte	0x297
 3210 0ed8 AE070000 		.4byte	0x7ae
ARM GAS  C:\Users\codyg\AppData\Local\Temp\ccCwzev2.s 			page 78


 3211 0edc 05       		.uleb128 0x5
 3212 0edd 03       		.byte	0x3
 3213 0ede 38000000 		.4byte	xLastTime.18141
 3214 0ee2 22       		.uleb128 0x22
 3215 0ee3 08000000 		.4byte	.LVL67
 3216 0ee7 7A150000 		.4byte	0x157a
 3217 0eeb 22       		.uleb128 0x22
 3218 0eec 16000000 		.4byte	.LVL69
 3219 0ef0 CD0D0000 		.4byte	0xdcd
 3220 0ef4 00       		.byte	0
 3221 0ef5 21       		.uleb128 0x21
 3222 0ef6 39070000 		.4byte	.LASF278
 3223 0efa 01       		.byte	0x1
 3224 0efb F201     		.2byte	0x1f2
 3225 0efd 00000000 		.4byte	.LFB529
 3226 0f01 50000000 		.4byte	.LFE529-.LFB529
 3227 0f05 01       		.uleb128 0x1
 3228 0f06 9C       		.byte	0x9c
 3229 0f07 B60F0000 		.4byte	0xfb6
 3230 0f0b 1C       		.uleb128 0x1c
 3231 0f0c 43120000 		.4byte	.LASF256
 3232 0f10 01       		.byte	0x1
 3233 0f11 F201     		.2byte	0x1f2
 3234 0f13 960A0000 		.4byte	0xa96
 3235 0f17 D3050000 		.4byte	.LLST29
 3236 0f1b 1C       		.uleb128 0x1c
 3237 0f1c FC010000 		.4byte	.LASF254
 3238 0f20 01       		.byte	0x1
 3239 0f21 F201     		.2byte	0x1f2
 3240 0f23 960A0000 		.4byte	0xa96
 3241 0f27 FF050000 		.4byte	.LLST30
 3242 0f2b 1D       		.uleb128 0x1d
 3243 0f2c 451B0000 		.4byte	.LASF274
 3244 0f30 01       		.byte	0x1
 3245 0f31 F401     		.2byte	0x1f4
 3246 0f33 98070000 		.4byte	0x798
 3247 0f37 2B060000 		.4byte	.LLST31
 3248 0f3b 1D       		.uleb128 0x1d
 3249 0f3c CB190000 		.4byte	.LASF245
 3250 0f40 01       		.byte	0x1
 3251 0f41 F501     		.2byte	0x1f5
 3252 0f43 910A0000 		.4byte	0xa91
 3253 0f47 3E060000 		.4byte	.LLST32
 3254 0f4b 1E       		.uleb128 0x1e
 3255 0f4c 16000000 		.4byte	.LVL76
 3256 0f50 6E150000 		.4byte	0x156e
 3257 0f54 5F0F0000 		.4byte	0xf5f
 3258 0f58 1F       		.uleb128 0x1f
 3259 0f59 01       		.uleb128 0x1
 3260 0f5a 50       		.byte	0x50
 3261 0f5b 02       		.uleb128 0x2
 3262 0f5c 74       		.byte	0x74
 3263 0f5d 04       		.sleb128 4
 3264 0f5e 00       		.byte	0
 3265 0f5f 1E       		.uleb128 0x1e
 3266 0f60 2A000000 		.4byte	.LVL77
 3267 0f64 FC090000 		.4byte	0x9fc
ARM GAS  C:\Users\codyg\AppData\Local\Temp\ccCwzev2.s 			page 79


 3268 0f68 7F0F0000 		.4byte	0xf7f
 3269 0f6c 1F       		.uleb128 0x1f
 3270 0f6d 01       		.uleb128 0x1
 3271 0f6e 50       		.byte	0x50
 3272 0f6f 02       		.uleb128 0x2
 3273 0f70 74       		.byte	0x74
 3274 0f71 00       		.sleb128 0
 3275 0f72 1F       		.uleb128 0x1f
 3276 0f73 01       		.uleb128 0x1
 3277 0f74 52       		.byte	0x52
 3278 0f75 02       		.uleb128 0x2
 3279 0f76 76       		.byte	0x76
 3280 0f77 00       		.sleb128 0
 3281 0f78 1F       		.uleb128 0x1f
 3282 0f79 01       		.uleb128 0x1
 3283 0f7a 53       		.byte	0x53
 3284 0f7b 02       		.uleb128 0x2
 3285 0f7c 75       		.byte	0x75
 3286 0f7d 00       		.sleb128 0
 3287 0f7e 00       		.byte	0
 3288 0f7f 1E       		.uleb128 0x1e
 3289 0f80 3A000000 		.4byte	.LVL78
 3290 0f84 E20C0000 		.4byte	0xce2
 3291 0f88 A90F0000 		.4byte	0xfa9
 3292 0f8c 1F       		.uleb128 0x1f
 3293 0f8d 01       		.uleb128 0x1
 3294 0f8e 50       		.byte	0x50
 3295 0f8f 02       		.uleb128 0x2
 3296 0f90 74       		.byte	0x74
 3297 0f91 00       		.sleb128 0
 3298 0f92 1F       		.uleb128 0x1f
 3299 0f93 01       		.uleb128 0x1
 3300 0f94 51       		.byte	0x51
 3301 0f95 01       		.uleb128 0x1
 3302 0f96 30       		.byte	0x30
 3303 0f97 1F       		.uleb128 0x1f
 3304 0f98 01       		.uleb128 0x1
 3305 0f99 52       		.byte	0x52
 3306 0f9a 02       		.uleb128 0x2
 3307 0f9b 75       		.byte	0x75
 3308 0f9c 00       		.sleb128 0
 3309 0f9d 1F       		.uleb128 0x1f
 3310 0f9e 01       		.uleb128 0x1
 3311 0f9f 53       		.byte	0x53
 3312 0fa0 01       		.uleb128 0x1
 3313 0fa1 30       		.byte	0x30
 3314 0fa2 1F       		.uleb128 0x1f
 3315 0fa3 02       		.uleb128 0x2
 3316 0fa4 7D       		.byte	0x7d
 3317 0fa5 00       		.sleb128 0
 3318 0fa6 01       		.uleb128 0x1
 3319 0fa7 30       		.byte	0x30
 3320 0fa8 00       		.byte	0
 3321 0fa9 27       		.uleb128 0x27
 3322 0faa 46000000 		.4byte	.LVL80
 3323 0fae 1F       		.uleb128 0x1f
 3324 0faf 01       		.uleb128 0x1
ARM GAS  C:\Users\codyg\AppData\Local\Temp\ccCwzev2.s 			page 80


 3325 0fb0 50       		.byte	0x50
 3326 0fb1 02       		.uleb128 0x2
 3327 0fb2 74       		.byte	0x74
 3328 0fb3 00       		.sleb128 0
 3329 0fb4 00       		.byte	0
 3330 0fb5 00       		.byte	0
 3331 0fb6 21       		.uleb128 0x21
 3332 0fb7 A91B0000 		.4byte	.LASF279
 3333 0fbb 01       		.byte	0x1
 3334 0fbc 3E02     		.2byte	0x23e
 3335 0fbe 00000000 		.4byte	.LFB531
 3336 0fc2 70000000 		.4byte	.LFE531-.LFB531
 3337 0fc6 01       		.uleb128 0x1
 3338 0fc7 9C       		.byte	0x9c
 3339 0fc8 7B100000 		.4byte	0x107b
 3340 0fcc 1C       		.uleb128 0x1c
 3341 0fcd 43120000 		.4byte	.LASF256
 3342 0fd1 01       		.byte	0x1
 3343 0fd2 3E02     		.2byte	0x23e
 3344 0fd4 960A0000 		.4byte	0xa96
 3345 0fd8 51060000 		.4byte	.LLST33
 3346 0fdc 1C       		.uleb128 0x1c
 3347 0fdd 911E0000 		.4byte	.LASF280
 3348 0fe1 01       		.byte	0x1
 3349 0fe2 3E02     		.2byte	0x23e
 3350 0fe4 98070000 		.4byte	0x798
 3351 0fe8 7D060000 		.4byte	.LLST34
 3352 0fec 1D       		.uleb128 0x1d
 3353 0fed FC010000 		.4byte	.LASF254
 3354 0ff1 01       		.byte	0x1
 3355 0ff2 4002     		.2byte	0x240
 3356 0ff4 AE070000 		.4byte	0x7ae
 3357 0ff8 B4060000 		.4byte	.LLST35
 3358 0ffc 25       		.uleb128 0x25
 3359 0ffd 2D0F0000 		.4byte	.LASF281
 3360 1001 01       		.byte	0x1
 3361 1002 4102     		.2byte	0x241
 3362 1004 98070000 		.4byte	0x798
 3363 1008 02       		.uleb128 0x2
 3364 1009 91       		.byte	0x91
 3365 100a 6C       		.sleb128 -20
 3366 100b 22       		.uleb128 0x22
 3367 100c 0C000000 		.4byte	.LVL83
 3368 1010 86150000 		.4byte	0x1586
 3369 1014 1E       		.uleb128 0x1e
 3370 1015 12000000 		.4byte	.LVL84
 3371 1019 960E0000 		.4byte	0xe96
 3372 101d 28100000 		.4byte	0x1028
 3373 1021 1F       		.uleb128 0x1f
 3374 1022 01       		.uleb128 0x1
 3375 1023 50       		.byte	0x50
 3376 1024 02       		.uleb128 0x2
 3377 1025 91       		.byte	0x91
 3378 1026 6C       		.sleb128 -20
 3379 1027 00       		.byte	0
 3380 1028 22       		.uleb128 0x22
 3381 1029 22000000 		.4byte	.LVL85
ARM GAS  C:\Users\codyg\AppData\Local\Temp\ccCwzev2.s 			page 81


 3382 102d 92150000 		.4byte	0x1592
 3383 1031 1E       		.uleb128 0x1e
 3384 1032 2A000000 		.4byte	.LVL86
 3385 1036 F50E0000 		.4byte	0xef5
 3386 103a 4B100000 		.4byte	0x104b
 3387 103e 1F       		.uleb128 0x1f
 3388 103f 01       		.uleb128 0x1
 3389 1040 50       		.byte	0x50
 3390 1041 02       		.uleb128 0x2
 3391 1042 76       		.byte	0x76
 3392 1043 00       		.sleb128 0
 3393 1044 1F       		.uleb128 0x1f
 3394 1045 01       		.uleb128 0x1
 3395 1046 51       		.byte	0x51
 3396 1047 02       		.uleb128 0x2
 3397 1048 75       		.byte	0x75
 3398 1049 00       		.sleb128 0
 3399 104a 00       		.byte	0
 3400 104b 1E       		.uleb128 0x1e
 3401 104c 46000000 		.4byte	.LVL91
 3402 1050 9E150000 		.4byte	0x159e
 3403 1054 68100000 		.4byte	0x1068
 3404 1058 1F       		.uleb128 0x1f
 3405 1059 01       		.uleb128 0x1
 3406 105a 51       		.byte	0x51
 3407 105b 05       		.uleb128 0x5
 3408 105c 76       		.byte	0x76
 3409 105d 00       		.sleb128 0
 3410 105e 75       		.byte	0x75
 3411 105f 00       		.sleb128 0
 3412 1060 1C       		.byte	0x1c
 3413 1061 1F       		.uleb128 0x1f
 3414 1062 01       		.uleb128 0x1
 3415 1063 52       		.byte	0x52
 3416 1064 02       		.uleb128 0x2
 3417 1065 74       		.byte	0x74
 3418 1066 00       		.sleb128 0
 3419 1067 00       		.byte	0
 3420 1068 22       		.uleb128 0x22
 3421 1069 4A000000 		.4byte	.LVL92
 3422 106d 92150000 		.4byte	0x1592
 3423 1071 22       		.uleb128 0x22
 3424 1072 62000000 		.4byte	.LVL94
 3425 1076 92150000 		.4byte	0x1592
 3426 107a 00       		.byte	0
 3427 107b 21       		.uleb128 0x21
 3428 107c AD160000 		.4byte	.LASF282
 3429 1080 01       		.byte	0x1
 3430 1081 D402     		.2byte	0x2d4
 3431 1083 00000000 		.4byte	.LFB535
 3432 1087 A0000000 		.4byte	.LFE535-.LFB535
 3433 108b 01       		.uleb128 0x1
 3434 108c 9C       		.byte	0x9c
 3435 108d 92110000 		.4byte	0x1192
 3436 1091 25       		.uleb128 0x25
 3437 1092 81170000 		.4byte	.LASF270
 3438 1096 01       		.byte	0x1
ARM GAS  C:\Users\codyg\AppData\Local\Temp\ccCwzev2.s 			page 82


 3439 1097 D602     		.2byte	0x2d6
 3440 1099 AB090000 		.4byte	0x9ab
 3441 109d 02       		.uleb128 0x2
 3442 109e 91       		.byte	0x91
 3443 109f 64       		.sleb128 -28
 3444 10a0 1D       		.uleb128 0x1d
 3445 10a1 CB190000 		.4byte	.LASF245
 3446 10a5 01       		.byte	0x1
 3447 10a6 D702     		.2byte	0x2d7
 3448 10a8 63090000 		.4byte	0x963
 3449 10ac F3060000 		.4byte	.LLST36
 3450 10b0 25       		.uleb128 0x25
 3451 10b1 2D0F0000 		.4byte	.LASF281
 3452 10b5 01       		.byte	0x1
 3453 10b6 D802     		.2byte	0x2d8
 3454 10b8 98070000 		.4byte	0x798
 3455 10bc 02       		.uleb128 0x2
 3456 10bd 91       		.byte	0x91
 3457 10be 60       		.sleb128 -32
 3458 10bf 1D       		.uleb128 0x1d
 3459 10c0 451B0000 		.4byte	.LASF274
 3460 10c4 01       		.byte	0x1
 3461 10c5 D802     		.2byte	0x2d8
 3462 10c7 98070000 		.4byte	0x798
 3463 10cb 06070000 		.4byte	.LLST37
 3464 10cf 1D       		.uleb128 0x1d
 3465 10d0 FC010000 		.4byte	.LASF254
 3466 10d4 01       		.byte	0x1
 3467 10d5 D902     		.2byte	0x2d9
 3468 10d7 AE070000 		.4byte	0x7ae
 3469 10db 19070000 		.4byte	.LLST38
 3470 10df 1E       		.uleb128 0x1e
 3471 10e0 18000000 		.4byte	.LVL97
 3472 10e4 6E150000 		.4byte	0x156e
 3473 10e8 F3100000 		.4byte	0x10f3
 3474 10ec 1F       		.uleb128 0x1f
 3475 10ed 01       		.uleb128 0x1
 3476 10ee 50       		.byte	0x50
 3477 10ef 02       		.uleb128 0x2
 3478 10f0 74       		.byte	0x74
 3479 10f1 04       		.sleb128 4
 3480 10f2 00       		.byte	0
 3481 10f3 1E       		.uleb128 0x1e
 3482 10f4 1E000000 		.4byte	.LVL98
 3483 10f8 960E0000 		.4byte	0xe96
 3484 10fc 07110000 		.4byte	0x1107
 3485 1100 1F       		.uleb128 0x1f
 3486 1101 01       		.uleb128 0x1
 3487 1102 50       		.byte	0x50
 3488 1103 02       		.uleb128 0x2
 3489 1104 91       		.byte	0x91
 3490 1105 60       		.sleb128 -32
 3491 1106 00       		.byte	0
 3492 1107 1E       		.uleb128 0x1e
 3493 1108 42000000 		.4byte	.LVL100
 3494 110c FC090000 		.4byte	0x9fc
 3495 1110 1B110000 		.4byte	0x111b
ARM GAS  C:\Users\codyg\AppData\Local\Temp\ccCwzev2.s 			page 83


 3496 1114 1F       		.uleb128 0x1f
 3497 1115 01       		.uleb128 0x1
 3498 1116 50       		.byte	0x50
 3499 1117 02       		.uleb128 0x2
 3500 1118 74       		.byte	0x74
 3501 1119 00       		.sleb128 0
 3502 111a 00       		.byte	0
 3503 111b 26       		.uleb128 0x26
 3504 111c 4A000000 		.4byte	.LVL101
 3505 1120 2B110000 		.4byte	0x112b
 3506 1124 1F       		.uleb128 0x1f
 3507 1125 01       		.uleb128 0x1
 3508 1126 50       		.byte	0x50
 3509 1127 02       		.uleb128 0x2
 3510 1128 74       		.byte	0x74
 3511 1129 00       		.sleb128 0
 3512 112a 00       		.byte	0
 3513 112b 1E       		.uleb128 0x1e
 3514 112c 62000000 		.4byte	.LVL102
 3515 1130 E20C0000 		.4byte	0xce2
 3516 1134 4F110000 		.4byte	0x114f
 3517 1138 1F       		.uleb128 0x1f
 3518 1139 01       		.uleb128 0x1
 3519 113a 50       		.byte	0x50
 3520 113b 02       		.uleb128 0x2
 3521 113c 74       		.byte	0x74
 3522 113d 00       		.sleb128 0
 3523 113e 1F       		.uleb128 0x1f
 3524 113f 01       		.uleb128 0x1
 3525 1140 51       		.byte	0x51
 3526 1141 01       		.uleb128 0x1
 3527 1142 30       		.byte	0x30
 3528 1143 1F       		.uleb128 0x1f
 3529 1144 01       		.uleb128 0x1
 3530 1145 53       		.byte	0x53
 3531 1146 01       		.uleb128 0x1
 3532 1147 30       		.byte	0x30
 3533 1148 1F       		.uleb128 0x1f
 3534 1149 02       		.uleb128 0x2
 3535 114a 7D       		.byte	0x7d
 3536 114b 00       		.sleb128 0
 3537 114c 01       		.uleb128 0x1
 3538 114d 30       		.byte	0x30
 3539 114e 00       		.byte	0
 3540 114f 1E       		.uleb128 0x1e
 3541 1150 7E000000 		.4byte	.LVL105
 3542 1154 FC090000 		.4byte	0x9fc
 3543 1158 63110000 		.4byte	0x1163
 3544 115c 1F       		.uleb128 0x1f
 3545 115d 01       		.uleb128 0x1
 3546 115e 50       		.byte	0x50
 3547 115f 02       		.uleb128 0x2
 3548 1160 74       		.byte	0x74
 3549 1161 00       		.sleb128 0
 3550 1162 00       		.byte	0
 3551 1163 1E       		.uleb128 0x1e
 3552 1164 86000000 		.4byte	.LVL108
ARM GAS  C:\Users\codyg\AppData\Local\Temp\ccCwzev2.s 			page 84


 3553 1168 AA150000 		.4byte	0x15aa
 3554 116c 77110000 		.4byte	0x1177
 3555 1170 1F       		.uleb128 0x1f
 3556 1171 01       		.uleb128 0x1
 3557 1172 50       		.byte	0x50
 3558 1173 02       		.uleb128 0x2
 3559 1174 74       		.byte	0x74
 3560 1175 00       		.sleb128 0
 3561 1176 00       		.byte	0
 3562 1177 20       		.uleb128 0x20
 3563 1178 94000000 		.4byte	.LVL109
 3564 117c B5150000 		.4byte	0x15b5
 3565 1180 1F       		.uleb128 0x1f
 3566 1181 01       		.uleb128 0x1
 3567 1182 51       		.byte	0x51
 3568 1183 02       		.uleb128 0x2
 3569 1184 91       		.byte	0x91
 3570 1185 64       		.sleb128 -28
 3571 1186 1F       		.uleb128 0x1f
 3572 1187 01       		.uleb128 0x1
 3573 1188 52       		.byte	0x52
 3574 1189 01       		.uleb128 0x1
 3575 118a 30       		.byte	0x30
 3576 118b 1F       		.uleb128 0x1f
 3577 118c 01       		.uleb128 0x1
 3578 118d 53       		.byte	0x53
 3579 118e 01       		.uleb128 0x1
 3580 118f 30       		.byte	0x30
 3581 1190 00       		.byte	0
 3582 1191 00       		.byte	0
 3583 1192 28       		.uleb128 0x28
 3584 1193 CF140000 		.4byte	.LASF283
 3585 1197 01       		.byte	0x1
 3586 1198 1A02     		.2byte	0x21a
 3587 119a 00000000 		.4byte	.LFB530
 3588 119e 16000000 		.4byte	.LFE530-.LFB530
 3589 11a2 01       		.uleb128 0x1
 3590 11a3 9C       		.byte	0x9c
 3591 11a4 FE110000 		.4byte	0x11fe
 3592 11a8 1C       		.uleb128 0x1c
 3593 11a9 95160000 		.4byte	.LASF284
 3594 11ad 01       		.byte	0x1
 3595 11ae 1A02     		.2byte	0x21a
 3596 11b0 9A000000 		.4byte	0x9a
 3597 11b4 58070000 		.4byte	.LLST39
 3598 11b8 1D       		.uleb128 0x1d
 3599 11b9 43120000 		.4byte	.LASF256
 3600 11bd 01       		.byte	0x1
 3601 11be 1C02     		.2byte	0x21c
 3602 11c0 AE070000 		.4byte	0x7ae
 3603 11c4 79070000 		.4byte	.LLST40
 3604 11c8 25       		.uleb128 0x25
 3605 11c9 911E0000 		.4byte	.LASF280
 3606 11cd 01       		.byte	0x1
 3607 11ce 1D02     		.2byte	0x21d
 3608 11d0 98070000 		.4byte	0x798
 3609 11d4 02       		.uleb128 0x2
ARM GAS  C:\Users\codyg\AppData\Local\Temp\ccCwzev2.s 			page 85


 3610 11d5 91       		.byte	0x91
 3611 11d6 74       		.sleb128 -12
 3612 11d7 1E       		.uleb128 0x1e
 3613 11d8 0A000000 		.4byte	.LVL112
 3614 11dc B6090000 		.4byte	0x9b6
 3615 11e0 EB110000 		.4byte	0x11eb
 3616 11e4 1F       		.uleb128 0x1f
 3617 11e5 01       		.uleb128 0x1
 3618 11e6 50       		.byte	0x50
 3619 11e7 02       		.uleb128 0x2
 3620 11e8 91       		.byte	0x91
 3621 11e9 74       		.sleb128 -12
 3622 11ea 00       		.byte	0
 3623 11eb 22       		.uleb128 0x22
 3624 11ec 10000000 		.4byte	.LVL113
 3625 11f0 B60F0000 		.4byte	0xfb6
 3626 11f4 22       		.uleb128 0x22
 3627 11f5 14000000 		.4byte	.LVL114
 3628 11f9 7B100000 		.4byte	0x107b
 3629 11fd 00       		.byte	0
 3630 11fe 29       		.uleb128 0x29
 3631 11ff 8E1D0000 		.4byte	.LASF329
 3632 1203 01       		.byte	0x1
 3633 1204 CC01     		.2byte	0x1cc
 3634 1206 91080000 		.4byte	0x891
 3635 120a 00000000 		.4byte	.LFB525
 3636 120e 10000000 		.4byte	.LFE525-.LFB525
 3637 1212 01       		.uleb128 0x1
 3638 1213 9C       		.byte	0x9c
 3639 1214 24       		.uleb128 0x24
 3640 1215 BB190000 		.4byte	.LASF285
 3641 1219 01       		.byte	0x1
 3642 121a D501     		.2byte	0x1d5
 3643 121c AE070000 		.4byte	0x7ae
 3644 1220 00000000 		.4byte	.LFB526
 3645 1224 0A000000 		.4byte	.LFE526-.LFB526
 3646 1228 01       		.uleb128 0x1
 3647 1229 9C       		.byte	0x9c
 3648 122a 4F120000 		.4byte	0x124f
 3649 122e 1C       		.uleb128 0x1c
 3650 122f FD170000 		.4byte	.LASF265
 3651 1233 01       		.byte	0x1
 3652 1234 D501     		.2byte	0x1d5
 3653 1236 AC080000 		.4byte	0x8ac
 3654 123a 8C070000 		.4byte	.LLST41
 3655 123e 1D       		.uleb128 0x1d
 3656 123f CB190000 		.4byte	.LASF245
 3657 1243 01       		.byte	0x1
 3658 1244 D701     		.2byte	0x1d7
 3659 1246 63090000 		.4byte	0x963
 3660 124a AD070000 		.4byte	.LLST42
 3661 124e 00       		.byte	0
 3662 124f 24       		.uleb128 0x24
 3663 1250 C50D0000 		.4byte	.LASF286
 3664 1254 01       		.byte	0x1
 3665 1255 DE01     		.2byte	0x1de
 3666 1257 AE070000 		.4byte	0x7ae
ARM GAS  C:\Users\codyg\AppData\Local\Temp\ccCwzev2.s 			page 86


 3667 125b 00000000 		.4byte	.LFB527
 3668 125f 0A000000 		.4byte	.LFE527-.LFB527
 3669 1263 01       		.uleb128 0x1
 3670 1264 9C       		.byte	0x9c
 3671 1265 9A120000 		.4byte	0x129a
 3672 1269 1C       		.uleb128 0x1c
 3673 126a FD170000 		.4byte	.LASF265
 3674 126e 01       		.byte	0x1
 3675 126f DE01     		.2byte	0x1de
 3676 1271 AC080000 		.4byte	0x8ac
 3677 1275 CE070000 		.4byte	.LLST43
 3678 1279 1D       		.uleb128 0x1d
 3679 127a CB190000 		.4byte	.LASF245
 3680 127e 01       		.byte	0x1
 3681 127f E001     		.2byte	0x1e0
 3682 1281 63090000 		.4byte	0x963
 3683 1285 EF070000 		.4byte	.LLST44
 3684 1289 1D       		.uleb128 0x1d
 3685 128a 15190000 		.4byte	.LASF261
 3686 128e 01       		.byte	0x1
 3687 128f E101     		.2byte	0x1e1
 3688 1291 AE070000 		.4byte	0x7ae
 3689 1295 10080000 		.4byte	.LLST45
 3690 1299 00       		.byte	0
 3691 129a 24       		.uleb128 0x24
 3692 129b 211B0000 		.4byte	.LASF287
 3693 129f 01       		.byte	0x1
 3694 12a0 E901     		.2byte	0x1e9
 3695 12a2 A3000000 		.4byte	0xa3
 3696 12a6 00000000 		.4byte	.LFB528
 3697 12aa 0A000000 		.4byte	.LFE528-.LFB528
 3698 12ae 01       		.uleb128 0x1
 3699 12af 9C       		.byte	0x9c
 3700 12b0 D5120000 		.4byte	0x12d5
 3701 12b4 1C       		.uleb128 0x1c
 3702 12b5 FD170000 		.4byte	.LASF265
 3703 12b9 01       		.byte	0x1
 3704 12ba E901     		.2byte	0x1e9
 3705 12bc AC080000 		.4byte	0x8ac
 3706 12c0 2F080000 		.4byte	.LLST46
 3707 12c4 1D       		.uleb128 0x1d
 3708 12c5 CB190000 		.4byte	.LASF245
 3709 12c9 01       		.byte	0x1
 3710 12ca EB01     		.2byte	0x1eb
 3711 12cc 63090000 		.4byte	0x963
 3712 12d0 50080000 		.4byte	.LLST47
 3713 12d4 00       		.byte	0
 3714 12d5 24       		.uleb128 0x24
 3715 12d6 4F090000 		.4byte	.LASF288
 3716 12da 01       		.byte	0x1
 3717 12db D503     		.2byte	0x3d5
 3718 12dd 98070000 		.4byte	0x798
 3719 12e1 00000000 		.4byte	.LFB538
 3720 12e5 1E000000 		.4byte	.LFE538-.LFB538
 3721 12e9 01       		.uleb128 0x1
 3722 12ea 9C       		.byte	0x9c
 3723 12eb 30130000 		.4byte	0x1330
ARM GAS  C:\Users\codyg\AppData\Local\Temp\ccCwzev2.s 			page 87


 3724 12ef 1C       		.uleb128 0x1c
 3725 12f0 FD170000 		.4byte	.LASF265
 3726 12f4 01       		.byte	0x1
 3727 12f5 D503     		.2byte	0x3d5
 3728 12f7 AC080000 		.4byte	0x8ac
 3729 12fb 71080000 		.4byte	.LLST48
 3730 12ff 25       		.uleb128 0x25
 3731 1300 DC0F0000 		.4byte	.LASF289
 3732 1304 01       		.byte	0x1
 3733 1305 D703     		.2byte	0x3d7
 3734 1307 98070000 		.4byte	0x798
 3735 130b 01       		.uleb128 0x1
 3736 130c 54       		.byte	0x54
 3737 130d 1D       		.uleb128 0x1d
 3738 130e CB190000 		.4byte	.LASF245
 3739 1312 01       		.byte	0x1
 3740 1313 D803     		.2byte	0x3d8
 3741 1315 63090000 		.4byte	0x963
 3742 1319 9D080000 		.4byte	.LLST49
 3743 131d 22       		.uleb128 0x22
 3744 131e 0E000000 		.4byte	.LVL123
 3745 1322 ED140000 		.4byte	0x14ed
 3746 1326 22       		.uleb128 0x22
 3747 1327 1A000000 		.4byte	.LVL126
 3748 132b 1C150000 		.4byte	0x151c
 3749 132f 00       		.byte	0
 3750 1330 24       		.uleb128 0x24
 3751 1331 FD090000 		.4byte	.LASF290
 3752 1335 01       		.byte	0x1
 3753 1336 EA03     		.2byte	0x3ea
 3754 1338 9A000000 		.4byte	0x9a
 3755 133c 00000000 		.4byte	.LFB539
 3756 1340 18000000 		.4byte	.LFE539-.LFB539
 3757 1344 01       		.uleb128 0x1
 3758 1345 9C       		.byte	0x9c
 3759 1346 8B130000 		.4byte	0x138b
 3760 134a 1C       		.uleb128 0x1c
 3761 134b FD170000 		.4byte	.LASF265
 3762 134f 01       		.byte	0x1
 3763 1350 EA03     		.2byte	0x3ea
 3764 1352 8B130000 		.4byte	0x138b
 3765 1356 C9080000 		.4byte	.LLST50
 3766 135a 1D       		.uleb128 0x1d
 3767 135b CB190000 		.4byte	.LASF245
 3768 135f 01       		.byte	0x1
 3769 1360 EC03     		.2byte	0x3ec
 3770 1362 910A0000 		.4byte	0xa91
 3771 1366 F5080000 		.4byte	.LLST51
 3772 136a 25       		.uleb128 0x25
 3773 136b CE080000 		.4byte	.LASF291
 3774 136f 01       		.byte	0x1
 3775 1370 ED03     		.2byte	0x3ed
 3776 1372 9A000000 		.4byte	0x9a
 3777 1376 01       		.uleb128 0x1
 3778 1377 54       		.byte	0x54
 3779 1378 22       		.uleb128 0x22
 3780 1379 0E000000 		.4byte	.LVL128
ARM GAS  C:\Users\codyg\AppData\Local\Temp\ccCwzev2.s 			page 88


 3781 137d ED140000 		.4byte	0x14ed
 3782 1381 22       		.uleb128 0x22
 3783 1382 14000000 		.4byte	.LVL130
 3784 1386 1C150000 		.4byte	0x151c
 3785 138a 00       		.byte	0
 3786 138b 07       		.uleb128 0x7
 3787 138c AC080000 		.4byte	0x8ac
 3788 1390 2A       		.uleb128 0x2a
 3789 1391 F10E0000 		.4byte	.LASF330
 3790 1395 01       		.byte	0x1
 3791 1396 FB03     		.2byte	0x3fb
 3792 1398 00000000 		.4byte	.LFB540
 3793 139c 18000000 		.4byte	.LFE540-.LFB540
 3794 13a0 01       		.uleb128 0x1
 3795 13a1 9C       		.byte	0x9c
 3796 13a2 E9130000 		.4byte	0x13e9
 3797 13a6 1C       		.uleb128 0x1c
 3798 13a7 FD170000 		.4byte	.LASF265
 3799 13ab 01       		.byte	0x1
 3800 13ac FB03     		.2byte	0x3fb
 3801 13ae AC080000 		.4byte	0x8ac
 3802 13b2 21090000 		.4byte	.LLST52
 3803 13b6 1C       		.uleb128 0x1c
 3804 13b7 AF100000 		.4byte	.LASF292
 3805 13bb 01       		.byte	0x1
 3806 13bc FB03     		.2byte	0x3fb
 3807 13be 9A000000 		.4byte	0x9a
 3808 13c2 3F090000 		.4byte	.LLST53
 3809 13c6 1D       		.uleb128 0x1d
 3810 13c7 CB190000 		.4byte	.LASF245
 3811 13cb 01       		.byte	0x1
 3812 13cc FD03     		.2byte	0x3fd
 3813 13ce 910A0000 		.4byte	0xa91
 3814 13d2 21090000 		.4byte	.LLST52
 3815 13d6 22       		.uleb128 0x22
 3816 13d7 10000000 		.4byte	.LVL132
 3817 13db ED140000 		.4byte	0x14ed
 3818 13df 22       		.uleb128 0x22
 3819 13e0 16000000 		.4byte	.LVL133
 3820 13e4 1C150000 		.4byte	0x151c
 3821 13e8 00       		.byte	0
 3822 13e9 2B       		.uleb128 0x2b
 3823 13ea 28060000 		.4byte	.LASF293
 3824 13ee 01       		.byte	0x1
 3825 13ef A7       		.byte	0xa7
 3826 13f0 86080000 		.4byte	0x886
 3827 13f4 05       		.uleb128 0x5
 3828 13f5 03       		.byte	0x3
 3829 13f6 0C000000 		.4byte	xActiveTimerList1
 3830 13fa 2B       		.uleb128 0x2b
 3831 13fb 680C0000 		.4byte	.LASF294
 3832 13ff 01       		.byte	0x1
 3833 1400 A8       		.byte	0xa8
 3834 1401 86080000 		.4byte	0x886
 3835 1405 05       		.uleb128 0x5
 3836 1406 03       		.byte	0x3
 3837 1407 20000000 		.4byte	xActiveTimerList2
ARM GAS  C:\Users\codyg\AppData\Local\Temp\ccCwzev2.s 			page 89


 3838 140b 2B       		.uleb128 0x2b
 3839 140c 10170000 		.4byte	.LASF295
 3840 1410 01       		.byte	0x1
 3841 1411 A9       		.byte	0xa9
 3842 1412 900E0000 		.4byte	0xe90
 3843 1416 05       		.uleb128 0x5
 3844 1417 03       		.byte	0x3
 3845 1418 00000000 		.4byte	pxCurrentTimerList
 3846 141c 2B       		.uleb128 0x2b
 3847 141d 940A0000 		.4byte	.LASF296
 3848 1421 01       		.byte	0x1
 3849 1422 AA       		.byte	0xaa
 3850 1423 900E0000 		.4byte	0xe90
 3851 1427 05       		.uleb128 0x5
 3852 1428 03       		.byte	0x3
 3853 1429 04000000 		.4byte	pxOverflowTimerList
 3854 142d 2B       		.uleb128 0x2b
 3855 142e 2D040000 		.4byte	.LASF297
 3856 1432 01       		.byte	0x1
 3857 1433 AD       		.byte	0xad
 3858 1434 A1080000 		.4byte	0x8a1
 3859 1438 05       		.uleb128 0x5
 3860 1439 03       		.byte	0x3
 3861 143a 08000000 		.4byte	xTimerQueue
 3862 143e 2B       		.uleb128 0x2b
 3863 143f 89140000 		.4byte	.LASF298
 3864 1443 01       		.byte	0x1
 3865 1444 AE       		.byte	0xae
 3866 1445 91080000 		.4byte	0x891
 3867 1449 05       		.uleb128 0x5
 3868 144a 03       		.byte	0x3
 3869 144b 34000000 		.4byte	xTimerTaskHandle
 3870 144f 2C       		.uleb128 0x2c
 3871 1450 E2160000 		.4byte	.LASF299
 3872 1454 12       		.byte	0x12
 3873 1455 EA07     		.2byte	0x7ea
 3874 1457 5B140000 		.4byte	0x145b
 3875 145b 08       		.uleb128 0x8
 3876 145c B9000000 		.4byte	0xb9
 3877 1460 2C       		.uleb128 0x2c
 3878 1461 AA0F0000 		.4byte	.LASF300
 3879 1465 08       		.byte	0x8
 3880 1466 2202     		.2byte	0x222
 3881 1468 37060000 		.4byte	0x637
 3882 146c 11       		.uleb128 0x11
 3883 146d 06060000 		.4byte	0x606
 3884 1471 7C140000 		.4byte	0x147c
 3885 1475 12       		.uleb128 0x12
 3886 1476 93000000 		.4byte	0x93
 3887 147a 00       		.byte	0
 3888 147b 00       		.byte	0
 3889 147c 2C       		.uleb128 0x2c
 3890 147d D7020000 		.4byte	.LASF301
 3891 1481 08       		.byte	0x8
 3892 1482 2C02     		.2byte	0x22c
 3893 1484 6C140000 		.4byte	0x146c
 3894 1488 11       		.uleb128 0x11
ARM GAS  C:\Users\codyg\AppData\Local\Temp\ccCwzev2.s 			page 90


 3895 1489 7F060000 		.4byte	0x67f
 3896 148d 98140000 		.4byte	0x1498
 3897 1491 12       		.uleb128 0x12
 3898 1492 93000000 		.4byte	0x93
 3899 1496 00       		.byte	0
 3900 1497 00       		.byte	0
 3901 1498 2C       		.uleb128 0x2c
 3902 1499 0E080000 		.4byte	.LASF302
 3903 149d 08       		.byte	0x8
 3904 149e 2D02     		.2byte	0x22d
 3905 14a0 88140000 		.4byte	0x1488
 3906 14a4 2D       		.uleb128 0x2d
 3907 14a5 B4010000 		.4byte	.LASF303
 3908 14a9 13       		.byte	0x13
 3909 14aa 5E       		.byte	0x5e
 3910 14ab 89010000 		.4byte	0x189
 3911 14af 2C       		.uleb128 0x2c
 3912 14b0 771B0000 		.4byte	.LASF304
 3913 14b4 0C       		.byte	0xc
 3914 14b5 6001     		.2byte	0x160
 3915 14b7 C4000000 		.4byte	0xc4
 3916 14bb 11       		.uleb128 0x11
 3917 14bc CB140000 		.4byte	0x14cb
 3918 14c0 CB140000 		.4byte	0x14cb
 3919 14c4 12       		.uleb128 0x12
 3920 14c5 93000000 		.4byte	0x93
 3921 14c9 00       		.byte	0
 3922 14ca 00       		.byte	0
 3923 14cb 07       		.uleb128 0x7
 3924 14cc 8D070000 		.4byte	0x78d
 3925 14d0 2C       		.uleb128 0x2c
 3926 14d1 37160000 		.4byte	.LASF305
 3927 14d5 0C       		.byte	0xc
 3928 14d6 6401     		.2byte	0x164
 3929 14d8 DC140000 		.4byte	0x14dc
 3930 14dc 07       		.uleb128 0x7
 3931 14dd BB140000 		.4byte	0x14bb
 3932 14e1 2E       		.uleb128 0x2e
 3933 14e2 19000000 		.4byte	.LASF306
 3934 14e6 19000000 		.4byte	.LASF306
 3935 14ea 0E       		.byte	0xe
 3936 14eb 9A01     		.2byte	0x19a
 3937 14ed 2F       		.uleb128 0x2f
 3938 14ee 5E040000 		.4byte	.LASF307
 3939 14f2 5E040000 		.4byte	.LASF307
 3940 14f6 0D       		.byte	0xd
 3941 14f7 8D       		.byte	0x8d
 3942 14f8 2E       		.uleb128 0x2e
 3943 14f9 5E1A0000 		.4byte	.LASF308
 3944 14fd 5E1A0000 		.4byte	.LASF308
 3945 1501 0E       		.byte	0xe
 3946 1502 8201     		.2byte	0x182
 3947 1504 2E       		.uleb128 0x2e
 3948 1505 450F0000 		.4byte	.LASF309
 3949 1509 450F0000 		.4byte	.LASF309
 3950 150d 10       		.byte	0x10
 3951 150e 6706     		.2byte	0x667
ARM GAS  C:\Users\codyg\AppData\Local\Temp\ccCwzev2.s 			page 91


 3952 1510 2E       		.uleb128 0x2e
 3953 1511 23170000 		.4byte	.LASF310
 3954 1515 23170000 		.4byte	.LASF310
 3955 1519 10       		.byte	0x10
 3956 151a 4106     		.2byte	0x641
 3957 151c 2F       		.uleb128 0x2f
 3958 151d 361E0000 		.4byte	.LASF311
 3959 1521 361E0000 		.4byte	.LASF311
 3960 1525 0D       		.byte	0xd
 3961 1526 8E       		.byte	0x8e
 3962 1527 2E       		.uleb128 0x2e
 3963 1528 46160000 		.4byte	.LASF312
 3964 152c 46160000 		.4byte	.LASF312
 3965 1530 0E       		.byte	0xe
 3966 1531 8D01     		.2byte	0x18d
 3967 1533 2E       		.uleb128 0x2e
 3968 1534 A40E0000 		.4byte	.LASF313
 3969 1538 A40E0000 		.4byte	.LASF313
 3970 153c 0F       		.byte	0xf
 3971 153d 6801     		.2byte	0x168
 3972 153f 2F       		.uleb128 0x2f
 3973 1540 AD1D0000 		.4byte	.LASF314
 3974 1544 AD1D0000 		.4byte	.LASF314
 3975 1548 14       		.byte	0x14
 3976 1549 AB       		.byte	0xab
 3977 154a 2E       		.uleb128 0x2e
 3978 154b 75020000 		.4byte	.LASF315
 3979 154f 75020000 		.4byte	.LASF315
 3980 1553 0F       		.byte	0xf
 3981 1554 9C08     		.2byte	0x89c
 3982 1556 2E       		.uleb128 0x2e
 3983 1557 B50B0000 		.4byte	.LASF316
 3984 155b B50B0000 		.4byte	.LASF316
 3985 155f 10       		.byte	0x10
 3986 1560 B402     		.2byte	0x2b4
 3987 1562 2E       		.uleb128 0x2e
 3988 1563 320B0000 		.4byte	.LASF317
 3989 1567 320B0000 		.4byte	.LASF317
 3990 156b 10       		.byte	0x10
 3991 156c A005     		.2byte	0x5a0
 3992 156e 2E       		.uleb128 0x2e
 3993 156f 5C190000 		.4byte	.LASF318
 3994 1573 5C190000 		.4byte	.LASF318
 3995 1577 0E       		.byte	0xe
 3996 1578 BE01     		.2byte	0x1be
 3997 157a 2E       		.uleb128 0x2e
 3998 157b BA0F0000 		.4byte	.LASF319
 3999 157f BA0F0000 		.4byte	.LASF319
 4000 1583 0F       		.byte	0xf
 4001 1584 0805     		.2byte	0x508
 4002 1586 2E       		.uleb128 0x2e
 4003 1587 3F090000 		.4byte	.LASF320
 4004 158b 3F090000 		.4byte	.LASF320
 4005 158f 0F       		.byte	0xf
 4006 1590 C304     		.2byte	0x4c3
 4007 1592 2E       		.uleb128 0x2e
 4008 1593 6C150000 		.4byte	.LASF321
ARM GAS  C:\Users\codyg\AppData\Local\Temp\ccCwzev2.s 			page 92


 4009 1597 6C150000 		.4byte	.LASF321
 4010 159b 0F       		.byte	0xf
 4011 159c F904     		.2byte	0x4f9
 4012 159e 2E       		.uleb128 0x2e
 4013 159f B9150000 		.4byte	.LASF322
 4014 15a3 B9150000 		.4byte	.LASF322
 4015 15a7 10       		.byte	0x10
 4016 15a8 FA06     		.2byte	0x6fa
 4017 15aa 2F       		.uleb128 0x2f
 4018 15ab 8A170000 		.4byte	.LASF323
 4019 15af 8A170000 		.4byte	.LASF323
 4020 15b3 14       		.byte	0x14
 4021 15b4 AC       		.byte	0xac
 4022 15b5 2E       		.uleb128 0x2e
 4023 15b6 ED070000 		.4byte	.LASF324
 4024 15ba ED070000 		.4byte	.LASF324
 4025 15be 10       		.byte	0x10
 4026 15bf F503     		.2byte	0x3f5
 4027 15c1 00       		.byte	0
 4028              		.section	.debug_abbrev,"",%progbits
 4029              	.Ldebug_abbrev0:
 4030 0000 01       		.uleb128 0x1
 4031 0001 11       		.uleb128 0x11
 4032 0002 01       		.byte	0x1
 4033 0003 25       		.uleb128 0x25
 4034 0004 0E       		.uleb128 0xe
 4035 0005 13       		.uleb128 0x13
 4036 0006 0B       		.uleb128 0xb
 4037 0007 03       		.uleb128 0x3
 4038 0008 0E       		.uleb128 0xe
 4039 0009 1B       		.uleb128 0x1b
 4040 000a 0E       		.uleb128 0xe
 4041 000b 55       		.uleb128 0x55
 4042 000c 17       		.uleb128 0x17
 4043 000d 11       		.uleb128 0x11
 4044 000e 01       		.uleb128 0x1
 4045 000f 10       		.uleb128 0x10
 4046 0010 17       		.uleb128 0x17
 4047 0011 00       		.byte	0
 4048 0012 00       		.byte	0
 4049 0013 02       		.uleb128 0x2
 4050 0014 24       		.uleb128 0x24
 4051 0015 00       		.byte	0
 4052 0016 0B       		.uleb128 0xb
 4053 0017 0B       		.uleb128 0xb
 4054 0018 3E       		.uleb128 0x3e
 4055 0019 0B       		.uleb128 0xb
 4056 001a 03       		.uleb128 0x3
 4057 001b 0E       		.uleb128 0xe
 4058 001c 00       		.byte	0
 4059 001d 00       		.byte	0
 4060 001e 03       		.uleb128 0x3
 4061 001f 24       		.uleb128 0x24
 4062 0020 00       		.byte	0
 4063 0021 0B       		.uleb128 0xb
 4064 0022 0B       		.uleb128 0xb
 4065 0023 3E       		.uleb128 0x3e
ARM GAS  C:\Users\codyg\AppData\Local\Temp\ccCwzev2.s 			page 93


 4066 0024 0B       		.uleb128 0xb
 4067 0025 03       		.uleb128 0x3
 4068 0026 08       		.uleb128 0x8
 4069 0027 00       		.byte	0
 4070 0028 00       		.byte	0
 4071 0029 04       		.uleb128 0x4
 4072 002a 16       		.uleb128 0x16
 4073 002b 00       		.byte	0
 4074 002c 03       		.uleb128 0x3
 4075 002d 0E       		.uleb128 0xe
 4076 002e 3A       		.uleb128 0x3a
 4077 002f 0B       		.uleb128 0xb
 4078 0030 3B       		.uleb128 0x3b
 4079 0031 0B       		.uleb128 0xb
 4080 0032 49       		.uleb128 0x49
 4081 0033 13       		.uleb128 0x13
 4082 0034 00       		.byte	0
 4083 0035 00       		.byte	0
 4084 0036 05       		.uleb128 0x5
 4085 0037 0F       		.uleb128 0xf
 4086 0038 00       		.byte	0
 4087 0039 0B       		.uleb128 0xb
 4088 003a 0B       		.uleb128 0xb
 4089 003b 00       		.byte	0
 4090 003c 00       		.byte	0
 4091 003d 06       		.uleb128 0x6
 4092 003e 0F       		.uleb128 0xf
 4093 003f 00       		.byte	0
 4094 0040 0B       		.uleb128 0xb
 4095 0041 0B       		.uleb128 0xb
 4096 0042 49       		.uleb128 0x49
 4097 0043 13       		.uleb128 0x13
 4098 0044 00       		.byte	0
 4099 0045 00       		.byte	0
 4100 0046 07       		.uleb128 0x7
 4101 0047 26       		.uleb128 0x26
 4102 0048 00       		.byte	0
 4103 0049 49       		.uleb128 0x49
 4104 004a 13       		.uleb128 0x13
 4105 004b 00       		.byte	0
 4106 004c 00       		.byte	0
 4107 004d 08       		.uleb128 0x8
 4108 004e 35       		.uleb128 0x35
 4109 004f 00       		.byte	0
 4110 0050 49       		.uleb128 0x49
 4111 0051 13       		.uleb128 0x13
 4112 0052 00       		.byte	0
 4113 0053 00       		.byte	0
 4114 0054 09       		.uleb128 0x9
 4115 0055 15       		.uleb128 0x15
 4116 0056 01       		.byte	0x1
 4117 0057 27       		.uleb128 0x27
 4118 0058 19       		.uleb128 0x19
 4119 0059 01       		.uleb128 0x1
 4120 005a 13       		.uleb128 0x13
 4121 005b 00       		.byte	0
 4122 005c 00       		.byte	0
ARM GAS  C:\Users\codyg\AppData\Local\Temp\ccCwzev2.s 			page 94


 4123 005d 0A       		.uleb128 0xa
 4124 005e 05       		.uleb128 0x5
 4125 005f 00       		.byte	0
 4126 0060 49       		.uleb128 0x49
 4127 0061 13       		.uleb128 0x13
 4128 0062 00       		.byte	0
 4129 0063 00       		.byte	0
 4130 0064 0B       		.uleb128 0xb
 4131 0065 16       		.uleb128 0x16
 4132 0066 00       		.byte	0
 4133 0067 03       		.uleb128 0x3
 4134 0068 0E       		.uleb128 0xe
 4135 0069 3A       		.uleb128 0x3a
 4136 006a 0B       		.uleb128 0xb
 4137 006b 3B       		.uleb128 0x3b
 4138 006c 05       		.uleb128 0x5
 4139 006d 49       		.uleb128 0x49
 4140 006e 13       		.uleb128 0x13
 4141 006f 00       		.byte	0
 4142 0070 00       		.byte	0
 4143 0071 0C       		.uleb128 0xc
 4144 0072 13       		.uleb128 0x13
 4145 0073 01       		.byte	0x1
 4146 0074 03       		.uleb128 0x3
 4147 0075 0E       		.uleb128 0xe
 4148 0076 0B       		.uleb128 0xb
 4149 0077 0B       		.uleb128 0xb
 4150 0078 3A       		.uleb128 0x3a
 4151 0079 0B       		.uleb128 0xb
 4152 007a 3B       		.uleb128 0x3b
 4153 007b 05       		.uleb128 0x5
 4154 007c 01       		.uleb128 0x1
 4155 007d 13       		.uleb128 0x13
 4156 007e 00       		.byte	0
 4157 007f 00       		.byte	0
 4158 0080 0D       		.uleb128 0xd
 4159 0081 0D       		.uleb128 0xd
 4160 0082 00       		.byte	0
 4161 0083 03       		.uleb128 0x3
 4162 0084 0E       		.uleb128 0xe
 4163 0085 3A       		.uleb128 0x3a
 4164 0086 0B       		.uleb128 0xb
 4165 0087 3B       		.uleb128 0x3b
 4166 0088 05       		.uleb128 0x5
 4167 0089 49       		.uleb128 0x49
 4168 008a 13       		.uleb128 0x13
 4169 008b 38       		.uleb128 0x38
 4170 008c 0B       		.uleb128 0xb
 4171 008d 00       		.byte	0
 4172 008e 00       		.byte	0
 4173 008f 0E       		.uleb128 0xe
 4174 0090 04       		.uleb128 0x4
 4175 0091 01       		.byte	0x1
 4176 0092 0B       		.uleb128 0xb
 4177 0093 0B       		.uleb128 0xb
 4178 0094 49       		.uleb128 0x49
 4179 0095 13       		.uleb128 0x13
ARM GAS  C:\Users\codyg\AppData\Local\Temp\ccCwzev2.s 			page 95


 4180 0096 3A       		.uleb128 0x3a
 4181 0097 0B       		.uleb128 0xb
 4182 0098 3B       		.uleb128 0x3b
 4183 0099 05       		.uleb128 0x5
 4184 009a 01       		.uleb128 0x1
 4185 009b 13       		.uleb128 0x13
 4186 009c 00       		.byte	0
 4187 009d 00       		.byte	0
 4188 009e 0F       		.uleb128 0xf
 4189 009f 28       		.uleb128 0x28
 4190 00a0 00       		.byte	0
 4191 00a1 03       		.uleb128 0x3
 4192 00a2 0E       		.uleb128 0xe
 4193 00a3 1C       		.uleb128 0x1c
 4194 00a4 0B       		.uleb128 0xb
 4195 00a5 00       		.byte	0
 4196 00a6 00       		.byte	0
 4197 00a7 10       		.uleb128 0x10
 4198 00a8 13       		.uleb128 0x13
 4199 00a9 01       		.byte	0x1
 4200 00aa 0B       		.uleb128 0xb
 4201 00ab 0B       		.uleb128 0xb
 4202 00ac 3A       		.uleb128 0x3a
 4203 00ad 0B       		.uleb128 0xb
 4204 00ae 3B       		.uleb128 0x3b
 4205 00af 05       		.uleb128 0x5
 4206 00b0 01       		.uleb128 0x1
 4207 00b1 13       		.uleb128 0x13
 4208 00b2 00       		.byte	0
 4209 00b3 00       		.byte	0
 4210 00b4 11       		.uleb128 0x11
 4211 00b5 01       		.uleb128 0x1
 4212 00b6 01       		.byte	0x1
 4213 00b7 49       		.uleb128 0x49
 4214 00b8 13       		.uleb128 0x13
 4215 00b9 01       		.uleb128 0x1
 4216 00ba 13       		.uleb128 0x13
 4217 00bb 00       		.byte	0
 4218 00bc 00       		.byte	0
 4219 00bd 12       		.uleb128 0x12
 4220 00be 21       		.uleb128 0x21
 4221 00bf 00       		.byte	0
 4222 00c0 49       		.uleb128 0x49
 4223 00c1 13       		.uleb128 0x13
 4224 00c2 2F       		.uleb128 0x2f
 4225 00c3 0B       		.uleb128 0xb
 4226 00c4 00       		.byte	0
 4227 00c5 00       		.byte	0
 4228 00c6 13       		.uleb128 0x13
 4229 00c7 28       		.uleb128 0x28
 4230 00c8 00       		.byte	0
 4231 00c9 03       		.uleb128 0x3
 4232 00ca 0E       		.uleb128 0xe
 4233 00cb 1C       		.uleb128 0x1c
 4234 00cc 05       		.uleb128 0x5
 4235 00cd 00       		.byte	0
 4236 00ce 00       		.byte	0
ARM GAS  C:\Users\codyg\AppData\Local\Temp\ccCwzev2.s 			page 96


 4237 00cf 14       		.uleb128 0x14
 4238 00d0 04       		.uleb128 0x4
 4239 00d1 01       		.byte	0x1
 4240 00d2 0B       		.uleb128 0xb
 4241 00d3 0B       		.uleb128 0xb
 4242 00d4 49       		.uleb128 0x49
 4243 00d5 13       		.uleb128 0x13
 4244 00d6 3A       		.uleb128 0x3a
 4245 00d7 0B       		.uleb128 0xb
 4246 00d8 3B       		.uleb128 0x3b
 4247 00d9 0B       		.uleb128 0xb
 4248 00da 01       		.uleb128 0x1
 4249 00db 13       		.uleb128 0x13
 4250 00dc 00       		.byte	0
 4251 00dd 00       		.byte	0
 4252 00de 15       		.uleb128 0x15
 4253 00df 13       		.uleb128 0x13
 4254 00e0 01       		.byte	0x1
 4255 00e1 0B       		.uleb128 0xb
 4256 00e2 0B       		.uleb128 0xb
 4257 00e3 3A       		.uleb128 0x3a
 4258 00e4 0B       		.uleb128 0xb
 4259 00e5 3B       		.uleb128 0x3b
 4260 00e6 0B       		.uleb128 0xb
 4261 00e7 01       		.uleb128 0x1
 4262 00e8 13       		.uleb128 0x13
 4263 00e9 00       		.byte	0
 4264 00ea 00       		.byte	0
 4265 00eb 16       		.uleb128 0x16
 4266 00ec 0D       		.uleb128 0xd
 4267 00ed 00       		.byte	0
 4268 00ee 03       		.uleb128 0x3
 4269 00ef 0E       		.uleb128 0xe
 4270 00f0 3A       		.uleb128 0x3a
 4271 00f1 0B       		.uleb128 0xb
 4272 00f2 3B       		.uleb128 0x3b
 4273 00f3 0B       		.uleb128 0xb
 4274 00f4 49       		.uleb128 0x49
 4275 00f5 13       		.uleb128 0x13
 4276 00f6 38       		.uleb128 0x38
 4277 00f7 0B       		.uleb128 0xb
 4278 00f8 00       		.byte	0
 4279 00f9 00       		.byte	0
 4280 00fa 17       		.uleb128 0x17
 4281 00fb 13       		.uleb128 0x13
 4282 00fc 01       		.byte	0x1
 4283 00fd 03       		.uleb128 0x3
 4284 00fe 0E       		.uleb128 0xe
 4285 00ff 0B       		.uleb128 0xb
 4286 0100 0B       		.uleb128 0xb
 4287 0101 3A       		.uleb128 0x3a
 4288 0102 0B       		.uleb128 0xb
 4289 0103 3B       		.uleb128 0x3b
 4290 0104 0B       		.uleb128 0xb
 4291 0105 01       		.uleb128 0x1
 4292 0106 13       		.uleb128 0x13
 4293 0107 00       		.byte	0
ARM GAS  C:\Users\codyg\AppData\Local\Temp\ccCwzev2.s 			page 97


 4294 0108 00       		.byte	0
 4295 0109 18       		.uleb128 0x18
 4296 010a 17       		.uleb128 0x17
 4297 010b 01       		.byte	0x1
 4298 010c 0B       		.uleb128 0xb
 4299 010d 0B       		.uleb128 0xb
 4300 010e 3A       		.uleb128 0x3a
 4301 010f 0B       		.uleb128 0xb
 4302 0110 3B       		.uleb128 0x3b
 4303 0111 0B       		.uleb128 0xb
 4304 0112 01       		.uleb128 0x1
 4305 0113 13       		.uleb128 0x13
 4306 0114 00       		.byte	0
 4307 0115 00       		.byte	0
 4308 0116 19       		.uleb128 0x19
 4309 0117 0D       		.uleb128 0xd
 4310 0118 00       		.byte	0
 4311 0119 03       		.uleb128 0x3
 4312 011a 0E       		.uleb128 0xe
 4313 011b 3A       		.uleb128 0x3a
 4314 011c 0B       		.uleb128 0xb
 4315 011d 3B       		.uleb128 0x3b
 4316 011e 0B       		.uleb128 0xb
 4317 011f 49       		.uleb128 0x49
 4318 0120 13       		.uleb128 0x13
 4319 0121 00       		.byte	0
 4320 0122 00       		.byte	0
 4321 0123 1A       		.uleb128 0x1a
 4322 0124 0D       		.uleb128 0xd
 4323 0125 00       		.byte	0
 4324 0126 03       		.uleb128 0x3
 4325 0127 08       		.uleb128 0x8
 4326 0128 3A       		.uleb128 0x3a
 4327 0129 0B       		.uleb128 0xb
 4328 012a 3B       		.uleb128 0x3b
 4329 012b 0B       		.uleb128 0xb
 4330 012c 49       		.uleb128 0x49
 4331 012d 13       		.uleb128 0x13
 4332 012e 38       		.uleb128 0x38
 4333 012f 0B       		.uleb128 0xb
 4334 0130 00       		.byte	0
 4335 0131 00       		.byte	0
 4336 0132 1B       		.uleb128 0x1b
 4337 0133 2E       		.uleb128 0x2e
 4338 0134 01       		.byte	0x1
 4339 0135 03       		.uleb128 0x3
 4340 0136 0E       		.uleb128 0xe
 4341 0137 3A       		.uleb128 0x3a
 4342 0138 0B       		.uleb128 0xb
 4343 0139 3B       		.uleb128 0x3b
 4344 013a 05       		.uleb128 0x5
 4345 013b 27       		.uleb128 0x27
 4346 013c 19       		.uleb128 0x19
 4347 013d 49       		.uleb128 0x49
 4348 013e 13       		.uleb128 0x13
 4349 013f 11       		.uleb128 0x11
 4350 0140 01       		.uleb128 0x1
ARM GAS  C:\Users\codyg\AppData\Local\Temp\ccCwzev2.s 			page 98


 4351 0141 12       		.uleb128 0x12
 4352 0142 06       		.uleb128 0x6
 4353 0143 40       		.uleb128 0x40
 4354 0144 18       		.uleb128 0x18
 4355 0145 9742     		.uleb128 0x2117
 4356 0147 19       		.uleb128 0x19
 4357 0148 01       		.uleb128 0x1
 4358 0149 13       		.uleb128 0x13
 4359 014a 00       		.byte	0
 4360 014b 00       		.byte	0
 4361 014c 1C       		.uleb128 0x1c
 4362 014d 05       		.uleb128 0x5
 4363 014e 00       		.byte	0
 4364 014f 03       		.uleb128 0x3
 4365 0150 0E       		.uleb128 0xe
 4366 0151 3A       		.uleb128 0x3a
 4367 0152 0B       		.uleb128 0xb
 4368 0153 3B       		.uleb128 0x3b
 4369 0154 05       		.uleb128 0x5
 4370 0155 49       		.uleb128 0x49
 4371 0156 13       		.uleb128 0x13
 4372 0157 02       		.uleb128 0x2
 4373 0158 17       		.uleb128 0x17
 4374 0159 00       		.byte	0
 4375 015a 00       		.byte	0
 4376 015b 1D       		.uleb128 0x1d
 4377 015c 34       		.uleb128 0x34
 4378 015d 00       		.byte	0
 4379 015e 03       		.uleb128 0x3
 4380 015f 0E       		.uleb128 0xe
 4381 0160 3A       		.uleb128 0x3a
 4382 0161 0B       		.uleb128 0xb
 4383 0162 3B       		.uleb128 0x3b
 4384 0163 05       		.uleb128 0x5
 4385 0164 49       		.uleb128 0x49
 4386 0165 13       		.uleb128 0x13
 4387 0166 02       		.uleb128 0x2
 4388 0167 17       		.uleb128 0x17
 4389 0168 00       		.byte	0
 4390 0169 00       		.byte	0
 4391 016a 1E       		.uleb128 0x1e
 4392 016b 898201   		.uleb128 0x4109
 4393 016e 01       		.byte	0x1
 4394 016f 11       		.uleb128 0x11
 4395 0170 01       		.uleb128 0x1
 4396 0171 31       		.uleb128 0x31
 4397 0172 13       		.uleb128 0x13
 4398 0173 01       		.uleb128 0x1
 4399 0174 13       		.uleb128 0x13
 4400 0175 00       		.byte	0
 4401 0176 00       		.byte	0
 4402 0177 1F       		.uleb128 0x1f
 4403 0178 8A8201   		.uleb128 0x410a
 4404 017b 00       		.byte	0
 4405 017c 02       		.uleb128 0x2
 4406 017d 18       		.uleb128 0x18
 4407 017e 9142     		.uleb128 0x2111
ARM GAS  C:\Users\codyg\AppData\Local\Temp\ccCwzev2.s 			page 99


 4408 0180 18       		.uleb128 0x18
 4409 0181 00       		.byte	0
 4410 0182 00       		.byte	0
 4411 0183 20       		.uleb128 0x20
 4412 0184 898201   		.uleb128 0x4109
 4413 0187 01       		.byte	0x1
 4414 0188 11       		.uleb128 0x11
 4415 0189 01       		.uleb128 0x1
 4416 018a 31       		.uleb128 0x31
 4417 018b 13       		.uleb128 0x13
 4418 018c 00       		.byte	0
 4419 018d 00       		.byte	0
 4420 018e 21       		.uleb128 0x21
 4421 018f 2E       		.uleb128 0x2e
 4422 0190 01       		.byte	0x1
 4423 0191 03       		.uleb128 0x3
 4424 0192 0E       		.uleb128 0xe
 4425 0193 3A       		.uleb128 0x3a
 4426 0194 0B       		.uleb128 0xb
 4427 0195 3B       		.uleb128 0x3b
 4428 0196 05       		.uleb128 0x5
 4429 0197 27       		.uleb128 0x27
 4430 0198 19       		.uleb128 0x19
 4431 0199 11       		.uleb128 0x11
 4432 019a 01       		.uleb128 0x1
 4433 019b 12       		.uleb128 0x12
 4434 019c 06       		.uleb128 0x6
 4435 019d 40       		.uleb128 0x40
 4436 019e 18       		.uleb128 0x18
 4437 019f 9742     		.uleb128 0x2117
 4438 01a1 19       		.uleb128 0x19
 4439 01a2 01       		.uleb128 0x1
 4440 01a3 13       		.uleb128 0x13
 4441 01a4 00       		.byte	0
 4442 01a5 00       		.byte	0
 4443 01a6 22       		.uleb128 0x22
 4444 01a7 898201   		.uleb128 0x4109
 4445 01aa 00       		.byte	0
 4446 01ab 11       		.uleb128 0x11
 4447 01ac 01       		.uleb128 0x1
 4448 01ad 31       		.uleb128 0x31
 4449 01ae 13       		.uleb128 0x13
 4450 01af 00       		.byte	0
 4451 01b0 00       		.byte	0
 4452 01b1 23       		.uleb128 0x23
 4453 01b2 05       		.uleb128 0x5
 4454 01b3 00       		.byte	0
 4455 01b4 03       		.uleb128 0x3
 4456 01b5 0E       		.uleb128 0xe
 4457 01b6 3A       		.uleb128 0x3a
 4458 01b7 0B       		.uleb128 0xb
 4459 01b8 3B       		.uleb128 0x3b
 4460 01b9 05       		.uleb128 0x5
 4461 01ba 49       		.uleb128 0x49
 4462 01bb 13       		.uleb128 0x13
 4463 01bc 02       		.uleb128 0x2
 4464 01bd 18       		.uleb128 0x18
ARM GAS  C:\Users\codyg\AppData\Local\Temp\ccCwzev2.s 			page 100


 4465 01be 00       		.byte	0
 4466 01bf 00       		.byte	0
 4467 01c0 24       		.uleb128 0x24
 4468 01c1 2E       		.uleb128 0x2e
 4469 01c2 01       		.byte	0x1
 4470 01c3 3F       		.uleb128 0x3f
 4471 01c4 19       		.uleb128 0x19
 4472 01c5 03       		.uleb128 0x3
 4473 01c6 0E       		.uleb128 0xe
 4474 01c7 3A       		.uleb128 0x3a
 4475 01c8 0B       		.uleb128 0xb
 4476 01c9 3B       		.uleb128 0x3b
 4477 01ca 05       		.uleb128 0x5
 4478 01cb 27       		.uleb128 0x27
 4479 01cc 19       		.uleb128 0x19
 4480 01cd 49       		.uleb128 0x49
 4481 01ce 13       		.uleb128 0x13
 4482 01cf 11       		.uleb128 0x11
 4483 01d0 01       		.uleb128 0x1
 4484 01d1 12       		.uleb128 0x12
 4485 01d2 06       		.uleb128 0x6
 4486 01d3 40       		.uleb128 0x40
 4487 01d4 18       		.uleb128 0x18
 4488 01d5 9742     		.uleb128 0x2117
 4489 01d7 19       		.uleb128 0x19
 4490 01d8 01       		.uleb128 0x1
 4491 01d9 13       		.uleb128 0x13
 4492 01da 00       		.byte	0
 4493 01db 00       		.byte	0
 4494 01dc 25       		.uleb128 0x25
 4495 01dd 34       		.uleb128 0x34
 4496 01de 00       		.byte	0
 4497 01df 03       		.uleb128 0x3
 4498 01e0 0E       		.uleb128 0xe
 4499 01e1 3A       		.uleb128 0x3a
 4500 01e2 0B       		.uleb128 0xb
 4501 01e3 3B       		.uleb128 0x3b
 4502 01e4 05       		.uleb128 0x5
 4503 01e5 49       		.uleb128 0x49
 4504 01e6 13       		.uleb128 0x13
 4505 01e7 02       		.uleb128 0x2
 4506 01e8 18       		.uleb128 0x18
 4507 01e9 00       		.byte	0
 4508 01ea 00       		.byte	0
 4509 01eb 26       		.uleb128 0x26
 4510 01ec 898201   		.uleb128 0x4109
 4511 01ef 01       		.byte	0x1
 4512 01f0 11       		.uleb128 0x11
 4513 01f1 01       		.uleb128 0x1
 4514 01f2 01       		.uleb128 0x1
 4515 01f3 13       		.uleb128 0x13
 4516 01f4 00       		.byte	0
 4517 01f5 00       		.byte	0
 4518 01f6 27       		.uleb128 0x27
 4519 01f7 898201   		.uleb128 0x4109
 4520 01fa 01       		.byte	0x1
 4521 01fb 11       		.uleb128 0x11
ARM GAS  C:\Users\codyg\AppData\Local\Temp\ccCwzev2.s 			page 101


 4522 01fc 01       		.uleb128 0x1
 4523 01fd 00       		.byte	0
 4524 01fe 00       		.byte	0
 4525 01ff 28       		.uleb128 0x28
 4526 0200 2E       		.uleb128 0x2e
 4527 0201 01       		.byte	0x1
 4528 0202 03       		.uleb128 0x3
 4529 0203 0E       		.uleb128 0xe
 4530 0204 3A       		.uleb128 0x3a
 4531 0205 0B       		.uleb128 0xb
 4532 0206 3B       		.uleb128 0x3b
 4533 0207 05       		.uleb128 0x5
 4534 0208 27       		.uleb128 0x27
 4535 0209 19       		.uleb128 0x19
 4536 020a 8701     		.uleb128 0x87
 4537 020c 19       		.uleb128 0x19
 4538 020d 11       		.uleb128 0x11
 4539 020e 01       		.uleb128 0x1
 4540 020f 12       		.uleb128 0x12
 4541 0210 06       		.uleb128 0x6
 4542 0211 40       		.uleb128 0x40
 4543 0212 18       		.uleb128 0x18
 4544 0213 9742     		.uleb128 0x2117
 4545 0215 19       		.uleb128 0x19
 4546 0216 01       		.uleb128 0x1
 4547 0217 13       		.uleb128 0x13
 4548 0218 00       		.byte	0
 4549 0219 00       		.byte	0
 4550 021a 29       		.uleb128 0x29
 4551 021b 2E       		.uleb128 0x2e
 4552 021c 00       		.byte	0
 4553 021d 3F       		.uleb128 0x3f
 4554 021e 19       		.uleb128 0x19
 4555 021f 03       		.uleb128 0x3
 4556 0220 0E       		.uleb128 0xe
 4557 0221 3A       		.uleb128 0x3a
 4558 0222 0B       		.uleb128 0xb
 4559 0223 3B       		.uleb128 0x3b
 4560 0224 05       		.uleb128 0x5
 4561 0225 27       		.uleb128 0x27
 4562 0226 19       		.uleb128 0x19
 4563 0227 49       		.uleb128 0x49
 4564 0228 13       		.uleb128 0x13
 4565 0229 11       		.uleb128 0x11
 4566 022a 01       		.uleb128 0x1
 4567 022b 12       		.uleb128 0x12
 4568 022c 06       		.uleb128 0x6
 4569 022d 40       		.uleb128 0x40
 4570 022e 18       		.uleb128 0x18
 4571 022f 9742     		.uleb128 0x2117
 4572 0231 19       		.uleb128 0x19
 4573 0232 00       		.byte	0
 4574 0233 00       		.byte	0
 4575 0234 2A       		.uleb128 0x2a
 4576 0235 2E       		.uleb128 0x2e
 4577 0236 01       		.byte	0x1
 4578 0237 3F       		.uleb128 0x3f
ARM GAS  C:\Users\codyg\AppData\Local\Temp\ccCwzev2.s 			page 102


 4579 0238 19       		.uleb128 0x19
 4580 0239 03       		.uleb128 0x3
 4581 023a 0E       		.uleb128 0xe
 4582 023b 3A       		.uleb128 0x3a
 4583 023c 0B       		.uleb128 0xb
 4584 023d 3B       		.uleb128 0x3b
 4585 023e 05       		.uleb128 0x5
 4586 023f 27       		.uleb128 0x27
 4587 0240 19       		.uleb128 0x19
 4588 0241 11       		.uleb128 0x11
 4589 0242 01       		.uleb128 0x1
 4590 0243 12       		.uleb128 0x12
 4591 0244 06       		.uleb128 0x6
 4592 0245 40       		.uleb128 0x40
 4593 0246 18       		.uleb128 0x18
 4594 0247 9742     		.uleb128 0x2117
 4595 0249 19       		.uleb128 0x19
 4596 024a 01       		.uleb128 0x1
 4597 024b 13       		.uleb128 0x13
 4598 024c 00       		.byte	0
 4599 024d 00       		.byte	0
 4600 024e 2B       		.uleb128 0x2b
 4601 024f 34       		.uleb128 0x34
 4602 0250 00       		.byte	0
 4603 0251 03       		.uleb128 0x3
 4604 0252 0E       		.uleb128 0xe
 4605 0253 3A       		.uleb128 0x3a
 4606 0254 0B       		.uleb128 0xb
 4607 0255 3B       		.uleb128 0x3b
 4608 0256 0B       		.uleb128 0xb
 4609 0257 49       		.uleb128 0x49
 4610 0258 13       		.uleb128 0x13
 4611 0259 02       		.uleb128 0x2
 4612 025a 18       		.uleb128 0x18
 4613 025b 00       		.byte	0
 4614 025c 00       		.byte	0
 4615 025d 2C       		.uleb128 0x2c
 4616 025e 34       		.uleb128 0x34
 4617 025f 00       		.byte	0
 4618 0260 03       		.uleb128 0x3
 4619 0261 0E       		.uleb128 0xe
 4620 0262 3A       		.uleb128 0x3a
 4621 0263 0B       		.uleb128 0xb
 4622 0264 3B       		.uleb128 0x3b
 4623 0265 05       		.uleb128 0x5
 4624 0266 49       		.uleb128 0x49
 4625 0267 13       		.uleb128 0x13
 4626 0268 3F       		.uleb128 0x3f
 4627 0269 19       		.uleb128 0x19
 4628 026a 3C       		.uleb128 0x3c
 4629 026b 19       		.uleb128 0x19
 4630 026c 00       		.byte	0
 4631 026d 00       		.byte	0
 4632 026e 2D       		.uleb128 0x2d
 4633 026f 34       		.uleb128 0x34
 4634 0270 00       		.byte	0
 4635 0271 03       		.uleb128 0x3
ARM GAS  C:\Users\codyg\AppData\Local\Temp\ccCwzev2.s 			page 103


 4636 0272 0E       		.uleb128 0xe
 4637 0273 3A       		.uleb128 0x3a
 4638 0274 0B       		.uleb128 0xb
 4639 0275 3B       		.uleb128 0x3b
 4640 0276 0B       		.uleb128 0xb
 4641 0277 49       		.uleb128 0x49
 4642 0278 13       		.uleb128 0x13
 4643 0279 3F       		.uleb128 0x3f
 4644 027a 19       		.uleb128 0x19
 4645 027b 3C       		.uleb128 0x3c
 4646 027c 19       		.uleb128 0x19
 4647 027d 00       		.byte	0
 4648 027e 00       		.byte	0
 4649 027f 2E       		.uleb128 0x2e
 4650 0280 2E       		.uleb128 0x2e
 4651 0281 00       		.byte	0
 4652 0282 3F       		.uleb128 0x3f
 4653 0283 19       		.uleb128 0x19
 4654 0284 3C       		.uleb128 0x3c
 4655 0285 19       		.uleb128 0x19
 4656 0286 6E       		.uleb128 0x6e
 4657 0287 0E       		.uleb128 0xe
 4658 0288 03       		.uleb128 0x3
 4659 0289 0E       		.uleb128 0xe
 4660 028a 3A       		.uleb128 0x3a
 4661 028b 0B       		.uleb128 0xb
 4662 028c 3B       		.uleb128 0x3b
 4663 028d 05       		.uleb128 0x5
 4664 028e 00       		.byte	0
 4665 028f 00       		.byte	0
 4666 0290 2F       		.uleb128 0x2f
 4667 0291 2E       		.uleb128 0x2e
 4668 0292 00       		.byte	0
 4669 0293 3F       		.uleb128 0x3f
 4670 0294 19       		.uleb128 0x19
 4671 0295 3C       		.uleb128 0x3c
 4672 0296 19       		.uleb128 0x19
 4673 0297 6E       		.uleb128 0x6e
 4674 0298 0E       		.uleb128 0xe
 4675 0299 03       		.uleb128 0x3
 4676 029a 0E       		.uleb128 0xe
 4677 029b 3A       		.uleb128 0x3a
 4678 029c 0B       		.uleb128 0xb
 4679 029d 3B       		.uleb128 0x3b
 4680 029e 0B       		.uleb128 0xb
 4681 029f 00       		.byte	0
 4682 02a0 00       		.byte	0
 4683 02a1 00       		.byte	0
 4684              		.section	.debug_loc,"",%progbits
 4685              	.Ldebug_loc0:
 4686              	.LLST0:
 4687 0000 00000000 		.4byte	.LVL0
 4688 0004 14000000 		.4byte	.LVL1
 4689 0008 0100     		.2byte	0x1
 4690 000a 50       		.byte	0x50
 4691 000b 14000000 		.4byte	.LVL1
 4692 000f 16000000 		.4byte	.LVL2
ARM GAS  C:\Users\codyg\AppData\Local\Temp\ccCwzev2.s 			page 104


 4693 0013 0400     		.2byte	0x4
 4694 0015 F3       		.byte	0xf3
 4695 0016 01       		.uleb128 0x1
 4696 0017 50       		.byte	0x50
 4697 0018 9F       		.byte	0x9f
 4698 0019 16000000 		.4byte	.LVL2
 4699 001d 18000000 		.4byte	.LVL3
 4700 0021 0100     		.2byte	0x1
 4701 0023 50       		.byte	0x50
 4702 0024 18000000 		.4byte	.LVL3
 4703 0028 20000000 		.4byte	.LFE532
 4704 002c 0400     		.2byte	0x4
 4705 002e F3       		.byte	0xf3
 4706 002f 01       		.uleb128 0x1
 4707 0030 50       		.byte	0x50
 4708 0031 9F       		.byte	0x9f
 4709 0032 00000000 		.4byte	0
 4710 0036 00000000 		.4byte	0
 4711              	.LLST1:
 4712 003a 14000000 		.4byte	.LVL1
 4713 003e 16000000 		.4byte	.LVL2
 4714 0042 0100     		.2byte	0x1
 4715 0044 50       		.byte	0x50
 4716 0045 18000000 		.4byte	.LVL3
 4717 0049 20000000 		.4byte	.LFE532
 4718 004d 0100     		.2byte	0x1
 4719 004f 50       		.byte	0x50
 4720 0050 00000000 		.4byte	0
 4721 0054 00000000 		.4byte	0
 4722              	.LLST2:
 4723 0058 00000000 		.4byte	.LVL4
 4724 005c 18000000 		.4byte	.LVL9
 4725 0060 0100     		.2byte	0x1
 4726 0062 50       		.byte	0x50
 4727 0063 18000000 		.4byte	.LVL9
 4728 0067 1B000000 		.4byte	.LVL10-1
 4729 006b 0300     		.2byte	0x3
 4730 006d 71       		.byte	0x71
 4731 006e 7C       		.sleb128 -4
 4732 006f 9F       		.byte	0x9f
 4733 0070 1B000000 		.4byte	.LVL10-1
 4734 0074 20000000 		.4byte	.LVL11
 4735 0078 0400     		.2byte	0x4
 4736 007a F3       		.byte	0xf3
 4737 007b 01       		.uleb128 0x1
 4738 007c 50       		.byte	0x50
 4739 007d 9F       		.byte	0x9f
 4740 007e 20000000 		.4byte	.LVL11
 4741 0082 2E000000 		.4byte	.LVL14
 4742 0086 0100     		.2byte	0x1
 4743 0088 50       		.byte	0x50
 4744 0089 2E000000 		.4byte	.LVL14
 4745 008d 31000000 		.4byte	.LVL15-1
 4746 0091 0300     		.2byte	0x3
 4747 0093 71       		.byte	0x71
 4748 0094 7C       		.sleb128 -4
 4749 0095 9F       		.byte	0x9f
ARM GAS  C:\Users\codyg\AppData\Local\Temp\ccCwzev2.s 			page 105


 4750 0096 31000000 		.4byte	.LVL15-1
 4751 009a 36000000 		.4byte	.LVL16
 4752 009e 0400     		.2byte	0x4
 4753 00a0 F3       		.byte	0xf3
 4754 00a1 01       		.uleb128 0x1
 4755 00a2 50       		.byte	0x50
 4756 00a3 9F       		.byte	0x9f
 4757 00a4 36000000 		.4byte	.LVL16
 4758 00a8 38000000 		.4byte	.LVL17
 4759 00ac 0100     		.2byte	0x1
 4760 00ae 50       		.byte	0x50
 4761 00af 38000000 		.4byte	.LVL17
 4762 00b3 3A000000 		.4byte	.LVL18
 4763 00b7 0400     		.2byte	0x4
 4764 00b9 F3       		.byte	0xf3
 4765 00ba 01       		.uleb128 0x1
 4766 00bb 50       		.byte	0x50
 4767 00bc 9F       		.byte	0x9f
 4768 00bd 3A000000 		.4byte	.LVL18
 4769 00c1 3C000000 		.4byte	.LVL19
 4770 00c5 0100     		.2byte	0x1
 4771 00c7 50       		.byte	0x50
 4772 00c8 3C000000 		.4byte	.LVL19
 4773 00cc 44000000 		.4byte	.LFE534
 4774 00d0 0400     		.2byte	0x4
 4775 00d2 F3       		.byte	0xf3
 4776 00d3 01       		.uleb128 0x1
 4777 00d4 50       		.byte	0x50
 4778 00d5 9F       		.byte	0x9f
 4779 00d6 00000000 		.4byte	0
 4780 00da 00000000 		.4byte	0
 4781              	.LLST3:
 4782 00de 00000000 		.4byte	.LVL4
 4783 00e2 14000000 		.4byte	.LVL8
 4784 00e6 0100     		.2byte	0x1
 4785 00e8 51       		.byte	0x51
 4786 00e9 14000000 		.4byte	.LVL8
 4787 00ed 1B000000 		.4byte	.LVL10-1
 4788 00f1 0200     		.2byte	0x2
 4789 00f3 71       		.byte	0x71
 4790 00f4 00       		.sleb128 0
 4791 00f5 1B000000 		.4byte	.LVL10-1
 4792 00f9 20000000 		.4byte	.LVL11
 4793 00fd 0400     		.2byte	0x4
 4794 00ff F3       		.byte	0xf3
 4795 0100 01       		.uleb128 0x1
 4796 0101 51       		.byte	0x51
 4797 0102 9F       		.byte	0x9f
 4798 0103 20000000 		.4byte	.LVL11
 4799 0107 2A000000 		.4byte	.LVL12
 4800 010b 0100     		.2byte	0x1
 4801 010d 51       		.byte	0x51
 4802 010e 2A000000 		.4byte	.LVL12
 4803 0112 2E000000 		.4byte	.LVL14
 4804 0116 0200     		.2byte	0x2
 4805 0118 70       		.byte	0x70
 4806 0119 04       		.sleb128 4
ARM GAS  C:\Users\codyg\AppData\Local\Temp\ccCwzev2.s 			page 106


 4807 011a 2E000000 		.4byte	.LVL14
 4808 011e 31000000 		.4byte	.LVL15-1
 4809 0122 0200     		.2byte	0x2
 4810 0124 71       		.byte	0x71
 4811 0125 00       		.sleb128 0
 4812 0126 31000000 		.4byte	.LVL15-1
 4813 012a 36000000 		.4byte	.LVL16
 4814 012e 0400     		.2byte	0x4
 4815 0130 F3       		.byte	0xf3
 4816 0131 01       		.uleb128 0x1
 4817 0132 51       		.byte	0x51
 4818 0133 9F       		.byte	0x9f
 4819 0134 36000000 		.4byte	.LVL16
 4820 0138 44000000 		.4byte	.LFE534
 4821 013c 0100     		.2byte	0x1
 4822 013e 51       		.byte	0x51
 4823 013f 00000000 		.4byte	0
 4824 0143 00000000 		.4byte	0
 4825              	.LLST4:
 4826 0147 00000000 		.4byte	.LVL4
 4827 014b 0C000000 		.4byte	.LVL6
 4828 014f 0100     		.2byte	0x1
 4829 0151 52       		.byte	0x52
 4830 0152 0C000000 		.4byte	.LVL6
 4831 0156 20000000 		.4byte	.LVL11
 4832 015a 0400     		.2byte	0x4
 4833 015c F3       		.byte	0xf3
 4834 015d 01       		.uleb128 0x1
 4835 015e 52       		.byte	0x52
 4836 015f 9F       		.byte	0x9f
 4837 0160 20000000 		.4byte	.LVL11
 4838 0164 31000000 		.4byte	.LVL15-1
 4839 0168 0100     		.2byte	0x1
 4840 016a 52       		.byte	0x52
 4841 016b 31000000 		.4byte	.LVL15-1
 4842 016f 3A000000 		.4byte	.LVL18
 4843 0173 0400     		.2byte	0x4
 4844 0175 F3       		.byte	0xf3
 4845 0176 01       		.uleb128 0x1
 4846 0177 52       		.byte	0x52
 4847 0178 9F       		.byte	0x9f
 4848 0179 3A000000 		.4byte	.LVL18
 4849 017d 44000000 		.4byte	.LFE534
 4850 0181 0100     		.2byte	0x1
 4851 0183 52       		.byte	0x52
 4852 0184 00000000 		.4byte	0
 4853 0188 00000000 		.4byte	0
 4854              	.LLST5:
 4855 018c 00000000 		.4byte	.LVL4
 4856 0190 0E000000 		.4byte	.LVL7
 4857 0194 0100     		.2byte	0x1
 4858 0196 53       		.byte	0x53
 4859 0197 0E000000 		.4byte	.LVL7
 4860 019b 20000000 		.4byte	.LVL11
 4861 019f 0400     		.2byte	0x4
 4862 01a1 F3       		.byte	0xf3
 4863 01a2 01       		.uleb128 0x1
ARM GAS  C:\Users\codyg\AppData\Local\Temp\ccCwzev2.s 			page 107


 4864 01a3 53       		.byte	0x53
 4865 01a4 9F       		.byte	0x9f
 4866 01a5 20000000 		.4byte	.LVL11
 4867 01a9 2C000000 		.4byte	.LVL13
 4868 01ad 0100     		.2byte	0x1
 4869 01af 53       		.byte	0x53
 4870 01b0 2C000000 		.4byte	.LVL13
 4871 01b4 3A000000 		.4byte	.LVL18
 4872 01b8 0400     		.2byte	0x4
 4873 01ba F3       		.byte	0xf3
 4874 01bb 01       		.uleb128 0x1
 4875 01bc 53       		.byte	0x53
 4876 01bd 9F       		.byte	0x9f
 4877 01be 3A000000 		.4byte	.LVL18
 4878 01c2 3E000000 		.4byte	.LVL20
 4879 01c6 0100     		.2byte	0x1
 4880 01c8 53       		.byte	0x53
 4881 01c9 3E000000 		.4byte	.LVL20
 4882 01cd 44000000 		.4byte	.LFE534
 4883 01d1 0400     		.2byte	0x4
 4884 01d3 F3       		.byte	0xf3
 4885 01d4 01       		.uleb128 0x1
 4886 01d5 53       		.byte	0x53
 4887 01d6 9F       		.byte	0x9f
 4888 01d7 00000000 		.4byte	0
 4889 01db 00000000 		.4byte	0
 4890              	.LLST6:
 4891 01df 02000000 		.4byte	.LVL5
 4892 01e3 3C000000 		.4byte	.LVL19
 4893 01e7 0200     		.2byte	0x2
 4894 01e9 30       		.byte	0x30
 4895 01ea 9F       		.byte	0x9f
 4896 01eb 3C000000 		.4byte	.LVL19
 4897 01ef 44000000 		.4byte	.LFE534
 4898 01f3 0100     		.2byte	0x1
 4899 01f5 50       		.byte	0x50
 4900 01f6 00000000 		.4byte	0
 4901 01fa 00000000 		.4byte	0
 4902              	.LLST7:
 4903 01fe 00000000 		.4byte	.LVL27
 4904 0202 19000000 		.4byte	.LVL28-1
 4905 0206 0100     		.2byte	0x1
 4906 0208 50       		.byte	0x50
 4907 0209 19000000 		.4byte	.LVL28-1
 4908 020d 2E000000 		.4byte	.LVL29
 4909 0211 0100     		.2byte	0x1
 4910 0213 58       		.byte	0x58
 4911 0214 2E000000 		.4byte	.LVL29
 4912 0218 32000000 		.4byte	.LFE523
 4913 021c 0400     		.2byte	0x4
 4914 021e F3       		.byte	0xf3
 4915 021f 01       		.uleb128 0x1
 4916 0220 50       		.byte	0x50
 4917 0221 9F       		.byte	0x9f
 4918 0222 00000000 		.4byte	0
 4919 0226 00000000 		.4byte	0
 4920              	.LLST8:
ARM GAS  C:\Users\codyg\AppData\Local\Temp\ccCwzev2.s 			page 108


 4921 022a 00000000 		.4byte	.LVL27
 4922 022e 19000000 		.4byte	.LVL28-1
 4923 0232 0100     		.2byte	0x1
 4924 0234 51       		.byte	0x51
 4925 0235 19000000 		.4byte	.LVL28-1
 4926 0239 32000000 		.4byte	.LFE523
 4927 023d 0100     		.2byte	0x1
 4928 023f 57       		.byte	0x57
 4929 0240 00000000 		.4byte	0
 4930 0244 00000000 		.4byte	0
 4931              	.LLST9:
 4932 0248 00000000 		.4byte	.LVL27
 4933 024c 19000000 		.4byte	.LVL28-1
 4934 0250 0100     		.2byte	0x1
 4935 0252 52       		.byte	0x52
 4936 0253 19000000 		.4byte	.LVL28-1
 4937 0257 2E000000 		.4byte	.LVL29
 4938 025b 0100     		.2byte	0x1
 4939 025d 56       		.byte	0x56
 4940 025e 2E000000 		.4byte	.LVL29
 4941 0262 32000000 		.4byte	.LFE523
 4942 0266 0400     		.2byte	0x4
 4943 0268 F3       		.byte	0xf3
 4944 0269 01       		.uleb128 0x1
 4945 026a 52       		.byte	0x52
 4946 026b 9F       		.byte	0x9f
 4947 026c 00000000 		.4byte	0
 4948 0270 00000000 		.4byte	0
 4949              	.LLST10:
 4950 0274 00000000 		.4byte	.LVL27
 4951 0278 19000000 		.4byte	.LVL28-1
 4952 027c 0100     		.2byte	0x1
 4953 027e 53       		.byte	0x53
 4954 027f 19000000 		.4byte	.LVL28-1
 4955 0283 2E000000 		.4byte	.LVL29
 4956 0287 0100     		.2byte	0x1
 4957 0289 55       		.byte	0x55
 4958 028a 2E000000 		.4byte	.LVL29
 4959 028e 32000000 		.4byte	.LFE523
 4960 0292 0400     		.2byte	0x4
 4961 0294 F3       		.byte	0xf3
 4962 0295 01       		.uleb128 0x1
 4963 0296 53       		.byte	0x53
 4964 0297 9F       		.byte	0x9f
 4965 0298 00000000 		.4byte	0
 4966 029c 00000000 		.4byte	0
 4967              	.LLST11:
 4968 02a0 04000000 		.4byte	.LVL30
 4969 02a4 22000000 		.4byte	.LVL32
 4970 02a8 0200     		.2byte	0x2
 4971 02aa 30       		.byte	0x30
 4972 02ab 9F       		.byte	0x9f
 4973 02ac 22000000 		.4byte	.LVL32
 4974 02b0 24000000 		.4byte	.LVL33
 4975 02b4 0100     		.2byte	0x1
 4976 02b6 50       		.byte	0x50
 4977 02b7 24000000 		.4byte	.LVL33
ARM GAS  C:\Users\codyg\AppData\Local\Temp\ccCwzev2.s 			page 109


 4978 02bb 26000000 		.4byte	.LVL34
 4979 02bf 0200     		.2byte	0x2
 4980 02c1 30       		.byte	0x30
 4981 02c2 9F       		.byte	0x9f
 4982 02c3 26000000 		.4byte	.LVL34
 4983 02c7 44000000 		.4byte	.LFE521
 4984 02cb 0100     		.2byte	0x1
 4985 02cd 50       		.byte	0x50
 4986 02ce 00000000 		.4byte	0
 4987 02d2 00000000 		.4byte	0
 4988              	.LLST12:
 4989 02d6 00000000 		.4byte	.LVL35
 4990 02da 10000000 		.4byte	.LVL36
 4991 02de 0100     		.2byte	0x1
 4992 02e0 50       		.byte	0x50
 4993 02e1 10000000 		.4byte	.LVL36
 4994 02e5 32000000 		.4byte	.LFE522
 4995 02e9 0100     		.2byte	0x1
 4996 02eb 55       		.byte	0x55
 4997 02ec 00000000 		.4byte	0
 4998 02f0 00000000 		.4byte	0
 4999              	.LLST13:
 5000 02f4 00000000 		.4byte	.LVL35
 5001 02f8 13000000 		.4byte	.LVL37-1
 5002 02fc 0100     		.2byte	0x1
 5003 02fe 51       		.byte	0x51
 5004 02ff 13000000 		.4byte	.LVL37-1
 5005 0303 32000000 		.4byte	.LFE522
 5006 0307 0100     		.2byte	0x1
 5007 0309 56       		.byte	0x56
 5008 030a 00000000 		.4byte	0
 5009 030e 00000000 		.4byte	0
 5010              	.LLST14:
 5011 0312 00000000 		.4byte	.LVL35
 5012 0316 13000000 		.4byte	.LVL37-1
 5013 031a 0100     		.2byte	0x1
 5014 031c 52       		.byte	0x52
 5015 031d 13000000 		.4byte	.LVL37-1
 5016 0321 32000000 		.4byte	.LFE522
 5017 0325 0100     		.2byte	0x1
 5018 0327 57       		.byte	0x57
 5019 0328 00000000 		.4byte	0
 5020 032c 00000000 		.4byte	0
 5021              	.LLST15:
 5022 0330 00000000 		.4byte	.LVL35
 5023 0334 13000000 		.4byte	.LVL37-1
 5024 0338 0100     		.2byte	0x1
 5025 033a 53       		.byte	0x53
 5026 033b 13000000 		.4byte	.LVL37-1
 5027 033f 32000000 		.4byte	.LFE522
 5028 0343 0100     		.2byte	0x1
 5029 0345 58       		.byte	0x58
 5030 0346 00000000 		.4byte	0
 5031 034a 00000000 		.4byte	0
 5032              	.LLST16:
 5033 034e 14000000 		.4byte	.LVL37
 5034 0352 26000000 		.4byte	.LVL38
ARM GAS  C:\Users\codyg\AppData\Local\Temp\ccCwzev2.s 			page 110


 5035 0356 0100     		.2byte	0x1
 5036 0358 50       		.byte	0x50
 5037 0359 26000000 		.4byte	.LVL38
 5038 035d 32000000 		.4byte	.LFE522
 5039 0361 0100     		.2byte	0x1
 5040 0363 54       		.byte	0x54
 5041 0364 00000000 		.4byte	0
 5042 0368 00000000 		.4byte	0
 5043              	.LLST17:
 5044 036c 00000000 		.4byte	.LVL40
 5045 0370 12000000 		.4byte	.LVL42
 5046 0374 0100     		.2byte	0x1
 5047 0376 50       		.byte	0x50
 5048 0377 12000000 		.4byte	.LVL42
 5049 037b 58000000 		.4byte	.LVL53
 5050 037f 0100     		.2byte	0x1
 5051 0381 54       		.byte	0x54
 5052 0382 58000000 		.4byte	.LVL53
 5053 0386 5C000000 		.4byte	.LFE524
 5054 038a 0400     		.2byte	0x4
 5055 038c F3       		.byte	0xf3
 5056 038d 01       		.uleb128 0x1
 5057 038e 50       		.byte	0x50
 5058 038f 9F       		.byte	0x9f
 5059 0390 00000000 		.4byte	0
 5060 0394 00000000 		.4byte	0
 5061              	.LLST18:
 5062 0398 00000000 		.4byte	.LVL40
 5063 039c 23000000 		.4byte	.LVL44-1
 5064 03a0 0100     		.2byte	0x1
 5065 03a2 51       		.byte	0x51
 5066 03a3 23000000 		.4byte	.LVL44-1
 5067 03a7 48000000 		.4byte	.LVL48
 5068 03ab 0400     		.2byte	0x4
 5069 03ad F3       		.byte	0xf3
 5070 03ae 01       		.uleb128 0x1
 5071 03af 51       		.byte	0x51
 5072 03b0 9F       		.byte	0x9f
 5073 03b1 48000000 		.4byte	.LVL48
 5074 03b5 4C000000 		.4byte	.LVL49
 5075 03b9 0100     		.2byte	0x1
 5076 03bb 51       		.byte	0x51
 5077 03bc 4C000000 		.4byte	.LVL49
 5078 03c0 4F000000 		.4byte	.LVL50-1
 5079 03c4 0200     		.2byte	0x2
 5080 03c6 71       		.byte	0x71
 5081 03c7 00       		.sleb128 0
 5082 03c8 4F000000 		.4byte	.LVL50-1
 5083 03cc 52000000 		.4byte	.LVL51
 5084 03d0 0400     		.2byte	0x4
 5085 03d2 F3       		.byte	0xf3
 5086 03d3 01       		.uleb128 0x1
 5087 03d4 51       		.byte	0x51
 5088 03d5 9F       		.byte	0x9f
 5089 03d6 52000000 		.4byte	.LVL51
 5090 03da 54000000 		.4byte	.LVL52
 5091 03de 0100     		.2byte	0x1
ARM GAS  C:\Users\codyg\AppData\Local\Temp\ccCwzev2.s 			page 111


 5092 03e0 51       		.byte	0x51
 5093 03e1 54000000 		.4byte	.LVL52
 5094 03e5 5C000000 		.4byte	.LFE524
 5095 03e9 0400     		.2byte	0x4
 5096 03eb F3       		.byte	0xf3
 5097 03ec 01       		.uleb128 0x1
 5098 03ed 51       		.byte	0x51
 5099 03ee 9F       		.byte	0x9f
 5100 03ef 00000000 		.4byte	0
 5101 03f3 00000000 		.4byte	0
 5102              	.LLST19:
 5103 03f7 00000000 		.4byte	.LVL40
 5104 03fb 10000000 		.4byte	.LVL41
 5105 03ff 0100     		.2byte	0x1
 5106 0401 52       		.byte	0x52
 5107 0402 10000000 		.4byte	.LVL41
 5108 0406 58000000 		.4byte	.LVL53
 5109 040a 0100     		.2byte	0x1
 5110 040c 55       		.byte	0x55
 5111 040d 58000000 		.4byte	.LVL53
 5112 0411 5C000000 		.4byte	.LFE524
 5113 0415 0400     		.2byte	0x4
 5114 0417 F3       		.byte	0xf3
 5115 0418 01       		.uleb128 0x1
 5116 0419 52       		.byte	0x52
 5117 041a 9F       		.byte	0x9f
 5118 041b 00000000 		.4byte	0
 5119 041f 00000000 		.4byte	0
 5120              	.LLST20:
 5121 0423 00000000 		.4byte	.LVL40
 5122 0427 20000000 		.4byte	.LVL43
 5123 042b 0100     		.2byte	0x1
 5124 042d 53       		.byte	0x53
 5125 042e 20000000 		.4byte	.LVL43
 5126 0432 23000000 		.4byte	.LVL44-1
 5127 0436 0100     		.2byte	0x1
 5128 0438 52       		.byte	0x52
 5129 0439 23000000 		.4byte	.LVL44-1
 5130 043d 48000000 		.4byte	.LVL48
 5131 0441 0400     		.2byte	0x4
 5132 0443 F3       		.byte	0xf3
 5133 0444 01       		.uleb128 0x1
 5134 0445 53       		.byte	0x53
 5135 0446 9F       		.byte	0x9f
 5136 0447 48000000 		.4byte	.LVL48
 5137 044b 4F000000 		.4byte	.LVL50-1
 5138 044f 0100     		.2byte	0x1
 5139 0451 52       		.byte	0x52
 5140 0452 4F000000 		.4byte	.LVL50-1
 5141 0456 52000000 		.4byte	.LVL51
 5142 045a 0400     		.2byte	0x4
 5143 045c F3       		.byte	0xf3
 5144 045d 01       		.uleb128 0x1
 5145 045e 53       		.byte	0x53
 5146 045f 9F       		.byte	0x9f
 5147 0460 52000000 		.4byte	.LVL51
 5148 0464 54000000 		.4byte	.LVL52
ARM GAS  C:\Users\codyg\AppData\Local\Temp\ccCwzev2.s 			page 112


 5149 0468 0100     		.2byte	0x1
 5150 046a 53       		.byte	0x53
 5151 046b 54000000 		.4byte	.LVL52
 5152 046f 5C000000 		.4byte	.LFE524
 5153 0473 0400     		.2byte	0x4
 5154 0475 F3       		.byte	0xf3
 5155 0476 01       		.uleb128 0x1
 5156 0477 53       		.byte	0x53
 5157 0478 9F       		.byte	0x9f
 5158 0479 00000000 		.4byte	0
 5159 047d 00000000 		.4byte	0
 5160              	.LLST21:
 5161 0481 00000000 		.4byte	.LVL40
 5162 0485 58000000 		.4byte	.LVL53
 5163 0489 0200     		.2byte	0x2
 5164 048b 91       		.byte	0x91
 5165 048c 00       		.sleb128 0
 5166 048d 58000000 		.4byte	.LVL53
 5167 0491 5C000000 		.4byte	.LFE524
 5168 0495 0200     		.2byte	0x2
 5169 0497 7D       		.byte	0x7d
 5170 0498 00       		.sleb128 0
 5171 0499 00000000 		.4byte	0
 5172 049d 00000000 		.4byte	0
 5173              	.LLST22:
 5174 04a1 00000000 		.4byte	.LVL40
 5175 04a5 36000000 		.4byte	.LVL45
 5176 04a9 0200     		.2byte	0x2
 5177 04ab 30       		.byte	0x30
 5178 04ac 9F       		.byte	0x9f
 5179 04ad 36000000 		.4byte	.LVL45
 5180 04b1 38000000 		.4byte	.LVL46
 5181 04b5 0100     		.2byte	0x1
 5182 04b7 50       		.byte	0x50
 5183 04b8 38000000 		.4byte	.LVL46
 5184 04bc 46000000 		.4byte	.LVL47
 5185 04c0 0200     		.2byte	0x2
 5186 04c2 30       		.byte	0x30
 5187 04c3 9F       		.byte	0x9f
 5188 04c4 46000000 		.4byte	.LVL47
 5189 04c8 48000000 		.4byte	.LVL48
 5190 04cc 0100     		.2byte	0x1
 5191 04ce 50       		.byte	0x50
 5192 04cf 48000000 		.4byte	.LVL48
 5193 04d3 50000000 		.4byte	.LVL50
 5194 04d7 0200     		.2byte	0x2
 5195 04d9 30       		.byte	0x30
 5196 04da 9F       		.byte	0x9f
 5197 04db 50000000 		.4byte	.LVL50
 5198 04df 52000000 		.4byte	.LVL51
 5199 04e3 0100     		.2byte	0x1
 5200 04e5 50       		.byte	0x50
 5201 04e6 52000000 		.4byte	.LVL51
 5202 04ea 54000000 		.4byte	.LVL52
 5203 04ee 0200     		.2byte	0x2
 5204 04f0 30       		.byte	0x30
 5205 04f1 9F       		.byte	0x9f
ARM GAS  C:\Users\codyg\AppData\Local\Temp\ccCwzev2.s 			page 113


 5206 04f2 54000000 		.4byte	.LVL52
 5207 04f6 5C000000 		.4byte	.LFE524
 5208 04fa 0100     		.2byte	0x1
 5209 04fc 50       		.byte	0x50
 5210 04fd 00000000 		.4byte	0
 5211 0501 00000000 		.4byte	0
 5212              	.LLST23:
 5213 0505 0A000000 		.4byte	.LVL54
 5214 0509 4C000000 		.4byte	.LVL64
 5215 050d 0100     		.2byte	0x1
 5216 050f 56       		.byte	0x56
 5217 0510 00000000 		.4byte	0
 5218 0514 00000000 		.4byte	0
 5219              	.LLST24:
 5220 0518 24000000 		.4byte	.LVL58
 5221 051c 30000000 		.4byte	.LVL59
 5222 0520 0100     		.2byte	0x1
 5223 0522 53       		.byte	0x53
 5224 0523 30000000 		.4byte	.LVL59
 5225 0527 35000000 		.4byte	.LVL60-1
 5226 052b 0200     		.2byte	0x2
 5227 052d 75       		.byte	0x75
 5228 052e 00       		.sleb128 0
 5229 052f 38000000 		.4byte	.LVL61
 5230 0533 3E000000 		.4byte	.LVL62
 5231 0537 0100     		.2byte	0x1
 5232 0539 53       		.byte	0x53
 5233 053a 00000000 		.4byte	0
 5234 053e 00000000 		.4byte	0
 5235              	.LLST25:
 5236 0542 0C000000 		.4byte	.LVL55
 5237 0546 4C000000 		.4byte	.LVL64
 5238 054a 0100     		.2byte	0x1
 5239 054c 54       		.byte	0x54
 5240 054d 00000000 		.4byte	0
 5241 0551 00000000 		.4byte	0
 5242              	.LLST26:
 5243 0555 46000000 		.4byte	.LVL63
 5244 0559 4C000000 		.4byte	.LVL64
 5245 055d 0100     		.2byte	0x1
 5246 055f 50       		.byte	0x50
 5247 0560 00000000 		.4byte	0
 5248 0564 00000000 		.4byte	0
 5249              	.LLST27:
 5250 0568 00000000 		.4byte	.LVL66
 5251 056c 07000000 		.4byte	.LVL67-1
 5252 0570 0100     		.2byte	0x1
 5253 0572 50       		.byte	0x50
 5254 0573 07000000 		.4byte	.LVL67-1
 5255 0577 28000000 		.4byte	.LVL72
 5256 057b 0100     		.2byte	0x1
 5257 057d 55       		.byte	0x55
 5258 057e 28000000 		.4byte	.LVL72
 5259 0582 2C000000 		.4byte	.LFE533
 5260 0586 0400     		.2byte	0x4
 5261 0588 F3       		.byte	0xf3
 5262 0589 01       		.uleb128 0x1
ARM GAS  C:\Users\codyg\AppData\Local\Temp\ccCwzev2.s 			page 114


 5263 058a 50       		.byte	0x50
 5264 058b 9F       		.byte	0x9f
 5265 058c 00000000 		.4byte	0
 5266 0590 00000000 		.4byte	0
 5267              	.LLST28:
 5268 0594 0A000000 		.4byte	.LVL68
 5269 0598 15000000 		.4byte	.LVL69-1
 5270 059c 0100     		.2byte	0x1
 5271 059e 50       		.byte	0x50
 5272 059f 15000000 		.4byte	.LVL69-1
 5273 05a3 1C000000 		.4byte	.LVL70
 5274 05a7 0100     		.2byte	0x1
 5275 05a9 54       		.byte	0x54
 5276 05aa 1C000000 		.4byte	.LVL70
 5277 05ae 20000000 		.4byte	.LVL71
 5278 05b2 0100     		.2byte	0x1
 5279 05b4 50       		.byte	0x50
 5280 05b5 20000000 		.4byte	.LVL71
 5281 05b9 28000000 		.4byte	.LVL72
 5282 05bd 0100     		.2byte	0x1
 5283 05bf 54       		.byte	0x54
 5284 05c0 28000000 		.4byte	.LVL72
 5285 05c4 2C000000 		.4byte	.LFE533
 5286 05c8 0100     		.2byte	0x1
 5287 05ca 50       		.byte	0x50
 5288 05cb 00000000 		.4byte	0
 5289 05cf 00000000 		.4byte	0
 5290              	.LLST29:
 5291 05d3 00000000 		.4byte	.LVL73
 5292 05d7 12000000 		.4byte	.LVL75
 5293 05db 0100     		.2byte	0x1
 5294 05dd 50       		.byte	0x50
 5295 05de 12000000 		.4byte	.LVL75
 5296 05e2 4A000000 		.4byte	.LVL81
 5297 05e6 0100     		.2byte	0x1
 5298 05e8 55       		.byte	0x55
 5299 05e9 4A000000 		.4byte	.LVL81
 5300 05ed 50000000 		.4byte	.LFE529
 5301 05f1 0400     		.2byte	0x4
 5302 05f3 F3       		.byte	0xf3
 5303 05f4 01       		.uleb128 0x1
 5304 05f5 50       		.byte	0x50
 5305 05f6 9F       		.byte	0x9f
 5306 05f7 00000000 		.4byte	0
 5307 05fb 00000000 		.4byte	0
 5308              	.LLST30:
 5309 05ff 00000000 		.4byte	.LVL73
 5310 0603 15000000 		.4byte	.LVL76-1
 5311 0607 0100     		.2byte	0x1
 5312 0609 51       		.byte	0x51
 5313 060a 15000000 		.4byte	.LVL76-1
 5314 060e 4A000000 		.4byte	.LVL81
 5315 0612 0100     		.2byte	0x1
 5316 0614 56       		.byte	0x56
 5317 0615 4A000000 		.4byte	.LVL81
 5318 0619 50000000 		.4byte	.LFE529
 5319 061d 0400     		.2byte	0x4
ARM GAS  C:\Users\codyg\AppData\Local\Temp\ccCwzev2.s 			page 115


 5320 061f F3       		.byte	0xf3
 5321 0620 01       		.uleb128 0x1
 5322 0621 51       		.byte	0x51
 5323 0622 9F       		.byte	0x9f
 5324 0623 00000000 		.4byte	0
 5325 0627 00000000 		.4byte	0
 5326              	.LLST31:
 5327 062b 3A000000 		.4byte	.LVL78
 5328 062f 40000000 		.4byte	.LVL79
 5329 0633 0100     		.2byte	0x1
 5330 0635 50       		.byte	0x50
 5331 0636 00000000 		.4byte	0
 5332 063a 00000000 		.4byte	0
 5333              	.LLST32:
 5334 063e 10000000 		.4byte	.LVL74
 5335 0642 4A000000 		.4byte	.LVL81
 5336 0646 0100     		.2byte	0x1
 5337 0648 54       		.byte	0x54
 5338 0649 00000000 		.4byte	0
 5339 064d 00000000 		.4byte	0
 5340              	.LLST33:
 5341 0651 00000000 		.4byte	.LVL82
 5342 0655 0B000000 		.4byte	.LVL83-1
 5343 0659 0100     		.2byte	0x1
 5344 065b 50       		.byte	0x50
 5345 065c 0B000000 		.4byte	.LVL83-1
 5346 0660 66000000 		.4byte	.LVL95
 5347 0664 0100     		.2byte	0x1
 5348 0666 56       		.byte	0x56
 5349 0667 66000000 		.4byte	.LVL95
 5350 066b 70000000 		.4byte	.LFE531
 5351 066f 0400     		.2byte	0x4
 5352 0671 F3       		.byte	0xf3
 5353 0672 01       		.uleb128 0x1
 5354 0673 50       		.byte	0x50
 5355 0674 9F       		.byte	0x9f
 5356 0675 00000000 		.4byte	0
 5357 0679 00000000 		.4byte	0
 5358              	.LLST34:
 5359 067d 00000000 		.4byte	.LVL82
 5360 0681 0B000000 		.4byte	.LVL83-1
 5361 0685 0100     		.2byte	0x1
 5362 0687 51       		.byte	0x51
 5363 0688 0B000000 		.4byte	.LVL83-1
 5364 068c 34000000 		.4byte	.LVL88
 5365 0690 0100     		.2byte	0x1
 5366 0692 54       		.byte	0x54
 5367 0693 34000000 		.4byte	.LVL88
 5368 0697 3A000000 		.4byte	.LVL89
 5369 069b 0400     		.2byte	0x4
 5370 069d F3       		.byte	0xf3
 5371 069e 01       		.uleb128 0x1
 5372 069f 51       		.byte	0x51
 5373 06a0 9F       		.byte	0x9f
 5374 06a1 3A000000 		.4byte	.LVL89
 5375 06a5 66000000 		.4byte	.LVL95
 5376 06a9 0100     		.2byte	0x1
ARM GAS  C:\Users\codyg\AppData\Local\Temp\ccCwzev2.s 			page 116


 5377 06ab 54       		.byte	0x54
 5378 06ac 00000000 		.4byte	0
 5379 06b0 00000000 		.4byte	0
 5380              	.LLST35:
 5381 06b4 12000000 		.4byte	.LVL84
 5382 06b8 21000000 		.4byte	.LVL85-1
 5383 06bc 0100     		.2byte	0x1
 5384 06be 50       		.byte	0x50
 5385 06bf 21000000 		.4byte	.LVL85-1
 5386 06c3 2C000000 		.4byte	.LVL87
 5387 06c7 0100     		.2byte	0x1
 5388 06c9 55       		.byte	0x55
 5389 06ca 2C000000 		.4byte	.LVL87
 5390 06ce 42000000 		.4byte	.LVL90
 5391 06d2 0100     		.2byte	0x1
 5392 06d4 50       		.byte	0x50
 5393 06d5 42000000 		.4byte	.LVL90
 5394 06d9 5E000000 		.4byte	.LVL93
 5395 06dd 0100     		.2byte	0x1
 5396 06df 55       		.byte	0x55
 5397 06e0 5E000000 		.4byte	.LVL93
 5398 06e4 61000000 		.4byte	.LVL94-1
 5399 06e8 0100     		.2byte	0x1
 5400 06ea 50       		.byte	0x50
 5401 06eb 00000000 		.4byte	0
 5402 06ef 00000000 		.4byte	0
 5403              	.LLST36:
 5404 06f3 0E000000 		.4byte	.LVL96
 5405 06f7 86000000 		.4byte	.LVL108
 5406 06fb 0100     		.2byte	0x1
 5407 06fd 54       		.byte	0x54
 5408 06fe 00000000 		.4byte	0
 5409 0702 00000000 		.4byte	0
 5410              	.LLST37:
 5411 0706 62000000 		.4byte	.LVL102
 5412 070a 68000000 		.4byte	.LVL103
 5413 070e 0100     		.2byte	0x1
 5414 0710 50       		.byte	0x50
 5415 0711 00000000 		.4byte	0
 5416 0715 00000000 		.4byte	0
 5417              	.LLST38:
 5418 0719 1E000000 		.4byte	.LVL98
 5419 071d 3E000000 		.4byte	.LVL99
 5420 0721 0100     		.2byte	0x1
 5421 0723 50       		.byte	0x50
 5422 0724 3E000000 		.4byte	.LVL99
 5423 0728 41000000 		.4byte	.LVL100-1
 5424 072c 0100     		.2byte	0x1
 5425 072e 52       		.byte	0x52
 5426 072f 68000000 		.4byte	.LVL103
 5427 0733 7A000000 		.4byte	.LVL104
 5428 0737 0100     		.2byte	0x1
 5429 0739 50       		.byte	0x50
 5430 073a 7A000000 		.4byte	.LVL104
 5431 073e 7D000000 		.4byte	.LVL105-1
 5432 0742 0100     		.2byte	0x1
 5433 0744 52       		.byte	0x52
ARM GAS  C:\Users\codyg\AppData\Local\Temp\ccCwzev2.s 			page 117


 5434 0745 80000000 		.4byte	.LVL106
 5435 0749 82000000 		.4byte	.LVL107
 5436 074d 0100     		.2byte	0x1
 5437 074f 50       		.byte	0x50
 5438 0750 00000000 		.4byte	0
 5439 0754 00000000 		.4byte	0
 5440              	.LLST39:
 5441 0758 00000000 		.4byte	.LVL110
 5442 075c 04000000 		.4byte	.LVL111
 5443 0760 0100     		.2byte	0x1
 5444 0762 50       		.byte	0x50
 5445 0763 04000000 		.4byte	.LVL111
 5446 0767 16000000 		.4byte	.LFE530
 5447 076b 0400     		.2byte	0x4
 5448 076d F3       		.byte	0xf3
 5449 076e 01       		.uleb128 0x1
 5450 076f 50       		.byte	0x50
 5451 0770 9F       		.byte	0x9f
 5452 0771 00000000 		.4byte	0
 5453 0775 00000000 		.4byte	0
 5454              	.LLST40:
 5455 0779 0A000000 		.4byte	.LVL112
 5456 077d 0F000000 		.4byte	.LVL113-1
 5457 0781 0100     		.2byte	0x1
 5458 0783 50       		.byte	0x50
 5459 0784 00000000 		.4byte	0
 5460 0788 00000000 		.4byte	0
 5461              	.LLST41:
 5462 078c 00000000 		.4byte	.LVL115
 5463 0790 08000000 		.4byte	.LVL116
 5464 0794 0100     		.2byte	0x1
 5465 0796 50       		.byte	0x50
 5466 0797 08000000 		.4byte	.LVL116
 5467 079b 0A000000 		.4byte	.LFE526
 5468 079f 0400     		.2byte	0x4
 5469 07a1 F3       		.byte	0xf3
 5470 07a2 01       		.uleb128 0x1
 5471 07a3 50       		.byte	0x50
 5472 07a4 9F       		.byte	0x9f
 5473 07a5 00000000 		.4byte	0
 5474 07a9 00000000 		.4byte	0
 5475              	.LLST42:
 5476 07ad 00000000 		.4byte	.LVL115
 5477 07b1 08000000 		.4byte	.LVL116
 5478 07b5 0100     		.2byte	0x1
 5479 07b7 50       		.byte	0x50
 5480 07b8 08000000 		.4byte	.LVL116
 5481 07bc 0A000000 		.4byte	.LFE526
 5482 07c0 0400     		.2byte	0x4
 5483 07c2 F3       		.byte	0xf3
 5484 07c3 01       		.uleb128 0x1
 5485 07c4 50       		.byte	0x50
 5486 07c5 9F       		.byte	0x9f
 5487 07c6 00000000 		.4byte	0
 5488 07ca 00000000 		.4byte	0
 5489              	.LLST43:
 5490 07ce 00000000 		.4byte	.LVL117
ARM GAS  C:\Users\codyg\AppData\Local\Temp\ccCwzev2.s 			page 118


 5491 07d2 08000000 		.4byte	.LVL119
 5492 07d6 0100     		.2byte	0x1
 5493 07d8 50       		.byte	0x50
 5494 07d9 08000000 		.4byte	.LVL119
 5495 07dd 0A000000 		.4byte	.LFE527
 5496 07e1 0400     		.2byte	0x4
 5497 07e3 F3       		.byte	0xf3
 5498 07e4 01       		.uleb128 0x1
 5499 07e5 50       		.byte	0x50
 5500 07e6 9F       		.byte	0x9f
 5501 07e7 00000000 		.4byte	0
 5502 07eb 00000000 		.4byte	0
 5503              	.LLST44:
 5504 07ef 00000000 		.4byte	.LVL117
 5505 07f3 08000000 		.4byte	.LVL119
 5506 07f7 0100     		.2byte	0x1
 5507 07f9 50       		.byte	0x50
 5508 07fa 08000000 		.4byte	.LVL119
 5509 07fe 0A000000 		.4byte	.LFE527
 5510 0802 0400     		.2byte	0x4
 5511 0804 F3       		.byte	0xf3
 5512 0805 01       		.uleb128 0x1
 5513 0806 50       		.byte	0x50
 5514 0807 9F       		.byte	0x9f
 5515 0808 00000000 		.4byte	0
 5516 080c 00000000 		.4byte	0
 5517              	.LLST45:
 5518 0810 06000000 		.4byte	.LVL118
 5519 0814 08000000 		.4byte	.LVL119
 5520 0818 0200     		.2byte	0x2
 5521 081a 70       		.byte	0x70
 5522 081b 04       		.sleb128 4
 5523 081c 08000000 		.4byte	.LVL119
 5524 0820 0A000000 		.4byte	.LFE527
 5525 0824 0100     		.2byte	0x1
 5526 0826 50       		.byte	0x50
 5527 0827 00000000 		.4byte	0
 5528 082b 00000000 		.4byte	0
 5529              	.LLST46:
 5530 082f 00000000 		.4byte	.LVL120
 5531 0833 08000000 		.4byte	.LVL121
 5532 0837 0100     		.2byte	0x1
 5533 0839 50       		.byte	0x50
 5534 083a 08000000 		.4byte	.LVL121
 5535 083e 0A000000 		.4byte	.LFE528
 5536 0842 0400     		.2byte	0x4
 5537 0844 F3       		.byte	0xf3
 5538 0845 01       		.uleb128 0x1
 5539 0846 50       		.byte	0x50
 5540 0847 9F       		.byte	0x9f
 5541 0848 00000000 		.4byte	0
 5542 084c 00000000 		.4byte	0
 5543              	.LLST47:
 5544 0850 00000000 		.4byte	.LVL120
 5545 0854 08000000 		.4byte	.LVL121
 5546 0858 0100     		.2byte	0x1
 5547 085a 50       		.byte	0x50
ARM GAS  C:\Users\codyg\AppData\Local\Temp\ccCwzev2.s 			page 119


 5548 085b 08000000 		.4byte	.LVL121
 5549 085f 0A000000 		.4byte	.LFE528
 5550 0863 0400     		.2byte	0x4
 5551 0865 F3       		.byte	0xf3
 5552 0866 01       		.uleb128 0x1
 5553 0867 50       		.byte	0x50
 5554 0868 9F       		.byte	0x9f
 5555 0869 00000000 		.4byte	0
 5556 086d 00000000 		.4byte	0
 5557              	.LLST48:
 5558 0871 00000000 		.4byte	.LVL122
 5559 0875 0D000000 		.4byte	.LVL123-1
 5560 0879 0100     		.2byte	0x1
 5561 087b 50       		.byte	0x50
 5562 087c 0D000000 		.4byte	.LVL123-1
 5563 0880 10000000 		.4byte	.LVL124
 5564 0884 0100     		.2byte	0x1
 5565 0886 54       		.byte	0x54
 5566 0887 10000000 		.4byte	.LVL124
 5567 088b 1E000000 		.4byte	.LFE538
 5568 088f 0400     		.2byte	0x4
 5569 0891 F3       		.byte	0xf3
 5570 0892 01       		.uleb128 0x1
 5571 0893 50       		.byte	0x50
 5572 0894 9F       		.byte	0x9f
 5573 0895 00000000 		.4byte	0
 5574 0899 00000000 		.4byte	0
 5575              	.LLST49:
 5576 089d 00000000 		.4byte	.LVL122
 5577 08a1 0D000000 		.4byte	.LVL123-1
 5578 08a5 0100     		.2byte	0x1
 5579 08a7 50       		.byte	0x50
 5580 08a8 0D000000 		.4byte	.LVL123-1
 5581 08ac 10000000 		.4byte	.LVL124
 5582 08b0 0100     		.2byte	0x1
 5583 08b2 54       		.byte	0x54
 5584 08b3 10000000 		.4byte	.LVL124
 5585 08b7 1E000000 		.4byte	.LFE538
 5586 08bb 0400     		.2byte	0x4
 5587 08bd F3       		.byte	0xf3
 5588 08be 01       		.uleb128 0x1
 5589 08bf 50       		.byte	0x50
 5590 08c0 9F       		.byte	0x9f
 5591 08c1 00000000 		.4byte	0
 5592 08c5 00000000 		.4byte	0
 5593              	.LLST50:
 5594 08c9 00000000 		.4byte	.LVL127
 5595 08cd 0D000000 		.4byte	.LVL128-1
 5596 08d1 0100     		.2byte	0x1
 5597 08d3 50       		.byte	0x50
 5598 08d4 0D000000 		.4byte	.LVL128-1
 5599 08d8 10000000 		.4byte	.LVL129
 5600 08dc 0100     		.2byte	0x1
 5601 08de 54       		.byte	0x54
 5602 08df 10000000 		.4byte	.LVL129
 5603 08e3 18000000 		.4byte	.LFE539
 5604 08e7 0400     		.2byte	0x4
ARM GAS  C:\Users\codyg\AppData\Local\Temp\ccCwzev2.s 			page 120


 5605 08e9 F3       		.byte	0xf3
 5606 08ea 01       		.uleb128 0x1
 5607 08eb 50       		.byte	0x50
 5608 08ec 9F       		.byte	0x9f
 5609 08ed 00000000 		.4byte	0
 5610 08f1 00000000 		.4byte	0
 5611              	.LLST51:
 5612 08f5 00000000 		.4byte	.LVL127
 5613 08f9 0D000000 		.4byte	.LVL128-1
 5614 08fd 0100     		.2byte	0x1
 5615 08ff 50       		.byte	0x50
 5616 0900 0D000000 		.4byte	.LVL128-1
 5617 0904 10000000 		.4byte	.LVL129
 5618 0908 0100     		.2byte	0x1
 5619 090a 54       		.byte	0x54
 5620 090b 10000000 		.4byte	.LVL129
 5621 090f 18000000 		.4byte	.LFE539
 5622 0913 0400     		.2byte	0x4
 5623 0915 F3       		.byte	0xf3
 5624 0916 01       		.uleb128 0x1
 5625 0917 50       		.byte	0x50
 5626 0918 9F       		.byte	0x9f
 5627 0919 00000000 		.4byte	0
 5628 091d 00000000 		.4byte	0
 5629              	.LLST52:
 5630 0921 00000000 		.4byte	.LVL131
 5631 0925 0F000000 		.4byte	.LVL132-1
 5632 0929 0100     		.2byte	0x1
 5633 092b 50       		.byte	0x50
 5634 092c 0F000000 		.4byte	.LVL132-1
 5635 0930 18000000 		.4byte	.LFE540
 5636 0934 0100     		.2byte	0x1
 5637 0936 54       		.byte	0x54
 5638 0937 00000000 		.4byte	0
 5639 093b 00000000 		.4byte	0
 5640              	.LLST53:
 5641 093f 00000000 		.4byte	.LVL131
 5642 0943 0F000000 		.4byte	.LVL132-1
 5643 0947 0100     		.2byte	0x1
 5644 0949 51       		.byte	0x51
 5645 094a 0F000000 		.4byte	.LVL132-1
 5646 094e 18000000 		.4byte	.LFE540
 5647 0952 0100     		.2byte	0x1
 5648 0954 55       		.byte	0x55
 5649 0955 00000000 		.4byte	0
 5650 0959 00000000 		.4byte	0
 5651              		.section	.debug_aranges,"",%progbits
 5652 0000 B4000000 		.4byte	0xb4
 5653 0004 0200     		.2byte	0x2
 5654 0006 00000000 		.4byte	.Ldebug_info0
 5655 000a 04       		.byte	0x4
 5656 000b 00       		.byte	0
 5657 000c 0000     		.2byte	0
 5658 000e 0000     		.2byte	0
 5659 0010 00000000 		.4byte	.LFB532
 5660 0014 20000000 		.4byte	.LFE532-.LFB532
 5661 0018 00000000 		.4byte	.LFB534
ARM GAS  C:\Users\codyg\AppData\Local\Temp\ccCwzev2.s 			page 121


 5662 001c 44000000 		.4byte	.LFE534-.LFB534
 5663 0020 00000000 		.4byte	.LFB537
 5664 0024 48000000 		.4byte	.LFE537-.LFB537
 5665 0028 00000000 		.4byte	.LFB523
 5666 002c 32000000 		.4byte	.LFE523-.LFB523
 5667 0030 00000000 		.4byte	.LFB521
 5668 0034 44000000 		.4byte	.LFE521-.LFB521
 5669 0038 00000000 		.4byte	.LFB522
 5670 003c 32000000 		.4byte	.LFE522-.LFB522
 5671 0040 00000000 		.4byte	.LFB524
 5672 0044 5C000000 		.4byte	.LFE524-.LFB524
 5673 0048 00000000 		.4byte	.LFB536
 5674 004c 68000000 		.4byte	.LFE536-.LFB536
 5675 0050 00000000 		.4byte	.LFB533
 5676 0054 2C000000 		.4byte	.LFE533-.LFB533
 5677 0058 00000000 		.4byte	.LFB529
 5678 005c 50000000 		.4byte	.LFE529-.LFB529
 5679 0060 00000000 		.4byte	.LFB531
 5680 0064 70000000 		.4byte	.LFE531-.LFB531
 5681 0068 00000000 		.4byte	.LFB535
 5682 006c A0000000 		.4byte	.LFE535-.LFB535
 5683 0070 00000000 		.4byte	.LFB530
 5684 0074 16000000 		.4byte	.LFE530-.LFB530
 5685 0078 00000000 		.4byte	.LFB525
 5686 007c 10000000 		.4byte	.LFE525-.LFB525
 5687 0080 00000000 		.4byte	.LFB526
 5688 0084 0A000000 		.4byte	.LFE526-.LFB526
 5689 0088 00000000 		.4byte	.LFB527
 5690 008c 0A000000 		.4byte	.LFE527-.LFB527
 5691 0090 00000000 		.4byte	.LFB528
 5692 0094 0A000000 		.4byte	.LFE528-.LFB528
 5693 0098 00000000 		.4byte	.LFB538
 5694 009c 1E000000 		.4byte	.LFE538-.LFB538
 5695 00a0 00000000 		.4byte	.LFB539
 5696 00a4 18000000 		.4byte	.LFE539-.LFB539
 5697 00a8 00000000 		.4byte	.LFB540
 5698 00ac 18000000 		.4byte	.LFE540-.LFB540
 5699 00b0 00000000 		.4byte	0
 5700 00b4 00000000 		.4byte	0
 5701              		.section	.debug_ranges,"",%progbits
 5702              	.Ldebug_ranges0:
 5703 0000 00000000 		.4byte	.LFB532
 5704 0004 20000000 		.4byte	.LFE532
 5705 0008 00000000 		.4byte	.LFB534
 5706 000c 44000000 		.4byte	.LFE534
 5707 0010 00000000 		.4byte	.LFB537
 5708 0014 48000000 		.4byte	.LFE537
 5709 0018 00000000 		.4byte	.LFB523
 5710 001c 32000000 		.4byte	.LFE523
 5711 0020 00000000 		.4byte	.LFB521
 5712 0024 44000000 		.4byte	.LFE521
 5713 0028 00000000 		.4byte	.LFB522
 5714 002c 32000000 		.4byte	.LFE522
 5715 0030 00000000 		.4byte	.LFB524
 5716 0034 5C000000 		.4byte	.LFE524
 5717 0038 00000000 		.4byte	.LFB536
 5718 003c 68000000 		.4byte	.LFE536
ARM GAS  C:\Users\codyg\AppData\Local\Temp\ccCwzev2.s 			page 122


 5719 0040 00000000 		.4byte	.LFB533
 5720 0044 2C000000 		.4byte	.LFE533
 5721 0048 00000000 		.4byte	.LFB529
 5722 004c 50000000 		.4byte	.LFE529
 5723 0050 00000000 		.4byte	.LFB531
 5724 0054 70000000 		.4byte	.LFE531
 5725 0058 00000000 		.4byte	.LFB535
 5726 005c A0000000 		.4byte	.LFE535
 5727 0060 00000000 		.4byte	.LFB530
 5728 0064 16000000 		.4byte	.LFE530
 5729 0068 00000000 		.4byte	.LFB525
 5730 006c 10000000 		.4byte	.LFE525
 5731 0070 00000000 		.4byte	.LFB526
 5732 0074 0A000000 		.4byte	.LFE526
 5733 0078 00000000 		.4byte	.LFB527
 5734 007c 0A000000 		.4byte	.LFE527
 5735 0080 00000000 		.4byte	.LFB528
 5736 0084 0A000000 		.4byte	.LFE528
 5737 0088 00000000 		.4byte	.LFB538
 5738 008c 1E000000 		.4byte	.LFE538
 5739 0090 00000000 		.4byte	.LFB539
 5740 0094 18000000 		.4byte	.LFE539
 5741 0098 00000000 		.4byte	.LFB540
 5742 009c 18000000 		.4byte	.LFE540
 5743 00a0 00000000 		.4byte	0
 5744 00a4 00000000 		.4byte	0
 5745              		.section	.debug_line,"",%progbits
 5746              	.Ldebug_line0:
 5747 0000 40060000 		.section	.debug_str,"MS",%progbits,1
 5747      0200AB03 
 5747      00000201 
 5747      FB0E0D00 
 5747      01010101 
 5748              	.LASF276:
 5749 0000 70785469 		.ascii	"pxTimerListsWereSwitched\000"
 5749      6D65724C 
 5749      69737473 
 5749      57657265 
 5749      53776974 
 5750              	.LASF306:
 5751 0019 764C6973 		.ascii	"vListInsert\000"
 5751      74496E73 
 5751      65727400 
 5752              	.LASF9:
 5753 0025 6C6F6E67 		.ascii	"long int\000"
 5753      20696E74 
 5753      00
 5754              	.LASF196:
 5755 002e 43595F42 		.ascii	"CY_BLE_HTS_TEMP_TYPE\000"
 5755      4C455F48 
 5755      54535F54 
 5755      454D505F 
 5755      54595045 
 5756              	.LASF255:
 5757 0043 78436F6D 		.ascii	"xCommandTime\000"
 5757      6D616E64 
 5757      54696D65 
ARM GAS  C:\Users\codyg\AppData\Local\Temp\ccCwzev2.s 			page 123


 5757      00
 5758              	.LASF62:
 5759 0050 43595F42 		.ascii	"CY_BLE_EVT_READ_AUTH_PAYLOAD_TO_COMPLETE\000"
 5759      4C455F45 
 5759      56545F52 
 5759      4541445F 
 5759      41555448 
 5760              	.LASF226:
 5761 0079 75784E75 		.ascii	"uxNumberOfItems\000"
 5761      6D626572 
 5761      4F664974 
 5761      656D7300 
 5762              	.LASF163:
 5763 0089 43595F42 		.ascii	"CY_BLE_EVT_L2CAP_CBFC_DATA_READ\000"
 5763      4C455F45 
 5763      56545F4C 
 5763      32434150 
 5763      5F434246 
 5764              	.LASF21:
 5765 00a9 63795F63 		.ascii	"cy_cb_scb_spi_handle_events_t\000"
 5765      625F7363 
 5765      625F7370 
 5765      695F6861 
 5765      6E646C65 
 5766              	.LASF111:
 5767 00c7 43595F42 		.ascii	"CY_BLE_EVT_GAPP_ADVERTISEMENT_START_STOP\000"
 5767      4C455F45 
 5767      56545F47 
 5767      4150505F 
 5767      41445645 
 5768              	.LASF205:
 5769 00f0 43595F42 		.ascii	"CY_BLE_SRVI_COUNT\000"
 5769      4C455F53 
 5769      5256495F 
 5769      434F554E 
 5769      5400
 5770              	.LASF194:
 5771 0102 43595F42 		.ascii	"CY_BLE_DIS_CHAR_COUNT\000"
 5771      4C455F44 
 5771      49535F43 
 5771      4841525F 
 5771      434F554E 
 5772              	.LASF165:
 5773 0118 43595F42 		.ascii	"CY_BLE_EVT_L2CAP_CBFC_TX_CREDIT_IND\000"
 5773      4C455F45 
 5773      56545F4C 
 5773      32434150 
 5773      5F434246 
 5774              	.LASF58:
 5775 013c 43595F42 		.ascii	"CY_BLE_EVT_PENDING_FLASH_WRITE\000"
 5775      4C455F45 
 5775      56545F50 
 5775      454E4449 
 5775      4E475F46 
 5776              	.LASF96:
 5777 015b 43595F42 		.ascii	"CY_BLE_EVT_AES_CCM_DECRYPT_COMPLETE\000"
 5777      4C455F45 
ARM GAS  C:\Users\codyg\AppData\Local\Temp\ccCwzev2.s 			page 124


 5777      56545F41 
 5777      45535F43 
 5777      434D5F44 
 5778              	.LASF240:
 5779 017f 70784361 		.ascii	"pxCallbackFunction\000"
 5779      6C6C6261 
 5779      636B4675 
 5779      6E637469 
 5779      6F6E00
 5780              	.LASF149:
 5781 0192 43595F42 		.ascii	"CY_BLE_EVT_GATTC_HANDLE_VALUE_NTF\000"
 5781      4C455F45 
 5781      56545F47 
 5781      41545443 
 5781      5F48414E 
 5782              	.LASF303:
 5783 01b4 43595F45 		.ascii	"CY_EINK_SPIM_context\000"
 5783      494E4B5F 
 5783      5350494D 
 5783      5F636F6E 
 5783      74657874 
 5784              	.LASF252:
 5785 01c9 70784C69 		.ascii	"pxListWasEmpty\000"
 5785      73745761 
 5785      73456D70 
 5785      747900
 5786              	.LASF183:
 5787 01d8 43595F42 		.ascii	"CY_BLE_CONN_STATE_CLIENT_DISCOVERED\000"
 5787      4C455F43 
 5787      4F4E4E5F 
 5787      53544154 
 5787      455F434C 
 5788              	.LASF254:
 5789 01fc 7854696D 		.ascii	"xTimeNow\000"
 5789      654E6F77 
 5789      00
 5790              	.LASF264:
 5791 0205 7854696D 		.ascii	"xTimerGenericCommand\000"
 5791      65724765 
 5791      6E657269 
 5791      63436F6D 
 5791      6D616E64 
 5792              	.LASF90:
 5793 021a 43595F42 		.ascii	"CY_BLE_EVT_SET_TX_PWR_COMPLETE\000"
 5793      4C455F45 
 5793      56545F53 
 5793      45545F54 
 5793      585F5057 
 5794              	.LASF328:
 5795 0239 7854696D 		.ascii	"xTimerParameters\000"
 5795      65725061 
 5795      72616D65 
 5795      74657273 
 5795      00
 5796              	.LASF79:
 5797 024a 43595F42 		.ascii	"CY_BLE_EVT_GET_PHY_COMPLETE\000"
 5797      4C455F45 
ARM GAS  C:\Users\codyg\AppData\Local\Temp\ccCwzev2.s 			page 125


 5797      56545F47 
 5797      45545F50 
 5797      48595F43 
 5798              	.LASF267:
 5799 0266 784F7074 		.ascii	"xOptionalValue\000"
 5799      696F6E61 
 5799      6C56616C 
 5799      756500
 5800              	.LASF315:
 5801 0275 78546173 		.ascii	"xTaskGetSchedulerState\000"
 5801      6B476574 
 5801      53636865 
 5801      64756C65 
 5801      72537461 
 5802              	.LASF268:
 5803 028c 70784869 		.ascii	"pxHigherPriorityTaskWoken\000"
 5803      67686572 
 5803      5072696F 
 5803      72697479 
 5803      5461736B 
 5804              	.LASF164:
 5805 02a6 43595F42 		.ascii	"CY_BLE_EVT_L2CAP_CBFC_RX_CREDIT_IND\000"
 5805      4C455F45 
 5805      56545F4C 
 5805      32434150 
 5805      5F434246 
 5806              	.LASF0:
 5807 02ca 756E7369 		.ascii	"unsigned int\000"
 5807      676E6564 
 5807      20696E74 
 5807      00
 5808              	.LASF301:
 5809 02d7 63795F62 		.ascii	"cy_ble_connHandle\000"
 5809      6C655F63 
 5809      6F6E6E48 
 5809      616E646C 
 5809      6500
 5810              	.LASF227:
 5811 02e9 7078496E 		.ascii	"pxIndex\000"
 5811      64657800 
 5812              	.LASF35:
 5813 02f1 43595F53 		.ascii	"CY_SAR_RANGE_COND_OUTSIDE\000"
 5813      41525F52 
 5813      414E4745 
 5813      5F434F4E 
 5813      445F4F55 
 5814              	.LASF235:
 5815 030b 70635469 		.ascii	"pcTimerName\000"
 5815      6D65724E 
 5815      616D6500 
 5816              	.LASF28:
 5817 0317 74784275 		.ascii	"txBufIdx\000"
 5817      66496478 
 5817      00
 5818              	.LASF192:
 5819 0320 43595F42 		.ascii	"CY_BLE_DIS_REG_CERT_DATA\000"
 5819      4C455F44 
ARM GAS  C:\Users\codyg\AppData\Local\Temp\ccCwzev2.s 			page 126


 5819      49535F52 
 5819      45475F43 
 5819      4552545F 
 5820              	.LASF8:
 5821 0339 5F5F696E 		.ascii	"__int32_t\000"
 5821      7433325F 
 5821      7400
 5822              	.LASF187:
 5823 0343 43595F42 		.ascii	"CY_BLE_DIS_SERIAL_NUMBER\000"
 5823      4C455F44 
 5823      49535F53 
 5823      45524941 
 5823      4C5F4E55 
 5824              	.LASF216:
 5825 035c 784C4953 		.ascii	"xLIST_ITEM\000"
 5825      545F4954 
 5825      454D00
 5826              	.LASF206:
 5827 0367 6368616E 		.ascii	"channelBase\000"
 5827      6E656C42 
 5827      61736500 
 5828              	.LASF184:
 5829 0373 63795F65 		.ascii	"cy_en_ble_conn_state_t\000"
 5829      6E5F626C 
 5829      655F636F 
 5829      6E6E5F73 
 5829      74617465 
 5830              	.LASF138:
 5831 038a 43595F42 		.ascii	"CY_BLE_EVT_GATTC_FIND_INFO_RSP\000"
 5831      4C455F45 
 5831      56545F47 
 5831      41545443 
 5831      5F46494E 
 5832              	.LASF83:
 5833 03a9 43595F42 		.ascii	"CY_BLE_EVT_SET_PRIVACY_MODE_COMPLETE\000"
 5833      4C455F45 
 5833      56545F53 
 5833      45545F50 
 5833      52495641 
 5834              	.LASF208:
 5835 03ce 6877436F 		.ascii	"hwConfigStc\000"
 5835      6E666967 
 5835      53746300 
 5836              	.LASF225:
 5837 03da 784C4953 		.ascii	"xLIST\000"
 5837      5400
 5838              	.LASF246:
 5839 03e0 54696D65 		.ascii	"TimerParameter_t\000"
 5839      72506172 
 5839      616D6574 
 5839      65725F74 
 5839      00
 5840              	.LASF142:
 5841 03f1 43595F42 		.ascii	"CY_BLE_EVT_GATTC_READ_MULTI_RSP\000"
 5841      4C455F45 
 5841      56545F47 
 5841      41545443 
ARM GAS  C:\Users\codyg\AppData\Local\Temp\ccCwzev2.s 			page 127


 5841      5F524541 
 5842              	.LASF132:
 5843 0411 43595F42 		.ascii	"CY_BLE_EVT_GATT_CONNECT_IND\000"
 5843      4C455F45 
 5843      56545F47 
 5843      4154545F 
 5843      434F4E4E 
 5844              	.LASF297:
 5845 042d 7854696D 		.ascii	"xTimerQueue\000"
 5845      65725175 
 5845      65756500 
 5846              	.LASF171:
 5847 0439 43595F42 		.ascii	"CY_BLE_ADV_STATE_STOPPED\000"
 5847      4C455F41 
 5847      44565F53 
 5847      54415445 
 5847      5F53544F 
 5848              	.LASF46:
 5849 0452 73617449 		.ascii	"satIntrMask\000"
 5849      6E74724D 
 5849      61736B00 
 5850              	.LASF307:
 5851 045e 76506F72 		.ascii	"vPortEnterCritical\000"
 5851      74456E74 
 5851      65724372 
 5851      69746963 
 5851      616C00
 5852              	.LASF81:
 5853 0471 43595F42 		.ascii	"CY_BLE_EVT_SET_PHY_COMPLETE\000"
 5853      4C455F45 
 5853      56545F53 
 5853      45545F50 
 5853      48595F43 
 5854              	.LASF154:
 5855 048d 43595F42 		.ascii	"CY_BLE_EVT_GATTS_READ_CHAR_VAL_ACCESS_REQ\000"
 5855      4C455F45 
 5855      56545F47 
 5855      41545453 
 5855      5F524541 
 5856              	.LASF325:
 5857 04b7 474E5520 		.ascii	"GNU C11 5.4.1 20160609 (release) [ARM/embedded-5-br"
 5857      43313120 
 5857      352E342E 
 5857      31203230 
 5857      31363036 
 5858 04ea 616E6368 		.ascii	"anch revision 237715] -mcpu=cortex-m4 -mfloat-abi=s"
 5858      20726576 
 5858      6973696F 
 5858      6E203233 
 5858      37373135 
 5859 051d 6F667466 		.ascii	"oftfp -mfpu=fpv4-sp-d16 -mthumb -g -Og -ffunction-s"
 5859      70202D6D 
 5859      6670753D 
 5859      66707634 
 5859      2D73702D 
 5860 0550 65637469 		.ascii	"ections -ffat-lto-objects\000"
 5860      6F6E7320 
ARM GAS  C:\Users\codyg\AppData\Local\Temp\ccCwzev2.s 			page 128


 5860      2D666661 
 5860      742D6C74 
 5860      6F2D6F62 
 5861              	.LASF126:
 5862 056a 43595F42 		.ascii	"CY_BLE_EVT_GAP_RESOLVE_DEVICE_COMPLETE\000"
 5862      4C455F45 
 5862      56545F47 
 5862      41505F52 
 5862      45534F4C 
 5863              	.LASF32:
 5864 0591 43595F53 		.ascii	"CY_SAR_RANGE_COND_BELOW\000"
 5864      41525F52 
 5864      414E4745 
 5864      5F434F4E 
 5864      445F4245 
 5865              	.LASF177:
 5866 05a9 43595F42 		.ascii	"CY_BLE_CONN_STATE_CLIENT_DISCONNECTED_DISCOVERED\000"
 5866      4C455F43 
 5866      4F4E4E5F 
 5866      53544154 
 5866      455F434C 
 5867              	.LASF233:
 5868 05da 54696D65 		.ascii	"TimerCallbackFunction_t\000"
 5868      7243616C 
 5868      6C626163 
 5868      6B46756E 
 5868      6374696F 
 5869              	.LASF266:
 5870 05f2 78436F6D 		.ascii	"xCommandID\000"
 5870      6D616E64 
 5870      494400
 5871              	.LASF221:
 5872 05fd 7076436F 		.ascii	"pvContainer\000"
 5872      6E746169 
 5872      6E657200 
 5873              	.LASF135:
 5874 0609 43595F42 		.ascii	"CY_BLE_EVT_GATTC_XCHNG_MTU_RSP\000"
 5874      4C455F45 
 5874      56545F47 
 5874      41545443 
 5874      5F584348 
 5875              	.LASF293:
 5876 0628 78416374 		.ascii	"xActiveTimerList1\000"
 5876      69766554 
 5876      696D6572 
 5876      4C697374 
 5876      3100
 5877              	.LASF151:
 5878 063a 43595F42 		.ascii	"CY_BLE_EVT_GATTS_HANDLE_VALUE_CNF\000"
 5878      4C455F45 
 5878      56545F47 
 5878      41545453 
 5878      5F48414E 
 5879              	.LASF262:
 5880 065c 7854696D 		.ascii	"xTimerCreateTimerTask\000"
 5880      65724372 
 5880      65617465 
ARM GAS  C:\Users\codyg\AppData\Local\Temp\ccCwzev2.s 			page 129


 5880      54696D65 
 5880      72546173 
 5881              	.LASF257:
 5882 0672 7850726F 		.ascii	"xProcessTimerNow\000"
 5882      63657373 
 5882      54696D65 
 5882      724E6F77 
 5882      00
 5883              	.LASF141:
 5884 0683 43595F42 		.ascii	"CY_BLE_EVT_GATTC_READ_BLOB_RSP\000"
 5884      4C455F45 
 5884      56545F47 
 5884      41545443 
 5884      5F524541 
 5885              	.LASF17:
 5886 06a2 75696E74 		.ascii	"uint32_t\000"
 5886      33325F74 
 5886      00
 5887              	.LASF176:
 5888 06ab 43595F42 		.ascii	"CY_BLE_CONN_STATE_DISCONNECTED\000"
 5888      4C455F43 
 5888      4F4E4E5F 
 5888      53544154 
 5888      455F4449 
 5889              	.LASF73:
 5890 06ca 43595F42 		.ascii	"CY_BLE_EVT_SET_RPA_ENABLE_COMPLETE\000"
 5890      4C455F45 
 5890      56545F53 
 5890      45545F52 
 5890      50415F45 
 5891              	.LASF232:
 5892 06ed 54696D65 		.ascii	"TimerHandle_t\000"
 5892      7248616E 
 5892      646C655F 
 5892      7400
 5893              	.LASF54:
 5894 06fb 43595F42 		.ascii	"CY_BLE_EVT_STACK_ON\000"
 5894      4C455F45 
 5894      56545F53 
 5894      5441434B 
 5894      5F4F4E00 
 5895              	.LASF84:
 5896 070f 43595F42 		.ascii	"CY_BLE_EVT_LL_CNTRL_PROC_PENDING_COMPLETE\000"
 5896      4C455F45 
 5896      56545F4C 
 5896      4C5F434E 
 5896      54524C5F 
 5897              	.LASF278:
 5898 0739 70727650 		.ascii	"prvProcessExpiredTimer\000"
 5898      726F6365 
 5898      73734578 
 5898      70697265 
 5898      6454696D 
 5899              	.LASF139:
 5900 0750 43595F42 		.ascii	"CY_BLE_EVT_GATTC_FIND_BY_TYPE_VALUE_RSP\000"
 5900      4C455F45 
 5900      56545F47 
ARM GAS  C:\Users\codyg\AppData\Local\Temp\ccCwzev2.s 			page 130


 5900      41545443 
 5900      5F46494E 
 5901              	.LASF160:
 5902 0778 43595F42 		.ascii	"CY_BLE_EVT_L2CAP_CBFC_CONN_CNF\000"
 5902      4C455F45 
 5902      56545F4C 
 5902      32434150 
 5902      5F434246 
 5903              	.LASF70:
 5904 0797 43595F42 		.ascii	"CY_BLE_EVT_GET_PEER_RPA_COMPLETE\000"
 5904      4C455F45 
 5904      56545F47 
 5904      45545F50 
 5904      4545525F 
 5905              	.LASF53:
 5906 07b8 43595F42 		.ascii	"CY_BLE_EVT_INVALID\000"
 5906      4C455F45 
 5906      56545F49 
 5906      4E56414C 
 5906      494400
 5907              	.LASF71:
 5908 07cb 43595F42 		.ascii	"CY_BLE_EVT_GET_LOCAL_RPA_COMPLETE\000"
 5908      4C455F45 
 5908      56545F47 
 5908      45545F4C 
 5908      4F43414C 
 5909              	.LASF324:
 5910 07ed 78517565 		.ascii	"xQueueGenericReceive\000"
 5910      75654765 
 5910      6E657269 
 5910      63526563 
 5910      65697665 
 5911              	.LASF207:
 5912 0802 6E756D43 		.ascii	"numChannels\000"
 5912      68616E6E 
 5912      656C7300 
 5913              	.LASF302:
 5914 080e 63795F62 		.ascii	"cy_ble_connState\000"
 5914      6C655F63 
 5914      6F6E6E53 
 5914      74617465 
 5914      00
 5915              	.LASF121:
 5916 081f 43595F42 		.ascii	"CY_BLE_EVT_GAP_ENHANCE_CONN_COMPLETE\000"
 5916      4C455F45 
 5916      56545F47 
 5916      41505F45 
 5916      4E48414E 
 5917              	.LASF12:
 5918 0844 6C6F6E67 		.ascii	"long long unsigned int\000"
 5918      206C6F6E 
 5918      6720756E 
 5918      7369676E 
 5918      65642069 
 5919              	.LASF175:
 5920 085b 63795F65 		.ascii	"cy_en_ble_adv_state_t\000"
 5920      6E5F626C 
ARM GAS  C:\Users\codyg\AppData\Local\Temp\ccCwzev2.s 			page 131


 5920      655F6164 
 5920      765F7374 
 5920      6174655F 
 5921              	.LASF88:
 5922 0871 43595F42 		.ascii	"CY_BLE_EVT_GET_RSSI_COMPLETE\000"
 5922      4C455F45 
 5922      56545F47 
 5922      45545F52 
 5922      5353495F 
 5923              	.LASF260:
 5924 088e 70784E65 		.ascii	"pxNewTimer\000"
 5924      7754696D 
 5924      657200
 5925              	.LASF219:
 5926 0899 70785072 		.ascii	"pxPrevious\000"
 5926      6576696F 
 5926      757300
 5927              	.LASF41:
 5928 08a4 72616E67 		.ascii	"rangeThres\000"
 5928      65546872 
 5928      657300
 5929              	.LASF172:
 5930 08af 43595F42 		.ascii	"CY_BLE_ADV_STATE_ADV_INITIATED\000"
 5930      4C455F41 
 5930      44565F53 
 5930      54415445 
 5930      5F414456 
 5931              	.LASF291:
 5932 08ce 70765265 		.ascii	"pvReturn\000"
 5932      7475726E 
 5932      00
 5933              	.LASF273:
 5934 08d7 70785465 		.ascii	"pxTemp\000"
 5934      6D7000
 5935              	.LASF114:
 5936 08de 43595F42 		.ascii	"CY_BLE_EVT_GAP_ENCRYPT_CHANGE\000"
 5936      4C455F45 
 5936      56545F47 
 5936      41505F45 
 5936      4E435259 
 5937              	.LASF86:
 5938 08fc 43595F42 		.ascii	"CY_BLE_EVT_SET_DEVICE_ADDR_COMPLETE\000"
 5938      4C455F45 
 5938      56545F53 
 5938      45545F44 
 5938      45564943 
 5939              	.LASF52:
 5940 0920 63795F73 		.ascii	"cy_stc_sar_config_t\000"
 5940      74635F73 
 5940      61725F63 
 5940      6F6E6669 
 5940      675F7400 
 5941              	.LASF169:
 5942 0934 61747449 		.ascii	"attId\000"
 5942      6400
 5943              	.LASF37:
 5944 093a 6374726C 		.ascii	"ctrl\000"
ARM GAS  C:\Users\codyg\AppData\Local\Temp\ccCwzev2.s 			page 132


 5944      00
 5945              	.LASF320:
 5946 093f 76546173 		.ascii	"vTaskSuspendAll\000"
 5946      6B537573 
 5946      70656E64 
 5946      416C6C00 
 5947              	.LASF288:
 5948 094f 7854696D 		.ascii	"xTimerIsTimerActive\000"
 5948      65724973 
 5948      54696D65 
 5948      72416374 
 5948      69766500 
 5949              	.LASF120:
 5950 0963 43595F42 		.ascii	"CY_BLE_EVT_GAP_OOB_GENERATED_NOTIFICATION\000"
 5950      4C455F45 
 5950      56545F47 
 5950      41505F4F 
 5950      4F425F47 
 5951              	.LASF33:
 5952 098d 43595F53 		.ascii	"CY_SAR_RANGE_COND_INSIDE\000"
 5952      41525F52 
 5952      414E4745 
 5952      5F434F4E 
 5952      445F494E 
 5953              	.LASF23:
 5954 09a6 72784275 		.ascii	"rxBuf\000"
 5954      6600
 5955              	.LASF193:
 5956 09ac 43595F42 		.ascii	"CY_BLE_DIS_PNP_ID\000"
 5956      4C455F44 
 5956      49535F50 
 5956      4E505F49 
 5956      4400
 5957              	.LASF112:
 5958 09be 43595F42 		.ascii	"CY_BLE_EVT_GAP_DEVICE_CONNECTED\000"
 5958      4C455F45 
 5958      56545F47 
 5958      41505F44 
 5958      45564943 
 5959              	.LASF85:
 5960 09de 43595F42 		.ascii	"CY_BLE_EVT_SOFT_RESET_COMPLETE\000"
 5960      4C455F45 
 5960      56545F53 
 5960      4F46545F 
 5960      52455345 
 5961              	.LASF290:
 5962 09fd 70765469 		.ascii	"pvTimerGetTimerID\000"
 5962      6D657247 
 5962      65745469 
 5962      6D657249 
 5962      4400
 5963              	.LASF248:
 5964 0a0f 784D6573 		.ascii	"xMessageID\000"
 5964      73616765 
 5964      494400
 5965              	.LASF146:
 5966 0a1a 43595F42 		.ascii	"CY_BLE_EVT_GATTS_PREP_WRITE_REQ\000"
ARM GAS  C:\Users\codyg\AppData\Local\Temp\ccCwzev2.s 			page 133


 5966      4C455F45 
 5966      56545F47 
 5966      41545453 
 5966      5F505245 
 5967              	.LASF40:
 5968 0a3a 73616D70 		.ascii	"sampleTime23\000"
 5968      6C655469 
 5968      6D653233 
 5968      00
 5969              	.LASF29:
 5970 0a47 63624576 		.ascii	"cbEvents\000"
 5970      656E7473 
 5970      00
 5971              	.LASF190:
 5972 0a50 43595F42 		.ascii	"CY_BLE_DIS_SOFTWARE_REV\000"
 5972      4C455F44 
 5972      49535F53 
 5972      4F465457 
 5972      4152455F 
 5973              	.LASF19:
 5974 0a68 646F7562 		.ascii	"double\000"
 5974      6C6500
 5975              	.LASF223:
 5976 0a6f 784D494E 		.ascii	"xMINI_LIST_ITEM\000"
 5976      495F4C49 
 5976      53545F49 
 5976      54454D00 
 5977              	.LASF20:
 5978 0a7f 5F426F6F 		.ascii	"_Bool\000"
 5978      6C00
 5979              	.LASF167:
 5980 0a85 43595F42 		.ascii	"CY_BLE_EVT_MAX\000"
 5980      4C455F45 
 5980      56545F4D 
 5980      415800
 5981              	.LASF296:
 5982 0a94 70784F76 		.ascii	"pxOverflowTimerList\000"
 5982      6572666C 
 5982      6F775469 
 5982      6D65724C 
 5982      69737400 
 5983              	.LASF162:
 5984 0aa8 43595F42 		.ascii	"CY_BLE_EVT_L2CAP_CBFC_DISCONN_CNF\000"
 5984      4C455F45 
 5984      56545F4C 
 5984      32434150 
 5984      5F434246 
 5985              	.LASF93:
 5986 0aca 43595F42 		.ascii	"CY_BLE_EVT_RANDOM_NUM_GEN_COMPLETE\000"
 5986      4C455F45 
 5986      56545F52 
 5986      414E444F 
 5986      4D5F4E55 
 5987              	.LASF173:
 5988 0aed 43595F42 		.ascii	"CY_BLE_ADV_STATE_ADVERTISING\000"
 5988      4C455F41 
 5988      44565F53 
ARM GAS  C:\Users\codyg\AppData\Local\Temp\ccCwzev2.s 			page 134


 5988      54415445 
 5988      5F414456 
 5989              	.LASF123:
 5990 0b0a 43595F42 		.ascii	"CY_BLE_EVT_GAP_SMP_NEGOTIATED_AUTH_INFO\000"
 5990      4C455F45 
 5990      56545F47 
 5990      41505F53 
 5990      4D505F4E 
 5991              	.LASF317:
 5992 0b32 78517565 		.ascii	"xQueueGenericSendFromISR\000"
 5992      75654765 
 5992      6E657269 
 5992      6353656E 
 5992      6446726F 
 5993              	.LASF66:
 5994 0b4b 43595F42 		.ascii	"CY_BLE_EVT_SET_DATA_LENGTH_COMPLETE\000"
 5994      4C455F45 
 5994      56545F53 
 5994      45545F44 
 5994      4154415F 
 5995              	.LASF259:
 5996 0b6f 70727649 		.ascii	"prvInitialiseNewTimer\000"
 5996      6E697469 
 5996      616C6973 
 5996      654E6577 
 5996      54696D65 
 5997              	.LASF144:
 5998 0b85 43595F42 		.ascii	"CY_BLE_EVT_GATTC_WRITE_RSP\000"
 5998      4C455F45 
 5998      56545F47 
 5998      41545443 
 5998      5F575249 
 5999              	.LASF247:
 6000 0ba0 746D7254 		.ascii	"tmrTimerQueueMessage\000"
 6000      696D6572 
 6000      51756575 
 6000      654D6573 
 6000      73616765 
 6001              	.LASF316:
 6002 0bb5 78517565 		.ascii	"xQueueGenericSend\000"
 6002      75654765 
 6002      6E657269 
 6002      6353656E 
 6002      6400
 6003              	.LASF56:
 6004 0bc7 43595F42 		.ascii	"CY_BLE_EVT_STACK_BUSY_STATUS\000"
 6004      4C455F45 
 6004      56545F53 
 6004      5441434B 
 6004      5F425553 
 6005              	.LASF158:
 6006 0be4 43595F42 		.ascii	"CY_BLE_EVT_L2CAP_COMMAND_REJ\000"
 6006      4C455F45 
 6006      56545F4C 
 6006      32434150 
 6006      5F434F4D 
 6007              	.LASF63:
ARM GAS  C:\Users\codyg\AppData\Local\Temp\ccCwzev2.s 			page 135


 6008 0c01 43595F42 		.ascii	"CY_BLE_EVT_GET_CHANNEL_MAP_COMPLETE\000"
 6008      4C455F45 
 6008      56545F47 
 6008      45545F43 
 6008      48414E4E 
 6009              	.LASF199:
 6010 0c25 43595F42 		.ascii	"CY_BLE_HTS_CHAR_COUNT\000"
 6010      4C455F48 
 6010      54535F43 
 6010      4841525F 
 6010      434F554E 
 6011              	.LASF241:
 6012 0c3b 7854494D 		.ascii	"xTIMER\000"
 6012      455200
 6013              	.LASF57:
 6014 0c42 43595F42 		.ascii	"CY_BLE_EVT_MEMORY_REQUEST\000"
 6014      4C455F45 
 6014      56545F4D 
 6014      454D4F52 
 6014      595F5245 
 6015              	.LASF51:
 6016 0c5c 76726566 		.ascii	"vrefMvValue\000"
 6016      4D765661 
 6016      6C756500 
 6017              	.LASF294:
 6018 0c68 78416374 		.ascii	"xActiveTimerList2\000"
 6018      69766554 
 6018      696D6572 
 6018      4C697374 
 6018      3200
 6019              	.LASF251:
 6020 0c7a 70727649 		.ascii	"prvInsertTimerInActiveList\000"
 6020      6E736572 
 6020      7454696D 
 6020      6572496E 
 6020      41637469 
 6021              	.LASF326:
 6022 0c95 47656E65 		.ascii	"Generated_Source\\PSoC6\\pdl\\rtos\\FreeRTOS\\9.0.0"
 6022      72617465 
 6022      645F536F 
 6022      75726365 
 6022      5C50536F 
 6023 0cc3 5C536F75 		.ascii	"\\Source\\timers.c\000"
 6023      7263655C 
 6023      74696D65 
 6023      72732E63 
 6023      00
 6024              	.LASF174:
 6025 0cd4 43595F42 		.ascii	"CY_BLE_ADV_STATE_STOP_INITIATED\000"
 6025      4C455F41 
 6025      44565F53 
 6025      54415445 
 6025      5F53544F 
 6026              	.LASF203:
 6027 0cf4 43595F42 		.ascii	"CY_BLE_SRVI_GAP\000"
 6027      4C455F53 
 6027      5256495F 
ARM GAS  C:\Users\codyg\AppData\Local\Temp\ccCwzev2.s 			page 136


 6027      47415000 
 6028              	.LASF181:
 6029 0d04 43595F42 		.ascii	"CY_BLE_CONN_STATE_CLIENT_CHAR_DISCOVERING\000"
 6029      4C455F43 
 6029      4F4E4E5F 
 6029      53544154 
 6029      455F434C 
 6030              	.LASF65:
 6031 0d2e 43595F42 		.ascii	"CY_BLE_EVT_LE_PING_AUTH_TIMEOUT\000"
 6031      4C455F45 
 6031      56545F4C 
 6031      455F5049 
 6031      4E475F41 
 6032              	.LASF34:
 6033 0d4e 43595F53 		.ascii	"CY_SAR_RANGE_COND_ABOVE\000"
 6033      41525F52 
 6033      414E4745 
 6033      5F434F4E 
 6033      445F4142 
 6034              	.LASF14:
 6035 0d66 63686172 		.ascii	"char\000"
 6035      00
 6036              	.LASF95:
 6037 0d6b 43595F42 		.ascii	"CY_BLE_EVT_AES_CCM_ENCRYPT_COMPLETE\000"
 6037      4C455F45 
 6037      56545F41 
 6037      45535F43 
 6037      434D5F45 
 6038              	.LASF222:
 6039 0d8f 4C697374 		.ascii	"ListItem_t\000"
 6039      4974656D 
 6039      5F7400
 6040              	.LASF43:
 6041 0d9a 6368616E 		.ascii	"chanEn\000"
 6041      456E00
 6042              	.LASF213:
 6043 0da1 55426173 		.ascii	"UBaseType_t\000"
 6043      65547970 
 6043      655F7400 
 6044              	.LASF186:
 6045 0dad 43595F42 		.ascii	"CY_BLE_DIS_MODEL_NUMBER\000"
 6045      4C455F44 
 6045      49535F4D 
 6045      4F44454C 
 6045      5F4E554D 
 6046              	.LASF286:
 6047 0dc5 7854696D 		.ascii	"xTimerGetExpiryTime\000"
 6047      65724765 
 6047      74457870 
 6047      69727954 
 6047      696D6500 
 6048              	.LASF116:
 6049 0dd9 43595F42 		.ascii	"CY_BLE_EVT_GAPC_SCAN_START_STOP\000"
 6049      4C455F45 
 6049      56545F47 
 6049      4150435F 
 6049      5343414E 
ARM GAS  C:\Users\codyg\AppData\Local\Temp\ccCwzev2.s 			page 137


 6050              	.LASF263:
 6051 0df9 7854696D 		.ascii	"xTimerCreate\000"
 6051      65724372 
 6051      65617465 
 6051      00
 6052              	.LASF137:
 6053 0e06 43595F42 		.ascii	"CY_BLE_EVT_GATTC_READ_BY_TYPE_RSP\000"
 6053      4C455F45 
 6053      56545F47 
 6053      41545443 
 6053      5F524541 
 6054              	.LASF275:
 6055 0e28 70727653 		.ascii	"prvSampleTimeNow\000"
 6055      616D706C 
 6055      6554696D 
 6055      654E6F77 
 6055      00
 6056              	.LASF228:
 6057 0e39 784C6973 		.ascii	"xListEnd\000"
 6057      74456E64 
 6057      00
 6058              	.LASF74:
 6059 0e42 43595F42 		.ascii	"CY_BLE_EVT_SET_HOST_CHANNEL_COMPLETE\000"
 6059      4C455F45 
 6059      56545F53 
 6059      45545F48 
 6059      4F53545F 
 6060              	.LASF64:
 6061 0e67 43595F42 		.ascii	"CY_BLE_EVT_LE_SET_EVENT_MASK_COMPLETE\000"
 6061      4C455F45 
 6061      56545F4C 
 6061      455F5345 
 6061      545F4556 
 6062              	.LASF25:
 6063 0e8d 72784275 		.ascii	"rxBufIdx\000"
 6063      66496478 
 6063      00
 6064              	.LASF231:
 6065 0e96 51756575 		.ascii	"QueueHandle_t\000"
 6065      6548616E 
 6065      646C655F 
 6065      7400
 6066              	.LASF313:
 6067 0ea4 78546173 		.ascii	"xTaskCreate\000"
 6067      6B437265 
 6067      61746500 
 6068              	.LASF118:
 6069 0eb0 43595F42 		.ascii	"CY_BLE_EVT_GAP_NUMERIC_COMPARISON_REQUEST\000"
 6069      4C455F45 
 6069      56545F47 
 6069      41505F4E 
 6069      554D4552 
 6070              	.LASF30:
 6071 0eda 696E6974 		.ascii	"initKey\000"
 6071      4B657900 
 6072              	.LASF15:
 6073 0ee2 75696E74 		.ascii	"uint8_t\000"
ARM GAS  C:\Users\codyg\AppData\Local\Temp\ccCwzev2.s 			page 138


 6073      385F7400 
 6074              	.LASF22:
 6075 0eea 73746174 		.ascii	"status\000"
 6075      757300
 6076              	.LASF330:
 6077 0ef1 7654696D 		.ascii	"vTimerSetTimerID\000"
 6077      65725365 
 6077      7454696D 
 6077      65724944 
 6077      00
 6078              	.LASF97:
 6079 0f02 43595F42 		.ascii	"CY_BLE_EVT_SET_SLAVE_LATENCY_MODE_COMPLETE\000"
 6079      4C455F45 
 6079      56545F53 
 6079      45545F53 
 6079      4C415645 
 6080              	.LASF281:
 6081 0f2d 7854696D 		.ascii	"xTimerListsWereSwitched\000"
 6081      65724C69 
 6081      73747357 
 6081      65726553 
 6081      77697463 
 6082              	.LASF309:
 6083 0f45 78517565 		.ascii	"xQueueGenericCreate\000"
 6083      75654765 
 6083      6E657269 
 6083      63437265 
 6083      61746500 
 6084              	.LASF109:
 6085 0f59 43595F42 		.ascii	"CY_BLE_EVT_GAP_AUTH_COMPLETE\000"
 6085      4C455F45 
 6085      56545F47 
 6085      41505F41 
 6085      5554485F 
 6086              	.LASF80:
 6087 0f76 43595F42 		.ascii	"CY_BLE_EVT_SET_DEFAULT_PHY_COMPLETE\000"
 6087      4C455F45 
 6087      56545F53 
 6087      45545F44 
 6087      45464155 
 6088              	.LASF49:
 6089 0f9a 6D757853 		.ascii	"muxSwitchSqCtrl\000"
 6089      77697463 
 6089      68537143 
 6089      74726C00 
 6090              	.LASF300:
 6091 0faa 63795F62 		.ascii	"cy_ble_advState\000"
 6091      6C655F61 
 6091      64765374 
 6091      61746500 
 6092              	.LASF319:
 6093 0fba 78546173 		.ascii	"xTaskGetTickCount\000"
 6093      6B476574 
 6093      5469636B 
 6093      436F756E 
 6093      7400
 6094              	.LASF234:
ARM GAS  C:\Users\codyg\AppData\Local\Temp\ccCwzev2.s 			page 139


 6095 0fcc 746D7254 		.ascii	"tmrTimerControl\000"
 6095      696D6572 
 6095      436F6E74 
 6095      726F6C00 
 6096              	.LASF289:
 6097 0fdc 7854696D 		.ascii	"xTimerIsInActiveList\000"
 6097      65724973 
 6097      496E4163 
 6097      74697665 
 6097      4C697374 
 6098              	.LASF42:
 6099 0ff1 72616E67 		.ascii	"rangeCond\000"
 6099      65436F6E 
 6099      6400
 6100              	.LASF103:
 6101 0ffb 43595F42 		.ascii	"CY_BLE_EVT_SET_CE_LENGTH_COMPLETE\000"
 6101      4C455F45 
 6101      56545F53 
 6101      45545F43 
 6101      455F4C45 
 6102              	.LASF102:
 6103 101d 43595F42 		.ascii	"CY_BLE_EVT_SET_EVENT_MASK_COMPLETE\000"
 6103      4C455F45 
 6103      56545F53 
 6103      45545F45 
 6103      56454E54 
 6104              	.LASF1:
 6105 1040 6C6F6E67 		.ascii	"long long int\000"
 6105      206C6F6E 
 6105      6720696E 
 6105      7400
 6106              	.LASF195:
 6107 104e 43595F42 		.ascii	"CY_BLE_HTS_TEMP_MEASURE\000"
 6107      4C455F48 
 6107      54535F54 
 6107      454D505F 
 6107      4D454153 
 6108              	.LASF129:
 6109 1066 43595F42 		.ascii	"CY_BLE_EVT_GAP_CONN_ESTB\000"
 6109      4C455F45 
 6109      56545F47 
 6109      41505F43 
 6109      4F4E4E5F 
 6110              	.LASF76:
 6111 107f 43595F42 		.ascii	"CY_BLE_EVT_REMOVE_DEVICE_FROM_RPA_LIST_COMPLETE\000"
 6111      4C455F45 
 6111      56545F52 
 6111      454D4F56 
 6111      455F4445 
 6112              	.LASF292:
 6113 10af 70764E65 		.ascii	"pvNewID\000"
 6113      77494400 
 6114              	.LASF212:
 6115 10b7 42617365 		.ascii	"BaseType_t\000"
 6115      54797065 
 6115      5F7400
 6116              	.LASF271:
ARM GAS  C:\Users\codyg\AppData\Local\Temp\ccCwzev2.s 			page 140


 6117 10c2 70727653 		.ascii	"prvSwitchTimerLists\000"
 6117      77697463 
 6117      6854696D 
 6117      65724C69 
 6117      73747300 
 6118              	.LASF327:
 6119 10d6 433A5C55 		.ascii	"C:\\Users\\codyg\\git\\psoc6-realtime-processing\\B"
 6119      73657273 
 6119      5C636F64 
 6119      79675C67 
 6119      69745C70 
 6120 1104 4C455F52 		.ascii	"LE_RTC_IMU.cydsn\\CE218138_BLE_Thermometer_RTOS01.c"
 6120      54435F49 
 6120      4D552E63 
 6120      7964736E 
 6120      5C434532 
 6121 1136 7964736E 		.ascii	"ydsn\000"
 6121      00
 6122              	.LASF92:
 6123 113b 43595F42 		.ascii	"CY_BLE_EVT_SET_CLK_CONFIG_COMPLETE\000"
 6123      4C455F45 
 6123      56545F53 
 6123      45545F43 
 6123      4C4B5F43 
 6124              	.LASF218:
 6125 115e 70784E65 		.ascii	"pxNext\000"
 6125      787400
 6126              	.LASF185:
 6127 1165 43595F42 		.ascii	"CY_BLE_DIS_MANUFACTURER_NAME\000"
 6127      4C455F44 
 6127      49535F4D 
 6127      414E5546 
 6127      41435455 
 6128              	.LASF170:
 6129 1182 63795F73 		.ascii	"cy_stc_ble_conn_handle_t\000"
 6129      74635F62 
 6129      6C655F63 
 6129      6F6E6E5F 
 6129      68616E64 
 6130              	.LASF239:
 6131 119b 70765469 		.ascii	"pvTimerID\000"
 6131      6D657249 
 6131      4400
 6132              	.LASF31:
 6133 11a5 63795F73 		.ascii	"cy_stc_scb_spi_context_t\000"
 6133      74635F73 
 6133      63625F73 
 6133      70695F63 
 6133      6F6E7465 
 6134              	.LASF69:
 6135 11be 43595F42 		.ascii	"CY_BLE_EVT_DATA_LENGTH_CHANGE\000"
 6135      4C455F45 
 6135      56545F44 
 6135      4154415F 
 6135      4C454E47 
 6136              	.LASF44:
 6137 11dc 6368616E 		.ascii	"chanConfig\000"
ARM GAS  C:\Users\codyg\AppData\Local\Temp\ccCwzev2.s 			page 141


 6137      436F6E66 
 6137      696700
 6138              	.LASF117:
 6139 11e7 43595F42 		.ascii	"CY_BLE_EVT_GAP_KEYINFO_EXCHNGE_CMPLT\000"
 6139      4C455F45 
 6139      56545F47 
 6139      41505F4B 
 6139      4559494E 
 6140              	.LASF77:
 6141 120c 43595F42 		.ascii	"CY_BLE_EVT_ADD_DEVICE_TO_WHITE_LIST_COMPLETE\000"
 6141      4C455F45 
 6141      56545F41 
 6141      44445F44 
 6141      45564943 
 6142              	.LASF27:
 6143 1239 74784275 		.ascii	"txBufSize\000"
 6143      6653697A 
 6143      6500
 6144              	.LASF256:
 6145 1243 784E6578 		.ascii	"xNextExpireTime\000"
 6145      74457870 
 6145      69726554 
 6145      696D6500 
 6146              	.LASF166:
 6147 1253 43595F42 		.ascii	"CY_BLE_EVT_L2CAP_CBFC_DATA_WRITE_IND\000"
 6147      4C455F45 
 6147      56545F4C 
 6147      32434150 
 6147      5F434246 
 6148              	.LASF230:
 6149 1278 5461736B 		.ascii	"TaskHandle_t\000"
 6149      48616E64 
 6149      6C655F74 
 6149      00
 6150              	.LASF211:
 6151 1285 4144435F 		.ascii	"ADC_CONFIG_STRUCT\000"
 6151      434F4E46 
 6151      49475F53 
 6151      54525543 
 6151      5400
 6152              	.LASF87:
 6153 1297 43595F42 		.ascii	"CY_BLE_EVT_GET_DEVICE_ADDR_COMPLETE\000"
 6153      4C455F45 
 6153      56545F47 
 6153      45545F44 
 6153      45564943 
 6154              	.LASF105:
 6155 12bb 43595F42 		.ascii	"CY_BLE_EVT_GAPC_SCAN_PROGRESS_RESULT\000"
 6155      4C455F45 
 6155      56545F47 
 6155      4150435F 
 6155      5343414E 
 6156              	.LASF159:
 6157 12e0 43595F42 		.ascii	"CY_BLE_EVT_L2CAP_CBFC_CONN_IND\000"
 6157      4C455F45 
 6157      56545F4C 
 6157      32434150 
ARM GAS  C:\Users\codyg\AppData\Local\Temp\ccCwzev2.s 			page 142


 6157      5F434246 
 6158              	.LASF125:
 6159 12ff 43595F42 		.ascii	"CY_BLE_EVT_GAP_KEYS_GEN_COMPLETE\000"
 6159      4C455F45 
 6159      56545F47 
 6159      41505F4B 
 6159      4559535F 
 6160              	.LASF119:
 6161 1320 43595F42 		.ascii	"CY_BLE_EVT_GAP_KEYPRESS_NOTIFICATION\000"
 6161      4C455F45 
 6161      56545F47 
 6161      41505F4B 
 6161      45595052 
 6162              	.LASF229:
 6163 1345 4C697374 		.ascii	"List_t\000"
 6163      5F7400
 6164              	.LASF182:
 6165 134c 43595F42 		.ascii	"CY_BLE_CONN_STATE_CLIENT_DESCR_DISCOVERING\000"
 6165      4C455F43 
 6165      4F4E4E5F 
 6165      53544154 
 6165      455F434C 
 6166              	.LASF178:
 6167 1377 43595F42 		.ascii	"CY_BLE_CONN_STATE_CONNECTED\000"
 6167      4C455F43 
 6167      4F4E4E5F 
 6167      53544154 
 6167      455F434F 
 6168              	.LASF198:
 6169 1393 43595F42 		.ascii	"CY_BLE_HTS_MEASURE_INTERVAL\000"
 6169      4C455F48 
 6169      54535F4D 
 6169      45415355 
 6169      52455F49 
 6170              	.LASF26:
 6171 13af 74784275 		.ascii	"txBuf\000"
 6171      6600
 6172              	.LASF214:
 6173 13b5 5469636B 		.ascii	"TickType_t\000"
 6173      54797065 
 6173      5F7400
 6174              	.LASF180:
 6175 13c0 43595F42 		.ascii	"CY_BLE_CONN_STATE_CLIENT_INCL_DISCOVERING\000"
 6175      4C455F43 
 6175      4F4E4E5F 
 6175      53544154 
 6175      455F434C 
 6176              	.LASF236:
 6177 13ea 7854696D 		.ascii	"xTimerListItem\000"
 6177      65724C69 
 6177      73744974 
 6177      656D00
 6178              	.LASF189:
 6179 13f9 43595F42 		.ascii	"CY_BLE_DIS_FIRMWARE_REV\000"
 6179      4C455F44 
 6179      49535F46 
 6179      49524D57 
ARM GAS  C:\Users\codyg\AppData\Local\Temp\ccCwzev2.s 			page 143


 6179      4152455F 
 6180              	.LASF2:
 6181 1411 6C6F6E67 		.ascii	"long double\000"
 6181      20646F75 
 6181      626C6500 
 6182              	.LASF72:
 6183 141d 43595F42 		.ascii	"CY_BLE_EVT_SET_RPA_TO_COMPLETE\000"
 6183      4C455F45 
 6183      56545F53 
 6183      45545F52 
 6183      50415F54 
 6184              	.LASF39:
 6185 143c 73616D70 		.ascii	"sampleTime01\000"
 6185      6C655469 
 6185      6D653031 
 6185      00
 6186              	.LASF60:
 6187 1449 43595F42 		.ascii	"CY_BLE_EVT_HARDWARE_ERROR\000"
 6187      4C455F45 
 6187      56545F48 
 6187      41524457 
 6187      4152455F 
 6188              	.LASF104:
 6189 1463 43595F42 		.ascii	"CY_BLE_EVT_SET_CONN_PRIORITY_COMPLETE\000"
 6189      4C455F45 
 6189      56545F53 
 6189      45545F43 
 6189      4F4E4E5F 
 6190              	.LASF298:
 6191 1489 7854696D 		.ascii	"xTimerTaskHandle\000"
 6191      65725461 
 6191      736B4861 
 6191      6E646C65 
 6191      00
 6192              	.LASF128:
 6193 149a 43595F42 		.ascii	"CY_BLE_EVT_GAP_CREATE_CONN_CANCEL_COMPLETE\000"
 6193      4C455F45 
 6193      56545F47 
 6193      41505F43 
 6193      52454154 
 6194              	.LASF48:
 6195 14c5 6D757853 		.ascii	"muxSwitch\000"
 6195      77697463 
 6195      6800
 6196              	.LASF283:
 6197 14cf 70727654 		.ascii	"prvTimerTask\000"
 6197      696D6572 
 6197      5461736B 
 6197      00
 6198              	.LASF150:
 6199 14dc 43595F42 		.ascii	"CY_BLE_EVT_GATTC_HANDLE_VALUE_IND\000"
 6199      4C455F45 
 6199      56545F47 
 6199      41545443 
 6199      5F48414E 
 6200              	.LASF131:
 6201 14fe 43595F42 		.ascii	"CY_BLE_EVT_GATTC_ERROR_RSP\000"
ARM GAS  C:\Users\codyg\AppData\Local\Temp\ccCwzev2.s 			page 144


 6201      4C455F45 
 6201      56545F47 
 6201      41545443 
 6201      5F455252 
 6202              	.LASF136:
 6203 1519 43595F42 		.ascii	"CY_BLE_EVT_GATTC_READ_BY_GROUP_TYPE_RSP\000"
 6203      4C455F45 
 6203      56545F47 
 6203      41545443 
 6203      5F524541 
 6204              	.LASF75:
 6205 1541 43595F42 		.ascii	"CY_BLE_EVT_ADD_DEVICE_TO_RPA_LIST_COMPLETE\000"
 6205      4C455F45 
 6205      56545F41 
 6205      44445F44 
 6205      45564943 
 6206              	.LASF321:
 6207 156c 78546173 		.ascii	"xTaskResumeAll\000"
 6207      6B526573 
 6207      756D6541 
 6207      6C6C00
 6208              	.LASF143:
 6209 157b 43595F42 		.ascii	"CY_BLE_EVT_GATTS_WRITE_REQ\000"
 6209      4C455F45 
 6209      56545F47 
 6209      41545453 
 6209      5F575249 
 6210              	.LASF98:
 6211 1596 43595F42 		.ascii	"CY_BLE_EVT_STACK_SHUTDOWN_COMPLETE\000"
 6211      4C455F45 
 6211      56545F53 
 6211      5441434B 
 6211      5F534855 
 6212              	.LASF322:
 6213 15b9 76517565 		.ascii	"vQueueWaitForMessageRestricted\000"
 6213      75655761 
 6213      6974466F 
 6213      724D6573 
 6213      73616765 
 6214              	.LASF130:
 6215 15d8 43595F42 		.ascii	"CY_BLE_EVT_GAPP_UPDATE_ADV_SCAN_DATA_COMPLETE\000"
 6215      4C455F45 
 6215      56545F47 
 6215      4150505F 
 6215      55504441 
 6216              	.LASF157:
 6217 1606 43595F42 		.ascii	"CY_BLE_EVT_L2CAP_CONN_PARAM_UPDATE_RSP\000"
 6217      4C455F45 
 6217      56545F4C 
 6217      32434150 
 6217      5F434F4E 
 6218              	.LASF5:
 6219 162d 73686F72 		.ascii	"short int\000"
 6219      7420696E 
 6219      7400
 6220              	.LASF305:
 6221 1637 4144435F 		.ascii	"ADC_allConfigs\000"
ARM GAS  C:\Users\codyg\AppData\Local\Temp\ccCwzev2.s 			page 145


 6221      616C6C43 
 6221      6F6E6669 
 6221      677300
 6222              	.LASF312:
 6223 1646 764C6973 		.ascii	"vListInitialiseItem\000"
 6223      74496E69 
 6223      7469616C 
 6223      69736549 
 6223      74656D00 
 6224              	.LASF188:
 6225 165a 43595F42 		.ascii	"CY_BLE_DIS_HARDWARE_REV\000"
 6225      4C455F44 
 6225      49535F48 
 6225      41524457 
 6225      4152455F 
 6226              	.LASF113:
 6227 1672 43595F42 		.ascii	"CY_BLE_EVT_GAP_DEVICE_DISCONNECTED\000"
 6227      4C455F45 
 6227      56545F47 
 6227      41505F44 
 6227      45564943 
 6228              	.LASF284:
 6229 1695 70765061 		.ascii	"pvParameters\000"
 6229      72616D65 
 6229      74657273 
 6229      00
 6230              	.LASF217:
 6231 16a2 78497465 		.ascii	"xItemValue\000"
 6231      6D56616C 
 6231      756500
 6232              	.LASF282:
 6233 16ad 70727650 		.ascii	"prvProcessReceivedCommands\000"
 6233      726F6365 
 6233      73735265 
 6233      63656976 
 6233      6564436F 
 6234              	.LASF253:
 6235 16c8 784E6578 		.ascii	"xNextExpiryTime\000"
 6235      74457870 
 6235      69727954 
 6235      696D6500 
 6236              	.LASF277:
 6237 16d8 784C6173 		.ascii	"xLastTime\000"
 6237      7454696D 
 6237      6500
 6238              	.LASF299:
 6239 16e2 49544D5F 		.ascii	"ITM_RxBuffer\000"
 6239      52784275 
 6239      66666572 
 6239      00
 6240              	.LASF101:
 6241 16ef 43595F42 		.ascii	"CY_BLE_EVT_AES_CMAC_GEN_COMPLETE\000"
 6241      4C455F45 
 6241      56545F41 
 6241      45535F43 
 6241      4D41435F 
 6242              	.LASF295:
ARM GAS  C:\Users\codyg\AppData\Local\Temp\ccCwzev2.s 			page 146


 6243 1710 70784375 		.ascii	"pxCurrentTimerList\000"
 6243      7272656E 
 6243      7454696D 
 6243      65724C69 
 6243      737400
 6244              	.LASF310:
 6245 1723 76517565 		.ascii	"vQueueAddToRegistry\000"
 6245      75654164 
 6245      64546F52 
 6245      65676973 
 6245      74727900 
 6246              	.LASF124:
 6247 1737 43595F42 		.ascii	"CY_BLE_EVT_GAP_DEVICE_ADDR_GEN_COMPLETE\000"
 6247      4C455F45 
 6247      56545F47 
 6247      41505F44 
 6247      45564943 
 6248              	.LASF161:
 6249 175f 43595F42 		.ascii	"CY_BLE_EVT_L2CAP_CBFC_DISCONN_IND\000"
 6249      4C455F45 
 6249      56545F4C 
 6249      32434150 
 6249      5F434246 
 6250              	.LASF270:
 6251 1781 784D6573 		.ascii	"xMessage\000"
 6251      73616765 
 6251      00
 6252              	.LASF323:
 6253 178a 76506F72 		.ascii	"vPortFree\000"
 6253      74467265 
 6253      6500
 6254              	.LASF147:
 6255 1794 43595F42 		.ascii	"CY_BLE_EVT_GATTS_EXEC_WRITE_REQ\000"
 6255      4C455F45 
 6255      56545F47 
 6255      41545453 
 6255      5F455845 
 6256              	.LASF61:
 6257 17b4 43595F42 		.ascii	"CY_BLE_EVT_WRITE_AUTH_PAYLOAD_TO_COMPLETE\000"
 6257      4C455F45 
 6257      56545F57 
 6257      52495445 
 6257      5F415554 
 6258              	.LASF100:
 6259 17de 43595F42 		.ascii	"CY_BLE_EVT_RADIO_VOLTAGE_LEVEL\000"
 6259      4C455F45 
 6259      56545F52 
 6259      4144494F 
 6259      5F564F4C 
 6260              	.LASF265:
 6261 17fd 7854696D 		.ascii	"xTimer\000"
 6261      657200
 6262              	.LASF238:
 6263 1804 75784175 		.ascii	"uxAutoReload\000"
 6263      746F5265 
 6263      6C6F6164 
 6263      00
ARM GAS  C:\Users\codyg\AppData\Local\Temp\ccCwzev2.s 			page 147


 6264              	.LASF7:
 6265 1811 5F5F7569 		.ascii	"__uint8_t\000"
 6265      6E74385F 
 6265      7400
 6266              	.LASF242:
 6267 181b 54696D65 		.ascii	"Timer_t\000"
 6267      725F7400 
 6268              	.LASF191:
 6269 1823 43595F42 		.ascii	"CY_BLE_DIS_SYSTEM_ID\000"
 6269      4C455F44 
 6269      49535F53 
 6269      59535445 
 6269      4D5F4944 
 6270              	.LASF249:
 6271 1838 4461656D 		.ascii	"DaemonTaskMessage_t\000"
 6271      6F6E5461 
 6271      736B4D65 
 6271      73736167 
 6271      655F7400 
 6272              	.LASF67:
 6273 184c 43595F42 		.ascii	"CY_BLE_EVT_SET_SUGGESTED_DATA_LENGTH_COMPLETE\000"
 6273      4C455F45 
 6273      56545F53 
 6273      45545F53 
 6273      55474745 
 6274              	.LASF200:
 6275 187a 43595F42 		.ascii	"CY_BLE_HTS_CCCD\000"
 6275      4C455F48 
 6275      54535F43 
 6275      43434400 
 6276              	.LASF272:
 6277 188a 7852656C 		.ascii	"xReloadTime\000"
 6277      6F616454 
 6277      696D6500 
 6278              	.LASF94:
 6279 1896 43595F42 		.ascii	"CY_BLE_EVT_AES_ENCRYPT_COMPLETE\000"
 6279      4C455F45 
 6279      56545F41 
 6279      45535F45 
 6279      4E435259 
 6280              	.LASF89:
 6281 18b6 43595F42 		.ascii	"CY_BLE_EVT_GET_TX_PWR_COMPLETE\000"
 6281      4C455F45 
 6281      56545F47 
 6281      45545F54 
 6281      585F5057 
 6282              	.LASF215:
 6283 18d5 63795F73 		.ascii	"cy_stc_scb_spi_context\000"
 6283      74635F73 
 6283      63625F73 
 6283      70695F63 
 6283      6F6E7465 
 6284              	.LASF140:
 6285 18ec 43595F42 		.ascii	"CY_BLE_EVT_GATTC_READ_RSP\000"
 6285      4C455F45 
 6285      56545F47 
 6285      41545443 
ARM GAS  C:\Users\codyg\AppData\Local\Temp\ccCwzev2.s 			page 148


 6285      5F524541 
 6286              	.LASF201:
 6287 1906 43595F42 		.ascii	"CY_BLE_HTS_VRD\000"
 6287      4C455F48 
 6287      54535F56 
 6287      524400
 6288              	.LASF261:
 6289 1915 78526574 		.ascii	"xReturn\000"
 6289      75726E00 
 6290              	.LASF55:
 6291 191d 43595F42 		.ascii	"CY_BLE_EVT_TIMEOUT\000"
 6291      4C455F45 
 6291      56545F54 
 6291      494D454F 
 6291      555400
 6292              	.LASF204:
 6293 1930 43595F42 		.ascii	"CY_BLE_SRVI_GATT\000"
 6293      4C455F53 
 6293      5256495F 
 6293      47415454 
 6293      00
 6294              	.LASF13:
 6295 1941 73697A65 		.ascii	"sizetype\000"
 6295      74797065 
 6295      00
 6296              	.LASF11:
 6297 194a 6C6F6E67 		.ascii	"long unsigned int\000"
 6297      20756E73 
 6297      69676E65 
 6297      6420696E 
 6297      7400
 6298              	.LASF318:
 6299 195c 75784C69 		.ascii	"uxListRemove\000"
 6299      73745265 
 6299      6D6F7665 
 6299      00
 6300              	.LASF18:
 6301 1969 666C6F61 		.ascii	"float\000"
 6301      7400
 6302              	.LASF16:
 6303 196f 696E7433 		.ascii	"int32_t\000"
 6303      325F7400 
 6304              	.LASF99:
 6305 1977 43595F42 		.ascii	"CY_BLE_EVT_RADIO_TEMPERATURE\000"
 6305      4C455F45 
 6305      56545F52 
 6305      4144494F 
 6305      5F54454D 
 6306              	.LASF108:
 6307 1994 43595F42 		.ascii	"CY_BLE_EVT_GAP_PASSKEY_DISPLAY_REQUEST\000"
 6307      4C455F45 
 6307      56545F47 
 6307      41505F50 
 6307      4153534B 
 6308              	.LASF285:
 6309 19bb 7854696D 		.ascii	"xTimerGetPeriod\000"
 6309      65724765 
ARM GAS  C:\Users\codyg\AppData\Local\Temp\ccCwzev2.s 			page 149


 6309      74506572 
 6309      696F6400 
 6310              	.LASF245:
 6311 19cb 70785469 		.ascii	"pxTimer\000"
 6311      6D657200 
 6312              	.LASF38:
 6313 19d3 73616D70 		.ascii	"sampleCtrl\000"
 6313      6C654374 
 6313      726C00
 6314              	.LASF4:
 6315 19de 756E7369 		.ascii	"unsigned char\000"
 6315      676E6564 
 6315      20636861 
 6315      7200
 6316              	.LASF152:
 6317 19ec 43595F42 		.ascii	"CY_BLE_EVT_GATTS_DATA_SIGNED_CMD_REQ\000"
 6317      4C455F45 
 6317      56545F47 
 6317      41545453 
 6317      5F444154 
 6318              	.LASF244:
 6319 1a11 784D6573 		.ascii	"xMessageValue\000"
 6319      73616765 
 6319      56616C75 
 6319      6500
 6320              	.LASF10:
 6321 1a1f 5F5F7569 		.ascii	"__uint32_t\000"
 6321      6E743332 
 6321      5F7400
 6322              	.LASF258:
 6323 1a2a 70727643 		.ascii	"prvCheckForValidListAndQueue\000"
 6323      6865636B 
 6323      466F7256 
 6323      616C6964 
 6323      4C697374 
 6324              	.LASF202:
 6325 1a47 43595F42 		.ascii	"CY_BLE_HTS_DESCR_COUNT\000"
 6325      4C455F48 
 6325      54535F44 
 6325      45534352 
 6325      5F434F55 
 6326              	.LASF308:
 6327 1a5e 764C6973 		.ascii	"vListInitialise\000"
 6327      74496E69 
 6327      7469616C 
 6327      69736500 
 6328              	.LASF155:
 6329 1a6e 43595F42 		.ascii	"CY_BLE_EVT_GATTC_LONG_PROCEDURE_END\000"
 6329      4C455F45 
 6329      56545F47 
 6329      41545443 
 6329      5F4C4F4E 
 6330              	.LASF78:
 6331 1a92 43595F42 		.ascii	"CY_BLE_EVT_REMOVE_DEVICE_FROM_WHITE_LIST_COMPLETE\000"
 6331      4C455F45 
 6331      56545F52 
 6331      454D4F56 
ARM GAS  C:\Users\codyg\AppData\Local\Temp\ccCwzev2.s 			page 150


 6331      455F4445 
 6332              	.LASF68:
 6333 1ac4 43595F42 		.ascii	"CY_BLE_EVT_GET_DATA_LENGTH_COMPLETE\000"
 6333      4C455F45 
 6333      56545F47 
 6333      45545F44 
 6333      4154415F 
 6334              	.LASF197:
 6335 1ae8 43595F42 		.ascii	"CY_BLE_HTS_INTERM_TEMP\000"
 6335      4C455F48 
 6335      54535F49 
 6335      4E544552 
 6335      4D5F5445 
 6336              	.LASF122:
 6337 1aff 43595F42 		.ascii	"CY_BLE_EVT_GAPC_DIRECT_ADV_REPORT\000"
 6337      4C455F45 
 6337      56545F47 
 6337      4150435F 
 6337      44495245 
 6338              	.LASF287:
 6339 1b21 70635469 		.ascii	"pcTimerGetName\000"
 6339      6D657247 
 6339      65744E61 
 6339      6D6500
 6340              	.LASF269:
 6341 1b30 78546963 		.ascii	"xTicksToWait\000"
 6341      6B73546F 
 6341      57616974 
 6341      00
 6342              	.LASF220:
 6343 1b3d 70764F77 		.ascii	"pvOwner\000"
 6343      6E657200 
 6344              	.LASF274:
 6345 1b45 78526573 		.ascii	"xResult\000"
 6345      756C7400 
 6346              	.LASF210:
 6347 1b4d 636C6B44 		.ascii	"clkDivider\000"
 6347      69766964 
 6347      657200
 6348              	.LASF133:
 6349 1b58 43595F42 		.ascii	"CY_BLE_EVT_GATT_DISCONNECT_IND\000"
 6349      4C455F45 
 6349      56545F47 
 6349      4154545F 
 6349      44495343 
 6350              	.LASF304:
 6351 1b77 4144435F 		.ascii	"ADC_currentConfig\000"
 6351      63757272 
 6351      656E7443 
 6351      6F6E6669 
 6351      6700
 6352              	.LASF148:
 6353 1b89 43595F42 		.ascii	"CY_BLE_EVT_GATTC_EXEC_WRITE_RSP\000"
 6353      4C455F45 
 6353      56545F47 
 6353      41545443 
 6353      5F455845 
ARM GAS  C:\Users\codyg\AppData\Local\Temp\ccCwzev2.s 			page 151


 6354              	.LASF279:
 6355 1ba9 70727650 		.ascii	"prvProcessTimerOrBlockTask\000"
 6355      726F6365 
 6355      73735469 
 6355      6D65724F 
 6355      72426C6F 
 6356              	.LASF134:
 6357 1bc4 43595F42 		.ascii	"CY_BLE_EVT_GATTS_XCNHG_MTU_REQ\000"
 6357      4C455F45 
 6357      56545F47 
 6357      41545453 
 6357      5F58434E 
 6358              	.LASF153:
 6359 1be3 43595F42 		.ascii	"CY_BLE_EVT_GATTC_STOP_CMD_COMPLETE\000"
 6359      4C455F45 
 6359      56545F47 
 6359      41545443 
 6359      5F53544F 
 6360              	.LASF237:
 6361 1c06 7854696D 		.ascii	"xTimerPeriodInTicks\000"
 6361      65725065 
 6361      72696F64 
 6361      496E5469 
 6361      636B7300 
 6362              	.LASF107:
 6363 1c1a 43595F42 		.ascii	"CY_BLE_EVT_GAP_PASSKEY_ENTRY_REQUEST\000"
 6363      4C455F45 
 6363      56545F47 
 6363      41505F50 
 6363      4153534B 
 6364              	.LASF168:
 6365 1c3f 62644861 		.ascii	"bdHandle\000"
 6365      6E646C65 
 6365      00
 6366              	.LASF3:
 6367 1c48 7369676E 		.ascii	"signed char\000"
 6367      65642063 
 6367      68617200 
 6368              	.LASF6:
 6369 1c54 73686F72 		.ascii	"short unsigned int\000"
 6369      7420756E 
 6369      7369676E 
 6369      65642069 
 6369      6E7400
 6370              	.LASF106:
 6371 1c67 43595F42 		.ascii	"CY_BLE_EVT_GAP_AUTH_REQ\000"
 6371      4C455F45 
 6371      56545F47 
 6371      41505F41 
 6371      5554485F 
 6372              	.LASF145:
 6373 1c7f 43595F42 		.ascii	"CY_BLE_EVT_GATTS_WRITE_CMD_REQ\000"
 6373      4C455F45 
 6373      56545F47 
 6373      41545453 
 6373      5F575249 
 6374              	.LASF91:
ARM GAS  C:\Users\codyg\AppData\Local\Temp\ccCwzev2.s 			page 152


 6375 1c9e 43595F42 		.ascii	"CY_BLE_EVT_GET_CLK_CONFIG_COMPLETE\000"
 6375      4C455F45 
 6375      56545F47 
 6375      45545F43 
 6375      4C4B5F43 
 6376              	.LASF209:
 6377 1cc1 6D697363 		.ascii	"miscConfig\000"
 6377      436F6E66 
 6377      696700
 6378              	.LASF243:
 6379 1ccc 746D7254 		.ascii	"tmrTimerParameters\000"
 6379      696D6572 
 6379      50617261 
 6379      6D657465 
 6379      727300
 6380              	.LASF156:
 6381 1cdf 43595F42 		.ascii	"CY_BLE_EVT_L2CAP_CONN_PARAM_UPDATE_REQ\000"
 6381      4C455F45 
 6381      56545F4C 
 6381      32434150 
 6381      5F434F4E 
 6382              	.LASF50:
 6383 1d06 636F6E66 		.ascii	"configRouting\000"
 6383      6967526F 
 6383      7574696E 
 6383      6700
 6384              	.LASF47:
 6385 1d14 72616E67 		.ascii	"rangeIntrMask\000"
 6385      65496E74 
 6385      724D6173 
 6385      6B00
 6386              	.LASF36:
 6387 1d22 63795F65 		.ascii	"cy_en_sar_range_detect_condition_t\000"
 6387      6E5F7361 
 6387      725F7261 
 6387      6E67655F 
 6387      64657465 
 6388              	.LASF59:
 6389 1d45 43595F42 		.ascii	"CY_BLE_EVT_FLASH_CORRUPT\000"
 6389      4C455F45 
 6389      56545F46 
 6389      4C415348 
 6389      5F434F52 
 6390              	.LASF127:
 6391 1d5e 43595F42 		.ascii	"CY_BLE_EVT_GAP_GEN_SET_LOCAL_P256_KEYS_COMPLETE\000"
 6391      4C455F45 
 6391      56545F47 
 6391      41505F47 
 6391      454E5F53 
 6392              	.LASF329:
 6393 1d8e 7854696D 		.ascii	"xTimerGetTimerDaemonTaskHandle\000"
 6393      65724765 
 6393      7454696D 
 6393      65724461 
 6393      656D6F6E 
 6394              	.LASF314:
 6395 1dad 7076506F 		.ascii	"pvPortMalloc\000"
ARM GAS  C:\Users\codyg\AppData\Local\Temp\ccCwzev2.s 			page 153


 6395      72744D61 
 6395      6C6C6F63 
 6395      00
 6396              	.LASF110:
 6397 1dba 43595F42 		.ascii	"CY_BLE_EVT_GAP_AUTH_FAILED\000"
 6397      4C455F45 
 6397      56545F47 
 6397      41505F41 
 6397      5554485F 
 6398              	.LASF82:
 6399 1dd5 43595F42 		.ascii	"CY_BLE_EVT_PHY_UPDATE_COMPLETE\000"
 6399      4C455F45 
 6399      56545F50 
 6399      48595F55 
 6399      50444154 
 6400              	.LASF224:
 6401 1df4 4D696E69 		.ascii	"MiniListItem_t\000"
 6401      4C697374 
 6401      4974656D 
 6401      5F7400
 6402              	.LASF179:
 6403 1e03 43595F42 		.ascii	"CY_BLE_CONN_STATE_CLIENT_SRVC_DISCOVERING\000"
 6403      4C455F43 
 6403      4F4E4E5F 
 6403      53544154 
 6403      455F434C 
 6404              	.LASF45:
 6405 1e2d 696E7472 		.ascii	"intrMask\000"
 6405      4D61736B 
 6405      00
 6406              	.LASF311:
 6407 1e36 76506F72 		.ascii	"vPortExitCritical\000"
 6407      74457869 
 6407      74437269 
 6407      74696361 
 6407      6C00
 6408              	.LASF24:
 6409 1e48 72784275 		.ascii	"rxBufSize\000"
 6409      6653697A 
 6409      6500
 6410              	.LASF250:
 6411 1e52 70727647 		.ascii	"prvGetNextExpireTime\000"
 6411      65744E65 
 6411      78744578 
 6411      70697265 
 6411      54696D65 
 6412              	.LASF115:
 6413 1e67 43595F42 		.ascii	"CY_BLE_EVT_GAP_CONNECTION_UPDATE_COMPLETE\000"
 6413      4C455F45 
 6413      56545F47 
 6413      41505F43 
 6413      4F4E4E45 
 6414              	.LASF280:
 6415 1e91 784C6973 		.ascii	"xListWasEmpty\000"
 6415      74576173 
 6415      456D7074 
 6415      7900
ARM GAS  C:\Users\codyg\AppData\Local\Temp\ccCwzev2.s 			page 154


 6416              		.ident	"GCC: (GNU Tools for ARM Embedded Processors) 5.4.1 20160609 (release) [ARM/embedded-5-bran
