ARM GAS  C:\Users\codyg\AppData\Local\Temp\ccRbtLKH.s 			page 1


   1              		.syntax unified
   2              		.cpu cortex-m0plus
   3              		.fpu softvfp
   4              		.eabi_attribute 20, 1
   5              		.eabi_attribute 21, 1
   6              		.eabi_attribute 23, 3
   7              		.eabi_attribute 24, 1
   8              		.eabi_attribute 25, 1
   9              		.eabi_attribute 26, 1
  10              		.eabi_attribute 30, 1
  11              		.eabi_attribute 34, 0
  12              		.eabi_attribute 18, 4
  13              		.thumb
  14              		.syntax unified
  15              		.file	"CapSense_Filter.c"
  16              		.text
  17              	.Ltext0:
  18              		.cfi_sections	.debug_frame
  19              		.section	.text.CapSense_FtInitializeBaselineChannel,"ax",%progbits
  20              		.align	2
  21              		.global	CapSense_FtInitializeBaselineChannel
  22              		.code	16
  23              		.thumb_func
  24              		.type	CapSense_FtInitializeBaselineChannel, %function
  25              	CapSense_FtInitializeBaselineChannel:
  26              	.LFB45:
  27              		.file 1 "Generated_Source\\PSoC6\\CapSense_Filter.c"
   1:Generated_Source\PSoC6/CapSense_Filter.c **** /***************************************************************************//**
   2:Generated_Source\PSoC6/CapSense_Filter.c **** * \file CapSense_Filter.c
   3:Generated_Source\PSoC6/CapSense_Filter.c **** * \version 2.0
   4:Generated_Source\PSoC6/CapSense_Filter.c **** *
   5:Generated_Source\PSoC6/CapSense_Filter.c **** * \brief
   6:Generated_Source\PSoC6/CapSense_Filter.c **** *   This file contains the implementation source code to implement all
   7:Generated_Source\PSoC6/CapSense_Filter.c **** *   firmware filters.
   8:Generated_Source\PSoC6/CapSense_Filter.c **** *
   9:Generated_Source\PSoC6/CapSense_Filter.c **** * \see CapSense v2.0 Datasheet
  10:Generated_Source\PSoC6/CapSense_Filter.c **** *
  11:Generated_Source\PSoC6/CapSense_Filter.c **** *//*****************************************************************************
  12:Generated_Source\PSoC6/CapSense_Filter.c **** * Copyright (2016-2017), Cypress Semiconductor Corporation.
  13:Generated_Source\PSoC6/CapSense_Filter.c **** ********************************************************************************
  14:Generated_Source\PSoC6/CapSense_Filter.c **** * This software is owned by Cypress Semiconductor Corporation (Cypress) and is
  15:Generated_Source\PSoC6/CapSense_Filter.c **** * protected by and subject to worldwide patent protection (United States and
  16:Generated_Source\PSoC6/CapSense_Filter.c **** * foreign), United States copyright laws and international treaty provisions.
  17:Generated_Source\PSoC6/CapSense_Filter.c **** * Cypress hereby grants to licensee a personal, non-exclusive, non-transferable
  18:Generated_Source\PSoC6/CapSense_Filter.c **** * license to copy, use, modify, create derivative works of, and compile the
  19:Generated_Source\PSoC6/CapSense_Filter.c **** * Cypress Source Code and derivative works for the sole purpose of creating
  20:Generated_Source\PSoC6/CapSense_Filter.c **** * custom software in support of licensee product to be used only in conjunction
  21:Generated_Source\PSoC6/CapSense_Filter.c **** * with a Cypress integrated circuit as specified in the applicable agreement.
  22:Generated_Source\PSoC6/CapSense_Filter.c **** * Any reproduction, modification, translation, compilation, or representation of
  23:Generated_Source\PSoC6/CapSense_Filter.c **** * this software except as specified above is prohibited without the express
  24:Generated_Source\PSoC6/CapSense_Filter.c **** * written permission of Cypress.
  25:Generated_Source\PSoC6/CapSense_Filter.c **** *
  26:Generated_Source\PSoC6/CapSense_Filter.c **** * Disclaimer: CYPRESS MAKES NO WARRANTY OF ANY KIND, EXPRESS OR IMPLIED, WITH
  27:Generated_Source\PSoC6/CapSense_Filter.c **** * REGARD TO THIS MATERIAL, INCLUDING, BUT NOT LIMITED TO, THE IMPLIED
  28:Generated_Source\PSoC6/CapSense_Filter.c **** * WARRANTIES OF MERCHANTABILITY AND FITNESS FOR A PARTICULAR PURPOSE.
  29:Generated_Source\PSoC6/CapSense_Filter.c **** * Cypress reserves the right to make changes without further notice to the
  30:Generated_Source\PSoC6/CapSense_Filter.c **** * materials described herein. Cypress does not assume any liability arising out
ARM GAS  C:\Users\codyg\AppData\Local\Temp\ccRbtLKH.s 			page 2


  31:Generated_Source\PSoC6/CapSense_Filter.c **** * of the application or use of any product or circuit described herein. Cypress
  32:Generated_Source\PSoC6/CapSense_Filter.c **** * does not authorize its products for use as critical components in life-support
  33:Generated_Source\PSoC6/CapSense_Filter.c **** * systems where a malfunction or failure may reasonably be expected to result in
  34:Generated_Source\PSoC6/CapSense_Filter.c **** * significant injury to the user. The inclusion of Cypress' product in a life-
  35:Generated_Source\PSoC6/CapSense_Filter.c **** * support systems application implies that the manufacturer assumes all risk of
  36:Generated_Source\PSoC6/CapSense_Filter.c **** * such use and in doing so indemnifies Cypress against all charges. Use may be
  37:Generated_Source\PSoC6/CapSense_Filter.c **** * limited by and subject to the applicable Cypress software license agreement.
  38:Generated_Source\PSoC6/CapSense_Filter.c **** *******************************************************************************/
  39:Generated_Source\PSoC6/CapSense_Filter.c **** 
  40:Generated_Source\PSoC6/CapSense_Filter.c **** #include "stddef.h"
  41:Generated_Source\PSoC6/CapSense_Filter.c **** #include "CapSense_Filter.h"
  42:Generated_Source\PSoC6/CapSense_Filter.c **** #include "CapSense_Configuration.h"
  43:Generated_Source\PSoC6/CapSense_Filter.c **** 
  44:Generated_Source\PSoC6/CapSense_Filter.c **** #if (0 != (CapSense_CSD_AUTOTUNE & CapSense_CSD_SS_TH_EN))
  45:Generated_Source\PSoC6/CapSense_Filter.c ****     #include "CapSense_SmartSense_LL.h"
  46:Generated_Source\PSoC6/CapSense_Filter.c **** #endif /* (0 != (CapSense_CSD_AUTOTUNE & CapSense_CSD_SS_TH_EN)) */
  47:Generated_Source\PSoC6/CapSense_Filter.c **** 
  48:Generated_Source\PSoC6/CapSense_Filter.c **** #if (CapSense_ENABLE == CapSense_SELF_TEST_EN)
  49:Generated_Source\PSoC6/CapSense_Filter.c ****     #include "CapSense_SelfTest.h"
  50:Generated_Source\PSoC6/CapSense_Filter.c **** #endif
  51:Generated_Source\PSoC6/CapSense_Filter.c **** 
  52:Generated_Source\PSoC6/CapSense_Filter.c **** /*******************************************************************************
  53:Generated_Source\PSoC6/CapSense_Filter.c **** * Function Name: CapSense_FtInitialize
  54:Generated_Source\PSoC6/CapSense_Filter.c **** ****************************************************************************//**
  55:Generated_Source\PSoC6/CapSense_Filter.c **** *
  56:Generated_Source\PSoC6/CapSense_Filter.c **** * \brief
  57:Generated_Source\PSoC6/CapSense_Filter.c **** *    Initializes all the firmware filter history, except the baseline filter.
  58:Generated_Source\PSoC6/CapSense_Filter.c **** *
  59:Generated_Source\PSoC6/CapSense_Filter.c **** * \details
  60:Generated_Source\PSoC6/CapSense_Filter.c **** *    Initializes all the firmware filter history, except the baseline filter.
  61:Generated_Source\PSoC6/CapSense_Filter.c **** *
  62:Generated_Source\PSoC6/CapSense_Filter.c **** *******************************************************************************/
  63:Generated_Source\PSoC6/CapSense_Filter.c **** void CapSense_FtInitialize(void)
  64:Generated_Source\PSoC6/CapSense_Filter.c **** {
  65:Generated_Source\PSoC6/CapSense_Filter.c ****     #if ((CapSense_ENABLE == CapSense_RC_FILTER_EN) || \
  66:Generated_Source\PSoC6/CapSense_Filter.c ****          (0u != (CapSense_CSD_AUTOTUNE & CapSense_CSD_SS_TH_EN)))
  67:Generated_Source\PSoC6/CapSense_Filter.c ****         CapSense_InitializeAllFilters();
  68:Generated_Source\PSoC6/CapSense_Filter.c ****     #endif /* ((CapSense_ENABLE == CapSense_RC_FILTER_EN) || \
  69:Generated_Source\PSoC6/CapSense_Filter.c ****                (0u != (CapSense_CSD_AUTOTUNE & CapSense_CSD_SS_TH_EN))) */
  70:Generated_Source\PSoC6/CapSense_Filter.c **** }
  71:Generated_Source\PSoC6/CapSense_Filter.c **** 
  72:Generated_Source\PSoC6/CapSense_Filter.c **** 
  73:Generated_Source\PSoC6/CapSense_Filter.c **** /*******************************************************************************
  74:Generated_Source\PSoC6/CapSense_Filter.c **** * Function Name: CapSense_UpdateAllBaselines
  75:Generated_Source\PSoC6/CapSense_Filter.c **** ****************************************************************************//**
  76:Generated_Source\PSoC6/CapSense_Filter.c **** *
  77:Generated_Source\PSoC6/CapSense_Filter.c **** * \brief
  78:Generated_Source\PSoC6/CapSense_Filter.c **** *  Updates the baseline for all the sensors in all the widgets.
  79:Generated_Source\PSoC6/CapSense_Filter.c **** *
  80:Generated_Source\PSoC6/CapSense_Filter.c **** * \details
  81:Generated_Source\PSoC6/CapSense_Filter.c **** *  Updates the baseline for all the sensors in all the widgets. Baseline updating is a
  82:Generated_Source\PSoC6/CapSense_Filter.c **** *  part of data processing performed by the process functions. So, no need to
  83:Generated_Source\PSoC6/CapSense_Filter.c **** *  call this function except a specific process flow is implemented.
  84:Generated_Source\PSoC6/CapSense_Filter.c **** *
  85:Generated_Source\PSoC6/CapSense_Filter.c **** *  This function ignores the value of the wdgtEnable register. Multiple calling
  86:Generated_Source\PSoC6/CapSense_Filter.c **** *  of this function (or any other function with a baseline updating task)
  87:Generated_Source\PSoC6/CapSense_Filter.c **** *  without scanning leads to unexpected behavior.
ARM GAS  C:\Users\codyg\AppData\Local\Temp\ccRbtLKH.s 			page 3


  88:Generated_Source\PSoC6/CapSense_Filter.c **** *
  89:Generated_Source\PSoC6/CapSense_Filter.c **** *  If the Self-test library is enabled, this function executes the baseline duplication
  90:Generated_Source\PSoC6/CapSense_Filter.c **** *  test. Refer to CapSense_CheckBaselineDuplication() for details.
  91:Generated_Source\PSoC6/CapSense_Filter.c **** *
  92:Generated_Source\PSoC6/CapSense_Filter.c **** * \return
  93:Generated_Source\PSoC6/CapSense_Filter.c **** *  Returns the status of the update baseline operation of all the widgets:
  94:Generated_Source\PSoC6/CapSense_Filter.c **** *  - CY_RET_SUCCESS - The operation is successfully completed.
  95:Generated_Source\PSoC6/CapSense_Filter.c **** *  - CY_RET_BAD_DATA - The baseline processing failed.
  96:Generated_Source\PSoC6/CapSense_Filter.c **** *
  97:Generated_Source\PSoC6/CapSense_Filter.c **** *******************************************************************************/
  98:Generated_Source\PSoC6/CapSense_Filter.c **** cy_status CapSense_UpdateAllBaselines(void)
  99:Generated_Source\PSoC6/CapSense_Filter.c **** {
 100:Generated_Source\PSoC6/CapSense_Filter.c ****     uint32 widgetId;
 101:Generated_Source\PSoC6/CapSense_Filter.c ****     cy_status bslnStatus = CY_RET_SUCCESS;
 102:Generated_Source\PSoC6/CapSense_Filter.c **** 
 103:Generated_Source\PSoC6/CapSense_Filter.c ****     for(widgetId = CapSense_TOTAL_WIDGETS; widgetId-- > 0u;)
 104:Generated_Source\PSoC6/CapSense_Filter.c ****     {
 105:Generated_Source\PSoC6/CapSense_Filter.c ****         bslnStatus |= CapSense_UpdateWidgetBaseline(widgetId);
 106:Generated_Source\PSoC6/CapSense_Filter.c ****     }
 107:Generated_Source\PSoC6/CapSense_Filter.c **** 
 108:Generated_Source\PSoC6/CapSense_Filter.c ****     return(bslnStatus);
 109:Generated_Source\PSoC6/CapSense_Filter.c **** }
 110:Generated_Source\PSoC6/CapSense_Filter.c **** 
 111:Generated_Source\PSoC6/CapSense_Filter.c **** 
 112:Generated_Source\PSoC6/CapSense_Filter.c **** /*******************************************************************************
 113:Generated_Source\PSoC6/CapSense_Filter.c **** * Function Name: CapSense_UpdateWidgetBaseline
 114:Generated_Source\PSoC6/CapSense_Filter.c **** ****************************************************************************//**
 115:Generated_Source\PSoC6/CapSense_Filter.c **** *
 116:Generated_Source\PSoC6/CapSense_Filter.c **** * \brief
 117:Generated_Source\PSoC6/CapSense_Filter.c **** *  Updates the baselines for all the sensors in a widget specified by the input parameter.
 118:Generated_Source\PSoC6/CapSense_Filter.c **** *
 119:Generated_Source\PSoC6/CapSense_Filter.c **** * \details
 120:Generated_Source\PSoC6/CapSense_Filter.c **** *  This function performs exactly the same tasks as
 121:Generated_Source\PSoC6/CapSense_Filter.c **** *  CapSense_UpdateAllBaselines() but only for a specified widget.
 122:Generated_Source\PSoC6/CapSense_Filter.c **** *
 123:Generated_Source\PSoC6/CapSense_Filter.c **** *  This function ignores the value of the wdgtEnable register. Multiple calling
 124:Generated_Source\PSoC6/CapSense_Filter.c **** *  of this function (or any other function with a baseline updating task)
 125:Generated_Source\PSoC6/CapSense_Filter.c **** *  without scanning leads to unexpected behavior.
 126:Generated_Source\PSoC6/CapSense_Filter.c **** *
 127:Generated_Source\PSoC6/CapSense_Filter.c **** *  If the Self-test library is enabled, this function executes the baseline duplication
 128:Generated_Source\PSoC6/CapSense_Filter.c **** *  test. Refer to CapSense_CheckBaselineDuplication() for details.
 129:Generated_Source\PSoC6/CapSense_Filter.c **** *
 130:Generated_Source\PSoC6/CapSense_Filter.c **** * \param widgetId
 131:Generated_Source\PSoC6/CapSense_Filter.c **** *  Specifies the ID number of the widget to update the baseline of all the sensors
 132:Generated_Source\PSoC6/CapSense_Filter.c **** *  in the widget.
 133:Generated_Source\PSoC6/CapSense_Filter.c **** *  A macro for the widget ID can be found in the
 134:Generated_Source\PSoC6/CapSense_Filter.c **** *  CapSense Configuration header file defined as
 135:Generated_Source\PSoC6/CapSense_Filter.c **** *  CapSense_<WidgetName>_WDGT_ID.
 136:Generated_Source\PSoC6/CapSense_Filter.c **** *
 137:Generated_Source\PSoC6/CapSense_Filter.c **** * \return
 138:Generated_Source\PSoC6/CapSense_Filter.c **** *  Returns the status of the specified widget update baseline operation:
 139:Generated_Source\PSoC6/CapSense_Filter.c **** *  - CY_RET_SUCCESS - The operation is successfully completed.
 140:Generated_Source\PSoC6/CapSense_Filter.c **** *  - CY_RET_BAD_DATA - The baseline processing failed.
 141:Generated_Source\PSoC6/CapSense_Filter.c **** *
 142:Generated_Source\PSoC6/CapSense_Filter.c **** *******************************************************************************/
 143:Generated_Source\PSoC6/CapSense_Filter.c **** cy_status CapSense_UpdateWidgetBaseline(uint32 widgetId)
 144:Generated_Source\PSoC6/CapSense_Filter.c **** {
ARM GAS  C:\Users\codyg\AppData\Local\Temp\ccRbtLKH.s 			page 4


 145:Generated_Source\PSoC6/CapSense_Filter.c ****     uint32 sensorId;
 146:Generated_Source\PSoC6/CapSense_Filter.c ****     uint32 sensorsNumber;
 147:Generated_Source\PSoC6/CapSense_Filter.c **** 
 148:Generated_Source\PSoC6/CapSense_Filter.c ****     CapSense_FLASH_WD_STRUCT const *ptrWidget = &CapSense_dsFlash.wdgtArray[widgetId];
 149:Generated_Source\PSoC6/CapSense_Filter.c ****     cy_status bslnStatus = CY_RET_SUCCESS;
 150:Generated_Source\PSoC6/CapSense_Filter.c **** 
 151:Generated_Source\PSoC6/CapSense_Filter.c ****     /* Find total amount of sensors in specified widget */
 152:Generated_Source\PSoC6/CapSense_Filter.c ****     sensorsNumber = CapSense_GET_SNS_CNT_BY_PTR(ptrWidget);
 153:Generated_Source\PSoC6/CapSense_Filter.c **** 
 154:Generated_Source\PSoC6/CapSense_Filter.c ****     for(sensorId = sensorsNumber; sensorId-- > 0u;)
 155:Generated_Source\PSoC6/CapSense_Filter.c ****     {
 156:Generated_Source\PSoC6/CapSense_Filter.c ****         bslnStatus |= CapSense_UpdateSensorBaseline(widgetId, sensorId);
 157:Generated_Source\PSoC6/CapSense_Filter.c ****     }
 158:Generated_Source\PSoC6/CapSense_Filter.c **** 
 159:Generated_Source\PSoC6/CapSense_Filter.c ****     return(bslnStatus);
 160:Generated_Source\PSoC6/CapSense_Filter.c **** }
 161:Generated_Source\PSoC6/CapSense_Filter.c **** 
 162:Generated_Source\PSoC6/CapSense_Filter.c **** 
 163:Generated_Source\PSoC6/CapSense_Filter.c **** /*******************************************************************************
 164:Generated_Source\PSoC6/CapSense_Filter.c **** * Function Name: CapSense_UpdateSensorBaseline
 165:Generated_Source\PSoC6/CapSense_Filter.c **** ****************************************************************************//**
 166:Generated_Source\PSoC6/CapSense_Filter.c **** *
 167:Generated_Source\PSoC6/CapSense_Filter.c **** * \brief
 168:Generated_Source\PSoC6/CapSense_Filter.c **** *  Updates the baseline for a sensor in a widget specified by the input parameters.
 169:Generated_Source\PSoC6/CapSense_Filter.c **** *
 170:Generated_Source\PSoC6/CapSense_Filter.c **** * \details
 171:Generated_Source\PSoC6/CapSense_Filter.c **** *  This function performs exactly the same tasks as
 172:Generated_Source\PSoC6/CapSense_Filter.c **** *  CapSense_UpdateAllBaselines() and
 173:Generated_Source\PSoC6/CapSense_Filter.c **** *  CapSense_UpdateWidgetBaseline() but only for a specified sensor.
 174:Generated_Source\PSoC6/CapSense_Filter.c **** *
 175:Generated_Source\PSoC6/CapSense_Filter.c **** *  This function ignores the value of the wdgtEnable register. Multiple calling
 176:Generated_Source\PSoC6/CapSense_Filter.c **** *  of this function (or any other function with a baseline updating task)
 177:Generated_Source\PSoC6/CapSense_Filter.c **** *  without scanning leads to unexpected behavior.
 178:Generated_Source\PSoC6/CapSense_Filter.c **** *
 179:Generated_Source\PSoC6/CapSense_Filter.c **** *  If the Self-test library is enabled, this function executes the baseline duplication
 180:Generated_Source\PSoC6/CapSense_Filter.c **** *  test. Refer to CapSense_CheckBaselineDuplication() for details.
 181:Generated_Source\PSoC6/CapSense_Filter.c **** *
 182:Generated_Source\PSoC6/CapSense_Filter.c **** * \param   widgetId
 183:Generated_Source\PSoC6/CapSense_Filter.c **** *  Specifies the ID number of the widget to update the baseline of the sensor
 184:Generated_Source\PSoC6/CapSense_Filter.c **** *  specified by the sensorId argument.
 185:Generated_Source\PSoC6/CapSense_Filter.c **** *  A macro for the widget ID can be found in the CapSense Configuration header
 186:Generated_Source\PSoC6/CapSense_Filter.c **** *  file defined as CapSense_<WidgetName>_WDGT_ID.
 187:Generated_Source\PSoC6/CapSense_Filter.c **** *
 188:Generated_Source\PSoC6/CapSense_Filter.c **** * \param   sensorId
 189:Generated_Source\PSoC6/CapSense_Filter.c **** *  Specifies the ID number of the sensor within the widget to update its baseline.
 190:Generated_Source\PSoC6/CapSense_Filter.c **** *  A macro for the sensor ID within a specified widget can be found in the
 191:Generated_Source\PSoC6/CapSense_Filter.c **** *  CapSense Configuration header file defined as
 192:Generated_Source\PSoC6/CapSense_Filter.c **** *  CapSense_<WidgetName>_SNS<SensorNumber>_ID.
 193:Generated_Source\PSoC6/CapSense_Filter.c **** *
 194:Generated_Source\PSoC6/CapSense_Filter.c **** * \return
 195:Generated_Source\PSoC6/CapSense_Filter.c **** *  Returns the status of the specified sensor update baseline operation:
 196:Generated_Source\PSoC6/CapSense_Filter.c **** *  - CY_RET_SUCCESS - The operation is successfully completed.
 197:Generated_Source\PSoC6/CapSense_Filter.c **** *  - CY_RET_BAD_DATA - The baseline processing failed.
 198:Generated_Source\PSoC6/CapSense_Filter.c **** *
 199:Generated_Source\PSoC6/CapSense_Filter.c **** *******************************************************************************/
 200:Generated_Source\PSoC6/CapSense_Filter.c **** cy_status CapSense_UpdateSensorBaseline(uint32 widgetId, uint32 sensorId)
 201:Generated_Source\PSoC6/CapSense_Filter.c **** {
ARM GAS  C:\Users\codyg\AppData\Local\Temp\ccRbtLKH.s 			page 5


 202:Generated_Source\PSoC6/CapSense_Filter.c ****     uint32 result = CY_RET_SUCCESS;
 203:Generated_Source\PSoC6/CapSense_Filter.c **** 
 204:Generated_Source\PSoC6/CapSense_Filter.c ****     CapSense_RAM_SNS_STRUCT *ptrSensor = NULL;
 205:Generated_Source\PSoC6/CapSense_Filter.c ****     CapSense_FLASH_WD_STRUCT const *ptrWidget = &CapSense_dsFlash.wdgtArray[widgetId];
 206:Generated_Source\PSoC6/CapSense_Filter.c ****     CapSense_RAM_WD_BASE_STRUCT *ptrWidgetRam = (CapSense_RAM_WD_BASE_STRUCT *)ptrWidget->ptr2WdgtR
 207:Generated_Source\PSoC6/CapSense_Filter.c **** 
 208:Generated_Source\PSoC6/CapSense_Filter.c ****     /* Find pointer to specified sensor object */
 209:Generated_Source\PSoC6/CapSense_Filter.c ****     ptrSensor = ptrWidget->ptr2SnsRam;
 210:Generated_Source\PSoC6/CapSense_Filter.c ****     ptrSensor = &ptrSensor[sensorId];
 211:Generated_Source\PSoC6/CapSense_Filter.c ****     result = CapSense_FtUpdateBaseline(ptrWidgetRam, ptrSensor, (uint32)ptrWidget->wdgtType);
 212:Generated_Source\PSoC6/CapSense_Filter.c **** 
 213:Generated_Source\PSoC6/CapSense_Filter.c ****     #if (CapSense_ENABLE == CapSense_TST_BSLN_DUPLICATION_EN)
 214:Generated_Source\PSoC6/CapSense_Filter.c ****         if (CY_RET_SUCCESS != result)
 215:Generated_Source\PSoC6/CapSense_Filter.c ****         {
 216:Generated_Source\PSoC6/CapSense_Filter.c ****             result = CY_RET_BAD_DATA;
 217:Generated_Source\PSoC6/CapSense_Filter.c ****             CapSense_UpdateTestResultBaselineDuplication(widgetId, sensorId);
 218:Generated_Source\PSoC6/CapSense_Filter.c ****         }
 219:Generated_Source\PSoC6/CapSense_Filter.c ****     #endif /* (CapSense_ENABLE == CapSense_TST_BSLN_DUPLICATION_EN) */
 220:Generated_Source\PSoC6/CapSense_Filter.c **** 
 221:Generated_Source\PSoC6/CapSense_Filter.c ****     return result;
 222:Generated_Source\PSoC6/CapSense_Filter.c **** }
 223:Generated_Source\PSoC6/CapSense_Filter.c **** 
 224:Generated_Source\PSoC6/CapSense_Filter.c **** /*******************************************************************************
 225:Generated_Source\PSoC6/CapSense_Filter.c **** * Function Name: CapSense_FtUpdateBaseline
 226:Generated_Source\PSoC6/CapSense_Filter.c **** ****************************************************************************//**
 227:Generated_Source\PSoC6/CapSense_Filter.c **** *
 228:Generated_Source\PSoC6/CapSense_Filter.c **** * \brief
 229:Generated_Source\PSoC6/CapSense_Filter.c **** *  Updates the baseline for a sensor specified by an input parameter.
 230:Generated_Source\PSoC6/CapSense_Filter.c **** *
 231:Generated_Source\PSoC6/CapSense_Filter.c **** * \details
 232:Generated_Source\PSoC6/CapSense_Filter.c **** *  Check a matching of present baseline and its inverse duplication. If they
 233:Generated_Source\PSoC6/CapSense_Filter.c **** *  match then updates the baseline for a sensor specified by an input parameter.
 234:Generated_Source\PSoC6/CapSense_Filter.c **** *  If don't match the function return CapSense_TST_BSLN_DUPLICATION
 235:Generated_Source\PSoC6/CapSense_Filter.c **** *  result and don't update baseline.
 236:Generated_Source\PSoC6/CapSense_Filter.c **** *
 237:Generated_Source\PSoC6/CapSense_Filter.c **** * \param    ptrWidgetRam
 238:Generated_Source\PSoC6/CapSense_Filter.c **** *  The pointer to the widget RAM structure where all the widget parameters
 239:Generated_Source\PSoC6/CapSense_Filter.c **** *  are stored.
 240:Generated_Source\PSoC6/CapSense_Filter.c **** *
 241:Generated_Source\PSoC6/CapSense_Filter.c **** * \param    ptrSensor
 242:Generated_Source\PSoC6/CapSense_Filter.c **** *  The pointer to the sensor RAM structure where all the sensor parameters
 243:Generated_Source\PSoC6/CapSense_Filter.c **** *  are stored.
 244:Generated_Source\PSoC6/CapSense_Filter.c **** *
 245:Generated_Source\PSoC6/CapSense_Filter.c **** * \param    wdType
 246:Generated_Source\PSoC6/CapSense_Filter.c **** *  Specifies the type of a widget.
 247:Generated_Source\PSoC6/CapSense_Filter.c **** *
 248:Generated_Source\PSoC6/CapSense_Filter.c **** * \return
 249:Generated_Source\PSoC6/CapSense_Filter.c **** *  Returns a status indicating whether the baseline has been updated:
 250:Generated_Source\PSoC6/CapSense_Filter.c **** *  - CY_RET_SUCCESS if baseline updating was successful;
 251:Generated_Source\PSoC6/CapSense_Filter.c **** *  - CapSense_PROCESS_BASELINE_FAILED if present sensor's any channel
 252:Generated_Source\PSoC6/CapSense_Filter.c **** *    baseline and its inversion doesn't matched
 253:Generated_Source\PSoC6/CapSense_Filter.c **** *
 254:Generated_Source\PSoC6/CapSense_Filter.c **** *******************************************************************************/
 255:Generated_Source\PSoC6/CapSense_Filter.c **** uint32 CapSense_FtUpdateBaseline(
 256:Generated_Source\PSoC6/CapSense_Filter.c ****                                 CapSense_RAM_WD_BASE_STRUCT *ptrWidgetRam,
 257:Generated_Source\PSoC6/CapSense_Filter.c ****                                 CapSense_RAM_SNS_STRUCT *ptrSensor,
 258:Generated_Source\PSoC6/CapSense_Filter.c ****                                 uint32 wdType)
ARM GAS  C:\Users\codyg\AppData\Local\Temp\ccRbtLKH.s 			page 6


 259:Generated_Source\PSoC6/CapSense_Filter.c **** {
 260:Generated_Source\PSoC6/CapSense_Filter.c ****     uint32 sign;
 261:Generated_Source\PSoC6/CapSense_Filter.c ****     uint32 difference;
 262:Generated_Source\PSoC6/CapSense_Filter.c ****     uint32 freqChannel;
 263:Generated_Source\PSoC6/CapSense_Filter.c ****     uint32 baselineCoeff;
 264:Generated_Source\PSoC6/CapSense_Filter.c ****     uint32 result = CY_RET_SUCCESS;
 265:Generated_Source\PSoC6/CapSense_Filter.c **** 
 266:Generated_Source\PSoC6/CapSense_Filter.c ****     #if (CapSense_TOTAL_WIDGETS)
 267:Generated_Source\PSoC6/CapSense_Filter.c ****         uint32 history;
 268:Generated_Source\PSoC6/CapSense_Filter.c ****     #endif /* (CapSense_TOTAL_WIDGETS) */
 269:Generated_Source\PSoC6/CapSense_Filter.c **** 
 270:Generated_Source\PSoC6/CapSense_Filter.c ****     /* Apply baseline to every channel in sensor */
 271:Generated_Source\PSoC6/CapSense_Filter.c ****     for(freqChannel = CapSense_NUM_SCAN_FREQS; freqChannel-- > 0u;)
 272:Generated_Source\PSoC6/CapSense_Filter.c ****     {
 273:Generated_Source\PSoC6/CapSense_Filter.c ****         #if (CapSense_ENABLE == CapSense_TST_BSLN_DUPLICATION_EN)
 274:Generated_Source\PSoC6/CapSense_Filter.c ****             if (ptrSensor->bslnInv[freqChannel] != ((uint16) ~(ptrSensor->bsln[freqChannel])))
 275:Generated_Source\PSoC6/CapSense_Filter.c ****             {
 276:Generated_Source\PSoC6/CapSense_Filter.c ****                 result = CapSense_PROCESS_BASELINE_FAILED;
 277:Generated_Source\PSoC6/CapSense_Filter.c ****             }
 278:Generated_Source\PSoC6/CapSense_Filter.c ****             else
 279:Generated_Source\PSoC6/CapSense_Filter.c ****             {
 280:Generated_Source\PSoC6/CapSense_Filter.c ****         #endif /* (CapSense_ENABLE == CapSense_TST_BSLN_DUPLICATION_EN) */
 281:Generated_Source\PSoC6/CapSense_Filter.c **** 
 282:Generated_Source\PSoC6/CapSense_Filter.c ****         /* Calculate signal value and its sign */
 283:Generated_Source\PSoC6/CapSense_Filter.c ****         if(ptrSensor->raw[freqChannel] >= ptrSensor->bsln[freqChannel])
 284:Generated_Source\PSoC6/CapSense_Filter.c ****         {
 285:Generated_Source\PSoC6/CapSense_Filter.c ****             difference = (uint32)ptrSensor->raw[freqChannel] - (uint32)ptrSensor->bsln[freqChannel]
 286:Generated_Source\PSoC6/CapSense_Filter.c ****             sign = 1u;
 287:Generated_Source\PSoC6/CapSense_Filter.c ****             ptrSensor->negBslnRstCnt[freqChannel] = 0u;
 288:Generated_Source\PSoC6/CapSense_Filter.c ****         }
 289:Generated_Source\PSoC6/CapSense_Filter.c ****         else
 290:Generated_Source\PSoC6/CapSense_Filter.c ****         {
 291:Generated_Source\PSoC6/CapSense_Filter.c ****             difference = (uint32)ptrSensor->bsln[freqChannel] - (uint32)ptrSensor->raw[freqChannel]
 292:Generated_Source\PSoC6/CapSense_Filter.c ****             sign = 0u;
 293:Generated_Source\PSoC6/CapSense_Filter.c ****         }
 294:Generated_Source\PSoC6/CapSense_Filter.c **** 
 295:Generated_Source\PSoC6/CapSense_Filter.c ****         /* Reset baseline if condition is met */
 296:Generated_Source\PSoC6/CapSense_Filter.c ****         if((sign == 0u) && (difference > (uint32) ptrWidgetRam->nNoiseTh))
 297:Generated_Source\PSoC6/CapSense_Filter.c ****         {
 298:Generated_Source\PSoC6/CapSense_Filter.c ****             if(ptrSensor->negBslnRstCnt[freqChannel] >= ptrWidgetRam->lowBslnRst)
 299:Generated_Source\PSoC6/CapSense_Filter.c ****             {
 300:Generated_Source\PSoC6/CapSense_Filter.c ****                 CapSense_FtInitializeBaselineChannel(ptrSensor, wdType, freqChannel);
 301:Generated_Source\PSoC6/CapSense_Filter.c ****             }
 302:Generated_Source\PSoC6/CapSense_Filter.c ****             else
 303:Generated_Source\PSoC6/CapSense_Filter.c ****             {
 304:Generated_Source\PSoC6/CapSense_Filter.c ****                 ptrSensor->negBslnRstCnt[freqChannel]++;
 305:Generated_Source\PSoC6/CapSense_Filter.c ****             }
 306:Generated_Source\PSoC6/CapSense_Filter.c ****         }
 307:Generated_Source\PSoC6/CapSense_Filter.c ****         else
 308:Generated_Source\PSoC6/CapSense_Filter.c ****         {
 309:Generated_Source\PSoC6/CapSense_Filter.c ****             #if (!CapSense_SENSOR_AUTO_RESET_EN)
 310:Generated_Source\PSoC6/CapSense_Filter.c ****                 /* Update baseline only if signal is in range between noiseThreshold and negativeno
 311:Generated_Source\PSoC6/CapSense_Filter.c ****                 if ((difference <= (uint32)ptrWidgetRam->noiseTh) ||
 312:Generated_Source\PSoC6/CapSense_Filter.c ****                     ((difference < (uint32) ptrWidgetRam->nNoiseTh) && (sign == 0u)))
 313:Generated_Source\PSoC6/CapSense_Filter.c ****                 {
 314:Generated_Source\PSoC6/CapSense_Filter.c ****             #endif /* (CapSense_CSD_AUTO_RESET == CapSense_CSD_AUTO_RESET_DISABLE) */
 315:Generated_Source\PSoC6/CapSense_Filter.c **** 
ARM GAS  C:\Users\codyg\AppData\Local\Temp\ccRbtLKH.s 			page 7


 316:Generated_Source\PSoC6/CapSense_Filter.c ****             #if (CapSense_BASELINE_TYPE == CapSense_IIR_BASELINE)
 317:Generated_Source\PSoC6/CapSense_Filter.c ****                 /* Calculate baseline value */
 318:Generated_Source\PSoC6/CapSense_Filter.c ****                 if ((CapSense_WD_TYPE_ENUM)wdType != CapSense_WD_PROXIMITY_E)
 319:Generated_Source\PSoC6/CapSense_Filter.c ****                 {
 320:Generated_Source\PSoC6/CapSense_Filter.c ****                     #if (CapSense_REGULAR_SENSOR_EN)
 321:Generated_Source\PSoC6/CapSense_Filter.c ****                         #if (CapSense_REGULAR_IIR_BL_TYPE == CapSense_IIR_FILTER_PERFORMANCE)
 322:Generated_Source\PSoC6/CapSense_Filter.c ****                             history = (uint32) ptrSensor->bsln[freqChannel] << 8u;
 323:Generated_Source\PSoC6/CapSense_Filter.c ****                             history |= ptrSensor->bslnExt[freqChannel];
 324:Generated_Source\PSoC6/CapSense_Filter.c ****                         #else
 325:Generated_Source\PSoC6/CapSense_Filter.c ****                             history = ptrSensor->bsln[freqChannel];
 326:Generated_Source\PSoC6/CapSense_Filter.c ****                         #endif /* (CapSense_REGULAR_IIR_BL_TYPE == CapSense_IIR_FILTER_PERFORMANCE)
 327:Generated_Source\PSoC6/CapSense_Filter.c **** 
 328:Generated_Source\PSoC6/CapSense_Filter.c ****                         #if (CapSense_ENABLE == CapSense_WD_BSLN_COEFF_EN)
 329:Generated_Source\PSoC6/CapSense_Filter.c ****                             baselineCoeff = ptrWidgetRam->bslnCoeff;
 330:Generated_Source\PSoC6/CapSense_Filter.c ****                         #else /* (CapSense_ENABLE == CapSense_WD_BSLN_COEFF_EN) */
 331:Generated_Source\PSoC6/CapSense_Filter.c ****                             baselineCoeff = CapSense_REGULAR_IIR_BL_N;
 332:Generated_Source\PSoC6/CapSense_Filter.c ****                         #endif /* (CapSense_ENABLE == CapSense_WD_BSLN_COEFF_EN) */
 333:Generated_Source\PSoC6/CapSense_Filter.c **** 
 334:Generated_Source\PSoC6/CapSense_Filter.c ****                         history =  CapSense_FtIIR1stOrder(
 335:Generated_Source\PSoC6/CapSense_Filter.c ****                                         (uint32)ptrSensor->raw[freqChannel],
 336:Generated_Source\PSoC6/CapSense_Filter.c ****                                         history, baselineCoeff,
 337:Generated_Source\PSoC6/CapSense_Filter.c ****                                         CapSense_REGULAR_IIR_BL_SHIFT);
 338:Generated_Source\PSoC6/CapSense_Filter.c **** 
 339:Generated_Source\PSoC6/CapSense_Filter.c ****                         #if (CapSense_REGULAR_IIR_BL_TYPE == CapSense_IIR_FILTER_PERFORMANCE)
 340:Generated_Source\PSoC6/CapSense_Filter.c ****                                     ptrSensor->bsln[freqChannel] = CY_LO16(history >> 8u);
 341:Generated_Source\PSoC6/CapSense_Filter.c ****                                     ptrSensor->bslnExt[freqChannel] = CY_LO8(history);
 342:Generated_Source\PSoC6/CapSense_Filter.c ****                         #else
 343:Generated_Source\PSoC6/CapSense_Filter.c ****                                     ptrSensor->bsln[freqChannel] = CY_LO16(history);
 344:Generated_Source\PSoC6/CapSense_Filter.c ****                         #endif /* (CapSense_REGULAR_IIR_BL_TYPE == CapSense_IIR_FILTER_PERFORMANCE)
 345:Generated_Source\PSoC6/CapSense_Filter.c ****                     #endif /* (CapSense_REGULAR_SENSOR_EN) */
 346:Generated_Source\PSoC6/CapSense_Filter.c ****                 }
 347:Generated_Source\PSoC6/CapSense_Filter.c ****                 else
 348:Generated_Source\PSoC6/CapSense_Filter.c ****                 {
 349:Generated_Source\PSoC6/CapSense_Filter.c ****                     #if (CapSense_PROXIMITY_SENSOR_EN)
 350:Generated_Source\PSoC6/CapSense_Filter.c ****                         #if (CapSense_PROX_IIR_BL_TYPE == CapSense_IIR_FILTER_PERFORMANCE)
 351:Generated_Source\PSoC6/CapSense_Filter.c ****                             history = (uint32) ptrSensor->bsln[freqChannel] << 8u;
 352:Generated_Source\PSoC6/CapSense_Filter.c ****                             history |= ptrSensor->bslnExt[freqChannel];
 353:Generated_Source\PSoC6/CapSense_Filter.c ****                         #else
 354:Generated_Source\PSoC6/CapSense_Filter.c ****                             history = (uint32) ptrSensor->bsln[freqChannel];
 355:Generated_Source\PSoC6/CapSense_Filter.c ****                         #endif /* (CapSense_PROX_IIR_BL_TYPE == CapSense_IIR_FILTER_PERFORMANCE) */
 356:Generated_Source\PSoC6/CapSense_Filter.c **** 
 357:Generated_Source\PSoC6/CapSense_Filter.c ****                         #if (CapSense_ENABLE == CapSense_WD_BSLN_COEFF_EN)
 358:Generated_Source\PSoC6/CapSense_Filter.c ****                             baselineCoeff = ptrWidgetRam->bslnCoeff;
 359:Generated_Source\PSoC6/CapSense_Filter.c ****                         #else /* (CapSense_ENABLE == CapSense_WD_BSLN_COEFF_EN) */
 360:Generated_Source\PSoC6/CapSense_Filter.c ****                             baselineCoeff = CapSense_PROX_IIR_BL_N;
 361:Generated_Source\PSoC6/CapSense_Filter.c ****                         #endif /* (CapSense_ENABLE == CapSense_WD_BSLN_COEFF_EN) */
 362:Generated_Source\PSoC6/CapSense_Filter.c **** 
 363:Generated_Source\PSoC6/CapSense_Filter.c ****                         history = CapSense_FtIIR1stOrder(
 364:Generated_Source\PSoC6/CapSense_Filter.c ****                                         (uint32)ptrSensor->raw[freqChannel],
 365:Generated_Source\PSoC6/CapSense_Filter.c ****                                         history, baselineCoeff,
 366:Generated_Source\PSoC6/CapSense_Filter.c ****                                         CapSense_PROX_IIR_BL_SHIFT);
 367:Generated_Source\PSoC6/CapSense_Filter.c **** 
 368:Generated_Source\PSoC6/CapSense_Filter.c ****                         #if (CapSense_PROX_IIR_BL_TYPE == CapSense_IIR_FILTER_PERFORMANCE)
 369:Generated_Source\PSoC6/CapSense_Filter.c ****                                     ptrSensor->bsln[freqChannel] = CY_LO16(history >> 8u);
 370:Generated_Source\PSoC6/CapSense_Filter.c ****                                     ptrSensor->bslnExt[freqChannel] = CY_LO8(history);
 371:Generated_Source\PSoC6/CapSense_Filter.c ****                         #else
 372:Generated_Source\PSoC6/CapSense_Filter.c ****                                     ptrSensor->bsln[freqChannel] = CY_LO16(history);
ARM GAS  C:\Users\codyg\AppData\Local\Temp\ccRbtLKH.s 			page 8


 373:Generated_Source\PSoC6/CapSense_Filter.c ****                         #endif /* (CapSense_PROX_IIR_BL_TYPE == CapSense_IIR_FILTER_PERFORMANCE) */
 374:Generated_Source\PSoC6/CapSense_Filter.c ****                     #endif /* (CapSense_PROX_SENSOR_EN) */
 375:Generated_Source\PSoC6/CapSense_Filter.c ****                 }
 376:Generated_Source\PSoC6/CapSense_Filter.c ****             #else /* (CapSense_CSD_BASELINE_TYPE == CapSense_IIR_BASELINE) */
 377:Generated_Source\PSoC6/CapSense_Filter.c **** 
 378:Generated_Source\PSoC6/CapSense_Filter.c ****                 /******************************************************************
 379:Generated_Source\PSoC6/CapSense_Filter.c ****                 * This is the place where the bucket algorithm should be implemented.
 380:Generated_Source\PSoC6/CapSense_Filter.c ****                 * The bucket method will be implemented in future Component version.
 381:Generated_Source\PSoC6/CapSense_Filter.c ****                 *******************************************************************/
 382:Generated_Source\PSoC6/CapSense_Filter.c **** 
 383:Generated_Source\PSoC6/CapSense_Filter.c ****             #endif /* (CapSense_CSD_BASELINE_TYPE == CapSense_IIR_BASELINE) */
 384:Generated_Source\PSoC6/CapSense_Filter.c **** 
 385:Generated_Source\PSoC6/CapSense_Filter.c ****             #if (!CapSense_SENSOR_AUTO_RESET_EN)
 386:Generated_Source\PSoC6/CapSense_Filter.c ****                 }
 387:Generated_Source\PSoC6/CapSense_Filter.c ****             #endif /* (!CapSense_SENSOR_AUTO_RESET_EN) */
 388:Generated_Source\PSoC6/CapSense_Filter.c ****         }
 389:Generated_Source\PSoC6/CapSense_Filter.c **** 
 390:Generated_Source\PSoC6/CapSense_Filter.c ****         #if (CapSense_ENABLE == CapSense_TST_BSLN_DUPLICATION_EN)
 391:Generated_Source\PSoC6/CapSense_Filter.c ****             /* Update baseline inversion of every channel in sensor */
 392:Generated_Source\PSoC6/CapSense_Filter.c ****             ptrSensor->bslnInv[freqChannel] = ~(ptrSensor->bsln[freqChannel]);
 393:Generated_Source\PSoC6/CapSense_Filter.c ****             }
 394:Generated_Source\PSoC6/CapSense_Filter.c ****         #endif /* (CapSense_ENABLE == CapSense_TST_BSLN_DUPLICATION_EN) */
 395:Generated_Source\PSoC6/CapSense_Filter.c **** 
 396:Generated_Source\PSoC6/CapSense_Filter.c ****     }
 397:Generated_Source\PSoC6/CapSense_Filter.c ****     return result;
 398:Generated_Source\PSoC6/CapSense_Filter.c **** }
 399:Generated_Source\PSoC6/CapSense_Filter.c **** 
 400:Generated_Source\PSoC6/CapSense_Filter.c **** 
 401:Generated_Source\PSoC6/CapSense_Filter.c **** /*******************************************************************************
 402:Generated_Source\PSoC6/CapSense_Filter.c **** * Function Name: CapSense_InitializeAllBaselines
 403:Generated_Source\PSoC6/CapSense_Filter.c **** ****************************************************************************//**
 404:Generated_Source\PSoC6/CapSense_Filter.c **** *
 405:Generated_Source\PSoC6/CapSense_Filter.c **** * \brief
 406:Generated_Source\PSoC6/CapSense_Filter.c **** *  Initializes (or re-initializes) the baselines of all the sensors of all the widgets.
 407:Generated_Source\PSoC6/CapSense_Filter.c **** *
 408:Generated_Source\PSoC6/CapSense_Filter.c **** * \details
 409:Generated_Source\PSoC6/CapSense_Filter.c **** *  Initializes the baseline for all the sensors of all the widgets. Also, this function
 410:Generated_Source\PSoC6/CapSense_Filter.c **** *  can be used to re-initialize baselines. CapSense_Start() calls this
 411:Generated_Source\PSoC6/CapSense_Filter.c **** *  API as part of CapSense operation initialization.
 412:Generated_Source\PSoC6/CapSense_Filter.c **** *  
 413:Generated_Source\PSoC6/CapSense_Filter.c **** *  If any raw count filter is enabled, make sure the raw count filter history is 
 414:Generated_Source\PSoC6/CapSense_Filter.c **** *  initialized as well using one of these functions:
 415:Generated_Source\PSoC6/CapSense_Filter.c **** *  - CapSense_InitializeAllFilters().
 416:Generated_Source\PSoC6/CapSense_Filter.c **** *  - CapSense_InitializeWidgetFilter().
 417:Generated_Source\PSoC6/CapSense_Filter.c **** *
 418:Generated_Source\PSoC6/CapSense_Filter.c **** *******************************************************************************/
 419:Generated_Source\PSoC6/CapSense_Filter.c **** void CapSense_InitializeAllBaselines(void)
 420:Generated_Source\PSoC6/CapSense_Filter.c **** {
 421:Generated_Source\PSoC6/CapSense_Filter.c ****     uint32 widgetId;
 422:Generated_Source\PSoC6/CapSense_Filter.c **** 
 423:Generated_Source\PSoC6/CapSense_Filter.c ****     for(widgetId = CapSense_TOTAL_WIDGETS; widgetId-- > 0u;)
 424:Generated_Source\PSoC6/CapSense_Filter.c ****     {
 425:Generated_Source\PSoC6/CapSense_Filter.c ****         CapSense_InitializeWidgetBaseline(widgetId);
 426:Generated_Source\PSoC6/CapSense_Filter.c ****     }
 427:Generated_Source\PSoC6/CapSense_Filter.c **** }
 428:Generated_Source\PSoC6/CapSense_Filter.c **** 
 429:Generated_Source\PSoC6/CapSense_Filter.c **** 
ARM GAS  C:\Users\codyg\AppData\Local\Temp\ccRbtLKH.s 			page 9


 430:Generated_Source\PSoC6/CapSense_Filter.c **** /*******************************************************************************
 431:Generated_Source\PSoC6/CapSense_Filter.c **** * Function Name: CapSense_InitializeWidgetBaseline
 432:Generated_Source\PSoC6/CapSense_Filter.c **** ****************************************************************************//**
 433:Generated_Source\PSoC6/CapSense_Filter.c **** *
 434:Generated_Source\PSoC6/CapSense_Filter.c **** * \brief
 435:Generated_Source\PSoC6/CapSense_Filter.c **** *  Initializes (or re-initializes) the baselines of all the sensors in a widget
 436:Generated_Source\PSoC6/CapSense_Filter.c **** *  specified by the input parameter.
 437:Generated_Source\PSoC6/CapSense_Filter.c **** *
 438:Generated_Source\PSoC6/CapSense_Filter.c **** * \details
 439:Generated_Source\PSoC6/CapSense_Filter.c **** *  Initializes (or re-initializes) the baseline for all the sensors of the
 440:Generated_Source\PSoC6/CapSense_Filter.c **** *  specified widget.
 441:Generated_Source\PSoC6/CapSense_Filter.c **** *  
 442:Generated_Source\PSoC6/CapSense_Filter.c **** *  If any raw count filter is enabled, make sure the raw count filter history is 
 443:Generated_Source\PSoC6/CapSense_Filter.c **** *  initialized as well using one of these functions:
 444:Generated_Source\PSoC6/CapSense_Filter.c **** *  - CapSense_InitializeAllFilters().
 445:Generated_Source\PSoC6/CapSense_Filter.c **** *  - CapSense_InitializeWidgetFilter().
 446:Generated_Source\PSoC6/CapSense_Filter.c **** *
 447:Generated_Source\PSoC6/CapSense_Filter.c **** * \param  widgetId
 448:Generated_Source\PSoC6/CapSense_Filter.c **** *  Specifies the ID number of a widget to initialize the baseline of all the sensors
 449:Generated_Source\PSoC6/CapSense_Filter.c **** *  in the widget.
 450:Generated_Source\PSoC6/CapSense_Filter.c **** *  A macro for the widget ID can be found in the
 451:Generated_Source\PSoC6/CapSense_Filter.c **** *  CapSense Configuration header file defined as
 452:Generated_Source\PSoC6/CapSense_Filter.c **** *  CapSense_<WidgetName>_WDGT_ID.
 453:Generated_Source\PSoC6/CapSense_Filter.c **** *
 454:Generated_Source\PSoC6/CapSense_Filter.c **** *******************************************************************************/
 455:Generated_Source\PSoC6/CapSense_Filter.c **** void CapSense_InitializeWidgetBaseline(uint32 widgetId)
 456:Generated_Source\PSoC6/CapSense_Filter.c **** {
 457:Generated_Source\PSoC6/CapSense_Filter.c ****     uint32 sensorId;
 458:Generated_Source\PSoC6/CapSense_Filter.c ****     uint32 sensorsNumber;
 459:Generated_Source\PSoC6/CapSense_Filter.c **** 
 460:Generated_Source\PSoC6/CapSense_Filter.c ****     CapSense_FLASH_WD_STRUCT const *ptrWidget = &CapSense_dsFlash.wdgtArray[widgetId];
 461:Generated_Source\PSoC6/CapSense_Filter.c **** 
 462:Generated_Source\PSoC6/CapSense_Filter.c ****     /* Find total amount of sensors in specified widget */
 463:Generated_Source\PSoC6/CapSense_Filter.c ****     sensorsNumber = CapSense_GET_SNS_CNT_BY_PTR(ptrWidget);
 464:Generated_Source\PSoC6/CapSense_Filter.c **** 
 465:Generated_Source\PSoC6/CapSense_Filter.c ****     for(sensorId = sensorsNumber; sensorId-- > 0u;)
 466:Generated_Source\PSoC6/CapSense_Filter.c ****     {
 467:Generated_Source\PSoC6/CapSense_Filter.c ****         CapSense_InitializeSensorBaseline(widgetId, sensorId);
 468:Generated_Source\PSoC6/CapSense_Filter.c ****     }
 469:Generated_Source\PSoC6/CapSense_Filter.c **** }
 470:Generated_Source\PSoC6/CapSense_Filter.c **** 
 471:Generated_Source\PSoC6/CapSense_Filter.c **** 
 472:Generated_Source\PSoC6/CapSense_Filter.c **** /*******************************************************************************
 473:Generated_Source\PSoC6/CapSense_Filter.c **** * Function Name: CapSense_InitializeSensorBaseline
 474:Generated_Source\PSoC6/CapSense_Filter.c **** ****************************************************************************//**
 475:Generated_Source\PSoC6/CapSense_Filter.c **** *
 476:Generated_Source\PSoC6/CapSense_Filter.c **** * \brief
 477:Generated_Source\PSoC6/CapSense_Filter.c **** *  Initializes (or re-initializes) the baseline of a sensor in a widget specified
 478:Generated_Source\PSoC6/CapSense_Filter.c **** *  by the input parameters.
 479:Generated_Source\PSoC6/CapSense_Filter.c **** *
 480:Generated_Source\PSoC6/CapSense_Filter.c **** * \details
 481:Generated_Source\PSoC6/CapSense_Filter.c **** *  Initializes (or re-initializes) the baseline for a specified sensor within
 482:Generated_Source\PSoC6/CapSense_Filter.c **** *  a specified widget.
 483:Generated_Source\PSoC6/CapSense_Filter.c **** *
 484:Generated_Source\PSoC6/CapSense_Filter.c **** * \param    widgetId
 485:Generated_Source\PSoC6/CapSense_Filter.c **** *  Specifies the ID number of a widget to initialize the baseline of the sensor
 486:Generated_Source\PSoC6/CapSense_Filter.c **** *  in the widget.
ARM GAS  C:\Users\codyg\AppData\Local\Temp\ccRbtLKH.s 			page 10


 487:Generated_Source\PSoC6/CapSense_Filter.c **** *  A macro for the widget ID can be found in the
 488:Generated_Source\PSoC6/CapSense_Filter.c **** *  CapSense Configuration header file defined as
 489:Generated_Source\PSoC6/CapSense_Filter.c **** *  CapSense_<WidgetName>_WDGT_ID.
 490:Generated_Source\PSoC6/CapSense_Filter.c **** *
 491:Generated_Source\PSoC6/CapSense_Filter.c **** * \param    sensorId
 492:Generated_Source\PSoC6/CapSense_Filter.c **** *  Specifies the ID number of the sensor within the widget to initialize its
 493:Generated_Source\PSoC6/CapSense_Filter.c **** *  baseline.
 494:Generated_Source\PSoC6/CapSense_Filter.c **** *  A macro for the sensor ID within a specified widget can be found in the
 495:Generated_Source\PSoC6/CapSense_Filter.c **** *  CapSense Configuration header file defined as
 496:Generated_Source\PSoC6/CapSense_Filter.c **** *  CapSense_<WidgetName>_SNS<SensorNumber>_ID.
 497:Generated_Source\PSoC6/CapSense_Filter.c **** *
 498:Generated_Source\PSoC6/CapSense_Filter.c **** *******************************************************************************/
 499:Generated_Source\PSoC6/CapSense_Filter.c **** void CapSense_InitializeSensorBaseline(uint32 widgetId, uint32 sensorId)
 500:Generated_Source\PSoC6/CapSense_Filter.c **** {
 501:Generated_Source\PSoC6/CapSense_Filter.c ****     CapSense_RAM_SNS_STRUCT *ptrSensor = NULL;
 502:Generated_Source\PSoC6/CapSense_Filter.c ****     CapSense_FLASH_WD_STRUCT const *ptrWidget = NULL;
 503:Generated_Source\PSoC6/CapSense_Filter.c ****     ptrWidget = &CapSense_dsFlash.wdgtArray[widgetId];
 504:Generated_Source\PSoC6/CapSense_Filter.c **** 
 505:Generated_Source\PSoC6/CapSense_Filter.c ****     /* Find pointer to specified sensor object */
 506:Generated_Source\PSoC6/CapSense_Filter.c ****     ptrSensor = ptrWidget->ptr2SnsRam;
 507:Generated_Source\PSoC6/CapSense_Filter.c ****     ptrSensor = &ptrSensor[sensorId];
 508:Generated_Source\PSoC6/CapSense_Filter.c **** 
 509:Generated_Source\PSoC6/CapSense_Filter.c ****     CapSense_FtInitializeBaseline(ptrSensor, (uint32)ptrWidget->wdgtType);
 510:Generated_Source\PSoC6/CapSense_Filter.c **** }
 511:Generated_Source\PSoC6/CapSense_Filter.c **** 
 512:Generated_Source\PSoC6/CapSense_Filter.c **** 
 513:Generated_Source\PSoC6/CapSense_Filter.c **** /*******************************************************************************
 514:Generated_Source\PSoC6/CapSense_Filter.c **** * Function Name: CapSense_FtInitializeBaseline
 515:Generated_Source\PSoC6/CapSense_Filter.c **** ****************************************************************************//**
 516:Generated_Source\PSoC6/CapSense_Filter.c **** *
 517:Generated_Source\PSoC6/CapSense_Filter.c **** * \brief    Initializes the baseline history for a sensor indicated by an input
 518:Generated_Source\PSoC6/CapSense_Filter.c **** *           parameter.
 519:Generated_Source\PSoC6/CapSense_Filter.c **** *
 520:Generated_Source\PSoC6/CapSense_Filter.c **** * \details  Initializes the baseline history for a sensor indicated by an input
 521:Generated_Source\PSoC6/CapSense_Filter.c **** *           parameter.
 522:Generated_Source\PSoC6/CapSense_Filter.c **** *
 523:Generated_Source\PSoC6/CapSense_Filter.c **** * \param    *ptrSensor The pointer to the sensor RAM object.
 524:Generated_Source\PSoC6/CapSense_Filter.c **** * \param    wdType     Specifies the type of a widget.
 525:Generated_Source\PSoC6/CapSense_Filter.c **** *
 526:Generated_Source\PSoC6/CapSense_Filter.c **** *******************************************************************************/
 527:Generated_Source\PSoC6/CapSense_Filter.c **** void CapSense_FtInitializeBaseline(CapSense_RAM_SNS_STRUCT *ptrSensor, uint32 wdType)
 528:Generated_Source\PSoC6/CapSense_Filter.c **** {
 529:Generated_Source\PSoC6/CapSense_Filter.c ****     uint32 freqChannel;
 530:Generated_Source\PSoC6/CapSense_Filter.c **** 
 531:Generated_Source\PSoC6/CapSense_Filter.c ****     /* Apply baseline initialization to every channel in sensor */
 532:Generated_Source\PSoC6/CapSense_Filter.c ****     for(freqChannel = CapSense_NUM_SCAN_FREQS; freqChannel-- > 0u;)
 533:Generated_Source\PSoC6/CapSense_Filter.c ****     {
 534:Generated_Source\PSoC6/CapSense_Filter.c ****         CapSense_FtInitializeBaselineChannel(ptrSensor, wdType, freqChannel);
 535:Generated_Source\PSoC6/CapSense_Filter.c ****     }
 536:Generated_Source\PSoC6/CapSense_Filter.c **** }
 537:Generated_Source\PSoC6/CapSense_Filter.c **** 
 538:Generated_Source\PSoC6/CapSense_Filter.c **** 
 539:Generated_Source\PSoC6/CapSense_Filter.c **** /*******************************************************************************
 540:Generated_Source\PSoC6/CapSense_Filter.c **** * Function Name: CapSense_FtInitializeBaselineChannel
 541:Generated_Source\PSoC6/CapSense_Filter.c **** ****************************************************************************//**
 542:Generated_Source\PSoC6/CapSense_Filter.c **** *
 543:Generated_Source\PSoC6/CapSense_Filter.c **** * \brief    Initializes the baseline history for a sensor indicated by an input
ARM GAS  C:\Users\codyg\AppData\Local\Temp\ccRbtLKH.s 			page 11


 544:Generated_Source\PSoC6/CapSense_Filter.c **** *           parameter.
 545:Generated_Source\PSoC6/CapSense_Filter.c **** *
 546:Generated_Source\PSoC6/CapSense_Filter.c **** * \details  Initializes the baseline history for a sensor indicated by an input
 547:Generated_Source\PSoC6/CapSense_Filter.c **** *           parameter.
 548:Generated_Source\PSoC6/CapSense_Filter.c **** *
 549:Generated_Source\PSoC6/CapSense_Filter.c **** * \param    *ptrSensor The pointer to the sensor RAM object.
 550:Generated_Source\PSoC6/CapSense_Filter.c **** * \param    wdType     Specifies the type of a widget.
 551:Generated_Source\PSoC6/CapSense_Filter.c **** * \param    channel    Specifies the number of the channel to be initialized.
 552:Generated_Source\PSoC6/CapSense_Filter.c **** *
 553:Generated_Source\PSoC6/CapSense_Filter.c **** *******************************************************************************/
 554:Generated_Source\PSoC6/CapSense_Filter.c **** void CapSense_FtInitializeBaselineChannel(CapSense_RAM_SNS_STRUCT *ptrSensor, uint32 wdType, uint32
 555:Generated_Source\PSoC6/CapSense_Filter.c **** {
  28              		.loc 1 555 0
  29              		.cfi_startproc
  30              		@ args = 0, pretend = 0, frame = 0
  31              		@ frame_needed = 0, uses_anonymous_args = 0
  32              		@ link register save eliminated.
  33              	.LVL0:
 556:Generated_Source\PSoC6/CapSense_Filter.c ****     #if (CapSense_BASELINE_TYPE == CapSense_IIR_BASELINE)
 557:Generated_Source\PSoC6/CapSense_Filter.c ****         if ((CapSense_WD_TYPE_ENUM)wdType != CapSense_WD_PROXIMITY_E)
  34              		.loc 1 557 0
  35 0000 FF23     		movs	r3, #255
  36 0002 1940     		ands	r1, r3
  37              	.LVL1:
  38 0004 0629     		cmp	r1, #6
  39 0006 02D1     		bne	.L2
 558:Generated_Source\PSoC6/CapSense_Filter.c ****         {
 559:Generated_Source\PSoC6/CapSense_Filter.c ****             #if (CapSense_REGULAR_SENSOR_EN)
 560:Generated_Source\PSoC6/CapSense_Filter.c ****                 #if (CapSense_REGULAR_IIR_BL_TYPE == CapSense_IIR_FILTER_PERFORMANCE)
 561:Generated_Source\PSoC6/CapSense_Filter.c ****                     ptrSensor->bslnExt[channel] = 0u;
 562:Generated_Source\PSoC6/CapSense_Filter.c ****                 #endif /* (CapSense_REGULAR_IIR_BL_TYPE == CapSense_IIR_FILTER_PERFORMANCE) */
 563:Generated_Source\PSoC6/CapSense_Filter.c ****             #endif /* (CapSense_REGULAR_SENSOR_EN) */
 564:Generated_Source\PSoC6/CapSense_Filter.c ****         }
 565:Generated_Source\PSoC6/CapSense_Filter.c ****         else
 566:Generated_Source\PSoC6/CapSense_Filter.c ****         {
 567:Generated_Source\PSoC6/CapSense_Filter.c ****             #if (CapSense_PROXIMITY_SENSOR_EN)
 568:Generated_Source\PSoC6/CapSense_Filter.c ****                 #if (CapSense_PROX_IIR_BL_TYPE == CapSense_IIR_FILTER_PERFORMANCE)
 569:Generated_Source\PSoC6/CapSense_Filter.c ****                     ptrSensor->bslnExt[channel] = 0u;
  40              		.loc 1 569 0
  41 0008 8318     		adds	r3, r0, r2
  42 000a 0021     		movs	r1, #0
  43 000c 1971     		strb	r1, [r3, #4]
  44              	.L2:
 570:Generated_Source\PSoC6/CapSense_Filter.c ****                 #endif /* (CapSense_PROX_IIR_BL_TYPE == CapSense_IIR_FILTER_PERFORMANCE) */
 571:Generated_Source\PSoC6/CapSense_Filter.c ****             #endif /* (CapSense_PROX_SENSOR_EN) */
 572:Generated_Source\PSoC6/CapSense_Filter.c ****         }
 573:Generated_Source\PSoC6/CapSense_Filter.c ****     #else
 574:Generated_Source\PSoC6/CapSense_Filter.c ****         /* CapSense_BASELINE_TYPE == CapSense_BUCKET_BASELINE */
 575:Generated_Source\PSoC6/CapSense_Filter.c ****         ptrSensor->bslnExt[channel] = 0u;
 576:Generated_Source\PSoC6/CapSense_Filter.c ****     #endif /* (CapSense_BASELINE_TYPE == CapSense_IIR_BASELINE) */
 577:Generated_Source\PSoC6/CapSense_Filter.c **** 
 578:Generated_Source\PSoC6/CapSense_Filter.c ****     ptrSensor->bsln[channel] = ptrSensor->raw[channel];
  45              		.loc 1 578 0
  46 000e 5300     		lsls	r3, r2, #1
  47 0010 195A     		ldrh	r1, [r3, r0]
  48 0012 C318     		adds	r3, r0, r3
  49 0014 5980     		strh	r1, [r3, #2]
ARM GAS  C:\Users\codyg\AppData\Local\Temp\ccRbtLKH.s 			page 12


 579:Generated_Source\PSoC6/CapSense_Filter.c **** 
 580:Generated_Source\PSoC6/CapSense_Filter.c ****     #if (CapSense_ENABLE == CapSense_TST_BSLN_DUPLICATION_EN)
 581:Generated_Source\PSoC6/CapSense_Filter.c ****     /* Update baseline inversion of the channel in sensor */
 582:Generated_Source\PSoC6/CapSense_Filter.c ****         ptrSensor->bslnInv[channel] = ~(ptrSensor->bsln[channel]);
 583:Generated_Source\PSoC6/CapSense_Filter.c ****     #endif /* (CapSense_ENABLE == CapSense_TST_BSLN_DUPLICATION_EN) */
 584:Generated_Source\PSoC6/CapSense_Filter.c **** 
 585:Generated_Source\PSoC6/CapSense_Filter.c ****     ptrSensor->negBslnRstCnt[channel] = 0u;
  50              		.loc 1 585 0
  51 0016 8218     		adds	r2, r0, r2
  52              	.LVL2:
  53 0018 0023     		movs	r3, #0
  54 001a 1372     		strb	r3, [r2, #8]
 586:Generated_Source\PSoC6/CapSense_Filter.c **** }
  55              		.loc 1 586 0
  56              		@ sp needed
  57 001c 7047     		bx	lr
  58              		.cfi_endproc
  59              	.LFE45:
  60              		.size	CapSense_FtInitializeBaselineChannel, .-CapSense_FtInitializeBaselineChannel
  61 001e C046     		.section	.text.CapSense_FtInitializeBaseline,"ax",%progbits
  62              		.align	2
  63              		.global	CapSense_FtInitializeBaseline
  64              		.code	16
  65              		.thumb_func
  66              		.type	CapSense_FtInitializeBaseline, %function
  67              	CapSense_FtInitializeBaseline:
  68              	.LFB44:
 528:Generated_Source\PSoC6/CapSense_Filter.c ****     uint32 freqChannel;
  69              		.loc 1 528 0
  70              		.cfi_startproc
  71              		@ args = 0, pretend = 0, frame = 0
  72              		@ frame_needed = 0, uses_anonymous_args = 0
  73              	.LVL3:
  74 0000 70B5     		push	{r4, r5, r6, lr}
  75              		.cfi_def_cfa_offset 16
  76              		.cfi_offset 4, -16
  77              		.cfi_offset 5, -12
  78              		.cfi_offset 6, -8
  79              		.cfi_offset 14, -4
  80 0002 0600     		movs	r6, r0
  81 0004 0D00     		movs	r5, r1
  82              	.LVL4:
 532:Generated_Source\PSoC6/CapSense_Filter.c ****     {
  83              		.loc 1 532 0
  84 0006 0123     		movs	r3, #1
  85 0008 05E0     		b	.L4
  86              	.LVL5:
  87              	.L5:
 534:Generated_Source\PSoC6/CapSense_Filter.c ****     }
  88              		.loc 1 534 0
  89 000a 2200     		movs	r2, r4
  90 000c 2900     		movs	r1, r5
  91 000e 3000     		movs	r0, r6
  92 0010 FFF7FEFF 		bl	CapSense_FtInitializeBaselineChannel
  93              	.LVL6:
 532:Generated_Source\PSoC6/CapSense_Filter.c ****     {
  94              		.loc 1 532 0
ARM GAS  C:\Users\codyg\AppData\Local\Temp\ccRbtLKH.s 			page 13


  95 0014 2300     		movs	r3, r4
  96              	.LVL7:
  97              	.L4:
 532:Generated_Source\PSoC6/CapSense_Filter.c ****     {
  98              		.loc 1 532 0 is_stmt 0 discriminator 1
  99 0016 5C1E     		subs	r4, r3, #1
 100              	.LVL8:
 101 0018 002B     		cmp	r3, #0
 102 001a F6D1     		bne	.L5
 536:Generated_Source\PSoC6/CapSense_Filter.c **** 
 103              		.loc 1 536 0 is_stmt 1
 104              		@ sp needed
 105              	.LVL9:
 106              	.LVL10:
 107              	.LVL11:
 108 001c 70BD     		pop	{r4, r5, r6, pc}
 109              		.cfi_endproc
 110              	.LFE44:
 111              		.size	CapSense_FtInitializeBaseline, .-CapSense_FtInitializeBaseline
 112 001e C046     		.section	.text.CapSense_InitializeSensorBaseline,"ax",%progbits
 113              		.align	2
 114              		.global	CapSense_InitializeSensorBaseline
 115              		.code	16
 116              		.thumb_func
 117              		.type	CapSense_InitializeSensorBaseline, %function
 118              	CapSense_InitializeSensorBaseline:
 119              	.LFB43:
 500:Generated_Source\PSoC6/CapSense_Filter.c ****     CapSense_RAM_SNS_STRUCT *ptrSensor = NULL;
 120              		.loc 1 500 0
 121              		.cfi_startproc
 122              		@ args = 0, pretend = 0, frame = 0
 123              		@ frame_needed = 0, uses_anonymous_args = 0
 124              	.LVL12:
 125 0000 70B5     		push	{r4, r5, r6, lr}
 126              		.cfi_def_cfa_offset 16
 127              		.cfi_offset 4, -16
 128              		.cfi_offset 5, -12
 129              		.cfi_offset 6, -8
 130              		.cfi_offset 14, -4
 131              	.LVL13:
 506:Generated_Source\PSoC6/CapSense_Filter.c ****     ptrSensor = &ptrSensor[sensorId];
 132              		.loc 1 506 0
 133 0002 094C     		ldr	r4, .L7
 134 0004 C300     		lsls	r3, r0, #3
 135 0006 1D1A     		subs	r5, r3, r0
 136 0008 AA00     		lsls	r2, r5, #2
 137 000a A218     		adds	r2, r4, r2
 138 000c 9568     		ldr	r5, [r2, #8]
 139              	.LVL14:
 507:Generated_Source\PSoC6/CapSense_Filter.c **** 
 140              		.loc 1 507 0
 141 000e 8A00     		lsls	r2, r1, #2
 142 0010 5118     		adds	r1, r2, r1
 143              	.LVL15:
 144 0012 4A00     		lsls	r2, r1, #1
 145 0014 AA18     		adds	r2, r5, r2
 146              	.LVL16:
ARM GAS  C:\Users\codyg\AppData\Local\Temp\ccRbtLKH.s 			page 14


 509:Generated_Source\PSoC6/CapSense_Filter.c **** }
 147              		.loc 1 509 0
 148 0016 1B1A     		subs	r3, r3, r0
 149 0018 9900     		lsls	r1, r3, #2
 150 001a 6118     		adds	r1, r4, r1
 151 001c 897E     		ldrb	r1, [r1, #26]
 152 001e 1000     		movs	r0, r2
 153              	.LVL17:
 154 0020 FFF7FEFF 		bl	CapSense_FtInitializeBaseline
 155              	.LVL18:
 510:Generated_Source\PSoC6/CapSense_Filter.c **** 
 156              		.loc 1 510 0
 157              		@ sp needed
 158              	.LVL19:
 159 0024 70BD     		pop	{r4, r5, r6, pc}
 160              	.L8:
 161 0026 C046     		.align	2
 162              	.L7:
 163 0028 00000000 		.word	CapSense_dsFlash
 164              		.cfi_endproc
 165              	.LFE43:
 166              		.size	CapSense_InitializeSensorBaseline, .-CapSense_InitializeSensorBaseline
 167              		.section	.text.CapSense_InitializeWidgetBaseline,"ax",%progbits
 168              		.align	2
 169              		.global	CapSense_InitializeWidgetBaseline
 170              		.code	16
 171              		.thumb_func
 172              		.type	CapSense_InitializeWidgetBaseline, %function
 173              	CapSense_InitializeWidgetBaseline:
 174              	.LFB42:
 456:Generated_Source\PSoC6/CapSense_Filter.c ****     uint32 sensorId;
 175              		.loc 1 456 0
 176              		.cfi_startproc
 177              		@ args = 0, pretend = 0, frame = 0
 178              		@ frame_needed = 0, uses_anonymous_args = 0
 179              	.LVL20:
 180 0000 70B5     		push	{r4, r5, r6, lr}
 181              		.cfi_def_cfa_offset 16
 182              		.cfi_offset 4, -16
 183              		.cfi_offset 5, -12
 184              		.cfi_offset 6, -8
 185              		.cfi_offset 14, -4
 186 0002 0500     		movs	r5, r0
 187              	.LVL21:
 463:Generated_Source\PSoC6/CapSense_Filter.c **** 
 188              		.loc 1 463 0
 189 0004 C200     		lsls	r2, r0, #3
 190 0006 121A     		subs	r2, r2, r0
 191 0008 9300     		lsls	r3, r2, #2
 192 000a 064A     		ldr	r2, .L12
 193 000c D318     		adds	r3, r2, r3
 194 000e 1B8B     		ldrh	r3, [r3, #24]
 195              	.LVL22:
 465:Generated_Source\PSoC6/CapSense_Filter.c ****     {
 196              		.loc 1 465 0
 197 0010 04E0     		b	.L10
 198              	.LVL23:
ARM GAS  C:\Users\codyg\AppData\Local\Temp\ccRbtLKH.s 			page 15


 199              	.L11:
 467:Generated_Source\PSoC6/CapSense_Filter.c ****     }
 200              		.loc 1 467 0
 201 0012 2100     		movs	r1, r4
 202 0014 2800     		movs	r0, r5
 203 0016 FFF7FEFF 		bl	CapSense_InitializeSensorBaseline
 204              	.LVL24:
 465:Generated_Source\PSoC6/CapSense_Filter.c ****     {
 205              		.loc 1 465 0
 206 001a 2300     		movs	r3, r4
 207              	.LVL25:
 208              	.L10:
 465:Generated_Source\PSoC6/CapSense_Filter.c ****     {
 209              		.loc 1 465 0 is_stmt 0 discriminator 1
 210 001c 5C1E     		subs	r4, r3, #1
 211              	.LVL26:
 212 001e 002B     		cmp	r3, #0
 213 0020 F7D1     		bne	.L11
 469:Generated_Source\PSoC6/CapSense_Filter.c **** 
 214              		.loc 1 469 0 is_stmt 1
 215              		@ sp needed
 216              	.LVL27:
 217              	.LVL28:
 218 0022 70BD     		pop	{r4, r5, r6, pc}
 219              	.L13:
 220              		.align	2
 221              	.L12:
 222 0024 00000000 		.word	CapSense_dsFlash
 223              		.cfi_endproc
 224              	.LFE42:
 225              		.size	CapSense_InitializeWidgetBaseline, .-CapSense_InitializeWidgetBaseline
 226              		.section	.text.CapSense_InitializeAllBaselines,"ax",%progbits
 227              		.align	2
 228              		.global	CapSense_InitializeAllBaselines
 229              		.code	16
 230              		.thumb_func
 231              		.type	CapSense_InitializeAllBaselines, %function
 232              	CapSense_InitializeAllBaselines:
 233              	.LFB41:
 420:Generated_Source\PSoC6/CapSense_Filter.c ****     uint32 widgetId;
 234              		.loc 1 420 0
 235              		.cfi_startproc
 236              		@ args = 0, pretend = 0, frame = 0
 237              		@ frame_needed = 0, uses_anonymous_args = 0
 238 0000 10B5     		push	{r4, lr}
 239              		.cfi_def_cfa_offset 8
 240              		.cfi_offset 4, -8
 241              		.cfi_offset 14, -4
 242              	.LVL29:
 423:Generated_Source\PSoC6/CapSense_Filter.c ****     {
 243              		.loc 1 423 0
 244 0002 0123     		movs	r3, #1
 245 0004 03E0     		b	.L15
 246              	.LVL30:
 247              	.L16:
 425:Generated_Source\PSoC6/CapSense_Filter.c ****     }
 248              		.loc 1 425 0
ARM GAS  C:\Users\codyg\AppData\Local\Temp\ccRbtLKH.s 			page 16


 249 0006 2000     		movs	r0, r4
 250 0008 FFF7FEFF 		bl	CapSense_InitializeWidgetBaseline
 251              	.LVL31:
 423:Generated_Source\PSoC6/CapSense_Filter.c ****     {
 252              		.loc 1 423 0
 253 000c 2300     		movs	r3, r4
 254              	.LVL32:
 255              	.L15:
 423:Generated_Source\PSoC6/CapSense_Filter.c ****     {
 256              		.loc 1 423 0 is_stmt 0 discriminator 1
 257 000e 5C1E     		subs	r4, r3, #1
 258              	.LVL33:
 259 0010 002B     		cmp	r3, #0
 260 0012 F8D1     		bne	.L16
 427:Generated_Source\PSoC6/CapSense_Filter.c **** 
 261              		.loc 1 427 0 is_stmt 1
 262              		@ sp needed
 263              	.LVL34:
 264 0014 10BD     		pop	{r4, pc}
 265              		.cfi_endproc
 266              	.LFE41:
 267              		.size	CapSense_InitializeAllBaselines, .-CapSense_InitializeAllBaselines
 268 0016 C046     		.section	.text.CapSense_InitializeIIRInternal,"ax",%progbits
 269              		.align	2
 270              		.global	CapSense_InitializeIIRInternal
 271              		.code	16
 272              		.thumb_func
 273              		.type	CapSense_InitializeIIRInternal, %function
 274              	CapSense_InitializeIIRInternal:
 275              	.LFB50:
 587:Generated_Source\PSoC6/CapSense_Filter.c **** 
 588:Generated_Source\PSoC6/CapSense_Filter.c **** #if ((CapSense_ENABLE == CapSense_RC_FILTER_EN) || \
 589:Generated_Source\PSoC6/CapSense_Filter.c ****      (0u != (CapSense_CSD_AUTOTUNE & CapSense_CSD_SS_TH_EN)))
 590:Generated_Source\PSoC6/CapSense_Filter.c **** /*******************************************************************************
 591:Generated_Source\PSoC6/CapSense_Filter.c **** * Function Name: CapSense_InitializeAllFilters
 592:Generated_Source\PSoC6/CapSense_Filter.c **** ****************************************************************************//**
 593:Generated_Source\PSoC6/CapSense_Filter.c **** *
 594:Generated_Source\PSoC6/CapSense_Filter.c **** * \brief
 595:Generated_Source\PSoC6/CapSense_Filter.c **** *  Initializes (or re-initializes) the raw count filter history of all the 
 596:Generated_Source\PSoC6/CapSense_Filter.c **** *  sensors of all the widgets.
 597:Generated_Source\PSoC6/CapSense_Filter.c **** *
 598:Generated_Source\PSoC6/CapSense_Filter.c **** * \details
 599:Generated_Source\PSoC6/CapSense_Filter.c **** *  Initializes the raw count filter history for all the sensors of all the 
 600:Generated_Source\PSoC6/CapSense_Filter.c **** *  widgets. Also, this function can be used to re-initialize baselines. 
 601:Generated_Source\PSoC6/CapSense_Filter.c **** *  CapSense_Start() calls this API as part of CapSense 
 602:Generated_Source\PSoC6/CapSense_Filter.c **** *  operation initialization.
 603:Generated_Source\PSoC6/CapSense_Filter.c **** *
 604:Generated_Source\PSoC6/CapSense_Filter.c **** *******************************************************************************/
 605:Generated_Source\PSoC6/CapSense_Filter.c **** void CapSense_InitializeAllFilters(void)
 606:Generated_Source\PSoC6/CapSense_Filter.c **** {
 607:Generated_Source\PSoC6/CapSense_Filter.c ****     uint32 widgetId;
 608:Generated_Source\PSoC6/CapSense_Filter.c **** 
 609:Generated_Source\PSoC6/CapSense_Filter.c ****     for(widgetId = CapSense_TOTAL_WIDGETS; widgetId-- > 0u;)
 610:Generated_Source\PSoC6/CapSense_Filter.c ****     {
 611:Generated_Source\PSoC6/CapSense_Filter.c ****         CapSense_InitializeWidgetFilter(widgetId);
 612:Generated_Source\PSoC6/CapSense_Filter.c ****     }
 613:Generated_Source\PSoC6/CapSense_Filter.c **** }
ARM GAS  C:\Users\codyg\AppData\Local\Temp\ccRbtLKH.s 			page 17


 614:Generated_Source\PSoC6/CapSense_Filter.c **** 
 615:Generated_Source\PSoC6/CapSense_Filter.c **** /*******************************************************************************
 616:Generated_Source\PSoC6/CapSense_Filter.c **** * Function Name: CapSense_InitializeWidgetFilter
 617:Generated_Source\PSoC6/CapSense_Filter.c **** ****************************************************************************//**
 618:Generated_Source\PSoC6/CapSense_Filter.c **** *
 619:Generated_Source\PSoC6/CapSense_Filter.c **** * \brief
 620:Generated_Source\PSoC6/CapSense_Filter.c **** *  Initializes (or re-initializes) the raw count filter history of all the sensors 
 621:Generated_Source\PSoC6/CapSense_Filter.c **** *  in a widget specified by the input parameter.
 622:Generated_Source\PSoC6/CapSense_Filter.c **** *
 623:Generated_Source\PSoC6/CapSense_Filter.c **** * \details
 624:Generated_Source\PSoC6/CapSense_Filter.c **** *  Initializes (or re-initializes) the raw count filter history of all the sensors 
 625:Generated_Source\PSoC6/CapSense_Filter.c **** *  in a widget specified by the input parameter.
 626:Generated_Source\PSoC6/CapSense_Filter.c **** *
 627:Generated_Source\PSoC6/CapSense_Filter.c **** * \param  widgetId
 628:Generated_Source\PSoC6/CapSense_Filter.c **** *  Specifies the ID number of a widget to initialize the filter history of all 
 629:Generated_Source\PSoC6/CapSense_Filter.c **** *  the sensors in the widget.
 630:Generated_Source\PSoC6/CapSense_Filter.c **** *  A macro for the widget ID can be found in the
 631:Generated_Source\PSoC6/CapSense_Filter.c **** *  CapSense Configuration header file defined as
 632:Generated_Source\PSoC6/CapSense_Filter.c **** *  CapSense_<WidgetName>_WDGT_ID.
 633:Generated_Source\PSoC6/CapSense_Filter.c **** *
 634:Generated_Source\PSoC6/CapSense_Filter.c **** *******************************************************************************/
 635:Generated_Source\PSoC6/CapSense_Filter.c **** void CapSense_InitializeWidgetFilter(uint32 widgetId)
 636:Generated_Source\PSoC6/CapSense_Filter.c **** {
 637:Generated_Source\PSoC6/CapSense_Filter.c ****     uint32 sensorId;
 638:Generated_Source\PSoC6/CapSense_Filter.c ****     uint32 sensorsNumber;
 639:Generated_Source\PSoC6/CapSense_Filter.c **** 
 640:Generated_Source\PSoC6/CapSense_Filter.c ****     CapSense_FLASH_WD_STRUCT const *ptrWidget;
 641:Generated_Source\PSoC6/CapSense_Filter.c ****     CapSense_RAM_SNS_STRUCT *ptrSensor = NULL;
 642:Generated_Source\PSoC6/CapSense_Filter.c ****     #if (CapSense_ENABLE == CapSense_RC_FILTER_EN)
 643:Generated_Source\PSoC6/CapSense_Filter.c ****         CapSense_PTR_FILTER_VARIANT ptrFilterHistObj;
 644:Generated_Source\PSoC6/CapSense_Filter.c ****     #endif
 645:Generated_Source\PSoC6/CapSense_Filter.c ****     
 646:Generated_Source\PSoC6/CapSense_Filter.c ****     #if (0u != (CapSense_CSD_AUTOTUNE & CapSense_CSD_SS_TH_EN))
 647:Generated_Source\PSoC6/CapSense_Filter.c ****         CapSense_RAM_WD_BASE_STRUCT *ptrWidgetRam;
 648:Generated_Source\PSoC6/CapSense_Filter.c ****         SMARTSENSE_CSD_NOISE_ENVELOPE_STRUCT *ptrNoiseEnvelope = NULL;
 649:Generated_Source\PSoC6/CapSense_Filter.c ****     #endif /* (0u != (CapSense_CSD_AUTOTUNE & CapSense_CSD_SS_TH_EN)) */
 650:Generated_Source\PSoC6/CapSense_Filter.c **** 
 651:Generated_Source\PSoC6/CapSense_Filter.c ****     ptrWidget = &CapSense_dsFlash.wdgtArray[widgetId];
 652:Generated_Source\PSoC6/CapSense_Filter.c **** 
 653:Generated_Source\PSoC6/CapSense_Filter.c ****     #if (0u != (CapSense_CSD_AUTOTUNE & CapSense_CSD_SS_TH_EN))
 654:Generated_Source\PSoC6/CapSense_Filter.c ****         ptrWidgetRam = ptrWidget->ptr2WdgtRam;
 655:Generated_Source\PSoC6/CapSense_Filter.c ****     #endif /* (0u != (CapSense_CSD_AUTOTUNE & CapSense_CSD_SS_TH_EN)) */
 656:Generated_Source\PSoC6/CapSense_Filter.c **** 
 657:Generated_Source\PSoC6/CapSense_Filter.c ****     /* Find total amount of sensors in specified widget */
 658:Generated_Source\PSoC6/CapSense_Filter.c ****     sensorsNumber = CapSense_GET_SNS_CNT_BY_PTR(ptrWidget);
 659:Generated_Source\PSoC6/CapSense_Filter.c **** 
 660:Generated_Source\PSoC6/CapSense_Filter.c ****     for (sensorId = sensorsNumber; sensorId-- > 0u;)
 661:Generated_Source\PSoC6/CapSense_Filter.c ****     {
 662:Generated_Source\PSoC6/CapSense_Filter.c ****         /* Find pointer to specified sensor object */
 663:Generated_Source\PSoC6/CapSense_Filter.c ****         ptrSensor = ptrWidget->ptr2SnsRam;
 664:Generated_Source\PSoC6/CapSense_Filter.c ****         ptrSensor = &ptrSensor[sensorId];
 665:Generated_Source\PSoC6/CapSense_Filter.c **** 
 666:Generated_Source\PSoC6/CapSense_Filter.c ****         #if (CapSense_ENABLE == CapSense_RC_FILTER_EN)
 667:Generated_Source\PSoC6/CapSense_Filter.c ****             /* Find pointer to to specified filter sensor object */
 668:Generated_Source\PSoC6/CapSense_Filter.c ****             ptrFilterHistObj.ptr = ptrWidget->ptr2FltrHistory;
 669:Generated_Source\PSoC6/CapSense_Filter.c ****         #endif
 670:Generated_Source\PSoC6/CapSense_Filter.c **** 
ARM GAS  C:\Users\codyg\AppData\Local\Temp\ccRbtLKH.s 			page 18


 671:Generated_Source\PSoC6/CapSense_Filter.c ****         #if (0u != (CapSense_CSD_AUTOTUNE & CapSense_CSD_SS_TH_EN))
 672:Generated_Source\PSoC6/CapSense_Filter.c ****             /* Find pointer to specified noise envelope sensor object */
 673:Generated_Source\PSoC6/CapSense_Filter.c ****             ptrNoiseEnvelope = ptrWidget->ptr2NoiseEnvlp;
 674:Generated_Source\PSoC6/CapSense_Filter.c ****             ptrNoiseEnvelope = &ptrNoiseEnvelope[sensorId];
 675:Generated_Source\PSoC6/CapSense_Filter.c ****         #endif /* (0u != (CapSense_CSD_AUTOTUNE & CapSense_CSD_SS_TH_EN)) */
 676:Generated_Source\PSoC6/CapSense_Filter.c **** 
 677:Generated_Source\PSoC6/CapSense_Filter.c ****         if ((CapSense_WD_TYPE_ENUM)ptrWidget->wdgtType != CapSense_WD_PROXIMITY_E)
 678:Generated_Source\PSoC6/CapSense_Filter.c ****         {
 679:Generated_Source\PSoC6/CapSense_Filter.c ****             #if (0u != CapSense_REGULAR_RC_ALP_FILTER_EN)
 680:Generated_Source\PSoC6/CapSense_Filter.c ****                 ptrFilterHistObj.ptrAlp = &ptrFilterHistObj.ptrAlp[sensorId];
 681:Generated_Source\PSoC6/CapSense_Filter.c ****             #elif (0u != CapSense_REGULAR_RC_FILTER_EN)
 682:Generated_Source\PSoC6/CapSense_Filter.c ****                 ptrFilterHistObj.ptrRegular = &ptrFilterHistObj.ptrRegular[sensorId];
 683:Generated_Source\PSoC6/CapSense_Filter.c ****             #endif
 684:Generated_Source\PSoC6/CapSense_Filter.c ****         }
 685:Generated_Source\PSoC6/CapSense_Filter.c ****         else
 686:Generated_Source\PSoC6/CapSense_Filter.c ****         {
 687:Generated_Source\PSoC6/CapSense_Filter.c ****             #if (0u != CapSense_PROX_RC_ALP_FILTER_EN)
 688:Generated_Source\PSoC6/CapSense_Filter.c ****                 ptrFilterHistObj.ptrAlp = &ptrFilterHistObj.ptrAlp[sensorId];
 689:Generated_Source\PSoC6/CapSense_Filter.c ****             #elif (0u != CapSense_PROX_RC_FILTER_EN)
 690:Generated_Source\PSoC6/CapSense_Filter.c ****                 ptrFilterHistObj.ptrProx = &ptrFilterHistObj.ptrProx[sensorId];
 691:Generated_Source\PSoC6/CapSense_Filter.c ****             #endif /* #if (0u != CapSense_PROX_RC_FILTER_EN) */
 692:Generated_Source\PSoC6/CapSense_Filter.c ****         }
 693:Generated_Source\PSoC6/CapSense_Filter.c **** 
 694:Generated_Source\PSoC6/CapSense_Filter.c ****         #if (CapSense_REGULAR_RC_IIR_FILTER_EN || CapSense_PROX_RC_IIR_FILTER_EN)
 695:Generated_Source\PSoC6/CapSense_Filter.c ****             CapSense_InitializeIIRInternal(ptrFilterHistObj, ptrSensor, (uint32)ptrWidget->wdgtType
 696:Generated_Source\PSoC6/CapSense_Filter.c ****         #endif /* (CapSense_REGULAR_RC_IIR_FILTER_EN || CapSense_PROX_RC_IIR_FILTER_EN) */
 697:Generated_Source\PSoC6/CapSense_Filter.c **** 
 698:Generated_Source\PSoC6/CapSense_Filter.c ****         #if (CapSense_REGULAR_RC_MEDIAN_FILTER_EN || CapSense_PROX_RC_MEDIAN_FILTER_EN)
 699:Generated_Source\PSoC6/CapSense_Filter.c ****             CapSense_InitializeMedianInternal(ptrFilterHistObj, ptrSensor, (uint32)ptrWidget->wdgtT
 700:Generated_Source\PSoC6/CapSense_Filter.c ****         #endif /* (CapSense_REGULAR_RC_MEDIAN_FILTER_EN || CapSense_PROX_RC_MEDIAN_FILTER_EN) */
 701:Generated_Source\PSoC6/CapSense_Filter.c **** 
 702:Generated_Source\PSoC6/CapSense_Filter.c ****         #if (CapSense_REGULAR_RC_AVERAGE_FILTER_EN || CapSense_PROX_RC_AVERAGE_FILTER_EN)
 703:Generated_Source\PSoC6/CapSense_Filter.c ****             CapSense_InitializeAverageInternal(ptrFilterHistObj, ptrSensor, (uint32)ptrWidget->wdgt
 704:Generated_Source\PSoC6/CapSense_Filter.c ****         #endif /* (CapSense_REGULAR_RC_AVERAGE_FILTER_EN || CapSense_PROX_RC_AVERAGE_FILTER_EN) */
 705:Generated_Source\PSoC6/CapSense_Filter.c **** 
 706:Generated_Source\PSoC6/CapSense_Filter.c ****         #if (CapSense_ALP_FILTER_EN)
 707:Generated_Source\PSoC6/CapSense_Filter.c ****             CapSense_InitializeALPInternal(ptrFilterHistObj, ptrSensor, (uint32)ptrWidget->wdgtType
 708:Generated_Source\PSoC6/CapSense_Filter.c ****         #endif
 709:Generated_Source\PSoC6/CapSense_Filter.c **** 
 710:Generated_Source\PSoC6/CapSense_Filter.c ****         #if (0u != (CapSense_CSD_AUTOTUNE & CapSense_CSD_SS_TH_EN))
 711:Generated_Source\PSoC6/CapSense_Filter.c ****             if (CapSense_SENSE_METHOD_CSD_E ==
 712:Generated_Source\PSoC6/CapSense_Filter.c ****                 CapSense_GET_SENSE_METHOD(&CapSense_dsFlash.wdgtArray[widgetId]))
 713:Generated_Source\PSoC6/CapSense_Filter.c ****             {
 714:Generated_Source\PSoC6/CapSense_Filter.c ****                 SmartSense_InitializeNoiseEnvelope(ptrSensor->raw[0u], ptrWidgetRam->sigPFC, ptrNoi
 715:Generated_Source\PSoC6/CapSense_Filter.c ****             }
 716:Generated_Source\PSoC6/CapSense_Filter.c ****         #endif /* (0u != (CapSense_CSD_AUTOTUNE & CapSense_CSD_SS_TH_EN)) */
 717:Generated_Source\PSoC6/CapSense_Filter.c ****     }
 718:Generated_Source\PSoC6/CapSense_Filter.c **** }
 719:Generated_Source\PSoC6/CapSense_Filter.c **** #endif /* ((CapSense_ENABLE == CapSense_RC_FILTER_EN) || \
 720:Generated_Source\PSoC6/CapSense_Filter.c ****            (0u != (CapSense_CSD_AUTOTUNE & CapSense_CSD_SS_TH_EN))) */
 721:Generated_Source\PSoC6/CapSense_Filter.c **** 
 722:Generated_Source\PSoC6/CapSense_Filter.c **** #if (CapSense_REGULAR_RC_IIR_FILTER_EN || CapSense_PROX_RC_IIR_FILTER_EN)
 723:Generated_Source\PSoC6/CapSense_Filter.c **** /*******************************************************************************
 724:Generated_Source\PSoC6/CapSense_Filter.c **** * Function Name: CapSense_InitializeIIR
 725:Generated_Source\PSoC6/CapSense_Filter.c **** ****************************************************************************//**
 726:Generated_Source\PSoC6/CapSense_Filter.c **** *
 727:Generated_Source\PSoC6/CapSense_Filter.c **** * \brief    Initialize the IIR filter history.
ARM GAS  C:\Users\codyg\AppData\Local\Temp\ccRbtLKH.s 			page 19


 728:Generated_Source\PSoC6/CapSense_Filter.c **** *
 729:Generated_Source\PSoC6/CapSense_Filter.c **** * \details  Initialize the IIR filter history.
 730:Generated_Source\PSoC6/CapSense_Filter.c **** *
 731:Generated_Source\PSoC6/CapSense_Filter.c **** * \param    widgetId Specifies the ID number of the widget.
 732:Generated_Source\PSoC6/CapSense_Filter.c **** * \param    sensorId Specifies the ID number of the sensor in the widget.
 733:Generated_Source\PSoC6/CapSense_Filter.c **** *
 734:Generated_Source\PSoC6/CapSense_Filter.c **** *******************************************************************************/
 735:Generated_Source\PSoC6/CapSense_Filter.c **** void CapSense_InitializeIIR(uint32 widgetId, uint32 sensorId)
 736:Generated_Source\PSoC6/CapSense_Filter.c **** {
 737:Generated_Source\PSoC6/CapSense_Filter.c ****     CapSense_FLASH_WD_STRUCT const *ptrWidget = &CapSense_dsFlash.wdgtArray[widgetId];
 738:Generated_Source\PSoC6/CapSense_Filter.c ****     CapSense_RAM_SNS_STRUCT *ptrSensor = NULL;
 739:Generated_Source\PSoC6/CapSense_Filter.c ****     CapSense_PTR_FILTER_VARIANT ptrFilterHistObj;
 740:Generated_Source\PSoC6/CapSense_Filter.c **** 
 741:Generated_Source\PSoC6/CapSense_Filter.c ****     /* Find pointer to specified sensor object */
 742:Generated_Source\PSoC6/CapSense_Filter.c ****     ptrSensor = ptrWidget->ptr2SnsRam;
 743:Generated_Source\PSoC6/CapSense_Filter.c ****     ptrSensor = &ptrSensor[sensorId];
 744:Generated_Source\PSoC6/CapSense_Filter.c **** 
 745:Generated_Source\PSoC6/CapSense_Filter.c ****     /* Find pointer to specified filter sensor object */
 746:Generated_Source\PSoC6/CapSense_Filter.c ****     ptrFilterHistObj.ptr = ptrWidget->ptr2FltrHistory;
 747:Generated_Source\PSoC6/CapSense_Filter.c **** 
 748:Generated_Source\PSoC6/CapSense_Filter.c ****     if ((CapSense_WD_TYPE_ENUM)ptrWidget->wdgtType != CapSense_WD_PROXIMITY_E)
 749:Generated_Source\PSoC6/CapSense_Filter.c ****     {
 750:Generated_Source\PSoC6/CapSense_Filter.c ****         #if (CapSense_REGULAR_SENSOR_EN)
 751:Generated_Source\PSoC6/CapSense_Filter.c ****             ptrFilterHistObj.ptrRegular = &ptrFilterHistObj.ptrRegular[sensorId];
 752:Generated_Source\PSoC6/CapSense_Filter.c ****         #endif /* (CapSense_REGULAR_SENSOR_EN) */
 753:Generated_Source\PSoC6/CapSense_Filter.c ****     }
 754:Generated_Source\PSoC6/CapSense_Filter.c ****     else
 755:Generated_Source\PSoC6/CapSense_Filter.c ****     {
 756:Generated_Source\PSoC6/CapSense_Filter.c ****         #if (CapSense_PROXIMITY_SENSOR_EN)
 757:Generated_Source\PSoC6/CapSense_Filter.c ****             ptrFilterHistObj.ptrProx = &ptrFilterHistObj.ptrProx[sensorId];
 758:Generated_Source\PSoC6/CapSense_Filter.c ****         #endif /* (CapSense_PROXIMITY_SENSOR_EN) */
 759:Generated_Source\PSoC6/CapSense_Filter.c ****     }
 760:Generated_Source\PSoC6/CapSense_Filter.c **** 
 761:Generated_Source\PSoC6/CapSense_Filter.c ****     CapSense_InitializeIIRInternal(ptrFilterHistObj, ptrSensor, (uint32)ptrWidget->wdgtType);
 762:Generated_Source\PSoC6/CapSense_Filter.c **** }
 763:Generated_Source\PSoC6/CapSense_Filter.c **** 
 764:Generated_Source\PSoC6/CapSense_Filter.c **** 
 765:Generated_Source\PSoC6/CapSense_Filter.c **** /*******************************************************************************
 766:Generated_Source\PSoC6/CapSense_Filter.c **** * Function Name: CapSense_RunIIR
 767:Generated_Source\PSoC6/CapSense_Filter.c **** ****************************************************************************//**
 768:Generated_Source\PSoC6/CapSense_Filter.c **** *
 769:Generated_Source\PSoC6/CapSense_Filter.c **** * \brief    Executes the IIR filter algorithm on a sensor indicated by an input
 770:Generated_Source\PSoC6/CapSense_Filter.c **** *           parameter.
 771:Generated_Source\PSoC6/CapSense_Filter.c **** *
 772:Generated_Source\PSoC6/CapSense_Filter.c **** * \details  Executes the IIR filter algorithm on a sensor indicated by an input
 773:Generated_Source\PSoC6/CapSense_Filter.c **** *           parameter.
 774:Generated_Source\PSoC6/CapSense_Filter.c **** *
 775:Generated_Source\PSoC6/CapSense_Filter.c **** * \param    widgetId Specifies the ID number of the widget.
 776:Generated_Source\PSoC6/CapSense_Filter.c **** * \param    sensorId Specifies the ID number of the sensor in the widget.
 777:Generated_Source\PSoC6/CapSense_Filter.c **** *
 778:Generated_Source\PSoC6/CapSense_Filter.c **** *******************************************************************************/
 779:Generated_Source\PSoC6/CapSense_Filter.c **** void CapSense_RunIIR(uint32 widgetId, uint32 sensorId)
 780:Generated_Source\PSoC6/CapSense_Filter.c **** {
 781:Generated_Source\PSoC6/CapSense_Filter.c ****     CapSense_FLASH_WD_STRUCT const *ptrWidget = &CapSense_dsFlash.wdgtArray[widgetId];
 782:Generated_Source\PSoC6/CapSense_Filter.c ****     CapSense_RAM_SNS_STRUCT *ptrSensor = NULL;
 783:Generated_Source\PSoC6/CapSense_Filter.c ****     CapSense_PTR_FILTER_VARIANT ptrFilterHistObj;
 784:Generated_Source\PSoC6/CapSense_Filter.c **** 
ARM GAS  C:\Users\codyg\AppData\Local\Temp\ccRbtLKH.s 			page 20


 785:Generated_Source\PSoC6/CapSense_Filter.c ****     /* Find pointer to specified sensor object */
 786:Generated_Source\PSoC6/CapSense_Filter.c ****     ptrSensor = ptrWidget->ptr2SnsRam;
 787:Generated_Source\PSoC6/CapSense_Filter.c ****     ptrSensor = &ptrSensor[sensorId];
 788:Generated_Source\PSoC6/CapSense_Filter.c **** 
 789:Generated_Source\PSoC6/CapSense_Filter.c ****     /* Find pointer to specified filter sensor object */
 790:Generated_Source\PSoC6/CapSense_Filter.c ****     ptrFilterHistObj.ptr = ptrWidget->ptr2FltrHistory;
 791:Generated_Source\PSoC6/CapSense_Filter.c **** 
 792:Generated_Source\PSoC6/CapSense_Filter.c ****     if ((CapSense_WD_TYPE_ENUM)ptrWidget->wdgtType != CapSense_WD_PROXIMITY_E)
 793:Generated_Source\PSoC6/CapSense_Filter.c ****     {
 794:Generated_Source\PSoC6/CapSense_Filter.c ****         #if (CapSense_REGULAR_SENSOR_EN)
 795:Generated_Source\PSoC6/CapSense_Filter.c ****             ptrFilterHistObj.ptrRegular = &ptrFilterHistObj.ptrRegular[sensorId];
 796:Generated_Source\PSoC6/CapSense_Filter.c ****         #endif /* (CapSense_REGULAR_SENSOR_EN) */
 797:Generated_Source\PSoC6/CapSense_Filter.c ****     }
 798:Generated_Source\PSoC6/CapSense_Filter.c ****     else
 799:Generated_Source\PSoC6/CapSense_Filter.c ****     {
 800:Generated_Source\PSoC6/CapSense_Filter.c ****         #if (CapSense_PROXIMITY_SENSOR_EN)
 801:Generated_Source\PSoC6/CapSense_Filter.c ****             ptrFilterHistObj.ptrProx = &ptrFilterHistObj.ptrProx[sensorId];
 802:Generated_Source\PSoC6/CapSense_Filter.c ****         #endif /* (CapSense_PROXIMITY_SENSOR_EN) */
 803:Generated_Source\PSoC6/CapSense_Filter.c ****     }
 804:Generated_Source\PSoC6/CapSense_Filter.c **** 
 805:Generated_Source\PSoC6/CapSense_Filter.c ****     CapSense_RunIIRInternal(ptrFilterHistObj, ptrSensor, (uint32)ptrWidget->wdgtType);
 806:Generated_Source\PSoC6/CapSense_Filter.c **** }
 807:Generated_Source\PSoC6/CapSense_Filter.c **** 
 808:Generated_Source\PSoC6/CapSense_Filter.c **** /*******************************************************************************
 809:Generated_Source\PSoC6/CapSense_Filter.c **** * Function Name: CapSense_InitializeIIRInternal
 810:Generated_Source\PSoC6/CapSense_Filter.c **** ****************************************************************************//**
 811:Generated_Source\PSoC6/CapSense_Filter.c **** *
 812:Generated_Source\PSoC6/CapSense_Filter.c **** * \brief    Initializes the IIR filter history.
 813:Generated_Source\PSoC6/CapSense_Filter.c **** *
 814:Generated_Source\PSoC6/CapSense_Filter.c **** * \details  Initializes the IIR filter history.
 815:Generated_Source\PSoC6/CapSense_Filter.c **** *
 816:Generated_Source\PSoC6/CapSense_Filter.c **** * \param    ptrFilterHistObj The pointer to the filter RAM object of the sensor.
 817:Generated_Source\PSoC6/CapSense_Filter.c **** * \param    ptrSensorObj     The pointer to the sensor RAM object of the sensor.
 818:Generated_Source\PSoC6/CapSense_Filter.c **** * \param    wdType           Specifies the type of a widget.
 819:Generated_Source\PSoC6/CapSense_Filter.c **** *
 820:Generated_Source\PSoC6/CapSense_Filter.c **** *******************************************************************************/
 821:Generated_Source\PSoC6/CapSense_Filter.c **** void CapSense_InitializeIIRInternal(CapSense_PTR_FILTER_VARIANT ptrFilterHistObj,
 822:Generated_Source\PSoC6/CapSense_Filter.c ****                                             CapSense_RAM_SNS_STRUCT *ptrSensorObj, uint32 wdType)
 823:Generated_Source\PSoC6/CapSense_Filter.c **** {
 276              		.loc 1 823 0
 277              		.cfi_startproc
 278              		@ args = 0, pretend = 0, frame = 0
 279              		@ frame_needed = 0, uses_anonymous_args = 0
 280              	.LVL35:
 281 0000 70B5     		push	{r4, r5, r6, lr}
 282              		.cfi_def_cfa_offset 16
 283              		.cfi_offset 4, -16
 284              		.cfi_offset 5, -12
 285              		.cfi_offset 6, -8
 286              		.cfi_offset 14, -4
 287              	.LVL36:
 824:Generated_Source\PSoC6/CapSense_Filter.c ****     uint32 freqChannel;
 825:Generated_Source\PSoC6/CapSense_Filter.c **** 
 826:Generated_Source\PSoC6/CapSense_Filter.c ****     for(freqChannel = CapSense_NUM_SCAN_FREQS; freqChannel-- > 0u;)
 288              		.loc 1 826 0
 289 0002 0123     		movs	r3, #1
 290 0004 09E0     		b	.L18
ARM GAS  C:\Users\codyg\AppData\Local\Temp\ccRbtLKH.s 			page 21


 291              	.LVL37:
 292              	.L20:
 827:Generated_Source\PSoC6/CapSense_Filter.c ****     {
 828:Generated_Source\PSoC6/CapSense_Filter.c ****         if ((CapSense_WD_TYPE_ENUM)wdType != CapSense_WD_PROXIMITY_E)
 293              		.loc 1 828 0
 294 0006 FF23     		movs	r3, #255
 295 0008 1340     		ands	r3, r2
 296 000a 062B     		cmp	r3, #6
 297 000c 04D1     		bne	.L19
 829:Generated_Source\PSoC6/CapSense_Filter.c ****         {
 830:Generated_Source\PSoC6/CapSense_Filter.c ****             #if (CapSense_REGULAR_SENSOR_EN && CapSense_REGULAR_RC_IIR_FILTER_EN)
 831:Generated_Source\PSoC6/CapSense_Filter.c ****                 #if (CapSense_REGULAR_IIR_RC_TYPE == CapSense_IIR_FILTER_PERFORMANCE)
 832:Generated_Source\PSoC6/CapSense_Filter.c ****                     ptrFilterHistObj.ptrRegular->regularChannel[freqChannel].iirHistory = ptrSensor
 833:Generated_Source\PSoC6/CapSense_Filter.c ****                     ptrFilterHistObj.ptrRegular->regularChannel[freqChannel].iirHistoryLow = 0u;
 834:Generated_Source\PSoC6/CapSense_Filter.c ****                 #else
 835:Generated_Source\PSoC6/CapSense_Filter.c ****                     ptrFilterHistObj.ptrRegular->regularChannel[freqChannel].iirHistory = ptrSensor
 836:Generated_Source\PSoC6/CapSense_Filter.c ****                 #endif /* (CapSense_REGULAR_IIR_RC_TYPE == CapSense_IIR_FILTER_PERFORMANCE) */
 837:Generated_Source\PSoC6/CapSense_Filter.c ****             #endif /* (CapSense_REGULAR_SENSOR_EN) */
 838:Generated_Source\PSoC6/CapSense_Filter.c ****         }
 839:Generated_Source\PSoC6/CapSense_Filter.c ****         else
 840:Generated_Source\PSoC6/CapSense_Filter.c ****         {
 841:Generated_Source\PSoC6/CapSense_Filter.c ****             #if (CapSense_PROXIMITY_SENSOR_EN && CapSense_PROX_RC_IIR_FILTER_EN)
 842:Generated_Source\PSoC6/CapSense_Filter.c ****                 #if (CapSense_PROX_IIR_RC_TYPE == CapSense_IIR_FILTER_PERFORMANCE)
 843:Generated_Source\PSoC6/CapSense_Filter.c ****                     ptrFilterHistObj.ptrProx->proxChannel[freqChannel].iirHistory = ptrSensorObj->r
 844:Generated_Source\PSoC6/CapSense_Filter.c ****                     ptrFilterHistObj.ptrProx->proxChannel[freqChannel].iirHistoryLow = 0u;
 845:Generated_Source\PSoC6/CapSense_Filter.c ****                 #else
 846:Generated_Source\PSoC6/CapSense_Filter.c ****                     ptrFilterHistObj.ptrProx->proxChannel[freqChannel].iirHistory = ptrSensorObj->r
 298              		.loc 1 846 0
 299 000e 6300     		lsls	r3, r4, #1
 300 0010 5E5A     		ldrh	r6, [r3, r1]
 301 0012 1B19     		adds	r3, r3, r4
 302 0014 9D00     		lsls	r5, r3, #2
 303 0016 2E52     		strh	r6, [r5, r0]
 304              	.L19:
 823:Generated_Source\PSoC6/CapSense_Filter.c ****     uint32 freqChannel;
 305              		.loc 1 823 0 discriminator 1
 306 0018 2300     		movs	r3, r4
 307              	.LVL38:
 308              	.L18:
 826:Generated_Source\PSoC6/CapSense_Filter.c ****     {
 309              		.loc 1 826 0 discriminator 1
 310 001a 5C1E     		subs	r4, r3, #1
 311              	.LVL39:
 312 001c 002B     		cmp	r3, #0
 313 001e F2D1     		bne	.L20
 847:Generated_Source\PSoC6/CapSense_Filter.c ****                 #endif /* (CapSense_PROX_IIR_RC_TYPE == CapSense_IIR_FILTER_PERFORMANCE) */
 848:Generated_Source\PSoC6/CapSense_Filter.c ****             #endif /* (CapSense_PROX_SENSOR_EN) */
 849:Generated_Source\PSoC6/CapSense_Filter.c ****         }
 850:Generated_Source\PSoC6/CapSense_Filter.c ****     }
 851:Generated_Source\PSoC6/CapSense_Filter.c **** }
 314              		.loc 1 851 0
 315              		@ sp needed
 316              	.LVL40:
 317 0020 70BD     		pop	{r4, r5, r6, pc}
 318              		.cfi_endproc
 319              	.LFE50:
 320              		.size	CapSense_InitializeIIRInternal, .-CapSense_InitializeIIRInternal
ARM GAS  C:\Users\codyg\AppData\Local\Temp\ccRbtLKH.s 			page 22


 321 0022 C046     		.section	.text.CapSense_InitializeIIR,"ax",%progbits
 322              		.align	2
 323              		.global	CapSense_InitializeIIR
 324              		.code	16
 325              		.thumb_func
 326              		.type	CapSense_InitializeIIR, %function
 327              	CapSense_InitializeIIR:
 328              	.LFB48:
 736:Generated_Source\PSoC6/CapSense_Filter.c ****     CapSense_FLASH_WD_STRUCT const *ptrWidget = &CapSense_dsFlash.wdgtArray[widgetId];
 329              		.loc 1 736 0
 330              		.cfi_startproc
 331              		@ args = 0, pretend = 0, frame = 0
 332              		@ frame_needed = 0, uses_anonymous_args = 0
 333              	.LVL41:
 334 0000 F8B5     		push	{r3, r4, r5, r6, r7, lr}
 335              		.cfi_def_cfa_offset 24
 336              		.cfi_offset 3, -24
 337              		.cfi_offset 4, -20
 338              		.cfi_offset 5, -16
 339              		.cfi_offset 6, -12
 340              		.cfi_offset 7, -8
 341              		.cfi_offset 14, -4
 342              	.LVL42:
 742:Generated_Source\PSoC6/CapSense_Filter.c ****     ptrSensor = &ptrSensor[sensorId];
 343              		.loc 1 742 0
 344 0002 0E4E     		ldr	r6, .L23
 345 0004 C300     		lsls	r3, r0, #3
 346 0006 1C1A     		subs	r4, r3, r0
 347 0008 A200     		lsls	r2, r4, #2
 348 000a B218     		adds	r2, r6, r2
 349              	.LVL43:
 743:Generated_Source\PSoC6/CapSense_Filter.c **** 
 350              		.loc 1 743 0
 351 000c 8C00     		lsls	r4, r1, #2
 352 000e 6418     		adds	r4, r4, r1
 353 0010 6500     		lsls	r5, r4, #1
 354 0012 9468     		ldr	r4, [r2, #8]
 355 0014 A446     		mov	ip, r4
 356 0016 6544     		add	r5, r5, ip
 357              	.LVL44:
 746:Generated_Source\PSoC6/CapSense_Filter.c **** 
 358              		.loc 1 746 0
 359 0018 D768     		ldr	r7, [r2, #12]
 360 001a 3C00     		movs	r4, r7
 361              	.LVL45:
 748:Generated_Source\PSoC6/CapSense_Filter.c ****     {
 362              		.loc 1 748 0
 363 001c 1B1A     		subs	r3, r3, r0
 364 001e 9A00     		lsls	r2, r3, #2
 365 0020 B218     		adds	r2, r6, r2
 366 0022 927E     		ldrb	r2, [r2, #26]
 367 0024 062A     		cmp	r2, #6
 368 0026 03D1     		bne	.L22
 757:Generated_Source\PSoC6/CapSense_Filter.c ****         #endif /* (CapSense_PROXIMITY_SENSOR_EN) */
 369              		.loc 1 757 0
 370 0028 4B00     		lsls	r3, r1, #1
 371 002a 5B18     		adds	r3, r3, r1
ARM GAS  C:\Users\codyg\AppData\Local\Temp\ccRbtLKH.s 			page 23


 372 002c 9C00     		lsls	r4, r3, #2
 373 002e 3C19     		adds	r4, r7, r4
 374              	.L22:
 761:Generated_Source\PSoC6/CapSense_Filter.c **** }
 375              		.loc 1 761 0
 376 0030 2900     		movs	r1, r5
 377              	.LVL46:
 378 0032 2000     		movs	r0, r4
 379              	.LVL47:
 380 0034 FFF7FEFF 		bl	CapSense_InitializeIIRInternal
 381              	.LVL48:
 762:Generated_Source\PSoC6/CapSense_Filter.c **** 
 382              		.loc 1 762 0
 383              		@ sp needed
 384              	.LVL49:
 385              	.LVL50:
 386              	.LVL51:
 387 0038 F8BD     		pop	{r3, r4, r5, r6, r7, pc}
 388              	.L24:
 389 003a C046     		.align	2
 390              	.L23:
 391 003c 00000000 		.word	CapSense_dsFlash
 392              		.cfi_endproc
 393              	.LFE48:
 394              		.size	CapSense_InitializeIIR, .-CapSense_InitializeIIR
 395              		.section	.text.CapSense_InitializeMedianInternal,"ax",%progbits
 396              		.align	2
 397              		.global	CapSense_InitializeMedianInternal
 398              		.code	16
 399              		.thumb_func
 400              		.type	CapSense_InitializeMedianInternal, %function
 401              	CapSense_InitializeMedianInternal:
 402              	.LFB54:
 852:Generated_Source\PSoC6/CapSense_Filter.c **** 
 853:Generated_Source\PSoC6/CapSense_Filter.c **** 
 854:Generated_Source\PSoC6/CapSense_Filter.c **** /*******************************************************************************
 855:Generated_Source\PSoC6/CapSense_Filter.c **** * Function Name: CapSense_RunIIRInternal
 856:Generated_Source\PSoC6/CapSense_Filter.c **** ****************************************************************************//**
 857:Generated_Source\PSoC6/CapSense_Filter.c **** *
 858:Generated_Source\PSoC6/CapSense_Filter.c **** * \brief    Run the IIR filter.
 859:Generated_Source\PSoC6/CapSense_Filter.c **** *
 860:Generated_Source\PSoC6/CapSense_Filter.c **** * \details  Run the IIR filter.
 861:Generated_Source\PSoC6/CapSense_Filter.c **** *
 862:Generated_Source\PSoC6/CapSense_Filter.c **** * \param    ptrFilterHistObj The pointer to the filter RAM object of the sensor.
 863:Generated_Source\PSoC6/CapSense_Filter.c **** * \param    ptrSensorObj     The pointer to the sensor RAM object of the sensor.
 864:Generated_Source\PSoC6/CapSense_Filter.c **** * \param    wdType           Specifies the type of a widget.
 865:Generated_Source\PSoC6/CapSense_Filter.c **** *
 866:Generated_Source\PSoC6/CapSense_Filter.c **** *******************************************************************************/
 867:Generated_Source\PSoC6/CapSense_Filter.c **** void CapSense_RunIIRInternal(CapSense_PTR_FILTER_VARIANT ptrFilterHistObj,
 868:Generated_Source\PSoC6/CapSense_Filter.c ****                                      CapSense_RAM_SNS_STRUCT *ptrSensorObj, uint32 wdType)
 869:Generated_Source\PSoC6/CapSense_Filter.c **** {
 870:Generated_Source\PSoC6/CapSense_Filter.c ****     uint32 freqChannel;
 871:Generated_Source\PSoC6/CapSense_Filter.c ****     uint32 temp;
 872:Generated_Source\PSoC6/CapSense_Filter.c **** 
 873:Generated_Source\PSoC6/CapSense_Filter.c ****     for(freqChannel = CapSense_NUM_SCAN_FREQS; freqChannel-- > 0u;)
 874:Generated_Source\PSoC6/CapSense_Filter.c ****     {
 875:Generated_Source\PSoC6/CapSense_Filter.c ****         if ((CapSense_WD_TYPE_ENUM)wdType != CapSense_WD_PROXIMITY_E)
ARM GAS  C:\Users\codyg\AppData\Local\Temp\ccRbtLKH.s 			page 24


 876:Generated_Source\PSoC6/CapSense_Filter.c ****         {
 877:Generated_Source\PSoC6/CapSense_Filter.c ****             #if (CapSense_REGULAR_SENSOR_EN && CapSense_REGULAR_RC_IIR_FILTER_EN)
 878:Generated_Source\PSoC6/CapSense_Filter.c ****                 #if (CapSense_REGULAR_IIR_RC_TYPE == CapSense_IIR_FILTER_PERFORMANCE)
 879:Generated_Source\PSoC6/CapSense_Filter.c ****                     temp = ((uint32)ptrFilterHistObj.ptrRegular->regularChannel[freqChannel].iirHis
 880:Generated_Source\PSoC6/CapSense_Filter.c ****                     temp |= ptrFilterHistObj.ptrRegular->regularChannel[freqChannel].iirHistoryLow;
 881:Generated_Source\PSoC6/CapSense_Filter.c ****                     temp = CapSense_FtIIR1stOrder((uint32)ptrSensorObj->raw[freqChannel],
 882:Generated_Source\PSoC6/CapSense_Filter.c ****                                                         temp,
 883:Generated_Source\PSoC6/CapSense_Filter.c ****                                                         CapSense_REGULAR_IIR_RC_N,
 884:Generated_Source\PSoC6/CapSense_Filter.c ****                                                         CapSense_REGULAR_IIR_RC_SHIFT);
 885:Generated_Source\PSoC6/CapSense_Filter.c ****                     ptrFilterHistObj.ptrRegular->regularChannel[freqChannel].iirHistory = CY_LO16(t
 886:Generated_Source\PSoC6/CapSense_Filter.c ****                     ptrFilterHistObj.ptrRegular->regularChannel[freqChannel].iirHistoryLow = CY_LO8
 887:Generated_Source\PSoC6/CapSense_Filter.c ****                     ptrSensorObj->raw[freqChannel] = CY_LO16(temp >>CapSense_REGULAR_IIR_RC_SHIFT);
 888:Generated_Source\PSoC6/CapSense_Filter.c ****                 #else
 889:Generated_Source\PSoC6/CapSense_Filter.c ****                     temp =CapSense_FtIIR1stOrder((uint32)ptrSensorObj->raw[freqChannel],
 890:Generated_Source\PSoC6/CapSense_Filter.c ****                                                         (uint32)ptrFilterHistObj.ptrRegular->regula
 891:Generated_Source\PSoC6/CapSense_Filter.c ****                                                         CapSense_REGULAR_IIR_RC_N,
 892:Generated_Source\PSoC6/CapSense_Filter.c ****                                                         CapSense_REGULAR_IIR_RC_SHIFT);
 893:Generated_Source\PSoC6/CapSense_Filter.c ****                     ptrFilterHistObj.ptrRegular->regularChannel[freqChannel].iirHistory = CY_LO16(t
 894:Generated_Source\PSoC6/CapSense_Filter.c ****                     ptrSensorObj->raw[freqChannel] = CY_LO16(temp >>CapSense_REGULAR_IIR_RC_SHIFT);
 895:Generated_Source\PSoC6/CapSense_Filter.c ****                 #endif /* (CapSense_REGULAR_IIR_RC_TYPE == CapSense_IIR_FILTER_PERFORMANCE) */
 896:Generated_Source\PSoC6/CapSense_Filter.c ****             #endif /* (CapSense_REGULAR_SENSOR_EN) */
 897:Generated_Source\PSoC6/CapSense_Filter.c ****         }
 898:Generated_Source\PSoC6/CapSense_Filter.c ****         else
 899:Generated_Source\PSoC6/CapSense_Filter.c ****         {
 900:Generated_Source\PSoC6/CapSense_Filter.c ****             #if (CapSense_PROXIMITY_SENSOR_EN && CapSense_PROX_RC_IIR_FILTER_EN)
 901:Generated_Source\PSoC6/CapSense_Filter.c ****                 #if (CapSense_PROX_IIR_RC_TYPE == CapSense_IIR_FILTER_PERFORMANCE)
 902:Generated_Source\PSoC6/CapSense_Filter.c ****                     temp =  ptrFilterHistObj.ptrProx->proxChannel[freqChannel].iirHistory << CapSen
 903:Generated_Source\PSoC6/CapSense_Filter.c ****                     temp |= ptrFilterHistObj.ptrProx->proxChannel[freqChannel].iirHistoryLow;
 904:Generated_Source\PSoC6/CapSense_Filter.c ****                     temp =CapSense_FtIIR1stOrder((uint32)ptrSensorObj->raw[freqChannel],
 905:Generated_Source\PSoC6/CapSense_Filter.c ****                                                         temp,
 906:Generated_Source\PSoC6/CapSense_Filter.c ****                                                         CapSense_PROX_IIR_RC_N,
 907:Generated_Source\PSoC6/CapSense_Filter.c ****                                                         CapSense_PROX_IIR_RC_SHIFT);
 908:Generated_Source\PSoC6/CapSense_Filter.c ****                     ptrFilterHistObj.ptrProx->proxChannel[freqChannel].iirHistory = CY_LO16(temp >>
 909:Generated_Source\PSoC6/CapSense_Filter.c ****                     ptrFilterHistObj.ptrProx->proxChannel[freqChannel].iirHistoryLow = CY_LO8(temp)
 910:Generated_Source\PSoC6/CapSense_Filter.c ****                     ptrSensorObj->raw[freqChannel] = CY_LO16(temp >>CapSense_PROX_IIR_RC_SHIFT);
 911:Generated_Source\PSoC6/CapSense_Filter.c ****                 #else
 912:Generated_Source\PSoC6/CapSense_Filter.c ****                     temp =CapSense_FtIIR1stOrder((uint32)ptrSensorObj->raw[freqChannel],
 913:Generated_Source\PSoC6/CapSense_Filter.c ****                                                         (uint32)ptrFilterHistObj.ptrProx->proxChann
 914:Generated_Source\PSoC6/CapSense_Filter.c ****                                                         CapSense_PROX_IIR_RC_N,
 915:Generated_Source\PSoC6/CapSense_Filter.c ****                                                         CapSense_PROX_IIR_RC_SHIFT);
 916:Generated_Source\PSoC6/CapSense_Filter.c ****                     ptrFilterHistObj.ptrProx->proxChannel[freqChannel].iirHistory = CY_LO16(temp);
 917:Generated_Source\PSoC6/CapSense_Filter.c ****                     ptrSensorObj->raw[freqChannel] = CY_LO16(temp >>CapSense_PROX_IIR_RC_SHIFT);
 918:Generated_Source\PSoC6/CapSense_Filter.c ****                 #endif /* (CapSense_PROX_IIR_RC_TYPE == CapSense_IIR_FILTER_PERFORMANCE) */
 919:Generated_Source\PSoC6/CapSense_Filter.c ****             #endif /* (CapSense_PROX_SENSOR_EN) */
 920:Generated_Source\PSoC6/CapSense_Filter.c ****         }
 921:Generated_Source\PSoC6/CapSense_Filter.c ****     }
 922:Generated_Source\PSoC6/CapSense_Filter.c **** }
 923:Generated_Source\PSoC6/CapSense_Filter.c **** #endif /* #if (CapSense_REGULAR_RC_IIR_FILTER_EN || CapSense_PROX_RC_IIR_FILTER_EN) */
 924:Generated_Source\PSoC6/CapSense_Filter.c **** 
 925:Generated_Source\PSoC6/CapSense_Filter.c **** 
 926:Generated_Source\PSoC6/CapSense_Filter.c **** #if (CapSense_REGULAR_RC_MEDIAN_FILTER_EN || CapSense_PROX_RC_MEDIAN_FILTER_EN)
 927:Generated_Source\PSoC6/CapSense_Filter.c **** 
 928:Generated_Source\PSoC6/CapSense_Filter.c **** /*******************************************************************************
 929:Generated_Source\PSoC6/CapSense_Filter.c **** * Function Name: CapSense_InitializeMedian
 930:Generated_Source\PSoC6/CapSense_Filter.c **** ****************************************************************************//**
 931:Generated_Source\PSoC6/CapSense_Filter.c **** *
 932:Generated_Source\PSoC6/CapSense_Filter.c **** * \brief    Initializes the Median filter history.
ARM GAS  C:\Users\codyg\AppData\Local\Temp\ccRbtLKH.s 			page 25


 933:Generated_Source\PSoC6/CapSense_Filter.c **** *
 934:Generated_Source\PSoC6/CapSense_Filter.c **** * \details  Initializes the Median filter history.
 935:Generated_Source\PSoC6/CapSense_Filter.c **** *
 936:Generated_Source\PSoC6/CapSense_Filter.c **** * \param    widgetId Specifies the ID number of the widget.
 937:Generated_Source\PSoC6/CapSense_Filter.c **** * \param    sensorId Specifies the ID number of the sensor in the widget.
 938:Generated_Source\PSoC6/CapSense_Filter.c **** *
 939:Generated_Source\PSoC6/CapSense_Filter.c **** *******************************************************************************/
 940:Generated_Source\PSoC6/CapSense_Filter.c **** void CapSense_InitializeMedian(uint32 widgetId, uint32 sensorId)
 941:Generated_Source\PSoC6/CapSense_Filter.c **** {
 942:Generated_Source\PSoC6/CapSense_Filter.c ****     CapSense_FLASH_WD_STRUCT const *ptrWidget = &CapSense_dsFlash.wdgtArray[widgetId];
 943:Generated_Source\PSoC6/CapSense_Filter.c ****     CapSense_RAM_SNS_STRUCT *ptrSensor = NULL;
 944:Generated_Source\PSoC6/CapSense_Filter.c ****     CapSense_PTR_FILTER_VARIANT ptrFilterHistObj;
 945:Generated_Source\PSoC6/CapSense_Filter.c **** 
 946:Generated_Source\PSoC6/CapSense_Filter.c ****     /* Find pointer to specified sensor object */
 947:Generated_Source\PSoC6/CapSense_Filter.c ****     ptrSensor = ptrWidget->ptr2SnsRam;
 948:Generated_Source\PSoC6/CapSense_Filter.c ****     ptrSensor = &ptrSensor[sensorId];
 949:Generated_Source\PSoC6/CapSense_Filter.c **** 
 950:Generated_Source\PSoC6/CapSense_Filter.c ****     /* Find pointer to specified filter sensor object */
 951:Generated_Source\PSoC6/CapSense_Filter.c ****     ptrFilterHistObj.ptr = ptrWidget->ptr2FltrHistory;
 952:Generated_Source\PSoC6/CapSense_Filter.c **** 
 953:Generated_Source\PSoC6/CapSense_Filter.c ****     if ((CapSense_WD_TYPE_ENUM)ptrWidget->wdgtType != CapSense_WD_PROXIMITY_E)
 954:Generated_Source\PSoC6/CapSense_Filter.c ****     {
 955:Generated_Source\PSoC6/CapSense_Filter.c ****         #if (CapSense_REGULAR_SENSOR_EN)
 956:Generated_Source\PSoC6/CapSense_Filter.c ****             ptrFilterHistObj.ptrRegular = &ptrFilterHistObj.ptrRegular[sensorId];
 957:Generated_Source\PSoC6/CapSense_Filter.c ****         #endif /* (CapSense_REGULAR_SENSOR_EN) */
 958:Generated_Source\PSoC6/CapSense_Filter.c ****     }
 959:Generated_Source\PSoC6/CapSense_Filter.c ****     else
 960:Generated_Source\PSoC6/CapSense_Filter.c ****     {
 961:Generated_Source\PSoC6/CapSense_Filter.c ****         #if (CapSense_PROXIMITY_SENSOR_EN)
 962:Generated_Source\PSoC6/CapSense_Filter.c ****             ptrFilterHistObj.ptrProx = &ptrFilterHistObj.ptrProx[sensorId];
 963:Generated_Source\PSoC6/CapSense_Filter.c ****         #endif /* (CapSense_PROXIMITY_SENSOR_EN) */
 964:Generated_Source\PSoC6/CapSense_Filter.c ****     }
 965:Generated_Source\PSoC6/CapSense_Filter.c **** 
 966:Generated_Source\PSoC6/CapSense_Filter.c ****     CapSense_InitializeMedianInternal(ptrFilterHistObj, ptrSensor, (uint32)ptrWidget->wdgtType);
 967:Generated_Source\PSoC6/CapSense_Filter.c **** }
 968:Generated_Source\PSoC6/CapSense_Filter.c **** 
 969:Generated_Source\PSoC6/CapSense_Filter.c **** 
 970:Generated_Source\PSoC6/CapSense_Filter.c **** /*******************************************************************************
 971:Generated_Source\PSoC6/CapSense_Filter.c **** * Function Name: CapSense_RunMedian
 972:Generated_Source\PSoC6/CapSense_Filter.c **** ****************************************************************************//**
 973:Generated_Source\PSoC6/CapSense_Filter.c **** *
 974:Generated_Source\PSoC6/CapSense_Filter.c **** * \brief    Executes the Median filter algorithm on a sensor indicated by an input
 975:Generated_Source\PSoC6/CapSense_Filter.c **** *           parameter.
 976:Generated_Source\PSoC6/CapSense_Filter.c **** *
 977:Generated_Source\PSoC6/CapSense_Filter.c **** * \details  Executes the Median filter algorithm on a sensor indicated by an input
 978:Generated_Source\PSoC6/CapSense_Filter.c **** *           parameter.
 979:Generated_Source\PSoC6/CapSense_Filter.c **** *
 980:Generated_Source\PSoC6/CapSense_Filter.c **** * \param    widgetId Specifies the ID number of the widget.
 981:Generated_Source\PSoC6/CapSense_Filter.c **** * \param    sensorId Specifies the ID number of the sensor in the widget.
 982:Generated_Source\PSoC6/CapSense_Filter.c **** *
 983:Generated_Source\PSoC6/CapSense_Filter.c **** *******************************************************************************/
 984:Generated_Source\PSoC6/CapSense_Filter.c **** void CapSense_RunMedian(uint32 widgetId, uint32 sensorId)
 985:Generated_Source\PSoC6/CapSense_Filter.c **** {
 986:Generated_Source\PSoC6/CapSense_Filter.c ****     CapSense_FLASH_WD_STRUCT const *ptrWidget = &CapSense_dsFlash.wdgtArray[widgetId];
 987:Generated_Source\PSoC6/CapSense_Filter.c ****     CapSense_RAM_SNS_STRUCT *ptrSensor = NULL;
 988:Generated_Source\PSoC6/CapSense_Filter.c ****     CapSense_PTR_FILTER_VARIANT ptrFilterHistObj;
 989:Generated_Source\PSoC6/CapSense_Filter.c **** 
ARM GAS  C:\Users\codyg\AppData\Local\Temp\ccRbtLKH.s 			page 26


 990:Generated_Source\PSoC6/CapSense_Filter.c ****     /* Find pointer to specified sensor object */
 991:Generated_Source\PSoC6/CapSense_Filter.c ****     ptrSensor = ptrWidget->ptr2SnsRam;
 992:Generated_Source\PSoC6/CapSense_Filter.c ****     ptrSensor = &ptrSensor[sensorId];
 993:Generated_Source\PSoC6/CapSense_Filter.c **** 
 994:Generated_Source\PSoC6/CapSense_Filter.c ****     /* Find pointer to specified filter sensor object */
 995:Generated_Source\PSoC6/CapSense_Filter.c ****     ptrFilterHistObj.ptr = ptrWidget->ptr2FltrHistory;
 996:Generated_Source\PSoC6/CapSense_Filter.c **** 
 997:Generated_Source\PSoC6/CapSense_Filter.c ****     if ((CapSense_WD_TYPE_ENUM)ptrWidget->wdgtType != CapSense_WD_PROXIMITY_E)
 998:Generated_Source\PSoC6/CapSense_Filter.c ****     {
 999:Generated_Source\PSoC6/CapSense_Filter.c ****         #if (CapSense_REGULAR_SENSOR_EN)
1000:Generated_Source\PSoC6/CapSense_Filter.c ****             ptrFilterHistObj.ptrRegular = &ptrFilterHistObj.ptrRegular[sensorId];
1001:Generated_Source\PSoC6/CapSense_Filter.c ****         #endif /* (CapSense_REGULAR_SENSOR_EN) */
1002:Generated_Source\PSoC6/CapSense_Filter.c ****     }
1003:Generated_Source\PSoC6/CapSense_Filter.c ****     else
1004:Generated_Source\PSoC6/CapSense_Filter.c ****     {
1005:Generated_Source\PSoC6/CapSense_Filter.c ****         #if (CapSense_PROXIMITY_SENSOR_EN)
1006:Generated_Source\PSoC6/CapSense_Filter.c ****             ptrFilterHistObj.ptrProx = &ptrFilterHistObj.ptrProx[sensorId];
1007:Generated_Source\PSoC6/CapSense_Filter.c ****         #endif /* (CapSense_PROXIMITY_SENSOR_EN) */
1008:Generated_Source\PSoC6/CapSense_Filter.c ****     }
1009:Generated_Source\PSoC6/CapSense_Filter.c **** 
1010:Generated_Source\PSoC6/CapSense_Filter.c ****     CapSense_RunMedianInternal(ptrFilterHistObj, ptrSensor, (uint32)ptrWidget->wdgtType);
1011:Generated_Source\PSoC6/CapSense_Filter.c **** }
1012:Generated_Source\PSoC6/CapSense_Filter.c **** 
1013:Generated_Source\PSoC6/CapSense_Filter.c **** 
1014:Generated_Source\PSoC6/CapSense_Filter.c **** /*******************************************************************************
1015:Generated_Source\PSoC6/CapSense_Filter.c **** * Function Name: CapSense_InitializeMedianInternal
1016:Generated_Source\PSoC6/CapSense_Filter.c **** ****************************************************************************//**
1017:Generated_Source\PSoC6/CapSense_Filter.c **** *
1018:Generated_Source\PSoC6/CapSense_Filter.c **** * \brief    Initializes the Median filter.
1019:Generated_Source\PSoC6/CapSense_Filter.c **** *
1020:Generated_Source\PSoC6/CapSense_Filter.c **** * \details  Initializes the Median filter.
1021:Generated_Source\PSoC6/CapSense_Filter.c **** *
1022:Generated_Source\PSoC6/CapSense_Filter.c **** * \param    ptrFilterHistObj The pointer to the filter RAM object of the sensor.
1023:Generated_Source\PSoC6/CapSense_Filter.c **** * \param    ptrSensorObj     The pointer to the sensor RAM object of the sensor.
1024:Generated_Source\PSoC6/CapSense_Filter.c **** * \param    wdType           Specifies the type of a widget.
1025:Generated_Source\PSoC6/CapSense_Filter.c **** *
1026:Generated_Source\PSoC6/CapSense_Filter.c **** *******************************************************************************/
1027:Generated_Source\PSoC6/CapSense_Filter.c **** void CapSense_InitializeMedianInternal(CapSense_PTR_FILTER_VARIANT ptrFilterHistObj,
1028:Generated_Source\PSoC6/CapSense_Filter.c ****                                                CapSense_RAM_SNS_STRUCT *ptrSensorObj, uint32 wdType
1029:Generated_Source\PSoC6/CapSense_Filter.c **** {
 403              		.loc 1 1029 0
 404              		.cfi_startproc
 405              		@ args = 0, pretend = 0, frame = 0
 406              		@ frame_needed = 0, uses_anonymous_args = 0
 407              	.LVL52:
 408 0000 F0B5     		push	{r4, r5, r6, r7, lr}
 409              		.cfi_def_cfa_offset 20
 410              		.cfi_offset 4, -20
 411              		.cfi_offset 5, -16
 412              		.cfi_offset 6, -12
 413              		.cfi_offset 7, -8
 414              		.cfi_offset 14, -4
 415              	.LVL53:
1030:Generated_Source\PSoC6/CapSense_Filter.c ****     uint32 freqChannel;
1031:Generated_Source\PSoC6/CapSense_Filter.c **** 
1032:Generated_Source\PSoC6/CapSense_Filter.c ****     for(freqChannel = CapSense_NUM_SCAN_FREQS; freqChannel-- > 0u;)
 416              		.loc 1 1032 0
ARM GAS  C:\Users\codyg\AppData\Local\Temp\ccRbtLKH.s 			page 27


 417 0002 0123     		movs	r3, #1
 418 0004 0CE0     		b	.L26
 419              	.LVL54:
 420              	.L28:
1033:Generated_Source\PSoC6/CapSense_Filter.c ****     {
1034:Generated_Source\PSoC6/CapSense_Filter.c ****         if ((CapSense_WD_TYPE_ENUM)wdType != CapSense_WD_PROXIMITY_E)
 421              		.loc 1 1034 0
 422 0006 FF23     		movs	r3, #255
 423 0008 1340     		ands	r3, r2
 424 000a 062B     		cmp	r3, #6
 425 000c 07D1     		bne	.L27
1035:Generated_Source\PSoC6/CapSense_Filter.c ****         {
1036:Generated_Source\PSoC6/CapSense_Filter.c ****             #if (CapSense_REGULAR_SENSOR_EN && CapSense_REGULAR_RC_MEDIAN_FILTER_EN)
1037:Generated_Source\PSoC6/CapSense_Filter.c ****                 ptrFilterHistObj.ptrRegular->regularChannel[freqChannel].medHistory[0u] = ptrSensor
1038:Generated_Source\PSoC6/CapSense_Filter.c ****                 ptrFilterHistObj.ptrRegular->regularChannel[freqChannel].medHistory[1u] = ptrSensor
1039:Generated_Source\PSoC6/CapSense_Filter.c ****             #endif /* (CapSense_REGULAR_SENSOR_EN) */
1040:Generated_Source\PSoC6/CapSense_Filter.c ****         }
1041:Generated_Source\PSoC6/CapSense_Filter.c ****         else
1042:Generated_Source\PSoC6/CapSense_Filter.c ****         {
1043:Generated_Source\PSoC6/CapSense_Filter.c ****             #if (CapSense_PROXIMITY_SENSOR_EN && CapSense_PROX_RC_MEDIAN_FILTER_EN)
1044:Generated_Source\PSoC6/CapSense_Filter.c ****                 ptrFilterHistObj.ptrProx->proxChannel[freqChannel].medHistory[0u] = ptrSensorObj->r
 426              		.loc 1 1044 0
 427 000e 6500     		lsls	r5, r4, #1
 428 0010 6F5A     		ldrh	r7, [r5, r1]
 429 0012 2E19     		adds	r6, r5, r4
 430 0014 B300     		lsls	r3, r6, #2
 431 0016 C318     		adds	r3, r0, r3
 432 0018 5F80     		strh	r7, [r3, #2]
1045:Generated_Source\PSoC6/CapSense_Filter.c ****                 ptrFilterHistObj.ptrProx->proxChannel[freqChannel].medHistory[1u] = ptrSensorObj->r
 433              		.loc 1 1045 0
 434 001a 6D5A     		ldrh	r5, [r5, r1]
 435 001c 9D80     		strh	r5, [r3, #4]
 436              	.L27:
1029:Generated_Source\PSoC6/CapSense_Filter.c ****     uint32 freqChannel;
 437              		.loc 1 1029 0 discriminator 1
 438 001e 2300     		movs	r3, r4
 439              	.LVL55:
 440              	.L26:
1032:Generated_Source\PSoC6/CapSense_Filter.c ****     {
 441              		.loc 1 1032 0 discriminator 1
 442 0020 5C1E     		subs	r4, r3, #1
 443              	.LVL56:
 444 0022 002B     		cmp	r3, #0
 445 0024 EFD1     		bne	.L28
1046:Generated_Source\PSoC6/CapSense_Filter.c ****             #endif /* (CapSense_PROXIMITY_SENSOR_EN) */
1047:Generated_Source\PSoC6/CapSense_Filter.c ****         }
1048:Generated_Source\PSoC6/CapSense_Filter.c ****     }
1049:Generated_Source\PSoC6/CapSense_Filter.c **** }
 446              		.loc 1 1049 0
 447              		@ sp needed
 448              	.LVL57:
 449 0026 F0BD     		pop	{r4, r5, r6, r7, pc}
 450              		.cfi_endproc
 451              	.LFE54:
 452              		.size	CapSense_InitializeMedianInternal, .-CapSense_InitializeMedianInternal
 453              		.section	.text.CapSense_InitializeMedian,"ax",%progbits
 454              		.align	2
ARM GAS  C:\Users\codyg\AppData\Local\Temp\ccRbtLKH.s 			page 28


 455              		.global	CapSense_InitializeMedian
 456              		.code	16
 457              		.thumb_func
 458              		.type	CapSense_InitializeMedian, %function
 459              	CapSense_InitializeMedian:
 460              	.LFB52:
 941:Generated_Source\PSoC6/CapSense_Filter.c ****     CapSense_FLASH_WD_STRUCT const *ptrWidget = &CapSense_dsFlash.wdgtArray[widgetId];
 461              		.loc 1 941 0
 462              		.cfi_startproc
 463              		@ args = 0, pretend = 0, frame = 0
 464              		@ frame_needed = 0, uses_anonymous_args = 0
 465              	.LVL58:
 466 0000 F8B5     		push	{r3, r4, r5, r6, r7, lr}
 467              		.cfi_def_cfa_offset 24
 468              		.cfi_offset 3, -24
 469              		.cfi_offset 4, -20
 470              		.cfi_offset 5, -16
 471              		.cfi_offset 6, -12
 472              		.cfi_offset 7, -8
 473              		.cfi_offset 14, -4
 474              	.LVL59:
 947:Generated_Source\PSoC6/CapSense_Filter.c ****     ptrSensor = &ptrSensor[sensorId];
 475              		.loc 1 947 0
 476 0002 0E4E     		ldr	r6, .L31
 477 0004 C300     		lsls	r3, r0, #3
 478 0006 1C1A     		subs	r4, r3, r0
 479 0008 A200     		lsls	r2, r4, #2
 480 000a B218     		adds	r2, r6, r2
 481              	.LVL60:
 948:Generated_Source\PSoC6/CapSense_Filter.c **** 
 482              		.loc 1 948 0
 483 000c 8C00     		lsls	r4, r1, #2
 484 000e 6418     		adds	r4, r4, r1
 485 0010 6500     		lsls	r5, r4, #1
 486 0012 9468     		ldr	r4, [r2, #8]
 487 0014 A446     		mov	ip, r4
 488 0016 6544     		add	r5, r5, ip
 489              	.LVL61:
 951:Generated_Source\PSoC6/CapSense_Filter.c **** 
 490              		.loc 1 951 0
 491 0018 D768     		ldr	r7, [r2, #12]
 492 001a 3C00     		movs	r4, r7
 493              	.LVL62:
 953:Generated_Source\PSoC6/CapSense_Filter.c ****     {
 494              		.loc 1 953 0
 495 001c 1B1A     		subs	r3, r3, r0
 496 001e 9A00     		lsls	r2, r3, #2
 497 0020 B218     		adds	r2, r6, r2
 498 0022 927E     		ldrb	r2, [r2, #26]
 499 0024 062A     		cmp	r2, #6
 500 0026 03D1     		bne	.L30
 962:Generated_Source\PSoC6/CapSense_Filter.c ****         #endif /* (CapSense_PROXIMITY_SENSOR_EN) */
 501              		.loc 1 962 0
 502 0028 4B00     		lsls	r3, r1, #1
 503 002a 5B18     		adds	r3, r3, r1
 504 002c 9C00     		lsls	r4, r3, #2
 505 002e 3C19     		adds	r4, r7, r4
ARM GAS  C:\Users\codyg\AppData\Local\Temp\ccRbtLKH.s 			page 29


 506              	.L30:
 966:Generated_Source\PSoC6/CapSense_Filter.c **** }
 507              		.loc 1 966 0
 508 0030 2900     		movs	r1, r5
 509              	.LVL63:
 510 0032 2000     		movs	r0, r4
 511              	.LVL64:
 512 0034 FFF7FEFF 		bl	CapSense_InitializeMedianInternal
 513              	.LVL65:
 967:Generated_Source\PSoC6/CapSense_Filter.c **** 
 514              		.loc 1 967 0
 515              		@ sp needed
 516              	.LVL66:
 517              	.LVL67:
 518              	.LVL68:
 519 0038 F8BD     		pop	{r3, r4, r5, r6, r7, pc}
 520              	.L32:
 521 003a C046     		.align	2
 522              	.L31:
 523 003c 00000000 		.word	CapSense_dsFlash
 524              		.cfi_endproc
 525              	.LFE52:
 526              		.size	CapSense_InitializeMedian, .-CapSense_InitializeMedian
 527              		.section	.text.CapSense_InitializeAverageInternal,"ax",%progbits
 528              		.align	2
 529              		.global	CapSense_InitializeAverageInternal
 530              		.code	16
 531              		.thumb_func
 532              		.type	CapSense_InitializeAverageInternal, %function
 533              	CapSense_InitializeAverageInternal:
 534              	.LFB58:
1050:Generated_Source\PSoC6/CapSense_Filter.c **** 
1051:Generated_Source\PSoC6/CapSense_Filter.c **** 
1052:Generated_Source\PSoC6/CapSense_Filter.c **** /*******************************************************************************
1053:Generated_Source\PSoC6/CapSense_Filter.c **** * Function Name: CapSense_RunMedianInternal
1054:Generated_Source\PSoC6/CapSense_Filter.c **** ****************************************************************************//**
1055:Generated_Source\PSoC6/CapSense_Filter.c **** *
1056:Generated_Source\PSoC6/CapSense_Filter.c **** * \brief    Runs the Median filter.
1057:Generated_Source\PSoC6/CapSense_Filter.c **** *
1058:Generated_Source\PSoC6/CapSense_Filter.c **** * \details  Runs the Median filter.
1059:Generated_Source\PSoC6/CapSense_Filter.c **** *
1060:Generated_Source\PSoC6/CapSense_Filter.c **** * \param    ptrFilterHistObj The pointer to the filter RAM object of the sensor.
1061:Generated_Source\PSoC6/CapSense_Filter.c **** * \param    ptrSensorObj     The pointer to the sensor RAM object of the sensor.
1062:Generated_Source\PSoC6/CapSense_Filter.c **** * \param    wdType           Specifies the type of a widget.
1063:Generated_Source\PSoC6/CapSense_Filter.c **** *
1064:Generated_Source\PSoC6/CapSense_Filter.c **** *******************************************************************************/
1065:Generated_Source\PSoC6/CapSense_Filter.c **** void CapSense_RunMedianInternal(CapSense_PTR_FILTER_VARIANT ptrFilterHistObj,
1066:Generated_Source\PSoC6/CapSense_Filter.c ****                                         CapSense_RAM_SNS_STRUCT *ptrSensorObj, uint32 wdType)
1067:Generated_Source\PSoC6/CapSense_Filter.c **** {
1068:Generated_Source\PSoC6/CapSense_Filter.c ****     uint32 freqChannel;
1069:Generated_Source\PSoC6/CapSense_Filter.c **** 
1070:Generated_Source\PSoC6/CapSense_Filter.c ****     #if ((CapSense_REGULAR_SENSOR_EN && CapSense_REGULAR_RC_MEDIAN_FILTER_EN) || \
1071:Generated_Source\PSoC6/CapSense_Filter.c ****          (CapSense_PROXIMITY_SENSOR_EN && CapSense_PROX_RC_MEDIAN_FILTER_EN))
1072:Generated_Source\PSoC6/CapSense_Filter.c ****         uint32 temp;
1073:Generated_Source\PSoC6/CapSense_Filter.c ****     #endif
1074:Generated_Source\PSoC6/CapSense_Filter.c **** 
1075:Generated_Source\PSoC6/CapSense_Filter.c ****     for(freqChannel = CapSense_NUM_SCAN_FREQS; freqChannel-- > 0u;)
ARM GAS  C:\Users\codyg\AppData\Local\Temp\ccRbtLKH.s 			page 30


1076:Generated_Source\PSoC6/CapSense_Filter.c ****     {
1077:Generated_Source\PSoC6/CapSense_Filter.c ****         if ((CapSense_WD_TYPE_ENUM)wdType != CapSense_WD_PROXIMITY_E)
1078:Generated_Source\PSoC6/CapSense_Filter.c ****         {
1079:Generated_Source\PSoC6/CapSense_Filter.c ****             #if (CapSense_REGULAR_SENSOR_EN && CapSense_REGULAR_RC_MEDIAN_FILTER_EN)
1080:Generated_Source\PSoC6/CapSense_Filter.c ****                 temp = CapSense_FtMedian((uint32)ptrSensorObj->raw[freqChannel],\
1081:Generated_Source\PSoC6/CapSense_Filter.c ****                                                  (uint32)ptrFilterHistObj.ptrRegular->regularChanne
1082:Generated_Source\PSoC6/CapSense_Filter.c ****                                                  (uint32)ptrFilterHistObj.ptrRegular->regularChanne
1083:Generated_Source\PSoC6/CapSense_Filter.c ****                 ptrFilterHistObj.ptrRegular->regularChannel[freqChannel].medHistory[1u] = \
1084:Generated_Source\PSoC6/CapSense_Filter.c ****                 ptrFilterHistObj.ptrRegular->regularChannel[freqChannel].medHistory[0u];
1085:Generated_Source\PSoC6/CapSense_Filter.c ****                 ptrFilterHistObj.ptrRegular->regularChannel[freqChannel].medHistory[0u] = ptrSensor
1086:Generated_Source\PSoC6/CapSense_Filter.c ****                 ptrSensorObj->raw[freqChannel] = CY_LO16(temp);
1087:Generated_Source\PSoC6/CapSense_Filter.c ****             #endif /* (CapSense_REGULAR_SENSOR_EN) */
1088:Generated_Source\PSoC6/CapSense_Filter.c ****         }
1089:Generated_Source\PSoC6/CapSense_Filter.c ****         else
1090:Generated_Source\PSoC6/CapSense_Filter.c ****         {
1091:Generated_Source\PSoC6/CapSense_Filter.c ****             #if (CapSense_PROXIMITY_SENSOR_EN && CapSense_PROX_RC_MEDIAN_FILTER_EN)
1092:Generated_Source\PSoC6/CapSense_Filter.c ****                 temp = CapSense_FtMedian((uint32)ptrSensorObj->raw[freqChannel],\
1093:Generated_Source\PSoC6/CapSense_Filter.c ****                                                  (uint32)ptrFilterHistObj.ptrProx->proxChannel[freq
1094:Generated_Source\PSoC6/CapSense_Filter.c ****                                                  (uint32)ptrFilterHistObj.ptrProx->proxChannel[freq
1095:Generated_Source\PSoC6/CapSense_Filter.c ****                 ptrFilterHistObj.ptrProx->proxChannel[freqChannel].medHistory[1u] = \
1096:Generated_Source\PSoC6/CapSense_Filter.c ****                 ptrFilterHistObj.ptrProx->proxChannel[freqChannel].medHistory[0u];
1097:Generated_Source\PSoC6/CapSense_Filter.c ****                 ptrFilterHistObj.ptrProx->proxChannel[freqChannel].medHistory[0u] = ptrSensorObj->r
1098:Generated_Source\PSoC6/CapSense_Filter.c ****                 ptrSensorObj->raw[freqChannel] = CY_LO16(temp);
1099:Generated_Source\PSoC6/CapSense_Filter.c ****             #endif /* (CapSense_PROXIMITY_SENSOR_EN) */
1100:Generated_Source\PSoC6/CapSense_Filter.c ****         }
1101:Generated_Source\PSoC6/CapSense_Filter.c ****     }
1102:Generated_Source\PSoC6/CapSense_Filter.c **** }
1103:Generated_Source\PSoC6/CapSense_Filter.c **** #endif /* (CapSense_REGULAR_RC_MEDIAN_FILTER_EN || CapSense_PROX_RC_MEDIAN_FILTER_EN) */
1104:Generated_Source\PSoC6/CapSense_Filter.c **** 
1105:Generated_Source\PSoC6/CapSense_Filter.c **** 
1106:Generated_Source\PSoC6/CapSense_Filter.c **** #if (CapSense_REGULAR_RC_AVERAGE_FILTER_EN || CapSense_PROX_RC_AVERAGE_FILTER_EN)
1107:Generated_Source\PSoC6/CapSense_Filter.c **** 
1108:Generated_Source\PSoC6/CapSense_Filter.c **** /*******************************************************************************
1109:Generated_Source\PSoC6/CapSense_Filter.c **** * Function Name: CapSense_InitializeAverage
1110:Generated_Source\PSoC6/CapSense_Filter.c **** ****************************************************************************//**
1111:Generated_Source\PSoC6/CapSense_Filter.c **** *
1112:Generated_Source\PSoC6/CapSense_Filter.c **** * \brief    Initializes the average filter history.
1113:Generated_Source\PSoC6/CapSense_Filter.c **** *
1114:Generated_Source\PSoC6/CapSense_Filter.c **** * \details  Initializes the average filter history.
1115:Generated_Source\PSoC6/CapSense_Filter.c **** *
1116:Generated_Source\PSoC6/CapSense_Filter.c **** * \param    widgetId Specifies the ID number of the widget.
1117:Generated_Source\PSoC6/CapSense_Filter.c **** * \param    sensorId Specifies the ID number of the sensor in the widget.
1118:Generated_Source\PSoC6/CapSense_Filter.c **** *
1119:Generated_Source\PSoC6/CapSense_Filter.c **** *******************************************************************************/
1120:Generated_Source\PSoC6/CapSense_Filter.c **** void CapSense_InitializeAverage(uint32 widgetId, uint32 sensorId)
1121:Generated_Source\PSoC6/CapSense_Filter.c **** {
1122:Generated_Source\PSoC6/CapSense_Filter.c ****     CapSense_FLASH_WD_STRUCT const *ptrWidget = &CapSense_dsFlash.wdgtArray[widgetId];
1123:Generated_Source\PSoC6/CapSense_Filter.c ****     CapSense_RAM_SNS_STRUCT *ptrSensor = NULL;
1124:Generated_Source\PSoC6/CapSense_Filter.c ****     CapSense_PTR_FILTER_VARIANT ptrFilterHistObj;
1125:Generated_Source\PSoC6/CapSense_Filter.c **** 
1126:Generated_Source\PSoC6/CapSense_Filter.c ****     /* Find pointer to specified sensor object */
1127:Generated_Source\PSoC6/CapSense_Filter.c ****     ptrSensor = ptrWidget->ptr2SnsRam;
1128:Generated_Source\PSoC6/CapSense_Filter.c ****     ptrSensor = &ptrSensor[sensorId];
1129:Generated_Source\PSoC6/CapSense_Filter.c **** 
1130:Generated_Source\PSoC6/CapSense_Filter.c ****     /* Find pointer to specified filter sensor object */
1131:Generated_Source\PSoC6/CapSense_Filter.c ****     ptrFilterHistObj.ptr = ptrWidget->ptr2FltrHistory;
1132:Generated_Source\PSoC6/CapSense_Filter.c **** 
ARM GAS  C:\Users\codyg\AppData\Local\Temp\ccRbtLKH.s 			page 31


1133:Generated_Source\PSoC6/CapSense_Filter.c ****     if ((CapSense_WD_TYPE_ENUM)ptrWidget->wdgtType != CapSense_WD_PROXIMITY_E)
1134:Generated_Source\PSoC6/CapSense_Filter.c ****     {
1135:Generated_Source\PSoC6/CapSense_Filter.c ****         #if (CapSense_REGULAR_SENSOR_EN)
1136:Generated_Source\PSoC6/CapSense_Filter.c ****             ptrFilterHistObj.ptrRegular = &ptrFilterHistObj.ptrRegular[sensorId];
1137:Generated_Source\PSoC6/CapSense_Filter.c ****         #endif /* (CapSense_REGULAR_SENSOR_EN) */
1138:Generated_Source\PSoC6/CapSense_Filter.c ****     }
1139:Generated_Source\PSoC6/CapSense_Filter.c ****     else
1140:Generated_Source\PSoC6/CapSense_Filter.c ****     {
1141:Generated_Source\PSoC6/CapSense_Filter.c ****         #if (CapSense_PROXIMITY_SENSOR_EN)
1142:Generated_Source\PSoC6/CapSense_Filter.c ****             ptrFilterHistObj.ptrProx = &ptrFilterHistObj.ptrProx[sensorId];
1143:Generated_Source\PSoC6/CapSense_Filter.c ****         #endif /* (CapSense_PROXIMITY_SENSOR_EN) */
1144:Generated_Source\PSoC6/CapSense_Filter.c ****     }
1145:Generated_Source\PSoC6/CapSense_Filter.c **** 
1146:Generated_Source\PSoC6/CapSense_Filter.c ****     CapSense_InitializeAverageInternal(ptrFilterHistObj, ptrSensor, (uint32)ptrWidget->wdgtType);
1147:Generated_Source\PSoC6/CapSense_Filter.c **** }
1148:Generated_Source\PSoC6/CapSense_Filter.c **** 
1149:Generated_Source\PSoC6/CapSense_Filter.c **** 
1150:Generated_Source\PSoC6/CapSense_Filter.c **** /*******************************************************************************
1151:Generated_Source\PSoC6/CapSense_Filter.c **** * Function Name: CapSense_RunAverage
1152:Generated_Source\PSoC6/CapSense_Filter.c **** ****************************************************************************//**
1153:Generated_Source\PSoC6/CapSense_Filter.c **** *
1154:Generated_Source\PSoC6/CapSense_Filter.c **** * \brief    Executes the average filter algorithm on a sensor indicated by an input
1155:Generated_Source\PSoC6/CapSense_Filter.c **** *           parameter.
1156:Generated_Source\PSoC6/CapSense_Filter.c **** *
1157:Generated_Source\PSoC6/CapSense_Filter.c **** * \details  Executes the average filter algorithm on a sensor indicated by an input
1158:Generated_Source\PSoC6/CapSense_Filter.c **** *           parameter.
1159:Generated_Source\PSoC6/CapSense_Filter.c **** *
1160:Generated_Source\PSoC6/CapSense_Filter.c **** * \param    widgetId Specifies the ID number of the widget.
1161:Generated_Source\PSoC6/CapSense_Filter.c **** * \param    sensorId Specifies the ID number of the sensor in the widget.
1162:Generated_Source\PSoC6/CapSense_Filter.c **** *
1163:Generated_Source\PSoC6/CapSense_Filter.c **** *******************************************************************************/
1164:Generated_Source\PSoC6/CapSense_Filter.c **** void CapSense_RunAverage(uint32 widgetId, uint32 sensorId)
1165:Generated_Source\PSoC6/CapSense_Filter.c **** {
1166:Generated_Source\PSoC6/CapSense_Filter.c ****     CapSense_FLASH_WD_STRUCT const *ptrWidget = &CapSense_dsFlash.wdgtArray[widgetId];
1167:Generated_Source\PSoC6/CapSense_Filter.c ****     CapSense_RAM_SNS_STRUCT *ptrSensor = NULL;
1168:Generated_Source\PSoC6/CapSense_Filter.c ****     CapSense_PTR_FILTER_VARIANT ptrFilterHistObj;
1169:Generated_Source\PSoC6/CapSense_Filter.c **** 
1170:Generated_Source\PSoC6/CapSense_Filter.c ****     /* Find pointer to specified sensor object */
1171:Generated_Source\PSoC6/CapSense_Filter.c ****     ptrSensor = ptrWidget->ptr2SnsRam;
1172:Generated_Source\PSoC6/CapSense_Filter.c ****     ptrSensor = &ptrSensor[sensorId];
1173:Generated_Source\PSoC6/CapSense_Filter.c **** 
1174:Generated_Source\PSoC6/CapSense_Filter.c ****     /* Find pointer to specified filter sensor object */
1175:Generated_Source\PSoC6/CapSense_Filter.c ****     ptrFilterHistObj.ptr = ptrWidget->ptr2FltrHistory;
1176:Generated_Source\PSoC6/CapSense_Filter.c **** 
1177:Generated_Source\PSoC6/CapSense_Filter.c ****     if ((CapSense_WD_TYPE_ENUM)ptrWidget->wdgtType != CapSense_WD_PROXIMITY_E)
1178:Generated_Source\PSoC6/CapSense_Filter.c ****     {
1179:Generated_Source\PSoC6/CapSense_Filter.c ****         #if (CapSense_REGULAR_SENSOR_EN)
1180:Generated_Source\PSoC6/CapSense_Filter.c ****             ptrFilterHistObj.ptrRegular = &ptrFilterHistObj.ptrRegular[sensorId];
1181:Generated_Source\PSoC6/CapSense_Filter.c ****         #endif /* (CapSense_REGULAR_SENSOR_EN) */
1182:Generated_Source\PSoC6/CapSense_Filter.c ****     }
1183:Generated_Source\PSoC6/CapSense_Filter.c ****     else
1184:Generated_Source\PSoC6/CapSense_Filter.c ****     {
1185:Generated_Source\PSoC6/CapSense_Filter.c ****         #if (CapSense_PROXIMITY_SENSOR_EN)
1186:Generated_Source\PSoC6/CapSense_Filter.c ****             ptrFilterHistObj.ptrProx = &ptrFilterHistObj.ptrProx[sensorId];
1187:Generated_Source\PSoC6/CapSense_Filter.c ****         #endif /* (CapSense_PROXIMITY_SENSOR_EN) */
1188:Generated_Source\PSoC6/CapSense_Filter.c ****     }
1189:Generated_Source\PSoC6/CapSense_Filter.c **** 
ARM GAS  C:\Users\codyg\AppData\Local\Temp\ccRbtLKH.s 			page 32


1190:Generated_Source\PSoC6/CapSense_Filter.c ****     CapSense_RunAverageInternal(ptrFilterHistObj, ptrSensor, (uint32)ptrWidget->wdgtType);
1191:Generated_Source\PSoC6/CapSense_Filter.c **** }
1192:Generated_Source\PSoC6/CapSense_Filter.c **** 
1193:Generated_Source\PSoC6/CapSense_Filter.c **** 
1194:Generated_Source\PSoC6/CapSense_Filter.c **** /*******************************************************************************
1195:Generated_Source\PSoC6/CapSense_Filter.c **** * Function Name: CapSense_InitializeAverageInternal
1196:Generated_Source\PSoC6/CapSense_Filter.c **** ****************************************************************************//**
1197:Generated_Source\PSoC6/CapSense_Filter.c **** *
1198:Generated_Source\PSoC6/CapSense_Filter.c **** * \brief    Initializes the average filter.
1199:Generated_Source\PSoC6/CapSense_Filter.c **** *
1200:Generated_Source\PSoC6/CapSense_Filter.c **** * \details  Initializes the average filter.
1201:Generated_Source\PSoC6/CapSense_Filter.c **** *
1202:Generated_Source\PSoC6/CapSense_Filter.c **** * \param    ptrFilterHistObj The pointer to the filter RAM object of the sensor.
1203:Generated_Source\PSoC6/CapSense_Filter.c **** * \param    ptrSensorObj     The pointer to the sensor RAM object of the sensor.
1204:Generated_Source\PSoC6/CapSense_Filter.c **** * \param    wdType           Specifies the type of a widget.
1205:Generated_Source\PSoC6/CapSense_Filter.c **** *
1206:Generated_Source\PSoC6/CapSense_Filter.c **** *******************************************************************************/
1207:Generated_Source\PSoC6/CapSense_Filter.c **** void CapSense_InitializeAverageInternal(CapSense_PTR_FILTER_VARIANT ptrFilterHistObj,\
1208:Generated_Source\PSoC6/CapSense_Filter.c ****                                                   CapSense_RAM_SNS_STRUCT *ptrSensorObj, uint32 wdT
1209:Generated_Source\PSoC6/CapSense_Filter.c **** {
 535              		.loc 1 1209 0
 536              		.cfi_startproc
 537              		@ args = 0, pretend = 0, frame = 0
 538              		@ frame_needed = 0, uses_anonymous_args = 0
 539              	.LVL69:
 540 0000 F0B5     		push	{r4, r5, r6, r7, lr}
 541              		.cfi_def_cfa_offset 20
 542              		.cfi_offset 4, -20
 543              		.cfi_offset 5, -16
 544              		.cfi_offset 6, -12
 545              		.cfi_offset 7, -8
 546              		.cfi_offset 14, -4
 547              	.LVL70:
1210:Generated_Source\PSoC6/CapSense_Filter.c ****     uint32 freqChannel;
1211:Generated_Source\PSoC6/CapSense_Filter.c **** 
1212:Generated_Source\PSoC6/CapSense_Filter.c ****     for(freqChannel = CapSense_NUM_SCAN_FREQS; freqChannel-- > 0u;)
 548              		.loc 1 1212 0
 549 0002 0123     		movs	r3, #1
 550 0004 0EE0     		b	.L34
 551              	.LVL71:
 552              	.L36:
1213:Generated_Source\PSoC6/CapSense_Filter.c ****     {
1214:Generated_Source\PSoC6/CapSense_Filter.c ****         if ((CapSense_WD_TYPE_ENUM)wdType != CapSense_WD_PROXIMITY_E)
 553              		.loc 1 1214 0
 554 0006 FF23     		movs	r3, #255
 555 0008 1340     		ands	r3, r2
 556 000a 062B     		cmp	r3, #6
 557 000c 09D1     		bne	.L35
1215:Generated_Source\PSoC6/CapSense_Filter.c ****         {
1216:Generated_Source\PSoC6/CapSense_Filter.c ****             #if (CapSense_REGULAR_SENSOR_EN && CapSense_REGULAR_RC_AVERAGE_FILTER_EN)
1217:Generated_Source\PSoC6/CapSense_Filter.c ****                 ptrFilterHistObj.ptrRegular->regularChannel[freqChannel].avgHistory[0] = ptrSensorO
1218:Generated_Source\PSoC6/CapSense_Filter.c ****                 #if (CapSense_REGULAR_AVERAGE_LEN == CapSense_AVERAGE_FILTER_LEN_4)
1219:Generated_Source\PSoC6/CapSense_Filter.c ****                     ptrFilterHistObj.ptrRegular->regularChannel[freqChannel].avgHistory[1u] = ptrSe
1220:Generated_Source\PSoC6/CapSense_Filter.c ****                     ptrFilterHistObj.ptrRegular->regularChannel[freqChannel].avgHistory[2u] = ptrSe
1221:Generated_Source\PSoC6/CapSense_Filter.c ****                 #endif /* CapSense_REGULAR_AVERAGE_LEN == CapSense_AVERAGE_FILTER_LEN_4 */
1222:Generated_Source\PSoC6/CapSense_Filter.c ****             #endif /* (CapSense_REGULAR_SENSOR_EN) */
1223:Generated_Source\PSoC6/CapSense_Filter.c ****         }
ARM GAS  C:\Users\codyg\AppData\Local\Temp\ccRbtLKH.s 			page 33


1224:Generated_Source\PSoC6/CapSense_Filter.c ****         else
1225:Generated_Source\PSoC6/CapSense_Filter.c ****         {
1226:Generated_Source\PSoC6/CapSense_Filter.c ****             #if (CapSense_PROXIMITY_SENSOR_EN && CapSense_PROX_RC_AVERAGE_FILTER_EN)
1227:Generated_Source\PSoC6/CapSense_Filter.c ****                 ptrFilterHistObj.ptrProx->proxChannel[freqChannel].avgHistory[0] = ptrSensorObj->ra
 558              		.loc 1 1227 0
 559 000e 6500     		lsls	r5, r4, #1
 560 0010 6F5A     		ldrh	r7, [r5, r1]
 561 0012 2E19     		adds	r6, r5, r4
 562 0014 B300     		lsls	r3, r6, #2
 563 0016 C318     		adds	r3, r0, r3
 564 0018 DF80     		strh	r7, [r3, #6]
1228:Generated_Source\PSoC6/CapSense_Filter.c ****                     #if (CapSense_PROX_AVERAGE_LEN == CapSense_AVERAGE_FILTER_LEN_4)
1229:Generated_Source\PSoC6/CapSense_Filter.c ****                         ptrFilterHistObj.ptrProx->proxChannel[freqChannel].avgHistory[1u] = ptrSens
 565              		.loc 1 1229 0
 566 001a 6E5A     		ldrh	r6, [r5, r1]
 567 001c 1E81     		strh	r6, [r3, #8]
1230:Generated_Source\PSoC6/CapSense_Filter.c ****                         ptrFilterHistObj.ptrProx->proxChannel[freqChannel].avgHistory[2u] = ptrSens
 568              		.loc 1 1230 0
 569 001e 6D5A     		ldrh	r5, [r5, r1]
 570 0020 5D81     		strh	r5, [r3, #10]
 571              	.L35:
1209:Generated_Source\PSoC6/CapSense_Filter.c ****     uint32 freqChannel;
 572              		.loc 1 1209 0 discriminator 1
 573 0022 2300     		movs	r3, r4
 574              	.LVL72:
 575              	.L34:
1212:Generated_Source\PSoC6/CapSense_Filter.c ****     {
 576              		.loc 1 1212 0 discriminator 1
 577 0024 5C1E     		subs	r4, r3, #1
 578              	.LVL73:
 579 0026 002B     		cmp	r3, #0
 580 0028 EDD1     		bne	.L36
1231:Generated_Source\PSoC6/CapSense_Filter.c ****                     #endif /* CapSense_REGULAR_AVERAGE_LEN == CapSense_AVERAGE_FILTER_LEN_4 */
1232:Generated_Source\PSoC6/CapSense_Filter.c ****             #endif /* (CapSense_PROXIMITY_SENSOR_EN) */
1233:Generated_Source\PSoC6/CapSense_Filter.c ****         }
1234:Generated_Source\PSoC6/CapSense_Filter.c ****     }
1235:Generated_Source\PSoC6/CapSense_Filter.c **** }
 581              		.loc 1 1235 0
 582              		@ sp needed
 583              	.LVL74:
 584 002a F0BD     		pop	{r4, r5, r6, r7, pc}
 585              		.cfi_endproc
 586              	.LFE58:
 587              		.size	CapSense_InitializeAverageInternal, .-CapSense_InitializeAverageInternal
 588              		.section	.text.CapSense_InitializeWidgetFilter,"ax",%progbits
 589              		.align	2
 590              		.global	CapSense_InitializeWidgetFilter
 591              		.code	16
 592              		.thumb_func
 593              		.type	CapSense_InitializeWidgetFilter, %function
 594              	CapSense_InitializeWidgetFilter:
 595              	.LFB47:
 636:Generated_Source\PSoC6/CapSense_Filter.c ****     uint32 sensorId;
 596              		.loc 1 636 0
 597              		.cfi_startproc
 598              		@ args = 0, pretend = 0, frame = 0
 599              		@ frame_needed = 0, uses_anonymous_args = 0
ARM GAS  C:\Users\codyg\AppData\Local\Temp\ccRbtLKH.s 			page 34


 600              	.LVL75:
 601 0000 F0B5     		push	{r4, r5, r6, r7, lr}
 602              		.cfi_def_cfa_offset 20
 603              		.cfi_offset 4, -20
 604              		.cfi_offset 5, -16
 605              		.cfi_offset 6, -12
 606              		.cfi_offset 7, -8
 607              		.cfi_offset 14, -4
 608 0002 4746     		mov	r7, r8
 609 0004 80B4     		push	{r7}
 610              		.cfi_def_cfa_offset 24
 611              		.cfi_offset 8, -24
 612 0006 8046     		mov	r8, r0
 613              	.LVL76:
 658:Generated_Source\PSoC6/CapSense_Filter.c **** 
 614              		.loc 1 658 0
 615 0008 C200     		lsls	r2, r0, #3
 616 000a 121A     		subs	r2, r2, r0
 617 000c 9300     		lsls	r3, r2, #2
 618 000e 174A     		ldr	r2, .L41
 619 0010 D318     		adds	r3, r2, r3
 620 0012 1B8B     		ldrh	r3, [r3, #24]
 621              	.LVL77:
 660:Generated_Source\PSoC6/CapSense_Filter.c ****     {
 622              		.loc 1 660 0
 623 0014 24E0     		b	.L38
 624              	.LVL78:
 625              	.L40:
 663:Generated_Source\PSoC6/CapSense_Filter.c ****         ptrSensor = &ptrSensor[sensorId];
 626              		.loc 1 663 0
 627 0016 4346     		mov	r3, r8
 628 0018 DA00     		lsls	r2, r3, #3
 629 001a D21A     		subs	r2, r2, r3
 630 001c 9300     		lsls	r3, r2, #2
 631 001e 134A     		ldr	r2, .L41
 632              	.LVL79:
 633 0020 D318     		adds	r3, r2, r3
 634              	.LVL80:
 664:Generated_Source\PSoC6/CapSense_Filter.c **** 
 635              		.loc 1 664 0
 636 0022 BA00     		lsls	r2, r7, #2
 637              	.LVL81:
 638 0024 D219     		adds	r2, r2, r7
 639 0026 5400     		lsls	r4, r2, #1
 640 0028 9A68     		ldr	r2, [r3, #8]
 641 002a 9446     		mov	ip, r2
 642 002c 6444     		add	r4, r4, ip
 643              	.LVL82:
 668:Generated_Source\PSoC6/CapSense_Filter.c ****         #endif
 644              		.loc 1 668 0
 645 002e DA68     		ldr	r2, [r3, #12]
 646 0030 1500     		movs	r5, r2
 647              	.LVL83:
 677:Generated_Source\PSoC6/CapSense_Filter.c ****         {
 648              		.loc 1 677 0
 649 0032 9E7E     		ldrb	r6, [r3, #26]
 650 0034 062E     		cmp	r6, #6
ARM GAS  C:\Users\codyg\AppData\Local\Temp\ccRbtLKH.s 			page 35


 651 0036 03D1     		bne	.L39
 690:Generated_Source\PSoC6/CapSense_Filter.c ****             #endif /* #if (0u != CapSense_PROX_RC_FILTER_EN) */
 652              		.loc 1 690 0
 653 0038 7B00     		lsls	r3, r7, #1
 654 003a DB19     		adds	r3, r3, r7
 655 003c 9D00     		lsls	r5, r3, #2
 656 003e 5519     		adds	r5, r2, r5
 657              	.L39:
 695:Generated_Source\PSoC6/CapSense_Filter.c ****         #endif /* (CapSense_REGULAR_RC_IIR_FILTER_EN || CapSense_PROX_RC_IIR_FILTER_EN) */
 658              		.loc 1 695 0
 659 0040 3200     		movs	r2, r6
 660 0042 2100     		movs	r1, r4
 661              	.LVL84:
 662 0044 2800     		movs	r0, r5
 663 0046 FFF7FEFF 		bl	CapSense_InitializeIIRInternal
 664              	.LVL85:
 699:Generated_Source\PSoC6/CapSense_Filter.c ****         #endif /* (CapSense_REGULAR_RC_MEDIAN_FILTER_EN || CapSense_PROX_RC_MEDIAN_FILTER_EN) */
 665              		.loc 1 699 0
 666 004a 3200     		movs	r2, r6
 667 004c 2100     		movs	r1, r4
 668 004e 2800     		movs	r0, r5
 669 0050 FFF7FEFF 		bl	CapSense_InitializeMedianInternal
 670              	.LVL86:
 703:Generated_Source\PSoC6/CapSense_Filter.c ****         #endif /* (CapSense_REGULAR_RC_AVERAGE_FILTER_EN || CapSense_PROX_RC_AVERAGE_FILTER_EN) */
 671              		.loc 1 703 0
 672 0054 3200     		movs	r2, r6
 673 0056 2100     		movs	r1, r4
 674 0058 2800     		movs	r0, r5
 675 005a FFF7FEFF 		bl	CapSense_InitializeAverageInternal
 676              	.LVL87:
 660:Generated_Source\PSoC6/CapSense_Filter.c ****     {
 677              		.loc 1 660 0
 678 005e 3B00     		movs	r3, r7
 679              	.LVL88:
 680              	.L38:
 660:Generated_Source\PSoC6/CapSense_Filter.c ****     {
 681              		.loc 1 660 0 is_stmt 0 discriminator 1
 682 0060 5F1E     		subs	r7, r3, #1
 683              	.LVL89:
 684 0062 002B     		cmp	r3, #0
 685 0064 D7D1     		bne	.L40
 718:Generated_Source\PSoC6/CapSense_Filter.c **** #endif /* ((CapSense_ENABLE == CapSense_RC_FILTER_EN) || \
 686              		.loc 1 718 0 is_stmt 1
 687              		@ sp needed
 688              	.LVL90:
 689              	.LVL91:
 690              	.LVL92:
 691 0066 04BC     		pop	{r2}
 692 0068 9046     		mov	r8, r2
 693 006a F0BD     		pop	{r4, r5, r6, r7, pc}
 694              	.L42:
 695              		.align	2
 696              	.L41:
 697 006c 00000000 		.word	CapSense_dsFlash
 698              		.cfi_endproc
 699              	.LFE47:
 700              		.size	CapSense_InitializeWidgetFilter, .-CapSense_InitializeWidgetFilter
ARM GAS  C:\Users\codyg\AppData\Local\Temp\ccRbtLKH.s 			page 36


 701              		.section	.text.CapSense_InitializeAllFilters,"ax",%progbits
 702              		.align	2
 703              		.global	CapSense_InitializeAllFilters
 704              		.code	16
 705              		.thumb_func
 706              		.type	CapSense_InitializeAllFilters, %function
 707              	CapSense_InitializeAllFilters:
 708              	.LFB46:
 606:Generated_Source\PSoC6/CapSense_Filter.c ****     uint32 widgetId;
 709              		.loc 1 606 0
 710              		.cfi_startproc
 711              		@ args = 0, pretend = 0, frame = 0
 712              		@ frame_needed = 0, uses_anonymous_args = 0
 713 0000 10B5     		push	{r4, lr}
 714              		.cfi_def_cfa_offset 8
 715              		.cfi_offset 4, -8
 716              		.cfi_offset 14, -4
 717              	.LVL93:
 609:Generated_Source\PSoC6/CapSense_Filter.c ****     {
 718              		.loc 1 609 0
 719 0002 0123     		movs	r3, #1
 720 0004 03E0     		b	.L44
 721              	.LVL94:
 722              	.L45:
 611:Generated_Source\PSoC6/CapSense_Filter.c ****     }
 723              		.loc 1 611 0
 724 0006 2000     		movs	r0, r4
 725 0008 FFF7FEFF 		bl	CapSense_InitializeWidgetFilter
 726              	.LVL95:
 609:Generated_Source\PSoC6/CapSense_Filter.c ****     {
 727              		.loc 1 609 0
 728 000c 2300     		movs	r3, r4
 729              	.LVL96:
 730              	.L44:
 609:Generated_Source\PSoC6/CapSense_Filter.c ****     {
 731              		.loc 1 609 0 is_stmt 0 discriminator 1
 732 000e 5C1E     		subs	r4, r3, #1
 733              	.LVL97:
 734 0010 002B     		cmp	r3, #0
 735 0012 F8D1     		bne	.L45
 613:Generated_Source\PSoC6/CapSense_Filter.c **** 
 736              		.loc 1 613 0 is_stmt 1
 737              		@ sp needed
 738              	.LVL98:
 739 0014 10BD     		pop	{r4, pc}
 740              		.cfi_endproc
 741              	.LFE46:
 742              		.size	CapSense_InitializeAllFilters, .-CapSense_InitializeAllFilters
 743 0016 C046     		.section	.text.CapSense_FtInitialize,"ax",%progbits
 744              		.align	2
 745              		.global	CapSense_FtInitialize
 746              		.code	16
 747              		.thumb_func
 748              		.type	CapSense_FtInitialize, %function
 749              	CapSense_FtInitialize:
 750              	.LFB36:
  64:Generated_Source\PSoC6/CapSense_Filter.c ****     #if ((CapSense_ENABLE == CapSense_RC_FILTER_EN) || \
ARM GAS  C:\Users\codyg\AppData\Local\Temp\ccRbtLKH.s 			page 37


 751              		.loc 1 64 0
 752              		.cfi_startproc
 753              		@ args = 0, pretend = 0, frame = 0
 754              		@ frame_needed = 0, uses_anonymous_args = 0
 755 0000 10B5     		push	{r4, lr}
 756              		.cfi_def_cfa_offset 8
 757              		.cfi_offset 4, -8
 758              		.cfi_offset 14, -4
  67:Generated_Source\PSoC6/CapSense_Filter.c ****     #endif /* ((CapSense_ENABLE == CapSense_RC_FILTER_EN) || \
 759              		.loc 1 67 0
 760 0002 FFF7FEFF 		bl	CapSense_InitializeAllFilters
 761              	.LVL99:
  70:Generated_Source\PSoC6/CapSense_Filter.c **** 
 762              		.loc 1 70 0
 763              		@ sp needed
 764 0006 10BD     		pop	{r4, pc}
 765              		.cfi_endproc
 766              	.LFE36:
 767              		.size	CapSense_FtInitialize, .-CapSense_FtInitialize
 768              		.section	.text.CapSense_InitializeAverage,"ax",%progbits
 769              		.align	2
 770              		.global	CapSense_InitializeAverage
 771              		.code	16
 772              		.thumb_func
 773              		.type	CapSense_InitializeAverage, %function
 774              	CapSense_InitializeAverage:
 775              	.LFB56:
1121:Generated_Source\PSoC6/CapSense_Filter.c ****     CapSense_FLASH_WD_STRUCT const *ptrWidget = &CapSense_dsFlash.wdgtArray[widgetId];
 776              		.loc 1 1121 0
 777              		.cfi_startproc
 778              		@ args = 0, pretend = 0, frame = 0
 779              		@ frame_needed = 0, uses_anonymous_args = 0
 780              	.LVL100:
 781 0000 F8B5     		push	{r3, r4, r5, r6, r7, lr}
 782              		.cfi_def_cfa_offset 24
 783              		.cfi_offset 3, -24
 784              		.cfi_offset 4, -20
 785              		.cfi_offset 5, -16
 786              		.cfi_offset 6, -12
 787              		.cfi_offset 7, -8
 788              		.cfi_offset 14, -4
 789              	.LVL101:
1127:Generated_Source\PSoC6/CapSense_Filter.c ****     ptrSensor = &ptrSensor[sensorId];
 790              		.loc 1 1127 0
 791 0002 0E4E     		ldr	r6, .L49
 792 0004 C300     		lsls	r3, r0, #3
 793 0006 1C1A     		subs	r4, r3, r0
 794 0008 A200     		lsls	r2, r4, #2
 795 000a B218     		adds	r2, r6, r2
 796              	.LVL102:
1128:Generated_Source\PSoC6/CapSense_Filter.c **** 
 797              		.loc 1 1128 0
 798 000c 8C00     		lsls	r4, r1, #2
 799 000e 6418     		adds	r4, r4, r1
 800 0010 6500     		lsls	r5, r4, #1
 801 0012 9468     		ldr	r4, [r2, #8]
 802 0014 A446     		mov	ip, r4
ARM GAS  C:\Users\codyg\AppData\Local\Temp\ccRbtLKH.s 			page 38


 803 0016 6544     		add	r5, r5, ip
 804              	.LVL103:
1131:Generated_Source\PSoC6/CapSense_Filter.c **** 
 805              		.loc 1 1131 0
 806 0018 D768     		ldr	r7, [r2, #12]
 807 001a 3C00     		movs	r4, r7
 808              	.LVL104:
1133:Generated_Source\PSoC6/CapSense_Filter.c ****     {
 809              		.loc 1 1133 0
 810 001c 1B1A     		subs	r3, r3, r0
 811 001e 9A00     		lsls	r2, r3, #2
 812 0020 B218     		adds	r2, r6, r2
 813 0022 927E     		ldrb	r2, [r2, #26]
 814 0024 062A     		cmp	r2, #6
 815 0026 03D1     		bne	.L48
1142:Generated_Source\PSoC6/CapSense_Filter.c ****         #endif /* (CapSense_PROXIMITY_SENSOR_EN) */
 816              		.loc 1 1142 0
 817 0028 4B00     		lsls	r3, r1, #1
 818 002a 5B18     		adds	r3, r3, r1
 819 002c 9C00     		lsls	r4, r3, #2
 820 002e 3C19     		adds	r4, r7, r4
 821              	.L48:
1146:Generated_Source\PSoC6/CapSense_Filter.c **** }
 822              		.loc 1 1146 0
 823 0030 2900     		movs	r1, r5
 824              	.LVL105:
 825 0032 2000     		movs	r0, r4
 826              	.LVL106:
 827 0034 FFF7FEFF 		bl	CapSense_InitializeAverageInternal
 828              	.LVL107:
1147:Generated_Source\PSoC6/CapSense_Filter.c **** 
 829              		.loc 1 1147 0
 830              		@ sp needed
 831              	.LVL108:
 832              	.LVL109:
 833              	.LVL110:
 834 0038 F8BD     		pop	{r3, r4, r5, r6, r7, pc}
 835              	.L50:
 836 003a C046     		.align	2
 837              	.L49:
 838 003c 00000000 		.word	CapSense_dsFlash
 839              		.cfi_endproc
 840              	.LFE56:
 841              		.size	CapSense_InitializeAverage, .-CapSense_InitializeAverage
 842              		.section	.text.CapSense_RunAverageInternal,"ax",%progbits
 843              		.align	2
 844              		.global	CapSense_RunAverageInternal
 845              		.code	16
 846              		.thumb_func
 847              		.type	CapSense_RunAverageInternal, %function
 848              	CapSense_RunAverageInternal:
 849              	.LFB59:
1236:Generated_Source\PSoC6/CapSense_Filter.c **** 
1237:Generated_Source\PSoC6/CapSense_Filter.c **** 
1238:Generated_Source\PSoC6/CapSense_Filter.c **** /*******************************************************************************
1239:Generated_Source\PSoC6/CapSense_Filter.c **** * Function Name: CapSense_RunAverageInternal
1240:Generated_Source\PSoC6/CapSense_Filter.c **** ****************************************************************************//**
ARM GAS  C:\Users\codyg\AppData\Local\Temp\ccRbtLKH.s 			page 39


1241:Generated_Source\PSoC6/CapSense_Filter.c **** *
1242:Generated_Source\PSoC6/CapSense_Filter.c **** * \brief    Runs the average filter.
1243:Generated_Source\PSoC6/CapSense_Filter.c **** *
1244:Generated_Source\PSoC6/CapSense_Filter.c **** * \details  Runs the average filter.
1245:Generated_Source\PSoC6/CapSense_Filter.c **** *
1246:Generated_Source\PSoC6/CapSense_Filter.c **** * \param    ptrFilterHistObj The pointer to the filter RAM object of the sensor.
1247:Generated_Source\PSoC6/CapSense_Filter.c **** * \param    ptrSensorObj     The pointer to the sensor RAM object of the sensor.
1248:Generated_Source\PSoC6/CapSense_Filter.c **** * \param    wdType           Specifies the type of a widget.
1249:Generated_Source\PSoC6/CapSense_Filter.c **** *
1250:Generated_Source\PSoC6/CapSense_Filter.c **** *******************************************************************************/
1251:Generated_Source\PSoC6/CapSense_Filter.c **** void CapSense_RunAverageInternal(CapSense_PTR_FILTER_VARIANT ptrFilterHistObj,\
1252:Generated_Source\PSoC6/CapSense_Filter.c ****                                            CapSense_RAM_SNS_STRUCT *ptrSensorObj, uint32 wdType)
1253:Generated_Source\PSoC6/CapSense_Filter.c **** {
 850              		.loc 1 1253 0
 851              		.cfi_startproc
 852              		@ args = 0, pretend = 0, frame = 0
 853              		@ frame_needed = 0, uses_anonymous_args = 0
 854              	.LVL111:
 855 0000 F0B5     		push	{r4, r5, r6, r7, lr}
 856              		.cfi_def_cfa_offset 20
 857              		.cfi_offset 4, -20
 858              		.cfi_offset 5, -16
 859              		.cfi_offset 6, -12
 860              		.cfi_offset 7, -8
 861              		.cfi_offset 14, -4
 862              	.LVL112:
1254:Generated_Source\PSoC6/CapSense_Filter.c ****     uint32 freqChannel;
1255:Generated_Source\PSoC6/CapSense_Filter.c ****     uint32 temp;
1256:Generated_Source\PSoC6/CapSense_Filter.c **** 
1257:Generated_Source\PSoC6/CapSense_Filter.c ****     for(freqChannel = CapSense_NUM_SCAN_FREQS; freqChannel-- > 0u;)
 863              		.loc 1 1257 0
 864 0002 0123     		movs	r3, #1
 865 0004 19E0     		b	.L52
 866              	.LVL113:
 867              	.L54:
1258:Generated_Source\PSoC6/CapSense_Filter.c ****     {
1259:Generated_Source\PSoC6/CapSense_Filter.c ****         if ((CapSense_WD_TYPE_ENUM)wdType != CapSense_WD_PROXIMITY_E)
 868              		.loc 1 1259 0
 869 0006 FF23     		movs	r3, #255
 870 0008 1340     		ands	r3, r2
 871 000a 062B     		cmp	r3, #6
 872 000c 14D1     		bne	.L53
1260:Generated_Source\PSoC6/CapSense_Filter.c ****         {
1261:Generated_Source\PSoC6/CapSense_Filter.c ****             #if (CapSense_REGULAR_SENSOR_EN && CapSense_REGULAR_RC_AVERAGE_FILTER_EN)
1262:Generated_Source\PSoC6/CapSense_Filter.c ****                 #if (CapSense_REGULAR_AVERAGE_LEN == CapSense_AVERAGE_FILTER_LEN_2)
1263:Generated_Source\PSoC6/CapSense_Filter.c ****                     temp = ((uint32)ptrSensorObj->raw[freqChannel] +
1264:Generated_Source\PSoC6/CapSense_Filter.c ****                             (uint32)ptrFilterHistObj.ptrRegular->regularChannel[freqChannel].avgHis
1265:Generated_Source\PSoC6/CapSense_Filter.c ****                     ptrFilterHistObj.ptrRegular->regularChannel[freqChannel].avgHistory[0] = ptrSen
1266:Generated_Source\PSoC6/CapSense_Filter.c ****                     ptrSensorObj->raw[freqChannel] = CY_LO16(temp);
1267:Generated_Source\PSoC6/CapSense_Filter.c ****                 #else
1268:Generated_Source\PSoC6/CapSense_Filter.c ****                     temp = ((uint32)ptrSensorObj->raw[freqChannel] +
1269:Generated_Source\PSoC6/CapSense_Filter.c ****                             (uint32)ptrFilterHistObj.ptrRegular->regularChannel[freqChannel].avgHis
1270:Generated_Source\PSoC6/CapSense_Filter.c ****                             (uint32)ptrFilterHistObj.ptrRegular->regularChannel[freqChannel].avgHis
1271:Generated_Source\PSoC6/CapSense_Filter.c ****                             (uint32)ptrFilterHistObj.ptrRegular->regularChannel[freqChannel].avgHis
1272:Generated_Source\PSoC6/CapSense_Filter.c **** 
1273:Generated_Source\PSoC6/CapSense_Filter.c ****                     ptrFilterHistObj.ptrRegular->regularChannel[freqChannel].avgHistory[2u] =
1274:Generated_Source\PSoC6/CapSense_Filter.c ****                     ptrFilterHistObj.ptrRegular->regularChannel[freqChannel].avgHistory[1u];
ARM GAS  C:\Users\codyg\AppData\Local\Temp\ccRbtLKH.s 			page 40


1275:Generated_Source\PSoC6/CapSense_Filter.c ****                     ptrFilterHistObj.ptrRegular->regularChannel[freqChannel].avgHistory[1u] =
1276:Generated_Source\PSoC6/CapSense_Filter.c ****                     ptrFilterHistObj.ptrRegular->regularChannel[freqChannel].avgHistory[0];
1277:Generated_Source\PSoC6/CapSense_Filter.c ****                     ptrFilterHistObj.ptrRegular->regularChannel[freqChannel].avgHistory[0] = ptrSen
1278:Generated_Source\PSoC6/CapSense_Filter.c ****                     ptrSensorObj->raw[freqChannel] = CY_LO16(temp);
1279:Generated_Source\PSoC6/CapSense_Filter.c ****                 #endif /* CapSense_REGULAR_AVERAGE_LEN == CapSense_AVERAGE_FILTER_LEN_4 */
1280:Generated_Source\PSoC6/CapSense_Filter.c ****             #endif /* (CapSense_REGULAR_SENSOR_EN) */
1281:Generated_Source\PSoC6/CapSense_Filter.c ****         }
1282:Generated_Source\PSoC6/CapSense_Filter.c ****         else
1283:Generated_Source\PSoC6/CapSense_Filter.c ****         {
1284:Generated_Source\PSoC6/CapSense_Filter.c ****             #if (CapSense_PROXIMITY_SENSOR_EN && CapSense_PROX_RC_AVERAGE_FILTER_EN)
1285:Generated_Source\PSoC6/CapSense_Filter.c ****                 #if (CapSense_PROX_AVERAGE_LEN == CapSense_AVERAGE_FILTER_LEN_2)
1286:Generated_Source\PSoC6/CapSense_Filter.c ****                     temp = ((uint32)ptrSensorObj->raw[freqChannel] +
1287:Generated_Source\PSoC6/CapSense_Filter.c ****                             (uint32)ptrFilterHistObj.ptrProx->proxChannel[freqChannel].avgHistory[0
1288:Generated_Source\PSoC6/CapSense_Filter.c ****                     ptrFilterHistObj.ptrProx->proxChannel[freqChannel].avgHistory[0] = ptrSensorObj
1289:Generated_Source\PSoC6/CapSense_Filter.c ****                     ptrSensorObj->raw[freqChannel] = CY_LO16(temp);
1290:Generated_Source\PSoC6/CapSense_Filter.c ****                 #else
1291:Generated_Source\PSoC6/CapSense_Filter.c ****                     temp = ((uint32)ptrSensorObj->raw[freqChannel] +
 873              		.loc 1 1291 0
 874 000e 6700     		lsls	r7, r4, #1
 875 0010 7B5A     		ldrh	r3, [r7, r1]
 876 0012 9C46     		mov	ip, r3
1292:Generated_Source\PSoC6/CapSense_Filter.c ****                             (uint32)ptrFilterHistObj.ptrProx->proxChannel[freqChannel].avgHistory[0
 877              		.loc 1 1292 0
 878 0014 3E19     		adds	r6, r7, r4
 879 0016 B300     		lsls	r3, r6, #2
 880 0018 C318     		adds	r3, r0, r3
 881 001a DD88     		ldrh	r5, [r3, #6]
1291:Generated_Source\PSoC6/CapSense_Filter.c ****                             (uint32)ptrFilterHistObj.ptrProx->proxChannel[freqChannel].avgHistory[0
 882              		.loc 1 1291 0
 883 001c 6544     		add	r5, r5, ip
1293:Generated_Source\PSoC6/CapSense_Filter.c ****                             (uint32)ptrFilterHistObj.ptrProx->proxChannel[freqChannel].avgHistory[1
 884              		.loc 1 1293 0
 885 001e 1E89     		ldrh	r6, [r3, #8]
 886 0020 B446     		mov	ip, r6
1292:Generated_Source\PSoC6/CapSense_Filter.c ****                             (uint32)ptrFilterHistObj.ptrProx->proxChannel[freqChannel].avgHistory[0
 887              		.loc 1 1292 0
 888 0022 6544     		add	r5, r5, ip
1294:Generated_Source\PSoC6/CapSense_Filter.c ****                             (uint32)ptrFilterHistObj.ptrProx->proxChannel[freqChannel].avgHistory[2
 889              		.loc 1 1294 0
 890 0024 5E89     		ldrh	r6, [r3, #10]
1293:Generated_Source\PSoC6/CapSense_Filter.c ****                             (uint32)ptrFilterHistObj.ptrProx->proxChannel[freqChannel].avgHistory[1
 891              		.loc 1 1293 0
 892 0026 AD19     		adds	r5, r5, r6
1291:Generated_Source\PSoC6/CapSense_Filter.c ****                             (uint32)ptrFilterHistObj.ptrProx->proxChannel[freqChannel].avgHistory[0
 893              		.loc 1 1291 0
 894 0028 AD08     		lsrs	r5, r5, #2
 895              	.LVL114:
1295:Generated_Source\PSoC6/CapSense_Filter.c **** 
1296:Generated_Source\PSoC6/CapSense_Filter.c ****                     ptrFilterHistObj.ptrProx->proxChannel[freqChannel].avgHistory[2u] =
 896              		.loc 1 1296 0
 897 002a 6646     		mov	r6, ip
 898 002c 5E81     		strh	r6, [r3, #10]
1297:Generated_Source\PSoC6/CapSense_Filter.c ****                     ptrFilterHistObj.ptrProx->proxChannel[freqChannel].avgHistory[1u];
1298:Generated_Source\PSoC6/CapSense_Filter.c ****                     ptrFilterHistObj.ptrProx->proxChannel[freqChannel].avgHistory[1u] =
1299:Generated_Source\PSoC6/CapSense_Filter.c ****                     ptrFilterHistObj.ptrProx->proxChannel[freqChannel].avgHistory[0];
 899              		.loc 1 1299 0
 900 002e DE88     		ldrh	r6, [r3, #6]
ARM GAS  C:\Users\codyg\AppData\Local\Temp\ccRbtLKH.s 			page 41


1298:Generated_Source\PSoC6/CapSense_Filter.c ****                     ptrFilterHistObj.ptrProx->proxChannel[freqChannel].avgHistory[0];
 901              		.loc 1 1298 0
 902 0030 1E81     		strh	r6, [r3, #8]
1300:Generated_Source\PSoC6/CapSense_Filter.c ****                     ptrFilterHistObj.ptrProx->proxChannel[freqChannel].avgHistory[0] = ptrSensorObj
 903              		.loc 1 1300 0
 904 0032 7E5A     		ldrh	r6, [r7, r1]
 905 0034 DE80     		strh	r6, [r3, #6]
1301:Generated_Source\PSoC6/CapSense_Filter.c ****                     ptrSensorObj->raw[freqChannel] = CY_LO16(temp);
 906              		.loc 1 1301 0
 907 0036 CD53     		strh	r5, [r1, r7]
 908              	.LVL115:
 909              	.L53:
1253:Generated_Source\PSoC6/CapSense_Filter.c ****     uint32 freqChannel;
 910              		.loc 1 1253 0 discriminator 1
 911 0038 2300     		movs	r3, r4
 912              	.LVL116:
 913              	.L52:
1257:Generated_Source\PSoC6/CapSense_Filter.c ****     {
 914              		.loc 1 1257 0 discriminator 1
 915 003a 5C1E     		subs	r4, r3, #1
 916              	.LVL117:
 917 003c 002B     		cmp	r3, #0
 918 003e E2D1     		bne	.L54
1302:Generated_Source\PSoC6/CapSense_Filter.c ****                 #endif /* CapSense_PROX_AVERAGE_LEN == CapSense_AVERAGE_FILTER_LEN_4 */
1303:Generated_Source\PSoC6/CapSense_Filter.c ****             #endif /* (CapSense_PROXIMITY_SENSOR_EN) */
1304:Generated_Source\PSoC6/CapSense_Filter.c ****         }
1305:Generated_Source\PSoC6/CapSense_Filter.c ****     }
1306:Generated_Source\PSoC6/CapSense_Filter.c **** }
 919              		.loc 1 1306 0
 920              		@ sp needed
 921              	.LVL118:
 922 0040 F0BD     		pop	{r4, r5, r6, r7, pc}
 923              		.cfi_endproc
 924              	.LFE59:
 925              		.size	CapSense_RunAverageInternal, .-CapSense_RunAverageInternal
 926 0042 C046     		.section	.text.CapSense_RunAverage,"ax",%progbits
 927              		.align	2
 928              		.global	CapSense_RunAverage
 929              		.code	16
 930              		.thumb_func
 931              		.type	CapSense_RunAverage, %function
 932              	CapSense_RunAverage:
 933              	.LFB57:
1165:Generated_Source\PSoC6/CapSense_Filter.c ****     CapSense_FLASH_WD_STRUCT const *ptrWidget = &CapSense_dsFlash.wdgtArray[widgetId];
 934              		.loc 1 1165 0
 935              		.cfi_startproc
 936              		@ args = 0, pretend = 0, frame = 0
 937              		@ frame_needed = 0, uses_anonymous_args = 0
 938              	.LVL119:
 939 0000 F8B5     		push	{r3, r4, r5, r6, r7, lr}
 940              		.cfi_def_cfa_offset 24
 941              		.cfi_offset 3, -24
 942              		.cfi_offset 4, -20
 943              		.cfi_offset 5, -16
 944              		.cfi_offset 6, -12
 945              		.cfi_offset 7, -8
 946              		.cfi_offset 14, -4
ARM GAS  C:\Users\codyg\AppData\Local\Temp\ccRbtLKH.s 			page 42


 947              	.LVL120:
1171:Generated_Source\PSoC6/CapSense_Filter.c ****     ptrSensor = &ptrSensor[sensorId];
 948              		.loc 1 1171 0
 949 0002 0E4E     		ldr	r6, .L57
 950 0004 C300     		lsls	r3, r0, #3
 951 0006 1C1A     		subs	r4, r3, r0
 952 0008 A200     		lsls	r2, r4, #2
 953 000a B218     		adds	r2, r6, r2
 954              	.LVL121:
1172:Generated_Source\PSoC6/CapSense_Filter.c **** 
 955              		.loc 1 1172 0
 956 000c 8C00     		lsls	r4, r1, #2
 957 000e 6418     		adds	r4, r4, r1
 958 0010 6500     		lsls	r5, r4, #1
 959 0012 9468     		ldr	r4, [r2, #8]
 960 0014 A446     		mov	ip, r4
 961 0016 6544     		add	r5, r5, ip
 962              	.LVL122:
1175:Generated_Source\PSoC6/CapSense_Filter.c **** 
 963              		.loc 1 1175 0
 964 0018 D768     		ldr	r7, [r2, #12]
 965 001a 3C00     		movs	r4, r7
 966              	.LVL123:
1177:Generated_Source\PSoC6/CapSense_Filter.c ****     {
 967              		.loc 1 1177 0
 968 001c 1B1A     		subs	r3, r3, r0
 969 001e 9A00     		lsls	r2, r3, #2
 970 0020 B218     		adds	r2, r6, r2
 971 0022 927E     		ldrb	r2, [r2, #26]
 972 0024 062A     		cmp	r2, #6
 973 0026 03D1     		bne	.L56
1186:Generated_Source\PSoC6/CapSense_Filter.c ****         #endif /* (CapSense_PROXIMITY_SENSOR_EN) */
 974              		.loc 1 1186 0
 975 0028 4B00     		lsls	r3, r1, #1
 976 002a 5B18     		adds	r3, r3, r1
 977 002c 9C00     		lsls	r4, r3, #2
 978 002e 3C19     		adds	r4, r7, r4
 979              	.L56:
1190:Generated_Source\PSoC6/CapSense_Filter.c **** }
 980              		.loc 1 1190 0
 981 0030 2900     		movs	r1, r5
 982              	.LVL124:
 983 0032 2000     		movs	r0, r4
 984              	.LVL125:
 985 0034 FFF7FEFF 		bl	CapSense_RunAverageInternal
 986              	.LVL126:
1191:Generated_Source\PSoC6/CapSense_Filter.c **** 
 987              		.loc 1 1191 0
 988              		@ sp needed
 989              	.LVL127:
 990              	.LVL128:
 991              	.LVL129:
 992 0038 F8BD     		pop	{r3, r4, r5, r6, r7, pc}
 993              	.L58:
 994 003a C046     		.align	2
 995              	.L57:
 996 003c 00000000 		.word	CapSense_dsFlash
ARM GAS  C:\Users\codyg\AppData\Local\Temp\ccRbtLKH.s 			page 43


 997              		.cfi_endproc
 998              	.LFE57:
 999              		.size	CapSense_RunAverage, .-CapSense_RunAverage
 1000              		.section	.text.CapSense_FtMedian,"ax",%progbits
 1001              		.align	2
 1002              		.global	CapSense_FtMedian
 1003              		.code	16
 1004              		.thumb_func
 1005              		.type	CapSense_FtMedian, %function
 1006              	CapSense_FtMedian:
 1007              	.LFB62:
1307:Generated_Source\PSoC6/CapSense_Filter.c **** #endif /* (CapSense_REGULAR_RC_AVERAGE_FILTER_EN || CapSense_PROX_RC_AVERAGE_FILTER_EN) */
1308:Generated_Source\PSoC6/CapSense_Filter.c **** 
1309:Generated_Source\PSoC6/CapSense_Filter.c **** #if (CapSense_ENABLE == CapSense_ALP_FILTER_EN)
1310:Generated_Source\PSoC6/CapSense_Filter.c **** /*******************************************************************************
1311:Generated_Source\PSoC6/CapSense_Filter.c **** * Function Name: CapSense_InitializeALP
1312:Generated_Source\PSoC6/CapSense_Filter.c **** ****************************************************************************//**
1313:Generated_Source\PSoC6/CapSense_Filter.c **** *
1314:Generated_Source\PSoC6/CapSense_Filter.c **** * \brief    Initializes the ALP filter history.
1315:Generated_Source\PSoC6/CapSense_Filter.c **** *
1316:Generated_Source\PSoC6/CapSense_Filter.c **** * \details  Initializes the ALP filter history.
1317:Generated_Source\PSoC6/CapSense_Filter.c **** *
1318:Generated_Source\PSoC6/CapSense_Filter.c **** * \param    widgetId Specifies the ID number of the widget.
1319:Generated_Source\PSoC6/CapSense_Filter.c **** * \param    sensorId Specifies the ID number of the sensor in the widget.
1320:Generated_Source\PSoC6/CapSense_Filter.c **** *
1321:Generated_Source\PSoC6/CapSense_Filter.c **** *******************************************************************************/
1322:Generated_Source\PSoC6/CapSense_Filter.c **** void CapSense_InitializeALP(uint32 widgetId, uint32 sensorId)
1323:Generated_Source\PSoC6/CapSense_Filter.c **** {
1324:Generated_Source\PSoC6/CapSense_Filter.c ****     CapSense_FLASH_WD_STRUCT const *ptrWidget = &CapSense_dsFlash.wdgtArray[widgetId];
1325:Generated_Source\PSoC6/CapSense_Filter.c ****     CapSense_RAM_SNS_STRUCT *ptrSensor = NULL;
1326:Generated_Source\PSoC6/CapSense_Filter.c ****     CapSense_PTR_FILTER_VARIANT ptrFilterHistObj;
1327:Generated_Source\PSoC6/CapSense_Filter.c **** 
1328:Generated_Source\PSoC6/CapSense_Filter.c ****     /* Find pointer to specified sensor object */
1329:Generated_Source\PSoC6/CapSense_Filter.c ****     ptrSensor = ptrWidget->ptr2SnsRam;
1330:Generated_Source\PSoC6/CapSense_Filter.c ****     ptrSensor = &ptrSensor[sensorId];
1331:Generated_Source\PSoC6/CapSense_Filter.c **** 
1332:Generated_Source\PSoC6/CapSense_Filter.c ****     /* Find pointer to specified filter sensor object */
1333:Generated_Source\PSoC6/CapSense_Filter.c ****     ptrFilterHistObj.ptr = ptrWidget->ptr2FltrHistory;
1334:Generated_Source\PSoC6/CapSense_Filter.c ****     ptrFilterHistObj.ptrAlp = &ptrFilterHistObj.ptrAlp[sensorId];
1335:Generated_Source\PSoC6/CapSense_Filter.c ****     CapSense_InitializeALPInternal(ptrFilterHistObj, ptrSensor, (uint32)ptrWidget->wdgtType);
1336:Generated_Source\PSoC6/CapSense_Filter.c **** }
1337:Generated_Source\PSoC6/CapSense_Filter.c **** 
1338:Generated_Source\PSoC6/CapSense_Filter.c **** 
1339:Generated_Source\PSoC6/CapSense_Filter.c **** /*******************************************************************************
1340:Generated_Source\PSoC6/CapSense_Filter.c **** * Function Name: CapSense_RunALP
1341:Generated_Source\PSoC6/CapSense_Filter.c **** ****************************************************************************//**
1342:Generated_Source\PSoC6/CapSense_Filter.c **** *
1343:Generated_Source\PSoC6/CapSense_Filter.c **** * \brief    Executes the ALP filter algorithm on a sensor indicated by an input
1344:Generated_Source\PSoC6/CapSense_Filter.c **** *           parameter.
1345:Generated_Source\PSoC6/CapSense_Filter.c **** *
1346:Generated_Source\PSoC6/CapSense_Filter.c **** * \details  Executes the ALP filter algorithm on a sensor indicated by an input
1347:Generated_Source\PSoC6/CapSense_Filter.c **** *           parameter.
1348:Generated_Source\PSoC6/CapSense_Filter.c **** *
1349:Generated_Source\PSoC6/CapSense_Filter.c **** * \param    widgetId Specifies the ID number of the widget.
1350:Generated_Source\PSoC6/CapSense_Filter.c **** * \param    sensorId Specifies the ID number of the sensor in the widget.
1351:Generated_Source\PSoC6/CapSense_Filter.c **** *
1352:Generated_Source\PSoC6/CapSense_Filter.c **** *******************************************************************************/
ARM GAS  C:\Users\codyg\AppData\Local\Temp\ccRbtLKH.s 			page 44


1353:Generated_Source\PSoC6/CapSense_Filter.c **** void CapSense_RunALP(uint32 widgetId, uint32 sensorId)
1354:Generated_Source\PSoC6/CapSense_Filter.c **** {
1355:Generated_Source\PSoC6/CapSense_Filter.c ****     CapSense_FLASH_WD_STRUCT const *ptrWidget = &CapSense_dsFlash.wdgtArray[widgetId];
1356:Generated_Source\PSoC6/CapSense_Filter.c ****     CapSense_RAM_SNS_STRUCT *ptrSensor = NULL;
1357:Generated_Source\PSoC6/CapSense_Filter.c ****     CapSense_PTR_FILTER_VARIANT ptrFilterHistObj;
1358:Generated_Source\PSoC6/CapSense_Filter.c ****     ALP_FLTR_CONFIG_STRUCT alpFilterConfig;
1359:Generated_Source\PSoC6/CapSense_Filter.c ****     ALP_FLTR_CONFIG_STRUCT *ptrAlpFilterConfig = &alpFilterConfig;
1360:Generated_Source\PSoC6/CapSense_Filter.c ****     CapSense_RAM_WD_BASE_STRUCT *ptrRamWidget = ptrWidget->ptr2WdgtRam;
1361:Generated_Source\PSoC6/CapSense_Filter.c **** 
1362:Generated_Source\PSoC6/CapSense_Filter.c ****     /* Find pointer to specified sensor object */
1363:Generated_Source\PSoC6/CapSense_Filter.c ****     ptrSensor = ptrWidget->ptr2SnsRam;
1364:Generated_Source\PSoC6/CapSense_Filter.c ****     ptrSensor = &ptrSensor[sensorId];
1365:Generated_Source\PSoC6/CapSense_Filter.c **** 
1366:Generated_Source\PSoC6/CapSense_Filter.c ****     ptrAlpFilterConfig->configParam0 = ptrRamWidget->alpOnTh;
1367:Generated_Source\PSoC6/CapSense_Filter.c ****     ptrAlpFilterConfig->configParam1 = ptrRamWidget->alpOffTh;
1368:Generated_Source\PSoC6/CapSense_Filter.c ****     ptrAlpFilterConfig->configParam2 = ptrRamWidget->fingerTh;
1369:Generated_Source\PSoC6/CapSense_Filter.c ****     ptrAlpFilterConfig->configParam3 = ptrRamWidget->noiseTh;
1370:Generated_Source\PSoC6/CapSense_Filter.c ****     ptrAlpFilterConfig->configParam4 = ptrRamWidget->hysteresis;
1371:Generated_Source\PSoC6/CapSense_Filter.c **** 
1372:Generated_Source\PSoC6/CapSense_Filter.c ****     /* Find pointer to specified filter sensor object */
1373:Generated_Source\PSoC6/CapSense_Filter.c ****     ptrFilterHistObj.ptr = ptrWidget->ptr2FltrHistory;
1374:Generated_Source\PSoC6/CapSense_Filter.c ****     ptrFilterHistObj.ptrAlp = &ptrFilterHistObj.ptrAlp[sensorId];
1375:Generated_Source\PSoC6/CapSense_Filter.c **** 
1376:Generated_Source\PSoC6/CapSense_Filter.c ****     if ((CapSense_WD_TYPE_ENUM)ptrWidget->wdgtType != CapSense_WD_PROXIMITY_E)
1377:Generated_Source\PSoC6/CapSense_Filter.c ****     {
1378:Generated_Source\PSoC6/CapSense_Filter.c ****         #if (CapSense_REGULAR_SENSOR_EN)
1379:Generated_Source\PSoC6/CapSense_Filter.c ****             ptrAlpFilterConfig->configParam5 = CapSense_REGULAR_RC_ALP_FILTER_COEFF;
1380:Generated_Source\PSoC6/CapSense_Filter.c ****         #endif /* (CapSense_REGULAR_SENSOR_EN) */
1381:Generated_Source\PSoC6/CapSense_Filter.c ****     }
1382:Generated_Source\PSoC6/CapSense_Filter.c ****     else
1383:Generated_Source\PSoC6/CapSense_Filter.c ****     {
1384:Generated_Source\PSoC6/CapSense_Filter.c ****         #if (CapSense_PROXIMITY_SENSOR_EN)
1385:Generated_Source\PSoC6/CapSense_Filter.c ****             ptrAlpFilterConfig->configParam5 = CapSense_PROX_RC_ALP_FILTER_COEFF;
1386:Generated_Source\PSoC6/CapSense_Filter.c ****         #endif /* (CapSense_PROXIMITY_SENSOR_EN) */
1387:Generated_Source\PSoC6/CapSense_Filter.c ****     }
1388:Generated_Source\PSoC6/CapSense_Filter.c ****     CapSense_RunALPInternal(ptrFilterHistObj, ptrAlpFilterConfig, ptrSensor, (uint32)ptrWidget->wdg
1389:Generated_Source\PSoC6/CapSense_Filter.c **** }
1390:Generated_Source\PSoC6/CapSense_Filter.c **** 
1391:Generated_Source\PSoC6/CapSense_Filter.c **** 
1392:Generated_Source\PSoC6/CapSense_Filter.c **** /*******************************************************************************
1393:Generated_Source\PSoC6/CapSense_Filter.c **** * Function Name: CapSense_InitializeALPInternal
1394:Generated_Source\PSoC6/CapSense_Filter.c **** ****************************************************************************//**
1395:Generated_Source\PSoC6/CapSense_Filter.c **** *
1396:Generated_Source\PSoC6/CapSense_Filter.c **** * \brief    Initializes the ALP filter.
1397:Generated_Source\PSoC6/CapSense_Filter.c **** *
1398:Generated_Source\PSoC6/CapSense_Filter.c **** * \details  Initializes the ALP filter.
1399:Generated_Source\PSoC6/CapSense_Filter.c **** *
1400:Generated_Source\PSoC6/CapSense_Filter.c **** * \param    ptrFilterHistObj The pointer to the filter RAM object of the sensor.
1401:Generated_Source\PSoC6/CapSense_Filter.c **** * \param    ptrSensorObj     The pointer to the sensor RAM object of the sensor.
1402:Generated_Source\PSoC6/CapSense_Filter.c **** * \param    wdType           Specifies the type of a widget.
1403:Generated_Source\PSoC6/CapSense_Filter.c **** *
1404:Generated_Source\PSoC6/CapSense_Filter.c **** *******************************************************************************/
1405:Generated_Source\PSoC6/CapSense_Filter.c **** void CapSense_InitializeALPInternal(CapSense_PTR_FILTER_VARIANT ptrFilterHistObj,
1406:Generated_Source\PSoC6/CapSense_Filter.c ****                                             CapSense_RAM_SNS_STRUCT *ptrSensorObj,
1407:Generated_Source\PSoC6/CapSense_Filter.c ****                                             uint32 wdType)
1408:Generated_Source\PSoC6/CapSense_Filter.c **** {
1409:Generated_Source\PSoC6/CapSense_Filter.c ****     uint32 freqChannel;
ARM GAS  C:\Users\codyg\AppData\Local\Temp\ccRbtLKH.s 			page 45


1410:Generated_Source\PSoC6/CapSense_Filter.c **** 
1411:Generated_Source\PSoC6/CapSense_Filter.c ****     for(freqChannel = CapSense_NUM_SCAN_FREQS; freqChannel-- > 0u;)
1412:Generated_Source\PSoC6/CapSense_Filter.c ****     {
1413:Generated_Source\PSoC6/CapSense_Filter.c ****         if ((CapSense_WD_TYPE_ENUM)wdType != CapSense_WD_PROXIMITY_E)
1414:Generated_Source\PSoC6/CapSense_Filter.c ****         {
1415:Generated_Source\PSoC6/CapSense_Filter.c ****             #if (CapSense_REGULAR_SENSOR_EN && CapSense_REGULAR_RC_ALP_FILTER_EN)
1416:Generated_Source\PSoC6/CapSense_Filter.c ****                 ALP_Initialize(&ptrFilterHistObj.ptrAlp->channel[freqChannel], &ptrSensorObj->raw[f
1417:Generated_Source\PSoC6/CapSense_Filter.c ****             #endif
1418:Generated_Source\PSoC6/CapSense_Filter.c ****         }
1419:Generated_Source\PSoC6/CapSense_Filter.c ****         else
1420:Generated_Source\PSoC6/CapSense_Filter.c ****         {
1421:Generated_Source\PSoC6/CapSense_Filter.c ****             #if (CapSense_PROXIMITY_SENSOR_EN && CapSense_PROX_RC_ALP_FILTER_EN)
1422:Generated_Source\PSoC6/CapSense_Filter.c ****                 ALP_Initialize(&ptrFilterHistObj.ptrAlp->channel[freqChannel], &ptrSensorObj->raw[f
1423:Generated_Source\PSoC6/CapSense_Filter.c ****             #endif
1424:Generated_Source\PSoC6/CapSense_Filter.c ****         }
1425:Generated_Source\PSoC6/CapSense_Filter.c ****     }
1426:Generated_Source\PSoC6/CapSense_Filter.c **** }
1427:Generated_Source\PSoC6/CapSense_Filter.c **** 
1428:Generated_Source\PSoC6/CapSense_Filter.c **** /*******************************************************************************
1429:Generated_Source\PSoC6/CapSense_Filter.c **** * Function Name: CapSense_ConfigRunALPInternal
1430:Generated_Source\PSoC6/CapSense_Filter.c **** ****************************************************************************//**
1431:Generated_Source\PSoC6/CapSense_Filter.c **** *
1432:Generated_Source\PSoC6/CapSense_Filter.c **** * \brief    Prepares ALP configuration structure and runs the filter.
1433:Generated_Source\PSoC6/CapSense_Filter.c **** *
1434:Generated_Source\PSoC6/CapSense_Filter.c **** * \details  Prepares ALP configuration structure and runs the filter.
1435:Generated_Source\PSoC6/CapSense_Filter.c **** *
1436:Generated_Source\PSoC6/CapSense_Filter.c **** * \param    ptrFilterHistObj The pointer to the filter RAM object of the sensor.
1437:Generated_Source\PSoC6/CapSense_Filter.c **** * \param    ptrRamWdgt       The pointer to the RAM widget object.
1438:Generated_Source\PSoC6/CapSense_Filter.c **** * \param    ptrSensorObj     The pointer to the sensor RAM object of the sensor.
1439:Generated_Source\PSoC6/CapSense_Filter.c **** * \param    wdType           Specifies the type of a widget.
1440:Generated_Source\PSoC6/CapSense_Filter.c **** *
1441:Generated_Source\PSoC6/CapSense_Filter.c **** *******************************************************************************/
1442:Generated_Source\PSoC6/CapSense_Filter.c **** void CapSense_ConfigRunALPInternal(CapSense_PTR_FILTER_VARIANT ptrFilterHistObj,
1443:Generated_Source\PSoC6/CapSense_Filter.c ****                                     CapSense_RAM_WD_BASE_STRUCT *ptrRamWdgt,
1444:Generated_Source\PSoC6/CapSense_Filter.c ****                                     CapSense_RAM_SNS_STRUCT *ptrSensorObj,
1445:Generated_Source\PSoC6/CapSense_Filter.c ****                                     uint32 wdType)
1446:Generated_Source\PSoC6/CapSense_Filter.c **** {
1447:Generated_Source\PSoC6/CapSense_Filter.c ****     ALP_FLTR_CONFIG_STRUCT alpFilterConfig;
1448:Generated_Source\PSoC6/CapSense_Filter.c **** 
1449:Generated_Source\PSoC6/CapSense_Filter.c ****     alpFilterConfig.configParam0 = ptrRamWdgt->alpOnTh;
1450:Generated_Source\PSoC6/CapSense_Filter.c ****     alpFilterConfig.configParam1 = ptrRamWdgt->alpOffTh;
1451:Generated_Source\PSoC6/CapSense_Filter.c ****     alpFilterConfig.configParam2 = ptrRamWdgt->fingerTh;
1452:Generated_Source\PSoC6/CapSense_Filter.c ****     alpFilterConfig.configParam3 = ptrRamWdgt->noiseTh;
1453:Generated_Source\PSoC6/CapSense_Filter.c ****     alpFilterConfig.configParam4 = ptrRamWdgt->hysteresis;
1454:Generated_Source\PSoC6/CapSense_Filter.c **** 
1455:Generated_Source\PSoC6/CapSense_Filter.c ****     CapSense_RunALPInternal(ptrFilterHistObj, &alpFilterConfig, ptrSensorObj, wdType);
1456:Generated_Source\PSoC6/CapSense_Filter.c **** }
1457:Generated_Source\PSoC6/CapSense_Filter.c **** 
1458:Generated_Source\PSoC6/CapSense_Filter.c **** /*******************************************************************************
1459:Generated_Source\PSoC6/CapSense_Filter.c **** * Function Name: CapSense_RunALPInternal
1460:Generated_Source\PSoC6/CapSense_Filter.c **** ****************************************************************************//**
1461:Generated_Source\PSoC6/CapSense_Filter.c **** *
1462:Generated_Source\PSoC6/CapSense_Filter.c **** * \brief    Runs the ALP filter.
1463:Generated_Source\PSoC6/CapSense_Filter.c **** *
1464:Generated_Source\PSoC6/CapSense_Filter.c **** * \details  Runs the ALP filter.
1465:Generated_Source\PSoC6/CapSense_Filter.c **** *
1466:Generated_Source\PSoC6/CapSense_Filter.c **** * \param    ptrFilterHistObj The pointer to the filter RAM object of the sensor.
ARM GAS  C:\Users\codyg\AppData\Local\Temp\ccRbtLKH.s 			page 46


1467:Generated_Source\PSoC6/CapSense_Filter.c **** * \param    ptrAlpFilterConfig The pointer to the filter configuration object of the sensor.
1468:Generated_Source\PSoC6/CapSense_Filter.c **** * \param    ptrSensorObj     The pointer to the sensor RAM object of the sensor.
1469:Generated_Source\PSoC6/CapSense_Filter.c **** * \param    wdType           Specifies the type of a widget.
1470:Generated_Source\PSoC6/CapSense_Filter.c **** *
1471:Generated_Source\PSoC6/CapSense_Filter.c **** *******************************************************************************/
1472:Generated_Source\PSoC6/CapSense_Filter.c **** void CapSense_RunALPInternal(CapSense_PTR_FILTER_VARIANT ptrFilterHistObj,
1473:Generated_Source\PSoC6/CapSense_Filter.c ****                                     ALP_FLTR_CONFIG_STRUCT *ptrAlpFilterConfig,
1474:Generated_Source\PSoC6/CapSense_Filter.c ****                                     CapSense_RAM_SNS_STRUCT *ptrSensorObj,
1475:Generated_Source\PSoC6/CapSense_Filter.c ****                                     uint32 wdType)
1476:Generated_Source\PSoC6/CapSense_Filter.c **** {
1477:Generated_Source\PSoC6/CapSense_Filter.c ****     uint32 freqChannel;
1478:Generated_Source\PSoC6/CapSense_Filter.c **** 
1479:Generated_Source\PSoC6/CapSense_Filter.c ****     for(freqChannel = CapSense_NUM_SCAN_FREQS; freqChannel-- > 0u;)
1480:Generated_Source\PSoC6/CapSense_Filter.c ****     {
1481:Generated_Source\PSoC6/CapSense_Filter.c ****         if ((CapSense_WD_TYPE_ENUM)wdType != CapSense_WD_PROXIMITY_E)
1482:Generated_Source\PSoC6/CapSense_Filter.c ****         {
1483:Generated_Source\PSoC6/CapSense_Filter.c ****             #if (CapSense_REGULAR_SENSOR_EN && CapSense_REGULAR_RC_ALP_FILTER_EN)
1484:Generated_Source\PSoC6/CapSense_Filter.c ****                 ptrAlpFilterConfig->configParam5 = CapSense_REGULAR_RC_ALP_FILTER_COEFF;
1485:Generated_Source\PSoC6/CapSense_Filter.c ****                 ALP_Run(&ptrFilterHistObj.ptrAlp->channel[freqChannel], ptrAlpFilterConfig, &ptrSen
1486:Generated_Source\PSoC6/CapSense_Filter.c ****             #endif
1487:Generated_Source\PSoC6/CapSense_Filter.c ****         }
1488:Generated_Source\PSoC6/CapSense_Filter.c ****         else
1489:Generated_Source\PSoC6/CapSense_Filter.c ****         {
1490:Generated_Source\PSoC6/CapSense_Filter.c ****             #if (CapSense_PROXIMITY_SENSOR_EN && CapSense_PROX_RC_ALP_FILTER_EN)
1491:Generated_Source\PSoC6/CapSense_Filter.c ****                 ptrAlpFilterConfig->configParam5 = CapSense_PROX_RC_ALP_FILTER_COEFF;
1492:Generated_Source\PSoC6/CapSense_Filter.c ****                 ALP_Run(&ptrFilterHistObj.ptrAlp->channel[freqChannel], ptrAlpFilterConfig, &ptrSen
1493:Generated_Source\PSoC6/CapSense_Filter.c ****             #endif
1494:Generated_Source\PSoC6/CapSense_Filter.c ****         }
1495:Generated_Source\PSoC6/CapSense_Filter.c ****     }
1496:Generated_Source\PSoC6/CapSense_Filter.c **** }
1497:Generated_Source\PSoC6/CapSense_Filter.c **** #endif /* (CapSense_ENABLE == CapSense_ALP_FILTER_EN) */
1498:Generated_Source\PSoC6/CapSense_Filter.c **** 
1499:Generated_Source\PSoC6/CapSense_Filter.c **** #if (CapSense_ENABLE == CapSense_RC_FILTER_EN)
1500:Generated_Source\PSoC6/CapSense_Filter.c **** /*******************************************************************************
1501:Generated_Source\PSoC6/CapSense_Filter.c **** * Function Name: CapSense_FtRunEnabledFilters
1502:Generated_Source\PSoC6/CapSense_Filter.c **** ****************************************************************************//**
1503:Generated_Source\PSoC6/CapSense_Filter.c **** *
1504:Generated_Source\PSoC6/CapSense_Filter.c **** * \brief    Runs all enabled filters.
1505:Generated_Source\PSoC6/CapSense_Filter.c **** *
1506:Generated_Source\PSoC6/CapSense_Filter.c **** * \details  Runs all enabled filters.
1507:Generated_Source\PSoC6/CapSense_Filter.c **** *
1508:Generated_Source\PSoC6/CapSense_Filter.c **** * \param    widgetId Specifies the ID number of a widget to update the IIR filter history.*
1509:Generated_Source\PSoC6/CapSense_Filter.c **** * \param    sensorId Specifies the ID number of a sensor in the widget to update the IIR
1510:Generated_Source\PSoC6/CapSense_Filter.c **** *           filter history.
1511:Generated_Source\PSoC6/CapSense_Filter.c **** *
1512:Generated_Source\PSoC6/CapSense_Filter.c **** *******************************************************************************/
1513:Generated_Source\PSoC6/CapSense_Filter.c **** void CapSense_FtRunEnabledFilters(uint32 widgetId, uint32 sensorId)
1514:Generated_Source\PSoC6/CapSense_Filter.c **** {
1515:Generated_Source\PSoC6/CapSense_Filter.c ****     CapSense_FLASH_WD_STRUCT const *ptrWidget = &CapSense_dsFlash.wdgtArray[widgetId];
1516:Generated_Source\PSoC6/CapSense_Filter.c ****     CapSense_RAM_SNS_STRUCT *ptrSensor = NULL;
1517:Generated_Source\PSoC6/CapSense_Filter.c ****     CapSense_PTR_FILTER_VARIANT ptrFilterHistObj;
1518:Generated_Source\PSoC6/CapSense_Filter.c **** 
1519:Generated_Source\PSoC6/CapSense_Filter.c ****     /* Find pointer to specified sensor object */
1520:Generated_Source\PSoC6/CapSense_Filter.c ****     ptrSensor = ptrWidget->ptr2SnsRam;
1521:Generated_Source\PSoC6/CapSense_Filter.c ****     ptrSensor = &ptrSensor[sensorId];
1522:Generated_Source\PSoC6/CapSense_Filter.c **** 
1523:Generated_Source\PSoC6/CapSense_Filter.c ****     /* Find pointer to specified filter sensor object */
ARM GAS  C:\Users\codyg\AppData\Local\Temp\ccRbtLKH.s 			page 47


1524:Generated_Source\PSoC6/CapSense_Filter.c ****     ptrFilterHistObj.ptr = ptrWidget->ptr2FltrHistory;
1525:Generated_Source\PSoC6/CapSense_Filter.c **** 
1526:Generated_Source\PSoC6/CapSense_Filter.c ****     if ((CapSense_WD_TYPE_ENUM)ptrWidget->wdgtType != CapSense_WD_PROXIMITY_E)
1527:Generated_Source\PSoC6/CapSense_Filter.c ****     {
1528:Generated_Source\PSoC6/CapSense_Filter.c ****         #if (0u != CapSense_REGULAR_RC_ALP_FILTER_EN)
1529:Generated_Source\PSoC6/CapSense_Filter.c ****             ptrFilterHistObj.ptr = &ptrFilterHistObj.ptrAlp[sensorId];
1530:Generated_Source\PSoC6/CapSense_Filter.c ****         #elif (0u != CapSense_REGULAR_RC_FILTER_EN)
1531:Generated_Source\PSoC6/CapSense_Filter.c ****             ptrFilterHistObj.ptr = &ptrFilterHistObj.ptrRegular[sensorId];
1532:Generated_Source\PSoC6/CapSense_Filter.c ****         #endif
1533:Generated_Source\PSoC6/CapSense_Filter.c ****     }
1534:Generated_Source\PSoC6/CapSense_Filter.c ****     else
1535:Generated_Source\PSoC6/CapSense_Filter.c ****     {
1536:Generated_Source\PSoC6/CapSense_Filter.c ****         #if (0u != CapSense_PROX_RC_ALP_FILTER_EN)
1537:Generated_Source\PSoC6/CapSense_Filter.c ****             ptrFilterHistObj.ptr = &ptrFilterHistObj.ptrAlp[sensorId];
1538:Generated_Source\PSoC6/CapSense_Filter.c ****         #elif (0u != CapSense_PROX_RC_FILTER_EN)
1539:Generated_Source\PSoC6/CapSense_Filter.c ****             ptrFilterHistObj.ptr = &ptrFilterHistObj.ptrProx[sensorId];
1540:Generated_Source\PSoC6/CapSense_Filter.c ****         #endif
1541:Generated_Source\PSoC6/CapSense_Filter.c ****     }
1542:Generated_Source\PSoC6/CapSense_Filter.c **** 
1543:Generated_Source\PSoC6/CapSense_Filter.c ****     CapSense_FtRunEnabledFiltersInternal(ptrFilterHistObj, ptrSensor, (uint32)ptrWidget->wdgtType);
1544:Generated_Source\PSoC6/CapSense_Filter.c ****     #if (CapSense_ALP_FILTER_EN)
1545:Generated_Source\PSoC6/CapSense_Filter.c ****         CapSense_ConfigRunALPInternal(ptrFilterHistObj, ptrWidget->ptr2WdgtRam, ptrSensor, (uint32)
1546:Generated_Source\PSoC6/CapSense_Filter.c ****     #endif
1547:Generated_Source\PSoC6/CapSense_Filter.c **** }
1548:Generated_Source\PSoC6/CapSense_Filter.c **** 
1549:Generated_Source\PSoC6/CapSense_Filter.c **** 
1550:Generated_Source\PSoC6/CapSense_Filter.c **** /*******************************************************************************
1551:Generated_Source\PSoC6/CapSense_Filter.c **** * Function Name: CapSense_FtRunEnabledFiltersInternal
1552:Generated_Source\PSoC6/CapSense_Filter.c **** ****************************************************************************//**
1553:Generated_Source\PSoC6/CapSense_Filter.c **** *
1554:Generated_Source\PSoC6/CapSense_Filter.c **** * \brief    Runs all enabled filters.
1555:Generated_Source\PSoC6/CapSense_Filter.c **** *
1556:Generated_Source\PSoC6/CapSense_Filter.c **** * \details  Runs all enabled filters.
1557:Generated_Source\PSoC6/CapSense_Filter.c **** *
1558:Generated_Source\PSoC6/CapSense_Filter.c **** * \param    ptrFilterHistObj The pointer to the filter RAM object of the sensor.
1559:Generated_Source\PSoC6/CapSense_Filter.c **** * \param    ptrSensorObj     The pointer to the sensor RAM object of the sensor.
1560:Generated_Source\PSoC6/CapSense_Filter.c **** * \param    wdType           Specifies the type of a widget.
1561:Generated_Source\PSoC6/CapSense_Filter.c **** *
1562:Generated_Source\PSoC6/CapSense_Filter.c **** *******************************************************************************/
1563:Generated_Source\PSoC6/CapSense_Filter.c **** void CapSense_FtRunEnabledFiltersInternal(CapSense_PTR_FILTER_VARIANT ptrFilterHistObj,
1564:Generated_Source\PSoC6/CapSense_Filter.c ****                                                   CapSense_RAM_SNS_STRUCT *ptrSensorObj, uint32 wdT
1565:Generated_Source\PSoC6/CapSense_Filter.c **** {
1566:Generated_Source\PSoC6/CapSense_Filter.c ****     #if (CapSense_REGULAR_RC_MEDIAN_FILTER_EN || CapSense_PROX_RC_MEDIAN_FILTER_EN)
1567:Generated_Source\PSoC6/CapSense_Filter.c ****         CapSense_RunMedianInternal(ptrFilterHistObj, ptrSensorObj, wdType);
1568:Generated_Source\PSoC6/CapSense_Filter.c ****     #endif /* (CapSense_REGULAR_RC_MEDIAN_FILTER_EN || CapSense_PROX_RC_MEDIAN_FILTER_EN) */
1569:Generated_Source\PSoC6/CapSense_Filter.c **** 
1570:Generated_Source\PSoC6/CapSense_Filter.c ****     #if (CapSense_REGULAR_RC_IIR_FILTER_EN || CapSense_PROX_RC_IIR_FILTER_EN)
1571:Generated_Source\PSoC6/CapSense_Filter.c ****         CapSense_RunIIRInternal(ptrFilterHistObj, ptrSensorObj, wdType);
1572:Generated_Source\PSoC6/CapSense_Filter.c ****     #endif /* (CapSense_REGULAR_RC_IIR_FILTER_EN || CapSense_PROX_RC_IIR_FILTER_EN) */
1573:Generated_Source\PSoC6/CapSense_Filter.c **** 
1574:Generated_Source\PSoC6/CapSense_Filter.c ****     #if (CapSense_REGULAR_RC_AVERAGE_FILTER_EN || CapSense_PROX_RC_AVERAGE_FILTER_EN)
1575:Generated_Source\PSoC6/CapSense_Filter.c ****         CapSense_RunAverageInternal(ptrFilterHistObj, ptrSensorObj, wdType);
1576:Generated_Source\PSoC6/CapSense_Filter.c ****     #endif /* (CapSense_REGULAR_RC_AVERAGE_FILTER_EN || CapSense_PROX_RC_AVERAGE_FILTER_EN) */
1577:Generated_Source\PSoC6/CapSense_Filter.c **** }
1578:Generated_Source\PSoC6/CapSense_Filter.c **** #endif /* (CapSense_ENABLE == CapSense_RC_FILTER_EN) */
1579:Generated_Source\PSoC6/CapSense_Filter.c **** 
1580:Generated_Source\PSoC6/CapSense_Filter.c **** 
ARM GAS  C:\Users\codyg\AppData\Local\Temp\ccRbtLKH.s 			page 48


1581:Generated_Source\PSoC6/CapSense_Filter.c **** #if (0u != (CapSense_CSD_AUTOTUNE & CapSense_CSD_SS_TH_EN))
1582:Generated_Source\PSoC6/CapSense_Filter.c **** /*******************************************************************************
1583:Generated_Source\PSoC6/CapSense_Filter.c **** * Function Name: CapSense_RunNoiseEnvelope
1584:Generated_Source\PSoC6/CapSense_Filter.c **** ****************************************************************************//**
1585:Generated_Source\PSoC6/CapSense_Filter.c **** *
1586:Generated_Source\PSoC6/CapSense_Filter.c **** * \brief    Executes the noise envelope  filter algorithm on a sensor indicated by
1587:Generated_Source\PSoC6/CapSense_Filter.c **** *           an input parameter to measure the pk-to-pk noise in the sensor raw count.
1588:Generated_Source\PSoC6/CapSense_Filter.c **** *
1589:Generated_Source\PSoC6/CapSense_Filter.c **** * \details  Executes the noise envelope  filter algorithm on a sensor indicated by
1590:Generated_Source\PSoC6/CapSense_Filter.c **** *           an input parameter to measure the pk-to-pk noise in the sensor raw count.
1591:Generated_Source\PSoC6/CapSense_Filter.c **** *
1592:Generated_Source\PSoC6/CapSense_Filter.c **** * \param    widgetId Specifies the ID number of the widget.
1593:Generated_Source\PSoC6/CapSense_Filter.c **** * \param    sensorId Specifies the ID number of the sensor in the widget.
1594:Generated_Source\PSoC6/CapSense_Filter.c **** *
1595:Generated_Source\PSoC6/CapSense_Filter.c **** *******************************************************************************/
1596:Generated_Source\PSoC6/CapSense_Filter.c **** void CapSense_RunNoiseEnvelope(uint32 widgetId, uint32 sensorId)
1597:Generated_Source\PSoC6/CapSense_Filter.c **** {
1598:Generated_Source\PSoC6/CapSense_Filter.c ****     CapSense_FLASH_WD_STRUCT const *ptrWidget = &CapSense_dsFlash.wdgtArray[widgetId];
1599:Generated_Source\PSoC6/CapSense_Filter.c ****     CapSense_RAM_WD_BASE_STRUCT *ptrWidgetRam = ptrWidget->ptr2WdgtRam;
1600:Generated_Source\PSoC6/CapSense_Filter.c ****     CapSense_RAM_SNS_STRUCT *ptrSensor = NULL;
1601:Generated_Source\PSoC6/CapSense_Filter.c ****     SMARTSENSE_CSD_NOISE_ENVELOPE_STRUCT *ptrNoiseEnvelope = NULL;
1602:Generated_Source\PSoC6/CapSense_Filter.c **** 
1603:Generated_Source\PSoC6/CapSense_Filter.c ****     /* Find pointer to specified sensor object */
1604:Generated_Source\PSoC6/CapSense_Filter.c ****     ptrSensor = ptrWidget->ptr2SnsRam;
1605:Generated_Source\PSoC6/CapSense_Filter.c ****     ptrSensor = &ptrSensor[sensorId];
1606:Generated_Source\PSoC6/CapSense_Filter.c **** 
1607:Generated_Source\PSoC6/CapSense_Filter.c ****     /* Find pointer to specified filter sensor object */
1608:Generated_Source\PSoC6/CapSense_Filter.c ****     ptrNoiseEnvelope = ptrWidget->ptr2NoiseEnvlp;
1609:Generated_Source\PSoC6/CapSense_Filter.c ****     ptrNoiseEnvelope = &ptrNoiseEnvelope[sensorId];
1610:Generated_Source\PSoC6/CapSense_Filter.c **** 
1611:Generated_Source\PSoC6/CapSense_Filter.c ****     SmartSense_RunNoiseEnvelope(ptrSensor->raw[0u], ptrWidgetRam->sigPFC, ptrNoiseEnvelope);
1612:Generated_Source\PSoC6/CapSense_Filter.c **** }
1613:Generated_Source\PSoC6/CapSense_Filter.c **** 
1614:Generated_Source\PSoC6/CapSense_Filter.c **** 
1615:Generated_Source\PSoC6/CapSense_Filter.c **** /*******************************************************************************
1616:Generated_Source\PSoC6/CapSense_Filter.c **** * Function Name: CapSense_InitializeNoiseEnvelope
1617:Generated_Source\PSoC6/CapSense_Filter.c **** ****************************************************************************//**
1618:Generated_Source\PSoC6/CapSense_Filter.c **** *
1619:Generated_Source\PSoC6/CapSense_Filter.c **** * \brief    Initializes the noise-envelope filter
1620:Generated_Source\PSoC6/CapSense_Filter.c **** *
1621:Generated_Source\PSoC6/CapSense_Filter.c **** * \details  Initializes the noise-envelope filter
1622:Generated_Source\PSoC6/CapSense_Filter.c **** *
1623:Generated_Source\PSoC6/CapSense_Filter.c **** * \param    widgetId Specifies the ID number of the widget.
1624:Generated_Source\PSoC6/CapSense_Filter.c **** * \param    sensorId Specifies the ID number of the sensor in the widget.
1625:Generated_Source\PSoC6/CapSense_Filter.c **** *
1626:Generated_Source\PSoC6/CapSense_Filter.c **** *******************************************************************************/
1627:Generated_Source\PSoC6/CapSense_Filter.c **** void CapSense_InitializeNoiseEnvelope(uint32 widgetId, uint32 sensorId)
1628:Generated_Source\PSoC6/CapSense_Filter.c **** {
1629:Generated_Source\PSoC6/CapSense_Filter.c ****     CapSense_FLASH_WD_STRUCT const *ptrWidget = &CapSense_dsFlash.wdgtArray[widgetId];
1630:Generated_Source\PSoC6/CapSense_Filter.c ****     CapSense_RAM_WD_BASE_STRUCT *ptrWidgetRam = ptrWidget->ptr2WdgtRam;
1631:Generated_Source\PSoC6/CapSense_Filter.c ****     CapSense_RAM_SNS_STRUCT *ptrSensor = NULL;
1632:Generated_Source\PSoC6/CapSense_Filter.c ****     SMARTSENSE_CSD_NOISE_ENVELOPE_STRUCT *ptrNoiseEnvelope = NULL;
1633:Generated_Source\PSoC6/CapSense_Filter.c **** 
1634:Generated_Source\PSoC6/CapSense_Filter.c ****     /* Find pointer to specified sensor object */
1635:Generated_Source\PSoC6/CapSense_Filter.c ****     ptrSensor = ptrWidget->ptr2SnsRam;
1636:Generated_Source\PSoC6/CapSense_Filter.c ****     ptrSensor = &ptrSensor[sensorId];
1637:Generated_Source\PSoC6/CapSense_Filter.c **** 
ARM GAS  C:\Users\codyg\AppData\Local\Temp\ccRbtLKH.s 			page 49


1638:Generated_Source\PSoC6/CapSense_Filter.c ****     /* Find pointer to specified filter sensor object */
1639:Generated_Source\PSoC6/CapSense_Filter.c ****     ptrNoiseEnvelope = ptrWidget->ptr2NoiseEnvlp;
1640:Generated_Source\PSoC6/CapSense_Filter.c ****     ptrNoiseEnvelope = &ptrNoiseEnvelope[sensorId];
1641:Generated_Source\PSoC6/CapSense_Filter.c **** 
1642:Generated_Source\PSoC6/CapSense_Filter.c ****     SmartSense_InitializeNoiseEnvelope(ptrSensor->raw[0u], ptrWidgetRam->sigPFC, ptrNoiseEnvelope);
1643:Generated_Source\PSoC6/CapSense_Filter.c **** }
1644:Generated_Source\PSoC6/CapSense_Filter.c **** #endif /* (0u != (CapSense_CSD_AUTOTUNE & CapSense_CSD_SS_TH_EN)) */
1645:Generated_Source\PSoC6/CapSense_Filter.c **** 
1646:Generated_Source\PSoC6/CapSense_Filter.c **** 
1647:Generated_Source\PSoC6/CapSense_Filter.c **** #if (CapSense_POS_MEDIAN_FILTER_EN || CapSense_REGULAR_RC_MEDIAN_FILTER_EN || CapSense_PROX_RC_MEDI
1648:Generated_Source\PSoC6/CapSense_Filter.c **** /*******************************************************************************
1649:Generated_Source\PSoC6/CapSense_Filter.c **** * Function Name: CapSense_FtMedian
1650:Generated_Source\PSoC6/CapSense_Filter.c **** ****************************************************************************//**
1651:Generated_Source\PSoC6/CapSense_Filter.c **** *
1652:Generated_Source\PSoC6/CapSense_Filter.c **** * \brief    Return the median value from the three passed arguments.
1653:Generated_Source\PSoC6/CapSense_Filter.c **** *
1654:Generated_Source\PSoC6/CapSense_Filter.c **** * \details  Return the median value from the three passed arguments.
1655:Generated_Source\PSoC6/CapSense_Filter.c **** *
1656:Generated_Source\PSoC6/CapSense_Filter.c **** * \param    x1 The first value to be compared.
1657:Generated_Source\PSoC6/CapSense_Filter.c **** * \param    x2 The second value to be compared.
1658:Generated_Source\PSoC6/CapSense_Filter.c **** * \param    x3 The third value to be compared.
1659:Generated_Source\PSoC6/CapSense_Filter.c **** *
1660:Generated_Source\PSoC6/CapSense_Filter.c **** * \return   Returns the median value of input arguments.
1661:Generated_Source\PSoC6/CapSense_Filter.c **** *
1662:Generated_Source\PSoC6/CapSense_Filter.c **** *******************************************************************************/
1663:Generated_Source\PSoC6/CapSense_Filter.c **** uint32 CapSense_FtMedian(uint32 x1, uint32 x2, uint32 x3)
1664:Generated_Source\PSoC6/CapSense_Filter.c **** {
 1008              		.loc 1 1664 0
 1009              		.cfi_startproc
 1010              		@ args = 0, pretend = 0, frame = 0
 1011              		@ frame_needed = 0, uses_anonymous_args = 0
 1012              		@ link register save eliminated.
 1013              	.LVL130:
1665:Generated_Source\PSoC6/CapSense_Filter.c ****     uint32 tmp;
1666:Generated_Source\PSoC6/CapSense_Filter.c **** 
1667:Generated_Source\PSoC6/CapSense_Filter.c ****     if (x1 > x2)
 1014              		.loc 1 1667 0
 1015 0000 8842     		cmp	r0, r1
 1016 0002 02D9     		bls	.L60
 1017 0004 0300     		movs	r3, r0
1668:Generated_Source\PSoC6/CapSense_Filter.c ****     {
1669:Generated_Source\PSoC6/CapSense_Filter.c ****         tmp = x2;
1670:Generated_Source\PSoC6/CapSense_Filter.c ****         x2 = x1;
1671:Generated_Source\PSoC6/CapSense_Filter.c ****         x1 = tmp;
 1018              		.loc 1 1671 0
 1019 0006 0800     		movs	r0, r1
 1020              	.LVL131:
1670:Generated_Source\PSoC6/CapSense_Filter.c ****         x1 = tmp;
 1021              		.loc 1 1670 0
 1022 0008 1900     		movs	r1, r3
 1023              	.LVL132:
 1024              	.L60:
1672:Generated_Source\PSoC6/CapSense_Filter.c ****     }
1673:Generated_Source\PSoC6/CapSense_Filter.c **** 
1674:Generated_Source\PSoC6/CapSense_Filter.c ****     if (x2 > x3)
 1025              		.loc 1 1674 0
 1026 000a 9142     		cmp	r1, r2
ARM GAS  C:\Users\codyg\AppData\Local\Temp\ccRbtLKH.s 			page 50


 1027 000c 00D9     		bls	.L61
1675:Generated_Source\PSoC6/CapSense_Filter.c ****     {
1676:Generated_Source\PSoC6/CapSense_Filter.c ****         x2 = x3;
 1028              		.loc 1 1676 0
 1029 000e 1100     		movs	r1, r2
 1030              	.LVL133:
 1031              	.L61:
1677:Generated_Source\PSoC6/CapSense_Filter.c ****     }
1678:Generated_Source\PSoC6/CapSense_Filter.c **** 
1679:Generated_Source\PSoC6/CapSense_Filter.c ****     return ((x1 > x2) ? x1 : x2);
 1032              		.loc 1 1679 0
 1033 0010 8842     		cmp	r0, r1
 1034 0012 00D2     		bcs	.L62
 1035 0014 0800     		movs	r0, r1
 1036              	.LVL134:
 1037              	.L62:
1680:Generated_Source\PSoC6/CapSense_Filter.c **** }
 1038              		.loc 1 1680 0
 1039              		@ sp needed
 1040 0016 7047     		bx	lr
 1041              		.cfi_endproc
 1042              	.LFE62:
 1043              		.size	CapSense_FtMedian, .-CapSense_FtMedian
 1044              		.section	.text.CapSense_RunMedianInternal,"ax",%progbits
 1045              		.align	2
 1046              		.global	CapSense_RunMedianInternal
 1047              		.code	16
 1048              		.thumb_func
 1049              		.type	CapSense_RunMedianInternal, %function
 1050              	CapSense_RunMedianInternal:
 1051              	.LFB55:
1067:Generated_Source\PSoC6/CapSense_Filter.c ****     uint32 freqChannel;
 1052              		.loc 1 1067 0
 1053              		.cfi_startproc
 1054              		@ args = 0, pretend = 0, frame = 8
 1055              		@ frame_needed = 0, uses_anonymous_args = 0
 1056              	.LVL135:
 1057 0000 F0B5     		push	{r4, r5, r6, r7, lr}
 1058              		.cfi_def_cfa_offset 20
 1059              		.cfi_offset 4, -20
 1060              		.cfi_offset 5, -16
 1061              		.cfi_offset 6, -12
 1062              		.cfi_offset 7, -8
 1063              		.cfi_offset 14, -4
 1064 0002 5746     		mov	r7, r10
 1065 0004 4E46     		mov	r6, r9
 1066 0006 C0B4     		push	{r6, r7}
 1067              		.cfi_def_cfa_offset 28
 1068              		.cfi_offset 9, -28
 1069              		.cfi_offset 10, -24
 1070 0008 83B0     		sub	sp, sp, #12
 1071              		.cfi_def_cfa_offset 40
 1072 000a 0190     		str	r0, [sp, #4]
 1073 000c 0C00     		movs	r4, r1
 1074 000e 1700     		movs	r7, r2
 1075              	.LVL136:
1075:Generated_Source\PSoC6/CapSense_Filter.c ****     {
ARM GAS  C:\Users\codyg\AppData\Local\Temp\ccRbtLKH.s 			page 51


 1076              		.loc 1 1075 0
 1077 0010 0123     		movs	r3, #1
 1078 0012 19E0     		b	.L66
 1079              	.LVL137:
 1080              	.L68:
1077:Generated_Source\PSoC6/CapSense_Filter.c ****         {
 1081              		.loc 1 1077 0
 1082 0014 FF23     		movs	r3, #255
 1083 0016 3B40     		ands	r3, r7
 1084 0018 062B     		cmp	r3, #6
 1085 001a 14D1     		bne	.L67
1092:Generated_Source\PSoC6/CapSense_Filter.c ****                                                  (uint32)ptrFilterHistObj.ptrProx->proxChannel[freq
 1086              		.loc 1 1092 0
 1087 001c 6B00     		lsls	r3, r5, #1
 1088 001e 9A46     		mov	r10, r3
 1089 0020 185B     		ldrh	r0, [r3, r4]
 1090              	.LVL138:
1093:Generated_Source\PSoC6/CapSense_Filter.c ****                                                  (uint32)ptrFilterHistObj.ptrProx->proxChannel[freq
 1091              		.loc 1 1093 0
 1092 0022 5B19     		adds	r3, r3, r5
 1093 0024 9E00     		lsls	r6, r3, #2
 1094 0026 019B     		ldr	r3, [sp, #4]
 1095              	.LVL139:
 1096 0028 9C46     		mov	ip, r3
 1097 002a 6644     		add	r6, r6, ip
 1098 002c 7388     		ldrh	r3, [r6, #2]
 1099              	.LVL140:
 1100 002e 9946     		mov	r9, r3
1094:Generated_Source\PSoC6/CapSense_Filter.c ****                 ptrFilterHistObj.ptrProx->proxChannel[freqChannel].medHistory[1u] = \
 1101              		.loc 1 1094 0
 1102 0030 B288     		ldrh	r2, [r6, #4]
1092:Generated_Source\PSoC6/CapSense_Filter.c ****                                                  (uint32)ptrFilterHistObj.ptrProx->proxChannel[freq
 1103              		.loc 1 1092 0
 1104 0032 1900     		movs	r1, r3
 1105 0034 FFF7FEFF 		bl	CapSense_FtMedian
 1106              	.LVL141:
1095:Generated_Source\PSoC6/CapSense_Filter.c ****                 ptrFilterHistObj.ptrProx->proxChannel[freqChannel].medHistory[0u];
 1107              		.loc 1 1095 0
 1108 0038 4B46     		mov	r3, r9
 1109 003a B380     		strh	r3, [r6, #4]
1097:Generated_Source\PSoC6/CapSense_Filter.c ****                 ptrSensorObj->raw[freqChannel] = CY_LO16(temp);
 1110              		.loc 1 1097 0
 1111 003c 5346     		mov	r3, r10
 1112 003e 1B5B     		ldrh	r3, [r3, r4]
 1113 0040 7380     		strh	r3, [r6, #2]
1098:Generated_Source\PSoC6/CapSense_Filter.c ****             #endif /* (CapSense_PROXIMITY_SENSOR_EN) */
 1114              		.loc 1 1098 0
 1115 0042 5346     		mov	r3, r10
 1116 0044 E052     		strh	r0, [r4, r3]
 1117              	.LVL142:
 1118              	.L67:
1067:Generated_Source\PSoC6/CapSense_Filter.c ****     uint32 freqChannel;
 1119              		.loc 1 1067 0 discriminator 1
 1120 0046 2B00     		movs	r3, r5
 1121              	.LVL143:
 1122              	.L66:
1075:Generated_Source\PSoC6/CapSense_Filter.c ****     {
ARM GAS  C:\Users\codyg\AppData\Local\Temp\ccRbtLKH.s 			page 52


 1123              		.loc 1 1075 0 discriminator 1
 1124 0048 5D1E     		subs	r5, r3, #1
 1125              	.LVL144:
 1126 004a 002B     		cmp	r3, #0
 1127 004c E2D1     		bne	.L68
1102:Generated_Source\PSoC6/CapSense_Filter.c **** #endif /* (CapSense_REGULAR_RC_MEDIAN_FILTER_EN || CapSense_PROX_RC_MEDIAN_FILTER_EN) */
 1128              		.loc 1 1102 0
 1129 004e 03B0     		add	sp, sp, #12
 1130              		@ sp needed
 1131              	.LVL145:
 1132              	.LVL146:
 1133              	.LVL147:
 1134 0050 0CBC     		pop	{r2, r3}
 1135 0052 9146     		mov	r9, r2
 1136 0054 9A46     		mov	r10, r3
 1137 0056 F0BD     		pop	{r4, r5, r6, r7, pc}
 1138              		.cfi_endproc
 1139              	.LFE55:
 1140              		.size	CapSense_RunMedianInternal, .-CapSense_RunMedianInternal
 1141              		.section	.text.CapSense_RunMedian,"ax",%progbits
 1142              		.align	2
 1143              		.global	CapSense_RunMedian
 1144              		.code	16
 1145              		.thumb_func
 1146              		.type	CapSense_RunMedian, %function
 1147              	CapSense_RunMedian:
 1148              	.LFB53:
 985:Generated_Source\PSoC6/CapSense_Filter.c ****     CapSense_FLASH_WD_STRUCT const *ptrWidget = &CapSense_dsFlash.wdgtArray[widgetId];
 1149              		.loc 1 985 0
 1150              		.cfi_startproc
 1151              		@ args = 0, pretend = 0, frame = 0
 1152              		@ frame_needed = 0, uses_anonymous_args = 0
 1153              	.LVL148:
 1154 0000 F8B5     		push	{r3, r4, r5, r6, r7, lr}
 1155              		.cfi_def_cfa_offset 24
 1156              		.cfi_offset 3, -24
 1157              		.cfi_offset 4, -20
 1158              		.cfi_offset 5, -16
 1159              		.cfi_offset 6, -12
 1160              		.cfi_offset 7, -8
 1161              		.cfi_offset 14, -4
 1162              	.LVL149:
 991:Generated_Source\PSoC6/CapSense_Filter.c ****     ptrSensor = &ptrSensor[sensorId];
 1163              		.loc 1 991 0
 1164 0002 0E4E     		ldr	r6, .L71
 1165 0004 C300     		lsls	r3, r0, #3
 1166 0006 1C1A     		subs	r4, r3, r0
 1167 0008 A200     		lsls	r2, r4, #2
 1168 000a B218     		adds	r2, r6, r2
 1169              	.LVL150:
 992:Generated_Source\PSoC6/CapSense_Filter.c **** 
 1170              		.loc 1 992 0
 1171 000c 8C00     		lsls	r4, r1, #2
 1172 000e 6418     		adds	r4, r4, r1
 1173 0010 6500     		lsls	r5, r4, #1
 1174 0012 9468     		ldr	r4, [r2, #8]
 1175 0014 A446     		mov	ip, r4
ARM GAS  C:\Users\codyg\AppData\Local\Temp\ccRbtLKH.s 			page 53


 1176 0016 6544     		add	r5, r5, ip
 1177              	.LVL151:
 995:Generated_Source\PSoC6/CapSense_Filter.c **** 
 1178              		.loc 1 995 0
 1179 0018 D768     		ldr	r7, [r2, #12]
 1180 001a 3C00     		movs	r4, r7
 1181              	.LVL152:
 997:Generated_Source\PSoC6/CapSense_Filter.c ****     {
 1182              		.loc 1 997 0
 1183 001c 1B1A     		subs	r3, r3, r0
 1184 001e 9A00     		lsls	r2, r3, #2
 1185 0020 B218     		adds	r2, r6, r2
 1186 0022 927E     		ldrb	r2, [r2, #26]
 1187 0024 062A     		cmp	r2, #6
 1188 0026 03D1     		bne	.L70
1006:Generated_Source\PSoC6/CapSense_Filter.c ****         #endif /* (CapSense_PROXIMITY_SENSOR_EN) */
 1189              		.loc 1 1006 0
 1190 0028 4B00     		lsls	r3, r1, #1
 1191 002a 5B18     		adds	r3, r3, r1
 1192 002c 9C00     		lsls	r4, r3, #2
 1193 002e 3C19     		adds	r4, r7, r4
 1194              	.L70:
1010:Generated_Source\PSoC6/CapSense_Filter.c **** }
 1195              		.loc 1 1010 0
 1196 0030 2900     		movs	r1, r5
 1197              	.LVL153:
 1198 0032 2000     		movs	r0, r4
 1199              	.LVL154:
 1200 0034 FFF7FEFF 		bl	CapSense_RunMedianInternal
 1201              	.LVL155:
1011:Generated_Source\PSoC6/CapSense_Filter.c **** 
 1202              		.loc 1 1011 0
 1203              		@ sp needed
 1204              	.LVL156:
 1205              	.LVL157:
 1206              	.LVL158:
 1207 0038 F8BD     		pop	{r3, r4, r5, r6, r7, pc}
 1208              	.L72:
 1209 003a C046     		.align	2
 1210              	.L71:
 1211 003c 00000000 		.word	CapSense_dsFlash
 1212              		.cfi_endproc
 1213              	.LFE53:
 1214              		.size	CapSense_RunMedian, .-CapSense_RunMedian
 1215              		.section	.text.CapSense_FtIIR1stOrder,"ax",%progbits
 1216              		.align	2
 1217              		.global	CapSense_FtIIR1stOrder
 1218              		.code	16
 1219              		.thumb_func
 1220              		.type	CapSense_FtIIR1stOrder, %function
 1221              	CapSense_FtIIR1stOrder:
 1222              	.LFB63:
1681:Generated_Source\PSoC6/CapSense_Filter.c **** #endif /*CapSense_POS_MEDIAN_FILTER_EN || CapSense_REGULAR_RC_MEDIAN_FILTER_EN || CapSense_PROX_RC_
1682:Generated_Source\PSoC6/CapSense_Filter.c **** 
1683:Generated_Source\PSoC6/CapSense_Filter.c **** 
1684:Generated_Source\PSoC6/CapSense_Filter.c **** /*******************************************************************************
1685:Generated_Source\PSoC6/CapSense_Filter.c **** * Function Name: CapSense_FtIIR1stOrder
ARM GAS  C:\Users\codyg\AppData\Local\Temp\ccRbtLKH.s 			page 54


1686:Generated_Source\PSoC6/CapSense_Filter.c **** ****************************************************************************//**
1687:Generated_Source\PSoC6/CapSense_Filter.c **** *
1688:Generated_Source\PSoC6/CapSense_Filter.c **** * \brief    Return the filtered data by the IIR 1-st order algorithm
1689:Generated_Source\PSoC6/CapSense_Filter.c **** *
1690:Generated_Source\PSoC6/CapSense_Filter.c **** * \details  Return the filtered data by the IIR 1-st order algorithm
1691:Generated_Source\PSoC6/CapSense_Filter.c **** *
1692:Generated_Source\PSoC6/CapSense_Filter.c **** * \param    input      The data to be filtered.
1693:Generated_Source\PSoC6/CapSense_Filter.c **** * \param    prevOutput The previous filtered data.
1694:Generated_Source\PSoC6/CapSense_Filter.c **** * \param    n          The IIR filter coefficient (n/256).
1695:Generated_Source\PSoC6/CapSense_Filter.c **** * \param    shift      The parameter is used to shift input data to have free LSB
1696:Generated_Source\PSoC6/CapSense_Filter.c **** *                       bits for a fraction storage of the filter output calculation.
1697:Generated_Source\PSoC6/CapSense_Filter.c **** *
1698:Generated_Source\PSoC6/CapSense_Filter.c **** * \return   Returns the filtered data.
1699:Generated_Source\PSoC6/CapSense_Filter.c **** *
1700:Generated_Source\PSoC6/CapSense_Filter.c **** *******************************************************************************/
1701:Generated_Source\PSoC6/CapSense_Filter.c **** uint32 CapSense_FtIIR1stOrder(uint32 input, uint32 prevOutput, uint32 n, uint32 shift)
1702:Generated_Source\PSoC6/CapSense_Filter.c **** {
 1223              		.loc 1 1702 0
 1224              		.cfi_startproc
 1225              		@ args = 0, pretend = 0, frame = 0
 1226              		@ frame_needed = 0, uses_anonymous_args = 0
 1227              		@ link register save eliminated.
 1228              	.LVL159:
1703:Generated_Source\PSoC6/CapSense_Filter.c ****     uint32 filteredOutput;
1704:Generated_Source\PSoC6/CapSense_Filter.c **** 
1705:Generated_Source\PSoC6/CapSense_Filter.c ****     /*
1706:Generated_Source\PSoC6/CapSense_Filter.c ****     * n - IIR filter coefficient (n/256)
1707:Generated_Source\PSoC6/CapSense_Filter.c ****     * shift - Used to shift input data to have free LSB bits
1708:Generated_Source\PSoC6/CapSense_Filter.c ****     * for fraction storage of filter output calculation
1709:Generated_Source\PSoC6/CapSense_Filter.c ****     */
1710:Generated_Source\PSoC6/CapSense_Filter.c ****     filteredOutput = ((n * (input << shift)) + ((CapSense_IIR_COEFFICIENT_K - n) * prevOutput)) >> 
 1229              		.loc 1 1710 0
 1230 0000 9840     		lsls	r0, r0, r3
 1231              	.LVL160:
 1232 0002 5043     		muls	r0, r2
 1233 0004 8023     		movs	r3, #128
 1234              	.LVL161:
 1235 0006 5B00     		lsls	r3, r3, #1
 1236 0008 9A1A     		subs	r2, r3, r2
 1237              	.LVL162:
 1238 000a 5143     		muls	r1, r2
 1239              	.LVL163:
 1240 000c 4018     		adds	r0, r0, r1
 1241 000e 000A     		lsrs	r0, r0, #8
 1242              	.LVL164:
1711:Generated_Source\PSoC6/CapSense_Filter.c **** 
1712:Generated_Source\PSoC6/CapSense_Filter.c ****     /* Shift operation of output will be done in upper level API if needed */
1713:Generated_Source\PSoC6/CapSense_Filter.c ****     return filteredOutput;
1714:Generated_Source\PSoC6/CapSense_Filter.c **** }
 1243              		.loc 1 1714 0
 1244              		@ sp needed
 1245 0010 7047     		bx	lr
 1246              		.cfi_endproc
 1247              	.LFE63:
 1248              		.size	CapSense_FtIIR1stOrder, .-CapSense_FtIIR1stOrder
 1249 0012 C046     		.section	.text.CapSense_FtUpdateBaseline,"ax",%progbits
 1250              		.align	2
ARM GAS  C:\Users\codyg\AppData\Local\Temp\ccRbtLKH.s 			page 55


 1251              		.global	CapSense_FtUpdateBaseline
 1252              		.code	16
 1253              		.thumb_func
 1254              		.type	CapSense_FtUpdateBaseline, %function
 1255              	CapSense_FtUpdateBaseline:
 1256              	.LFB40:
 259:Generated_Source\PSoC6/CapSense_Filter.c ****     uint32 sign;
 1257              		.loc 1 259 0
 1258              		.cfi_startproc
 1259              		@ args = 0, pretend = 0, frame = 8
 1260              		@ frame_needed = 0, uses_anonymous_args = 0
 1261              	.LVL165:
 1262 0000 F0B5     		push	{r4, r5, r6, r7, lr}
 1263              		.cfi_def_cfa_offset 20
 1264              		.cfi_offset 4, -20
 1265              		.cfi_offset 5, -16
 1266              		.cfi_offset 6, -12
 1267              		.cfi_offset 7, -8
 1268              		.cfi_offset 14, -4
 1269 0002 4746     		mov	r7, r8
 1270 0004 80B4     		push	{r7}
 1271              		.cfi_def_cfa_offset 24
 1272              		.cfi_offset 8, -24
 1273 0006 82B0     		sub	sp, sp, #8
 1274              		.cfi_def_cfa_offset 32
 1275 0008 0700     		movs	r7, r0
 1276 000a 0E00     		movs	r6, r1
 1277 000c 0192     		str	r2, [sp, #4]
 1278              	.LVL166:
 271:Generated_Source\PSoC6/CapSense_Filter.c ****     {
 1279              		.loc 1 271 0
 1280 000e 0123     		movs	r3, #1
 1281 0010 3EE0     		b	.L75
 1282              	.LVL167:
 1283              	.L82:
 283:Generated_Source\PSoC6/CapSense_Filter.c ****         {
 1284              		.loc 1 283 0
 1285 0012 6300     		lsls	r3, r4, #1
 1286 0014 985B     		ldrh	r0, [r3, r6]
 1287 0016 F318     		adds	r3, r6, r3
 1288 0018 5988     		ldrh	r1, [r3, #2]
 1289 001a 8842     		cmp	r0, r1
 1290 001c 05D3     		bcc	.L76
 285:Generated_Source\PSoC6/CapSense_Filter.c ****             sign = 1u;
 1291              		.loc 1 285 0
 1292 001e 431A     		subs	r3, r0, r1
 1293              	.LVL168:
 287:Generated_Source\PSoC6/CapSense_Filter.c ****         }
 1294              		.loc 1 287 0
 1295 0020 3219     		adds	r2, r6, r4
 1296 0022 0025     		movs	r5, #0
 1297 0024 1572     		strb	r5, [r2, #8]
 286:Generated_Source\PSoC6/CapSense_Filter.c ****             ptrSensor->negBslnRstCnt[freqChannel] = 0u;
 1298              		.loc 1 286 0
 1299 0026 0122     		movs	r2, #1
 1300 0028 01E0     		b	.L77
 1301              	.LVL169:
ARM GAS  C:\Users\codyg\AppData\Local\Temp\ccRbtLKH.s 			page 56


 1302              	.L76:
 291:Generated_Source\PSoC6/CapSense_Filter.c ****             sign = 0u;
 1303              		.loc 1 291 0
 1304 002a 0B1A     		subs	r3, r1, r0
 1305              	.LVL170:
 292:Generated_Source\PSoC6/CapSense_Filter.c ****         }
 1306              		.loc 1 292 0
 1307 002c 0022     		movs	r2, #0
 1308              	.LVL171:
 1309              	.L77:
 296:Generated_Source\PSoC6/CapSense_Filter.c ****         {
 1310              		.loc 1 296 0
 1311 002e 002A     		cmp	r2, #0
 1312 0030 11D1     		bne	.L78
 296:Generated_Source\PSoC6/CapSense_Filter.c ****         {
 1313              		.loc 1 296 0 is_stmt 0 discriminator 1
 1314 0032 7D79     		ldrb	r5, [r7, #5]
 1315 0034 AB42     		cmp	r3, r5
 1316 0036 0ED9     		bls	.L78
 298:Generated_Source\PSoC6/CapSense_Filter.c ****             {
 1317              		.loc 1 298 0 is_stmt 1
 1318 0038 3319     		adds	r3, r6, r4
 1319              	.LVL172:
 1320 003a 1B7A     		ldrb	r3, [r3, #8]
 1321 003c 3A7A     		ldrb	r2, [r7, #8]
 1322              	.LVL173:
 1323 003e 9342     		cmp	r3, r2
 1324 0040 05D3     		bcc	.L79
 300:Generated_Source\PSoC6/CapSense_Filter.c ****             }
 1325              		.loc 1 300 0
 1326 0042 2200     		movs	r2, r4
 1327 0044 0199     		ldr	r1, [sp, #4]
 1328 0046 3000     		movs	r0, r6
 1329 0048 FFF7FEFF 		bl	CapSense_FtInitializeBaselineChannel
 1330              	.LVL174:
 1331 004c 1FE0     		b	.L80
 1332              	.L79:
 304:Generated_Source\PSoC6/CapSense_Filter.c ****             }
 1333              		.loc 1 304 0
 1334 004e 3219     		adds	r2, r6, r4
 1335 0050 0133     		adds	r3, r3, #1
 1336 0052 1372     		strb	r3, [r2, #8]
 1337 0054 1BE0     		b	.L80
 1338              	.LVL175:
 1339              	.L78:
 311:Generated_Source\PSoC6/CapSense_Filter.c ****                     ((difference < (uint32) ptrWidgetRam->nNoiseTh) && (sign == 0u)))
 1340              		.loc 1 311 0
 1341 0056 3D79     		ldrb	r5, [r7, #4]
 1342 0058 AB42     		cmp	r3, r5
 1343 005a 04D9     		bls	.L81
 312:Generated_Source\PSoC6/CapSense_Filter.c ****                 {
 1344              		.loc 1 312 0 discriminator 1
 1345 005c 7D79     		ldrb	r5, [r7, #5]
 311:Generated_Source\PSoC6/CapSense_Filter.c ****                     ((difference < (uint32) ptrWidgetRam->nNoiseTh) && (sign == 0u)))
 1346              		.loc 1 311 0 discriminator 1
 1347 005e AB42     		cmp	r3, r5
 1348 0060 15D2     		bcs	.L80
ARM GAS  C:\Users\codyg\AppData\Local\Temp\ccRbtLKH.s 			page 57


 312:Generated_Source\PSoC6/CapSense_Filter.c ****                 {
 1349              		.loc 1 312 0
 1350 0062 002A     		cmp	r2, #0
 1351 0064 13D1     		bne	.L80
 1352              	.L81:
 318:Generated_Source\PSoC6/CapSense_Filter.c ****                 {
 1353              		.loc 1 318 0
 1354 0066 FF23     		movs	r3, #255
 1355              	.LVL176:
 1356 0068 019A     		ldr	r2, [sp, #4]
 1357              	.LVL177:
 1358 006a 1340     		ands	r3, r2
 1359 006c 062B     		cmp	r3, #6
 1360 006e 0ED1     		bne	.L80
 351:Generated_Source\PSoC6/CapSense_Filter.c ****                             history |= ptrSensor->bslnExt[freqChannel];
 1361              		.loc 1 351 0
 1362 0070 0902     		lsls	r1, r1, #8
 1363              	.LVL178:
 352:Generated_Source\PSoC6/CapSense_Filter.c ****                         #else
 1364              		.loc 1 352 0
 1365 0072 3319     		adds	r3, r6, r4
 1366 0074 9846     		mov	r8, r3
 1367 0076 1B79     		ldrb	r3, [r3, #4]
 1368 0078 1943     		orrs	r1, r3
 1369              	.LVL179:
 363:Generated_Source\PSoC6/CapSense_Filter.c ****                                         (uint32)ptrSensor->raw[freqChannel],
 1370              		.loc 1 363 0
 1371 007a 0823     		movs	r3, #8
 1372 007c 0122     		movs	r2, #1
 1373 007e FFF7FEFF 		bl	CapSense_FtIIR1stOrder
 1374              	.LVL180:
 369:Generated_Source\PSoC6/CapSense_Filter.c ****                                     ptrSensor->bslnExt[freqChannel] = CY_LO8(history);
 1375              		.loc 1 369 0
 1376 0082 020A     		lsrs	r2, r0, #8
 1377 0084 6300     		lsls	r3, r4, #1
 1378 0086 F318     		adds	r3, r6, r3
 1379 0088 5A80     		strh	r2, [r3, #2]
 370:Generated_Source\PSoC6/CapSense_Filter.c ****                         #else
 1380              		.loc 1 370 0
 1381 008a 4346     		mov	r3, r8
 1382 008c 1871     		strb	r0, [r3, #4]
 1383              	.LVL181:
 1384              	.L80:
 1385 008e 2300     		movs	r3, r4
 1386              	.LVL182:
 1387              	.L75:
 271:Generated_Source\PSoC6/CapSense_Filter.c ****     {
 1388              		.loc 1 271 0 discriminator 1
 1389 0090 5C1E     		subs	r4, r3, #1
 1390              	.LVL183:
 1391 0092 002B     		cmp	r3, #0
 1392 0094 BDD1     		bne	.L82
 398:Generated_Source\PSoC6/CapSense_Filter.c **** 
 1393              		.loc 1 398 0
 1394 0096 0020     		movs	r0, #0
 1395 0098 02B0     		add	sp, sp, #8
 1396              		@ sp needed
ARM GAS  C:\Users\codyg\AppData\Local\Temp\ccRbtLKH.s 			page 58


 1397              	.LVL184:
 1398              	.LVL185:
 1399              	.LVL186:
 1400 009a 04BC     		pop	{r2}
 1401 009c 9046     		mov	r8, r2
 1402 009e F0BD     		pop	{r4, r5, r6, r7, pc}
 1403              		.cfi_endproc
 1404              	.LFE40:
 1405              		.size	CapSense_FtUpdateBaseline, .-CapSense_FtUpdateBaseline
 1406              		.section	.text.CapSense_UpdateSensorBaseline,"ax",%progbits
 1407              		.align	2
 1408              		.global	CapSense_UpdateSensorBaseline
 1409              		.code	16
 1410              		.thumb_func
 1411              		.type	CapSense_UpdateSensorBaseline, %function
 1412              	CapSense_UpdateSensorBaseline:
 1413              	.LFB39:
 201:Generated_Source\PSoC6/CapSense_Filter.c ****     uint32 result = CY_RET_SUCCESS;
 1414              		.loc 1 201 0
 1415              		.cfi_startproc
 1416              		@ args = 0, pretend = 0, frame = 0
 1417              		@ frame_needed = 0, uses_anonymous_args = 0
 1418              	.LVL187:
 1419 0000 70B5     		push	{r4, r5, r6, lr}
 1420              		.cfi_def_cfa_offset 16
 1421              		.cfi_offset 4, -16
 1422              		.cfi_offset 5, -12
 1423              		.cfi_offset 6, -8
 1424              		.cfi_offset 14, -4
 1425              	.LVL188:
 206:Generated_Source\PSoC6/CapSense_Filter.c **** 
 1426              		.loc 1 206 0
 1427 0002 094D     		ldr	r5, .L84
 1428 0004 C300     		lsls	r3, r0, #3
 1429 0006 1C1A     		subs	r4, r3, r0
 1430 0008 A200     		lsls	r2, r4, #2
 1431 000a AA18     		adds	r2, r5, r2
 1432 000c 5468     		ldr	r4, [r2, #4]
 1433              	.LVL189:
 209:Generated_Source\PSoC6/CapSense_Filter.c ****     ptrSensor = &ptrSensor[sensorId];
 1434              		.loc 1 209 0
 1435 000e 9668     		ldr	r6, [r2, #8]
 1436              	.LVL190:
 210:Generated_Source\PSoC6/CapSense_Filter.c ****     result = CapSense_FtUpdateBaseline(ptrWidgetRam, ptrSensor, (uint32)ptrWidget->wdgtType);
 1437              		.loc 1 210 0
 1438 0010 8A00     		lsls	r2, r1, #2
 1439 0012 5218     		adds	r2, r2, r1
 1440 0014 5100     		lsls	r1, r2, #1
 1441              	.LVL191:
 1442 0016 7118     		adds	r1, r6, r1
 1443              	.LVL192:
 211:Generated_Source\PSoC6/CapSense_Filter.c **** 
 1444              		.loc 1 211 0
 1445 0018 1B1A     		subs	r3, r3, r0
 1446 001a 9A00     		lsls	r2, r3, #2
 1447 001c AA18     		adds	r2, r5, r2
 1448 001e 927E     		ldrb	r2, [r2, #26]
ARM GAS  C:\Users\codyg\AppData\Local\Temp\ccRbtLKH.s 			page 59


 1449 0020 2000     		movs	r0, r4
 1450              	.LVL193:
 1451 0022 FFF7FEFF 		bl	CapSense_FtUpdateBaseline
 1452              	.LVL194:
 222:Generated_Source\PSoC6/CapSense_Filter.c **** 
 1453              		.loc 1 222 0
 1454              		@ sp needed
 1455              	.LVL195:
 1456              	.LVL196:
 1457              	.LVL197:
 1458 0026 70BD     		pop	{r4, r5, r6, pc}
 1459              	.L85:
 1460              		.align	2
 1461              	.L84:
 1462 0028 00000000 		.word	CapSense_dsFlash
 1463              		.cfi_endproc
 1464              	.LFE39:
 1465              		.size	CapSense_UpdateSensorBaseline, .-CapSense_UpdateSensorBaseline
 1466              		.section	.text.CapSense_UpdateWidgetBaseline,"ax",%progbits
 1467              		.align	2
 1468              		.global	CapSense_UpdateWidgetBaseline
 1469              		.code	16
 1470              		.thumb_func
 1471              		.type	CapSense_UpdateWidgetBaseline, %function
 1472              	CapSense_UpdateWidgetBaseline:
 1473              	.LFB38:
 144:Generated_Source\PSoC6/CapSense_Filter.c ****     uint32 sensorId;
 1474              		.loc 1 144 0
 1475              		.cfi_startproc
 1476              		@ args = 0, pretend = 0, frame = 0
 1477              		@ frame_needed = 0, uses_anonymous_args = 0
 1478              	.LVL198:
 1479 0000 70B5     		push	{r4, r5, r6, lr}
 1480              		.cfi_def_cfa_offset 16
 1481              		.cfi_offset 4, -16
 1482              		.cfi_offset 5, -12
 1483              		.cfi_offset 6, -8
 1484              		.cfi_offset 14, -4
 1485 0002 0600     		movs	r6, r0
 1486              	.LVL199:
 152:Generated_Source\PSoC6/CapSense_Filter.c **** 
 1487              		.loc 1 152 0
 1488 0004 C200     		lsls	r2, r0, #3
 1489 0006 121A     		subs	r2, r2, r0
 1490 0008 9300     		lsls	r3, r2, #2
 1491 000a 084A     		ldr	r2, .L89
 1492 000c D318     		adds	r3, r2, r3
 1493 000e 1B8B     		ldrh	r3, [r3, #24]
 1494              	.LVL200:
 149:Generated_Source\PSoC6/CapSense_Filter.c **** 
 1495              		.loc 1 149 0
 1496 0010 0025     		movs	r5, #0
 154:Generated_Source\PSoC6/CapSense_Filter.c ****     {
 1497              		.loc 1 154 0
 1498 0012 05E0     		b	.L87
 1499              	.LVL201:
 1500              	.L88:
ARM GAS  C:\Users\codyg\AppData\Local\Temp\ccRbtLKH.s 			page 60


 156:Generated_Source\PSoC6/CapSense_Filter.c ****     }
 1501              		.loc 1 156 0
 1502 0014 2100     		movs	r1, r4
 1503 0016 3000     		movs	r0, r6
 1504 0018 FFF7FEFF 		bl	CapSense_UpdateSensorBaseline
 1505              	.LVL202:
 1506 001c 0543     		orrs	r5, r0
 1507              	.LVL203:
 154:Generated_Source\PSoC6/CapSense_Filter.c ****     {
 1508              		.loc 1 154 0
 1509 001e 2300     		movs	r3, r4
 1510              	.LVL204:
 1511              	.L87:
 154:Generated_Source\PSoC6/CapSense_Filter.c ****     {
 1512              		.loc 1 154 0 is_stmt 0 discriminator 1
 1513 0020 5C1E     		subs	r4, r3, #1
 1514              	.LVL205:
 1515 0022 002B     		cmp	r3, #0
 1516 0024 F6D1     		bne	.L88
 160:Generated_Source\PSoC6/CapSense_Filter.c **** 
 1517              		.loc 1 160 0 is_stmt 1
 1518 0026 2800     		movs	r0, r5
 1519              		@ sp needed
 1520              	.LVL206:
 1521              	.LVL207:
 1522              	.LVL208:
 1523 0028 70BD     		pop	{r4, r5, r6, pc}
 1524              	.L90:
 1525 002a C046     		.align	2
 1526              	.L89:
 1527 002c 00000000 		.word	CapSense_dsFlash
 1528              		.cfi_endproc
 1529              	.LFE38:
 1530              		.size	CapSense_UpdateWidgetBaseline, .-CapSense_UpdateWidgetBaseline
 1531              		.section	.text.CapSense_UpdateAllBaselines,"ax",%progbits
 1532              		.align	2
 1533              		.global	CapSense_UpdateAllBaselines
 1534              		.code	16
 1535              		.thumb_func
 1536              		.type	CapSense_UpdateAllBaselines, %function
 1537              	CapSense_UpdateAllBaselines:
 1538              	.LFB37:
  99:Generated_Source\PSoC6/CapSense_Filter.c ****     uint32 widgetId;
 1539              		.loc 1 99 0
 1540              		.cfi_startproc
 1541              		@ args = 0, pretend = 0, frame = 0
 1542              		@ frame_needed = 0, uses_anonymous_args = 0
 1543 0000 70B5     		push	{r4, r5, r6, lr}
 1544              		.cfi_def_cfa_offset 16
 1545              		.cfi_offset 4, -16
 1546              		.cfi_offset 5, -12
 1547              		.cfi_offset 6, -8
 1548              		.cfi_offset 14, -4
 1549              	.LVL209:
 101:Generated_Source\PSoC6/CapSense_Filter.c **** 
 1550              		.loc 1 101 0
 1551 0002 0024     		movs	r4, #0
ARM GAS  C:\Users\codyg\AppData\Local\Temp\ccRbtLKH.s 			page 61


 103:Generated_Source\PSoC6/CapSense_Filter.c ****     {
 1552              		.loc 1 103 0
 1553 0004 0123     		movs	r3, #1
 1554 0006 04E0     		b	.L92
 1555              	.LVL210:
 1556              	.L93:
 105:Generated_Source\PSoC6/CapSense_Filter.c ****     }
 1557              		.loc 1 105 0
 1558 0008 2800     		movs	r0, r5
 1559 000a FFF7FEFF 		bl	CapSense_UpdateWidgetBaseline
 1560              	.LVL211:
 1561 000e 0443     		orrs	r4, r0
 1562              	.LVL212:
 103:Generated_Source\PSoC6/CapSense_Filter.c ****     {
 1563              		.loc 1 103 0
 1564 0010 2B00     		movs	r3, r5
 1565              	.LVL213:
 1566              	.L92:
 103:Generated_Source\PSoC6/CapSense_Filter.c ****     {
 1567              		.loc 1 103 0 is_stmt 0 discriminator 1
 1568 0012 5D1E     		subs	r5, r3, #1
 1569              	.LVL214:
 1570 0014 002B     		cmp	r3, #0
 1571 0016 F7D1     		bne	.L93
 109:Generated_Source\PSoC6/CapSense_Filter.c **** 
 1572              		.loc 1 109 0 is_stmt 1
 1573 0018 2000     		movs	r0, r4
 1574              		@ sp needed
 1575              	.LVL215:
 1576              	.LVL216:
 1577 001a 70BD     		pop	{r4, r5, r6, pc}
 1578              		.cfi_endproc
 1579              	.LFE37:
 1580              		.size	CapSense_UpdateAllBaselines, .-CapSense_UpdateAllBaselines
 1581              		.section	.text.CapSense_RunIIRInternal,"ax",%progbits
 1582              		.align	2
 1583              		.global	CapSense_RunIIRInternal
 1584              		.code	16
 1585              		.thumb_func
 1586              		.type	CapSense_RunIIRInternal, %function
 1587              	CapSense_RunIIRInternal:
 1588              	.LFB51:
 869:Generated_Source\PSoC6/CapSense_Filter.c ****     uint32 freqChannel;
 1589              		.loc 1 869 0
 1590              		.cfi_startproc
 1591              		@ args = 0, pretend = 0, frame = 8
 1592              		@ frame_needed = 0, uses_anonymous_args = 0
 1593              	.LVL217:
 1594 0000 F0B5     		push	{r4, r5, r6, r7, lr}
 1595              		.cfi_def_cfa_offset 20
 1596              		.cfi_offset 4, -20
 1597              		.cfi_offset 5, -16
 1598              		.cfi_offset 6, -12
 1599              		.cfi_offset 7, -8
 1600              		.cfi_offset 14, -4
 1601 0002 83B0     		sub	sp, sp, #12
 1602              		.cfi_def_cfa_offset 32
ARM GAS  C:\Users\codyg\AppData\Local\Temp\ccRbtLKH.s 			page 62


 1603 0004 0500     		movs	r5, r0
 1604 0006 0191     		str	r1, [sp, #4]
 1605 0008 1700     		movs	r7, r2
 1606              	.LVL218:
 873:Generated_Source\PSoC6/CapSense_Filter.c ****     {
 1607              		.loc 1 873 0
 1608 000a 0123     		movs	r3, #1
 1609 000c 14E0     		b	.L95
 1610              	.LVL219:
 1611              	.L97:
 875:Generated_Source\PSoC6/CapSense_Filter.c ****         {
 1612              		.loc 1 875 0
 1613 000e FF23     		movs	r3, #255
 1614 0010 3B40     		ands	r3, r7
 1615 0012 062B     		cmp	r3, #6
 1616 0014 0FD1     		bne	.L96
 912:Generated_Source\PSoC6/CapSense_Filter.c ****                                                         (uint32)ptrFilterHistObj.ptrProx->proxChann
 1617              		.loc 1 912 0
 1618 0016 7400     		lsls	r4, r6, #1
 1619 0018 019B     		ldr	r3, [sp, #4]
 1620 001a E05A     		ldrh	r0, [r4, r3]
 1621              	.LVL220:
 913:Generated_Source\PSoC6/CapSense_Filter.c ****                                                         CapSense_PROX_IIR_RC_N,
 1622              		.loc 1 913 0
 1623 001c A219     		adds	r2, r4, r6
 1624 001e 9300     		lsls	r3, r2, #2
 1625 0020 595B     		ldrh	r1, [r3, r5]
 912:Generated_Source\PSoC6/CapSense_Filter.c ****                                                         (uint32)ptrFilterHistObj.ptrProx->proxChann
 1626              		.loc 1 912 0
 1627 0022 0023     		movs	r3, #0
 1628 0024 8022     		movs	r2, #128
 1629 0026 FFF7FEFF 		bl	CapSense_FtIIR1stOrder
 1630              	.LVL221:
 916:Generated_Source\PSoC6/CapSense_Filter.c ****                     ptrSensorObj->raw[freqChannel] = CY_LO16(temp >>CapSense_PROX_IIR_RC_SHIFT);
 1631              		.loc 1 916 0
 1632 002a 80B2     		uxth	r0, r0
 1633              	.LVL222:
 1634 002c A219     		adds	r2, r4, r6
 1635 002e 9300     		lsls	r3, r2, #2
 1636 0030 5853     		strh	r0, [r3, r5]
 917:Generated_Source\PSoC6/CapSense_Filter.c ****                 #endif /* (CapSense_PROX_IIR_RC_TYPE == CapSense_IIR_FILTER_PERFORMANCE) */
 1637              		.loc 1 917 0
 1638 0032 019B     		ldr	r3, [sp, #4]
 1639 0034 E052     		strh	r0, [r4, r3]
 1640              	.L96:
 869:Generated_Source\PSoC6/CapSense_Filter.c ****     uint32 freqChannel;
 1641              		.loc 1 869 0 discriminator 1
 1642 0036 3300     		movs	r3, r6
 1643              	.LVL223:
 1644              	.L95:
 873:Generated_Source\PSoC6/CapSense_Filter.c ****     {
 1645              		.loc 1 873 0 discriminator 1
 1646 0038 5E1E     		subs	r6, r3, #1
 1647              	.LVL224:
 1648 003a 002B     		cmp	r3, #0
 1649 003c E7D1     		bne	.L97
 922:Generated_Source\PSoC6/CapSense_Filter.c **** #endif /* #if (CapSense_REGULAR_RC_IIR_FILTER_EN || CapSense_PROX_RC_IIR_FILTER_EN) */
ARM GAS  C:\Users\codyg\AppData\Local\Temp\ccRbtLKH.s 			page 63


 1650              		.loc 1 922 0
 1651 003e 03B0     		add	sp, sp, #12
 1652              		@ sp needed
 1653              	.LVL225:
 1654              	.LVL226:
 1655 0040 F0BD     		pop	{r4, r5, r6, r7, pc}
 1656              		.cfi_endproc
 1657              	.LFE51:
 1658              		.size	CapSense_RunIIRInternal, .-CapSense_RunIIRInternal
 1659 0042 C046     		.section	.text.CapSense_RunIIR,"ax",%progbits
 1660              		.align	2
 1661              		.global	CapSense_RunIIR
 1662              		.code	16
 1663              		.thumb_func
 1664              		.type	CapSense_RunIIR, %function
 1665              	CapSense_RunIIR:
 1666              	.LFB49:
 780:Generated_Source\PSoC6/CapSense_Filter.c ****     CapSense_FLASH_WD_STRUCT const *ptrWidget = &CapSense_dsFlash.wdgtArray[widgetId];
 1667              		.loc 1 780 0
 1668              		.cfi_startproc
 1669              		@ args = 0, pretend = 0, frame = 0
 1670              		@ frame_needed = 0, uses_anonymous_args = 0
 1671              	.LVL227:
 1672 0000 F8B5     		push	{r3, r4, r5, r6, r7, lr}
 1673              		.cfi_def_cfa_offset 24
 1674              		.cfi_offset 3, -24
 1675              		.cfi_offset 4, -20
 1676              		.cfi_offset 5, -16
 1677              		.cfi_offset 6, -12
 1678              		.cfi_offset 7, -8
 1679              		.cfi_offset 14, -4
 1680              	.LVL228:
 786:Generated_Source\PSoC6/CapSense_Filter.c ****     ptrSensor = &ptrSensor[sensorId];
 1681              		.loc 1 786 0
 1682 0002 0E4E     		ldr	r6, .L100
 1683 0004 C300     		lsls	r3, r0, #3
 1684 0006 1C1A     		subs	r4, r3, r0
 1685 0008 A200     		lsls	r2, r4, #2
 1686 000a B218     		adds	r2, r6, r2
 1687              	.LVL229:
 787:Generated_Source\PSoC6/CapSense_Filter.c **** 
 1688              		.loc 1 787 0
 1689 000c 8C00     		lsls	r4, r1, #2
 1690 000e 6418     		adds	r4, r4, r1
 1691 0010 6500     		lsls	r5, r4, #1
 1692 0012 9468     		ldr	r4, [r2, #8]
 1693 0014 A446     		mov	ip, r4
 1694 0016 6544     		add	r5, r5, ip
 1695              	.LVL230:
 790:Generated_Source\PSoC6/CapSense_Filter.c **** 
 1696              		.loc 1 790 0
 1697 0018 D768     		ldr	r7, [r2, #12]
 1698 001a 3C00     		movs	r4, r7
 1699              	.LVL231:
 792:Generated_Source\PSoC6/CapSense_Filter.c ****     {
 1700              		.loc 1 792 0
 1701 001c 1B1A     		subs	r3, r3, r0
ARM GAS  C:\Users\codyg\AppData\Local\Temp\ccRbtLKH.s 			page 64


 1702 001e 9A00     		lsls	r2, r3, #2
 1703 0020 B218     		adds	r2, r6, r2
 1704 0022 927E     		ldrb	r2, [r2, #26]
 1705 0024 062A     		cmp	r2, #6
 1706 0026 03D1     		bne	.L99
 801:Generated_Source\PSoC6/CapSense_Filter.c ****         #endif /* (CapSense_PROXIMITY_SENSOR_EN) */
 1707              		.loc 1 801 0
 1708 0028 4B00     		lsls	r3, r1, #1
 1709 002a 5B18     		adds	r3, r3, r1
 1710 002c 9C00     		lsls	r4, r3, #2
 1711 002e 3C19     		adds	r4, r7, r4
 1712              	.L99:
 805:Generated_Source\PSoC6/CapSense_Filter.c **** }
 1713              		.loc 1 805 0
 1714 0030 2900     		movs	r1, r5
 1715              	.LVL232:
 1716 0032 2000     		movs	r0, r4
 1717              	.LVL233:
 1718 0034 FFF7FEFF 		bl	CapSense_RunIIRInternal
 1719              	.LVL234:
 806:Generated_Source\PSoC6/CapSense_Filter.c **** 
 1720              		.loc 1 806 0
 1721              		@ sp needed
 1722              	.LVL235:
 1723              	.LVL236:
 1724              	.LVL237:
 1725 0038 F8BD     		pop	{r3, r4, r5, r6, r7, pc}
 1726              	.L101:
 1727 003a C046     		.align	2
 1728              	.L100:
 1729 003c 00000000 		.word	CapSense_dsFlash
 1730              		.cfi_endproc
 1731              	.LFE49:
 1732              		.size	CapSense_RunIIR, .-CapSense_RunIIR
 1733              		.section	.text.CapSense_FtRunEnabledFiltersInternal,"ax",%progbits
 1734              		.align	2
 1735              		.global	CapSense_FtRunEnabledFiltersInternal
 1736              		.code	16
 1737              		.thumb_func
 1738              		.type	CapSense_FtRunEnabledFiltersInternal, %function
 1739              	CapSense_FtRunEnabledFiltersInternal:
 1740              	.LFB61:
1565:Generated_Source\PSoC6/CapSense_Filter.c ****     #if (CapSense_REGULAR_RC_MEDIAN_FILTER_EN || CapSense_PROX_RC_MEDIAN_FILTER_EN)
 1741              		.loc 1 1565 0
 1742              		.cfi_startproc
 1743              		@ args = 0, pretend = 0, frame = 0
 1744              		@ frame_needed = 0, uses_anonymous_args = 0
 1745              	.LVL238:
 1746 0000 70B5     		push	{r4, r5, r6, lr}
 1747              		.cfi_def_cfa_offset 16
 1748              		.cfi_offset 4, -16
 1749              		.cfi_offset 5, -12
 1750              		.cfi_offset 6, -8
 1751              		.cfi_offset 14, -4
 1752 0002 0400     		movs	r4, r0
 1753 0004 0D00     		movs	r5, r1
 1754 0006 1600     		movs	r6, r2
ARM GAS  C:\Users\codyg\AppData\Local\Temp\ccRbtLKH.s 			page 65


1567:Generated_Source\PSoC6/CapSense_Filter.c ****     #endif /* (CapSense_REGULAR_RC_MEDIAN_FILTER_EN || CapSense_PROX_RC_MEDIAN_FILTER_EN) */
 1755              		.loc 1 1567 0
 1756 0008 FFF7FEFF 		bl	CapSense_RunMedianInternal
 1757              	.LVL239:
1571:Generated_Source\PSoC6/CapSense_Filter.c ****     #endif /* (CapSense_REGULAR_RC_IIR_FILTER_EN || CapSense_PROX_RC_IIR_FILTER_EN) */
 1758              		.loc 1 1571 0
 1759 000c 3200     		movs	r2, r6
 1760 000e 2900     		movs	r1, r5
 1761              	.LVL240:
 1762 0010 2000     		movs	r0, r4
 1763 0012 FFF7FEFF 		bl	CapSense_RunIIRInternal
 1764              	.LVL241:
1575:Generated_Source\PSoC6/CapSense_Filter.c ****     #endif /* (CapSense_REGULAR_RC_AVERAGE_FILTER_EN || CapSense_PROX_RC_AVERAGE_FILTER_EN) */
 1765              		.loc 1 1575 0
 1766 0016 3200     		movs	r2, r6
 1767 0018 2900     		movs	r1, r5
 1768 001a 2000     		movs	r0, r4
 1769 001c FFF7FEFF 		bl	CapSense_RunAverageInternal
 1770              	.LVL242:
1577:Generated_Source\PSoC6/CapSense_Filter.c **** #endif /* (CapSense_ENABLE == CapSense_RC_FILTER_EN) */
 1771              		.loc 1 1577 0
 1772              		@ sp needed
 1773              	.LVL243:
 1774              	.LVL244:
 1775              	.LVL245:
 1776 0020 70BD     		pop	{r4, r5, r6, pc}
 1777              		.cfi_endproc
 1778              	.LFE61:
 1779              		.size	CapSense_FtRunEnabledFiltersInternal, .-CapSense_FtRunEnabledFiltersInternal
 1780 0022 C046     		.section	.text.CapSense_FtRunEnabledFilters,"ax",%progbits
 1781              		.align	2
 1782              		.global	CapSense_FtRunEnabledFilters
 1783              		.code	16
 1784              		.thumb_func
 1785              		.type	CapSense_FtRunEnabledFilters, %function
 1786              	CapSense_FtRunEnabledFilters:
 1787              	.LFB60:
1514:Generated_Source\PSoC6/CapSense_Filter.c ****     CapSense_FLASH_WD_STRUCT const *ptrWidget = &CapSense_dsFlash.wdgtArray[widgetId];
 1788              		.loc 1 1514 0
 1789              		.cfi_startproc
 1790              		@ args = 0, pretend = 0, frame = 0
 1791              		@ frame_needed = 0, uses_anonymous_args = 0
 1792              	.LVL246:
 1793 0000 F8B5     		push	{r3, r4, r5, r6, r7, lr}
 1794              		.cfi_def_cfa_offset 24
 1795              		.cfi_offset 3, -24
 1796              		.cfi_offset 4, -20
 1797              		.cfi_offset 5, -16
 1798              		.cfi_offset 6, -12
 1799              		.cfi_offset 7, -8
 1800              		.cfi_offset 14, -4
 1801              	.LVL247:
1520:Generated_Source\PSoC6/CapSense_Filter.c ****     ptrSensor = &ptrSensor[sensorId];
 1802              		.loc 1 1520 0
 1803 0002 0E4E     		ldr	r6, .L105
 1804 0004 C300     		lsls	r3, r0, #3
 1805 0006 1C1A     		subs	r4, r3, r0
ARM GAS  C:\Users\codyg\AppData\Local\Temp\ccRbtLKH.s 			page 66


 1806 0008 A200     		lsls	r2, r4, #2
 1807 000a B218     		adds	r2, r6, r2
 1808              	.LVL248:
1521:Generated_Source\PSoC6/CapSense_Filter.c **** 
 1809              		.loc 1 1521 0
 1810 000c 8C00     		lsls	r4, r1, #2
 1811 000e 6418     		adds	r4, r4, r1
 1812 0010 6500     		lsls	r5, r4, #1
 1813 0012 9468     		ldr	r4, [r2, #8]
 1814 0014 A446     		mov	ip, r4
 1815 0016 6544     		add	r5, r5, ip
 1816              	.LVL249:
1524:Generated_Source\PSoC6/CapSense_Filter.c **** 
 1817              		.loc 1 1524 0
 1818 0018 D768     		ldr	r7, [r2, #12]
 1819 001a 3C00     		movs	r4, r7
 1820              	.LVL250:
1526:Generated_Source\PSoC6/CapSense_Filter.c ****     {
 1821              		.loc 1 1526 0
 1822 001c 1B1A     		subs	r3, r3, r0
 1823 001e 9A00     		lsls	r2, r3, #2
 1824 0020 B218     		adds	r2, r6, r2
 1825 0022 927E     		ldrb	r2, [r2, #26]
 1826 0024 062A     		cmp	r2, #6
 1827 0026 03D1     		bne	.L104
1539:Generated_Source\PSoC6/CapSense_Filter.c ****         #endif
 1828              		.loc 1 1539 0
 1829 0028 4B00     		lsls	r3, r1, #1
 1830 002a 5B18     		adds	r3, r3, r1
 1831 002c 9C00     		lsls	r4, r3, #2
 1832 002e 3C19     		adds	r4, r7, r4
 1833              	.L104:
1543:Generated_Source\PSoC6/CapSense_Filter.c ****     #if (CapSense_ALP_FILTER_EN)
 1834              		.loc 1 1543 0
 1835 0030 2900     		movs	r1, r5
 1836              	.LVL251:
 1837 0032 2000     		movs	r0, r4
 1838              	.LVL252:
 1839 0034 FFF7FEFF 		bl	CapSense_FtRunEnabledFiltersInternal
 1840              	.LVL253:
1547:Generated_Source\PSoC6/CapSense_Filter.c **** 
 1841              		.loc 1 1547 0
 1842              		@ sp needed
 1843              	.LVL254:
 1844              	.LVL255:
 1845              	.LVL256:
 1846 0038 F8BD     		pop	{r3, r4, r5, r6, r7, pc}
 1847              	.L106:
 1848 003a C046     		.align	2
 1849              	.L105:
 1850 003c 00000000 		.word	CapSense_dsFlash
 1851              		.cfi_endproc
 1852              	.LFE60:
 1853              		.size	CapSense_FtRunEnabledFilters, .-CapSense_FtRunEnabledFilters
 1854              		.text
 1855              	.Letext0:
 1856              		.file 2 "c:\\program files (x86)\\cypress\\psoc creator\\4.2\\psoc creator\\import\\gnu\\arm\\5.4.
ARM GAS  C:\Users\codyg\AppData\Local\Temp\ccRbtLKH.s 			page 67


 1857              		.file 3 "c:\\program files (x86)\\cypress\\psoc creator\\4.2\\psoc creator\\import\\gnu\\arm\\5.4.
 1858              		.file 4 "Generated_Source\\PSoC6\\pdl\\drivers/peripheral/syslib/cy_syslib.h"
 1859              		.file 5 "Generated_Source\\PSoC6\\CapSense_Configuration.h"
 1860              		.file 6 "Generated_Source\\PSoC6\\CapSense_Structure.h"
 1861              		.section	.debug_info,"",%progbits
 1862              	.Ldebug_info0:
 1863 0000 6D100000 		.4byte	0x106d
 1864 0004 0400     		.2byte	0x4
 1865 0006 00000000 		.4byte	.Ldebug_abbrev0
 1866 000a 04       		.byte	0x4
 1867 000b 01       		.uleb128 0x1
 1868 000c 54060000 		.4byte	.LASF122
 1869 0010 0C       		.byte	0xc
 1870 0011 8F050000 		.4byte	.LASF123
 1871 0015 F1050000 		.4byte	.LASF124
 1872 0019 00000000 		.4byte	.Ldebug_ranges0+0
 1873 001d 00000000 		.4byte	0
 1874 0021 00000000 		.4byte	.Ldebug_line0
 1875 0025 02       		.uleb128 0x2
 1876 0026 04       		.byte	0x4
 1877 0027 05       		.byte	0x5
 1878 0028 696E7400 		.ascii	"int\000"
 1879 002c 03       		.uleb128 0x3
 1880 002d 04       		.byte	0x4
 1881 002e 07       		.byte	0x7
 1882 002f 5A020000 		.4byte	.LASF0
 1883 0033 03       		.uleb128 0x3
 1884 0034 08       		.byte	0x8
 1885 0035 05       		.byte	0x5
 1886 0036 9D010000 		.4byte	.LASF1
 1887 003a 03       		.uleb128 0x3
 1888 003b 08       		.byte	0x8
 1889 003c 04       		.byte	0x4
 1890 003d E6060000 		.4byte	.LASF2
 1891 0041 03       		.uleb128 0x3
 1892 0042 01       		.byte	0x1
 1893 0043 06       		.byte	0x6
 1894 0044 AB010000 		.4byte	.LASF3
 1895 0048 04       		.uleb128 0x4
 1896 0049 66000000 		.4byte	.LASF6
 1897 004d 02       		.byte	0x2
 1898 004e 1D       		.byte	0x1d
 1899 004f 53000000 		.4byte	0x53
 1900 0053 03       		.uleb128 0x3
 1901 0054 01       		.byte	0x1
 1902 0055 08       		.byte	0x8
 1903 0056 BA040000 		.4byte	.LASF4
 1904 005a 03       		.uleb128 0x3
 1905 005b 02       		.byte	0x2
 1906 005c 05       		.byte	0x5
 1907 005d 76030000 		.4byte	.LASF5
 1908 0061 04       		.uleb128 0x4
 1909 0062 13070000 		.4byte	.LASF7
 1910 0066 02       		.byte	0x2
 1911 0067 2B       		.byte	0x2b
 1912 0068 6C000000 		.4byte	0x6c
 1913 006c 03       		.uleb128 0x3
ARM GAS  C:\Users\codyg\AppData\Local\Temp\ccRbtLKH.s 			page 68


 1914 006d 02       		.byte	0x2
 1915 006e 07       		.byte	0x7
 1916 006f E6020000 		.4byte	.LASF8
 1917 0073 03       		.uleb128 0x3
 1918 0074 04       		.byte	0x4
 1919 0075 05       		.byte	0x5
 1920 0076 B7010000 		.4byte	.LASF9
 1921 007a 04       		.uleb128 0x4
 1922 007b 08020000 		.4byte	.LASF10
 1923 007f 02       		.byte	0x2
 1924 0080 41       		.byte	0x41
 1925 0081 85000000 		.4byte	0x85
 1926 0085 03       		.uleb128 0x3
 1927 0086 04       		.byte	0x4
 1928 0087 07       		.byte	0x7
 1929 0088 67020000 		.4byte	.LASF11
 1930 008c 03       		.uleb128 0x3
 1931 008d 08       		.byte	0x8
 1932 008e 07       		.byte	0x7
 1933 008f B9000000 		.4byte	.LASF12
 1934 0093 04       		.uleb128 0x4
 1935 0094 1E080000 		.4byte	.LASF13
 1936 0098 03       		.byte	0x3
 1937 0099 18       		.byte	0x18
 1938 009a 48000000 		.4byte	0x48
 1939 009e 04       		.uleb128 0x4
 1940 009f D7010000 		.4byte	.LASF14
 1941 00a3 03       		.byte	0x3
 1942 00a4 24       		.byte	0x24
 1943 00a5 61000000 		.4byte	0x61
 1944 00a9 04       		.uleb128 0x4
 1945 00aa E8050000 		.4byte	.LASF15
 1946 00ae 03       		.byte	0x3
 1947 00af 30       		.byte	0x30
 1948 00b0 7A000000 		.4byte	0x7a
 1949 00b4 03       		.uleb128 0x3
 1950 00b5 04       		.byte	0x4
 1951 00b6 07       		.byte	0x7
 1952 00b7 C8030000 		.4byte	.LASF16
 1953 00bb 03       		.uleb128 0x3
 1954 00bc 01       		.byte	0x1
 1955 00bd 08       		.byte	0x8
 1956 00be F2060000 		.4byte	.LASF17
 1957 00c2 03       		.uleb128 0x3
 1958 00c3 04       		.byte	0x4
 1959 00c4 04       		.byte	0x4
 1960 00c5 6E040000 		.4byte	.LASF18
 1961 00c9 03       		.uleb128 0x3
 1962 00ca 08       		.byte	0x8
 1963 00cb 04       		.byte	0x4
 1964 00cc E0010000 		.4byte	.LASF19
 1965 00d0 05       		.uleb128 0x5
 1966 00d1 F7000000 		.4byte	.LASF20
 1967 00d5 04       		.byte	0x4
 1968 00d6 8203     		.2byte	0x382
 1969 00d8 A9000000 		.4byte	0xa9
 1970 00dc 05       		.uleb128 0x5
ARM GAS  C:\Users\codyg\AppData\Local\Temp\ccRbtLKH.s 			page 69


 1971 00dd D1010000 		.4byte	.LASF21
 1972 00e1 04       		.byte	0x4
 1973 00e2 8503     		.2byte	0x385
 1974 00e4 93000000 		.4byte	0x93
 1975 00e8 05       		.uleb128 0x5
 1976 00e9 00000000 		.4byte	.LASF22
 1977 00ed 04       		.byte	0x4
 1978 00ee 8603     		.2byte	0x386
 1979 00f0 9E000000 		.4byte	0x9e
 1980 00f4 05       		.uleb128 0x5
 1981 00f5 F6010000 		.4byte	.LASF23
 1982 00f9 04       		.byte	0x4
 1983 00fa 8703     		.2byte	0x387
 1984 00fc A9000000 		.4byte	0xa9
 1985 0100 04       		.uleb128 0x4
 1986 0101 5B010000 		.4byte	.LASF24
 1987 0105 05       		.byte	0x5
 1988 0106 D8       		.byte	0xd8
 1989 0107 E8000000 		.4byte	0xe8
 1990 010b 04       		.uleb128 0x4
 1991 010c 06010000 		.4byte	.LASF25
 1992 0110 05       		.byte	0x5
 1993 0111 DC       		.byte	0xdc
 1994 0112 DC000000 		.4byte	0xdc
 1995 0116 06       		.uleb128 0x6
 1996 0117 01       		.byte	0x1
 1997 0118 53000000 		.4byte	0x53
 1998 011c 06       		.byte	0x6
 1999 011d 61       		.byte	0x61
 2000 011e 47010000 		.4byte	0x147
 2001 0122 07       		.uleb128 0x7
 2002 0123 A5040000 		.4byte	.LASF26
 2003 0127 01       		.byte	0x1
 2004 0128 07       		.uleb128 0x7
 2005 0129 73010000 		.4byte	.LASF27
 2006 012d 02       		.byte	0x2
 2007 012e 07       		.uleb128 0x7
 2008 012f 74040000 		.4byte	.LASF28
 2009 0133 03       		.byte	0x3
 2010 0134 07       		.uleb128 0x7
 2011 0135 29020000 		.4byte	.LASF29
 2012 0139 04       		.byte	0x4
 2013 013a 07       		.uleb128 0x7
 2014 013b 78050000 		.4byte	.LASF30
 2015 013f 05       		.byte	0x5
 2016 0140 07       		.uleb128 0x7
 2017 0141 A1080000 		.4byte	.LASF31
 2018 0145 06       		.byte	0x6
 2019 0146 00       		.byte	0
 2020 0147 04       		.uleb128 0x4
 2021 0148 4C070000 		.4byte	.LASF32
 2022 014c 06       		.byte	0x6
 2023 014d 68       		.byte	0x68
 2024 014e 16010000 		.4byte	0x116
 2025 0152 08       		.uleb128 0x8
 2026 0153 12       		.byte	0x12
 2027 0154 06       		.byte	0x6
ARM GAS  C:\Users\codyg\AppData\Local\Temp\ccRbtLKH.s 			page 70


 2028 0155 8C       		.byte	0x8c
 2029 0156 EB010000 		.4byte	0x1eb
 2030 015a 09       		.uleb128 0x9
 2031 015b F2070000 		.4byte	.LASF33
 2032 015f 06       		.byte	0x6
 2033 0160 92       		.byte	0x92
 2034 0161 E8000000 		.4byte	0xe8
 2035 0165 00       		.byte	0
 2036 0166 09       		.uleb128 0x9
 2037 0167 76080000 		.4byte	.LASF34
 2038 016b 06       		.byte	0x6
 2039 016c 97       		.byte	0x97
 2040 016d 00010000 		.4byte	0x100
 2041 0171 02       		.byte	0x2
 2042 0172 09       		.uleb128 0x9
 2043 0173 FA080000 		.4byte	.LASF35
 2044 0177 06       		.byte	0x6
 2045 0178 9C       		.byte	0x9c
 2046 0179 DC000000 		.4byte	0xdc
 2047 017d 04       		.byte	0x4
 2048 017e 09       		.uleb128 0x9
 2049 017f 0A040000 		.4byte	.LASF36
 2050 0183 06       		.byte	0x6
 2051 0184 A1       		.byte	0xa1
 2052 0185 DC000000 		.4byte	0xdc
 2053 0189 05       		.byte	0x5
 2054 018a 09       		.uleb128 0x9
 2055 018b FD010000 		.4byte	.LASF37
 2056 018f 06       		.byte	0x6
 2057 0190 A6       		.byte	0xa6
 2058 0191 DC000000 		.4byte	0xdc
 2059 0195 06       		.byte	0x6
 2060 0196 09       		.uleb128 0x9
 2061 0197 41070000 		.4byte	.LASF38
 2062 019b 06       		.byte	0x6
 2063 019c AB       		.byte	0xab
 2064 019d DC000000 		.4byte	0xdc
 2065 01a1 07       		.byte	0x7
 2066 01a2 09       		.uleb128 0x9
 2067 01a3 BE020000 		.4byte	.LASF39
 2068 01a7 06       		.byte	0x6
 2069 01a8 B2       		.byte	0xb2
 2070 01a9 0B010000 		.4byte	0x10b
 2071 01ad 08       		.byte	0x8
 2072 01ae 09       		.uleb128 0x9
 2073 01af A6030000 		.4byte	.LASF40
 2074 01b3 06       		.byte	0x6
 2075 01b4 BA       		.byte	0xba
 2076 01b5 EB010000 		.4byte	0x1eb
 2077 01b9 09       		.byte	0x9
 2078 01ba 09       		.uleb128 0x9
 2079 01bb 1E070000 		.4byte	.LASF41
 2080 01bf 06       		.byte	0x6
 2081 01c0 C3       		.byte	0xc3
 2082 01c1 E8000000 		.4byte	0xe8
 2083 01c5 0A       		.byte	0xa
 2084 01c6 09       		.uleb128 0x9
ARM GAS  C:\Users\codyg\AppData\Local\Temp\ccRbtLKH.s 			page 71


 2085 01c7 2B080000 		.4byte	.LASF42
 2086 01cb 06       		.byte	0x6
 2087 01cc C8       		.byte	0xc8
 2088 01cd DC000000 		.4byte	0xdc
 2089 01d1 0C       		.byte	0xc
 2090 01d2 09       		.uleb128 0x9
 2091 01d3 70000000 		.4byte	.LASF43
 2092 01d7 06       		.byte	0x6
 2093 01d8 CF       		.byte	0xcf
 2094 01d9 E8000000 		.4byte	0xe8
 2095 01dd 0E       		.byte	0xe
 2096 01de 09       		.uleb128 0x9
 2097 01df 13040000 		.4byte	.LASF44
 2098 01e3 06       		.byte	0x6
 2099 01e4 D4       		.byte	0xd4
 2100 01e5 E8000000 		.4byte	0xe8
 2101 01e9 10       		.byte	0x10
 2102 01ea 00       		.byte	0
 2103 01eb 0A       		.uleb128 0xa
 2104 01ec DC000000 		.4byte	0xdc
 2105 01f0 FB010000 		.4byte	0x1fb
 2106 01f4 0B       		.uleb128 0xb
 2107 01f5 B4000000 		.4byte	0xb4
 2108 01f9 00       		.byte	0
 2109 01fa 00       		.byte	0
 2110 01fb 04       		.uleb128 0x4
 2111 01fc 25070000 		.4byte	.LASF45
 2112 0200 06       		.byte	0x6
 2113 0201 D5       		.byte	0xd5
 2114 0202 52010000 		.4byte	0x152
 2115 0206 0C       		.uleb128 0xc
 2116 0207 0A       		.byte	0xa
 2117 0208 06       		.byte	0x6
 2118 0209 3A01     		.2byte	0x13a
 2119 020b 5E020000 		.4byte	0x25e
 2120 020f 0D       		.uleb128 0xd
 2121 0210 72617700 		.ascii	"raw\000"
 2122 0214 06       		.byte	0x6
 2123 0215 3F01     		.2byte	0x13f
 2124 0217 5E020000 		.4byte	0x25e
 2125 021b 00       		.byte	0
 2126 021c 0E       		.uleb128 0xe
 2127 021d 55020000 		.4byte	.LASF46
 2128 0221 06       		.byte	0x6
 2129 0222 4401     		.2byte	0x144
 2130 0224 5E020000 		.4byte	0x25e
 2131 0228 02       		.byte	0x2
 2132 0229 0E       		.uleb128 0xe
 2133 022a 13020000 		.4byte	.LASF47
 2134 022e 06       		.byte	0x6
 2135 022f 4A01     		.2byte	0x14a
 2136 0231 EB010000 		.4byte	0x1eb
 2137 0235 04       		.byte	0x4
 2138 0236 0E       		.uleb128 0xe
 2139 0237 01010000 		.4byte	.LASF48
 2140 023b 06       		.byte	0x6
 2141 023c 4F01     		.2byte	0x14f
ARM GAS  C:\Users\codyg\AppData\Local\Temp\ccRbtLKH.s 			page 72


 2142 023e 00010000 		.4byte	0x100
 2143 0242 06       		.byte	0x6
 2144 0243 0E       		.uleb128 0xe
 2145 0244 AD070000 		.4byte	.LASF49
 2146 0248 06       		.byte	0x6
 2147 0249 5401     		.2byte	0x154
 2148 024b 6E020000 		.4byte	0x26e
 2149 024f 08       		.byte	0x8
 2150 0250 0E       		.uleb128 0xe
 2151 0251 84070000 		.4byte	.LASF50
 2152 0255 06       		.byte	0x6
 2153 0256 5A01     		.2byte	0x15a
 2154 0258 EB010000 		.4byte	0x1eb
 2155 025c 09       		.byte	0x9
 2156 025d 00       		.byte	0
 2157 025e 0A       		.uleb128 0xa
 2158 025f E8000000 		.4byte	0xe8
 2159 0263 6E020000 		.4byte	0x26e
 2160 0267 0B       		.uleb128 0xb
 2161 0268 B4000000 		.4byte	0xb4
 2162 026c 00       		.byte	0
 2163 026d 00       		.byte	0
 2164 026e 0A       		.uleb128 0xa
 2165 026f 0B010000 		.4byte	0x10b
 2166 0273 7E020000 		.4byte	0x27e
 2167 0277 0B       		.uleb128 0xb
 2168 0278 B4000000 		.4byte	0xb4
 2169 027c 00       		.byte	0
 2170 027d 00       		.byte	0
 2171 027e 05       		.uleb128 0x5
 2172 027f A1000000 		.4byte	.LASF51
 2173 0283 06       		.byte	0x6
 2174 0284 5B01     		.2byte	0x15b
 2175 0286 06020000 		.4byte	0x206
 2176 028a 0C       		.uleb128 0xc
 2177 028b 1C       		.byte	0x1c
 2178 028c 06       		.byte	0x6
 2179 028d 1402     		.2byte	0x214
 2180 028f 09030000 		.4byte	0x309
 2181 0293 0E       		.uleb128 0xe
 2182 0294 EA000000 		.4byte	.LASF52
 2183 0298 06       		.byte	0x6
 2184 0299 1D02     		.2byte	0x21d
 2185 029b 09030000 		.4byte	0x309
 2186 029f 00       		.byte	0
 2187 02a0 0E       		.uleb128 0xe
 2188 02a1 6A030000 		.4byte	.LASF53
 2189 02a5 06       		.byte	0x6
 2190 02a6 2402     		.2byte	0x224
 2191 02a8 10030000 		.4byte	0x310
 2192 02ac 04       		.byte	0x4
 2193 02ad 0E       		.uleb128 0xe
 2194 02ae C0010000 		.4byte	.LASF54
 2195 02b2 06       		.byte	0x6
 2196 02b3 2A02     		.2byte	0x22a
 2197 02b5 12030000 		.4byte	0x312
 2198 02b9 08       		.byte	0x8
ARM GAS  C:\Users\codyg\AppData\Local\Temp\ccRbtLKH.s 			page 73


 2199 02ba 0E       		.uleb128 0xe
 2200 02bb 01050000 		.4byte	.LASF55
 2201 02bf 06       		.byte	0x6
 2202 02c0 2F02     		.2byte	0x22f
 2203 02c2 10030000 		.4byte	0x310
 2204 02c6 0C       		.byte	0xc
 2205 02c7 0E       		.uleb128 0xe
 2206 02c8 C7070000 		.4byte	.LASF56
 2207 02cc 06       		.byte	0x6
 2208 02cd 3602     		.2byte	0x236
 2209 02cf 18030000 		.4byte	0x318
 2210 02d3 10       		.byte	0x10
 2211 02d4 0E       		.uleb128 0xe
 2212 02d5 FD030000 		.4byte	.LASF57
 2213 02d9 06       		.byte	0x6
 2214 02da 3B02     		.2byte	0x23b
 2215 02dc F4000000 		.4byte	0xf4
 2216 02e0 14       		.byte	0x14
 2217 02e1 0E       		.uleb128 0xe
 2218 02e2 BB070000 		.4byte	.LASF58
 2219 02e6 06       		.byte	0x6
 2220 02e7 4202     		.2byte	0x242
 2221 02e9 E8000000 		.4byte	0xe8
 2222 02ed 18       		.byte	0x18
 2223 02ee 0E       		.uleb128 0xe
 2224 02ef 31040000 		.4byte	.LASF59
 2225 02f3 06       		.byte	0x6
 2226 02f4 4D02     		.2byte	0x24d
 2227 02f6 DC000000 		.4byte	0xdc
 2228 02fa 1A       		.byte	0x1a
 2229 02fb 0E       		.uleb128 0xe
 2230 02fc C0030000 		.4byte	.LASF60
 2231 0300 06       		.byte	0x6
 2232 0301 5502     		.2byte	0x255
 2233 0303 DC000000 		.4byte	0xdc
 2234 0307 1B       		.byte	0x1b
 2235 0308 00       		.byte	0
 2236 0309 0F       		.uleb128 0xf
 2237 030a 04       		.byte	0x4
 2238 030b 0F030000 		.4byte	0x30f
 2239 030f 10       		.uleb128 0x10
 2240 0310 11       		.uleb128 0x11
 2241 0311 04       		.byte	0x4
 2242 0312 0F       		.uleb128 0xf
 2243 0313 04       		.byte	0x4
 2244 0314 7E020000 		.4byte	0x27e
 2245 0318 0F       		.uleb128 0xf
 2246 0319 04       		.byte	0x4
 2247 031a DC000000 		.4byte	0xdc
 2248 031e 05       		.uleb128 0x5
 2249 031f E8040000 		.4byte	.LASF61
 2250 0323 06       		.byte	0x6
 2251 0324 5602     		.2byte	0x256
 2252 0326 8A020000 		.4byte	0x28a
 2253 032a 0C       		.uleb128 0xc
 2254 032b 1C       		.byte	0x1c
 2255 032c 06       		.byte	0x6
ARM GAS  C:\Users\codyg\AppData\Local\Temp\ccRbtLKH.s 			page 74


 2256 032d 5C02     		.2byte	0x25c
 2257 032f 41030000 		.4byte	0x341
 2258 0333 0E       		.uleb128 0xe
 2259 0334 FD070000 		.4byte	.LASF62
 2260 0338 06       		.byte	0x6
 2261 0339 6102     		.2byte	0x261
 2262 033b 41030000 		.4byte	0x341
 2263 033f 00       		.byte	0
 2264 0340 00       		.byte	0
 2265 0341 0A       		.uleb128 0xa
 2266 0342 1E030000 		.4byte	0x31e
 2267 0346 51030000 		.4byte	0x351
 2268 034a 0B       		.uleb128 0xb
 2269 034b B4000000 		.4byte	0xb4
 2270 034f 00       		.byte	0
 2271 0350 00       		.byte	0
 2272 0351 05       		.uleb128 0x5
 2273 0352 14000000 		.4byte	.LASF63
 2274 0356 06       		.byte	0x6
 2275 0357 6202     		.2byte	0x262
 2276 0359 2A030000 		.4byte	0x32a
 2277 035d 0C       		.uleb128 0xc
 2278 035e 0C       		.byte	0xc
 2279 035f 06       		.byte	0x6
 2280 0360 9702     		.2byte	0x297
 2281 0362 8E030000 		.4byte	0x38e
 2282 0366 0E       		.uleb128 0xe
 2283 0367 4A020000 		.4byte	.LASF64
 2284 036b 06       		.byte	0x6
 2285 036c 9C02     		.2byte	0x29c
 2286 036e E8000000 		.4byte	0xe8
 2287 0372 00       		.byte	0
 2288 0373 0E       		.uleb128 0xe
 2289 0374 98020000 		.4byte	.LASF65
 2290 0378 06       		.byte	0x6
 2291 0379 A102     		.2byte	0x2a1
 2292 037b 8E030000 		.4byte	0x38e
 2293 037f 02       		.byte	0x2
 2294 0380 0E       		.uleb128 0xe
 2295 0381 3A040000 		.4byte	.LASF66
 2296 0385 06       		.byte	0x6
 2297 0386 A602     		.2byte	0x2a6
 2298 0388 9E030000 		.4byte	0x39e
 2299 038c 06       		.byte	0x6
 2300 038d 00       		.byte	0
 2301 038e 0A       		.uleb128 0xa
 2302 038f E8000000 		.4byte	0xe8
 2303 0393 9E030000 		.4byte	0x39e
 2304 0397 0B       		.uleb128 0xb
 2305 0398 B4000000 		.4byte	0xb4
 2306 039c 01       		.byte	0x1
 2307 039d 00       		.byte	0
 2308 039e 0A       		.uleb128 0xa
 2309 039f E8000000 		.4byte	0xe8
 2310 03a3 AE030000 		.4byte	0x3ae
 2311 03a7 0B       		.uleb128 0xb
 2312 03a8 B4000000 		.4byte	0xb4
ARM GAS  C:\Users\codyg\AppData\Local\Temp\ccRbtLKH.s 			page 75


 2313 03ac 02       		.byte	0x2
 2314 03ad 00       		.byte	0
 2315 03ae 05       		.uleb128 0x5
 2316 03af 7F080000 		.4byte	.LASF67
 2317 03b3 06       		.byte	0x6
 2318 03b4 A702     		.2byte	0x2a7
 2319 03b6 5D030000 		.4byte	0x35d
 2320 03ba 0C       		.uleb128 0xc
 2321 03bb 0C       		.byte	0xc
 2322 03bc 06       		.byte	0x6
 2323 03bd AC02     		.2byte	0x2ac
 2324 03bf D1030000 		.4byte	0x3d1
 2325 03c3 0E       		.uleb128 0xe
 2326 03c4 07070000 		.4byte	.LASF68
 2327 03c8 06       		.byte	0x6
 2328 03c9 B102     		.2byte	0x2b1
 2329 03cb D1030000 		.4byte	0x3d1
 2330 03cf 00       		.byte	0
 2331 03d0 00       		.byte	0
 2332 03d1 0A       		.uleb128 0xa
 2333 03d2 AE030000 		.4byte	0x3ae
 2334 03d6 E1030000 		.4byte	0x3e1
 2335 03da 0B       		.uleb128 0xb
 2336 03db B4000000 		.4byte	0xb4
 2337 03df 00       		.byte	0
 2338 03e0 00       		.byte	0
 2339 03e1 05       		.uleb128 0x5
 2340 03e2 30010000 		.4byte	.LASF69
 2341 03e6 06       		.byte	0x6
 2342 03e7 B202     		.2byte	0x2b2
 2343 03e9 BA030000 		.4byte	0x3ba
 2344 03ed 12       		.uleb128 0x12
 2345 03ee 04       		.byte	0x4
 2346 03ef 06       		.byte	0x6
 2347 03f0 B802     		.2byte	0x2b8
 2348 03f2 0F040000 		.4byte	0x40f
 2349 03f6 13       		.uleb128 0x13
 2350 03f7 70747200 		.ascii	"ptr\000"
 2351 03fb 06       		.byte	0x6
 2352 03fc BD02     		.2byte	0x2bd
 2353 03fe 10030000 		.4byte	0x310
 2354 0402 14       		.uleb128 0x14
 2355 0403 11050000 		.4byte	.LASF70
 2356 0407 06       		.byte	0x6
 2357 0408 C202     		.2byte	0x2c2
 2358 040a 0F040000 		.4byte	0x40f
 2359 040e 00       		.byte	0
 2360 040f 0F       		.uleb128 0xf
 2361 0410 04       		.byte	0x4
 2362 0411 E1030000 		.4byte	0x3e1
 2363 0415 05       		.uleb128 0x5
 2364 0416 CC050000 		.4byte	.LASF71
 2365 041a 06       		.byte	0x6
 2366 041b C302     		.2byte	0x2c3
 2367 041d ED030000 		.4byte	0x3ed
 2368 0421 15       		.uleb128 0x15
 2369 0422 27030000 		.4byte	.LASF75
ARM GAS  C:\Users\codyg\AppData\Local\Temp\ccRbtLKH.s 			page 76


 2370 0426 01       		.byte	0x1
 2371 0427 2A02     		.2byte	0x22a
 2372 0429 00000000 		.4byte	.LFB45
 2373 042d 1E000000 		.4byte	.LFE45-.LFB45
 2374 0431 01       		.uleb128 0x1
 2375 0432 9C       		.byte	0x9c
 2376 0433 66040000 		.4byte	0x466
 2377 0437 16       		.uleb128 0x16
 2378 0438 6C080000 		.4byte	.LASF72
 2379 043c 01       		.byte	0x1
 2380 043d 2A02     		.2byte	0x22a
 2381 043f 12030000 		.4byte	0x312
 2382 0443 01       		.uleb128 0x1
 2383 0444 50       		.byte	0x50
 2384 0445 17       		.uleb128 0x17
 2385 0446 80030000 		.4byte	.LASF73
 2386 044a 01       		.byte	0x1
 2387 044b 2A02     		.2byte	0x22a
 2388 044d F4000000 		.4byte	0xf4
 2389 0451 00000000 		.4byte	.LLST0
 2390 0455 17       		.uleb128 0x17
 2391 0456 C4050000 		.4byte	.LASF74
 2392 045a 01       		.byte	0x1
 2393 045b 2A02     		.2byte	0x22a
 2394 045d F4000000 		.4byte	0xf4
 2395 0461 21000000 		.4byte	.LLST1
 2396 0465 00       		.byte	0
 2397 0466 15       		.uleb128 0x15
 2398 0467 48000000 		.4byte	.LASF76
 2399 046b 01       		.byte	0x1
 2400 046c 0F02     		.2byte	0x20f
 2401 046e 00000000 		.4byte	.LFB44
 2402 0472 1E000000 		.4byte	.LFE44-.LFB44
 2403 0476 01       		.uleb128 0x1
 2404 0477 9C       		.byte	0x9c
 2405 0478 C9040000 		.4byte	0x4c9
 2406 047c 17       		.uleb128 0x17
 2407 047d 6C080000 		.4byte	.LASF72
 2408 0481 01       		.byte	0x1
 2409 0482 0F02     		.2byte	0x20f
 2410 0484 12030000 		.4byte	0x312
 2411 0488 42000000 		.4byte	.LLST2
 2412 048c 17       		.uleb128 0x17
 2413 048d 80030000 		.4byte	.LASF73
 2414 0491 01       		.byte	0x1
 2415 0492 0F02     		.2byte	0x20f
 2416 0494 F4000000 		.4byte	0xf4
 2417 0498 6E000000 		.4byte	.LLST3
 2418 049c 18       		.uleb128 0x18
 2419 049d B8050000 		.4byte	.LASF80
 2420 04a1 01       		.byte	0x1
 2421 04a2 1102     		.2byte	0x211
 2422 04a4 F4000000 		.4byte	0xf4
 2423 04a8 9A000000 		.4byte	.LLST4
 2424 04ac 19       		.uleb128 0x19
 2425 04ad 14000000 		.4byte	.LVL6
 2426 04b1 21040000 		.4byte	0x421
ARM GAS  C:\Users\codyg\AppData\Local\Temp\ccRbtLKH.s 			page 77


 2427 04b5 1A       		.uleb128 0x1a
 2428 04b6 01       		.uleb128 0x1
 2429 04b7 50       		.byte	0x50
 2430 04b8 02       		.uleb128 0x2
 2431 04b9 76       		.byte	0x76
 2432 04ba 00       		.sleb128 0
 2433 04bb 1A       		.uleb128 0x1a
 2434 04bc 01       		.uleb128 0x1
 2435 04bd 51       		.byte	0x51
 2436 04be 02       		.uleb128 0x2
 2437 04bf 75       		.byte	0x75
 2438 04c0 00       		.sleb128 0
 2439 04c1 1A       		.uleb128 0x1a
 2440 04c2 01       		.uleb128 0x1
 2441 04c3 52       		.byte	0x52
 2442 04c4 02       		.uleb128 0x2
 2443 04c5 74       		.byte	0x74
 2444 04c6 00       		.sleb128 0
 2445 04c7 00       		.byte	0
 2446 04c8 00       		.byte	0
 2447 04c9 15       		.uleb128 0x15
 2448 04ca DB030000 		.4byte	.LASF77
 2449 04ce 01       		.byte	0x1
 2450 04cf F301     		.2byte	0x1f3
 2451 04d1 00000000 		.4byte	.LFB43
 2452 04d5 2C000000 		.4byte	.LFE43-.LFB43
 2453 04d9 01       		.uleb128 0x1
 2454 04da 9C       		.byte	0x9c
 2455 04db 51050000 		.4byte	0x551
 2456 04df 17       		.uleb128 0x17
 2457 04e0 92030000 		.4byte	.LASF78
 2458 04e4 01       		.byte	0x1
 2459 04e5 F301     		.2byte	0x1f3
 2460 04e7 F4000000 		.4byte	0xf4
 2461 04eb DC000000 		.4byte	.LLST5
 2462 04ef 17       		.uleb128 0x17
 2463 04f0 ED010000 		.4byte	.LASF79
 2464 04f4 01       		.byte	0x1
 2465 04f5 F301     		.2byte	0x1f3
 2466 04f7 F4000000 		.4byte	0xf4
 2467 04fb FD000000 		.4byte	.LLST6
 2468 04ff 18       		.uleb128 0x18
 2469 0500 6C080000 		.4byte	.LASF72
 2470 0504 01       		.byte	0x1
 2471 0505 F501     		.2byte	0x1f5
 2472 0507 12030000 		.4byte	0x312
 2473 050b 1E010000 		.4byte	.LLST7
 2474 050f 1B       		.uleb128 0x1b
 2475 0510 D1030000 		.4byte	.LASF83
 2476 0514 01       		.byte	0x1
 2477 0515 F601     		.2byte	0x1f6
 2478 0517 51050000 		.4byte	0x551
 2479 051b 19       		.uleb128 0x19
 2480 051c 24000000 		.4byte	.LVL18
 2481 0520 66040000 		.4byte	0x466
 2482 0524 1A       		.uleb128 0x1a
 2483 0525 01       		.uleb128 0x1
ARM GAS  C:\Users\codyg\AppData\Local\Temp\ccRbtLKH.s 			page 78


 2484 0526 50       		.byte	0x50
 2485 0527 0E       		.uleb128 0xe
 2486 0528 F3       		.byte	0xf3
 2487 0529 01       		.uleb128 0x1
 2488 052a 51       		.byte	0x51
 2489 052b 32       		.byte	0x32
 2490 052c 24       		.byte	0x24
 2491 052d F3       		.byte	0xf3
 2492 052e 01       		.uleb128 0x1
 2493 052f 51       		.byte	0x51
 2494 0530 22       		.byte	0x22
 2495 0531 31       		.byte	0x31
 2496 0532 24       		.byte	0x24
 2497 0533 75       		.byte	0x75
 2498 0534 00       		.sleb128 0
 2499 0535 22       		.byte	0x22
 2500 0536 1A       		.uleb128 0x1a
 2501 0537 01       		.uleb128 0x1
 2502 0538 51       		.byte	0x51
 2503 0539 15       		.uleb128 0x15
 2504 053a F3       		.byte	0xf3
 2505 053b 01       		.uleb128 0x1
 2506 053c 50       		.byte	0x50
 2507 053d 33       		.byte	0x33
 2508 053e 24       		.byte	0x24
 2509 053f F3       		.byte	0xf3
 2510 0540 01       		.uleb128 0x1
 2511 0541 50       		.byte	0x50
 2512 0542 1C       		.byte	0x1c
 2513 0543 32       		.byte	0x32
 2514 0544 24       		.byte	0x24
 2515 0545 74       		.byte	0x74
 2516 0546 00       		.sleb128 0
 2517 0547 22       		.byte	0x22
 2518 0548 23       		.byte	0x23
 2519 0549 1A       		.uleb128 0x1a
 2520 054a 94       		.byte	0x94
 2521 054b 01       		.byte	0x1
 2522 054c 08       		.byte	0x8
 2523 054d FF       		.byte	0xff
 2524 054e 1A       		.byte	0x1a
 2525 054f 00       		.byte	0
 2526 0550 00       		.byte	0
 2527 0551 0F       		.uleb128 0xf
 2528 0552 04       		.byte	0x4
 2529 0553 57050000 		.4byte	0x557
 2530 0557 1C       		.uleb128 0x1c
 2531 0558 1E030000 		.4byte	0x31e
 2532 055c 15       		.uleb128 0x15
 2533 055d 62070000 		.4byte	.LASF81
 2534 0561 01       		.byte	0x1
 2535 0562 C701     		.2byte	0x1c7
 2536 0564 00000000 		.4byte	.LFB42
 2537 0568 28000000 		.4byte	.LFE42-.LFB42
 2538 056c 01       		.uleb128 0x1
 2539 056d 9C       		.byte	0x9c
 2540 056e C5050000 		.4byte	0x5c5
ARM GAS  C:\Users\codyg\AppData\Local\Temp\ccRbtLKH.s 			page 79


 2541 0572 17       		.uleb128 0x17
 2542 0573 92030000 		.4byte	.LASF78
 2543 0577 01       		.byte	0x1
 2544 0578 C701     		.2byte	0x1c7
 2545 057a F4000000 		.4byte	0xf4
 2546 057e 61010000 		.4byte	.LLST8
 2547 0582 18       		.uleb128 0x18
 2548 0583 ED010000 		.4byte	.LASF79
 2549 0587 01       		.byte	0x1
 2550 0588 C901     		.2byte	0x1c9
 2551 058a F4000000 		.4byte	0xf4
 2552 058e 8D010000 		.4byte	.LLST9
 2553 0592 18       		.uleb128 0x18
 2554 0593 1B020000 		.4byte	.LASF82
 2555 0597 01       		.byte	0x1
 2556 0598 CA01     		.2byte	0x1ca
 2557 059a F4000000 		.4byte	0xf4
 2558 059e CE010000 		.4byte	.LLST10
 2559 05a2 1B       		.uleb128 0x1b
 2560 05a3 D1030000 		.4byte	.LASF83
 2561 05a7 01       		.byte	0x1
 2562 05a8 CC01     		.2byte	0x1cc
 2563 05aa 51050000 		.4byte	0x551
 2564 05ae 19       		.uleb128 0x19
 2565 05af 1A000000 		.4byte	.LVL24
 2566 05b3 C9040000 		.4byte	0x4c9
 2567 05b7 1A       		.uleb128 0x1a
 2568 05b8 01       		.uleb128 0x1
 2569 05b9 50       		.byte	0x50
 2570 05ba 02       		.uleb128 0x2
 2571 05bb 75       		.byte	0x75
 2572 05bc 00       		.sleb128 0
 2573 05bd 1A       		.uleb128 0x1a
 2574 05be 01       		.uleb128 0x1
 2575 05bf 51       		.byte	0x51
 2576 05c0 02       		.uleb128 0x2
 2577 05c1 74       		.byte	0x74
 2578 05c2 00       		.sleb128 0
 2579 05c3 00       		.byte	0
 2580 05c4 00       		.byte	0
 2581 05c5 15       		.uleb128 0x15
 2582 05c6 C8040000 		.4byte	.LASF84
 2583 05ca 01       		.byte	0x1
 2584 05cb A301     		.2byte	0x1a3
 2585 05cd 00000000 		.4byte	.LFB41
 2586 05d1 16000000 		.4byte	.LFE41-.LFB41
 2587 05d5 01       		.uleb128 0x1
 2588 05d6 9C       		.byte	0x9c
 2589 05d7 FC050000 		.4byte	0x5fc
 2590 05db 18       		.uleb128 0x18
 2591 05dc 92030000 		.4byte	.LASF78
 2592 05e0 01       		.byte	0x1
 2593 05e1 A501     		.2byte	0x1a5
 2594 05e3 F4000000 		.4byte	0xf4
 2595 05e7 E1010000 		.4byte	.LLST11
 2596 05eb 19       		.uleb128 0x19
 2597 05ec 0C000000 		.4byte	.LVL31
ARM GAS  C:\Users\codyg\AppData\Local\Temp\ccRbtLKH.s 			page 80


 2598 05f0 5C050000 		.4byte	0x55c
 2599 05f4 1A       		.uleb128 0x1a
 2600 05f5 01       		.uleb128 0x1
 2601 05f6 50       		.byte	0x50
 2602 05f7 02       		.uleb128 0x2
 2603 05f8 74       		.byte	0x74
 2604 05f9 00       		.sleb128 0
 2605 05fa 00       		.byte	0
 2606 05fb 00       		.byte	0
 2607 05fc 15       		.uleb128 0x15
 2608 05fd 79020000 		.4byte	.LASF85
 2609 0601 01       		.byte	0x1
 2610 0602 3503     		.2byte	0x335
 2611 0604 00000000 		.4byte	.LFB50
 2612 0608 22000000 		.4byte	.LFE50-.LFB50
 2613 060c 01       		.uleb128 0x1
 2614 060d 9C       		.byte	0x9c
 2615 060e 4D060000 		.4byte	0x64d
 2616 0612 16       		.uleb128 0x16
 2617 0613 38080000 		.4byte	.LASF86
 2618 0617 01       		.byte	0x1
 2619 0618 3503     		.2byte	0x335
 2620 061a 15040000 		.4byte	0x415
 2621 061e 01       		.uleb128 0x1
 2622 061f 50       		.byte	0x50
 2623 0620 16       		.uleb128 0x16
 2624 0621 98040000 		.4byte	.LASF87
 2625 0625 01       		.byte	0x1
 2626 0626 3603     		.2byte	0x336
 2627 0628 12030000 		.4byte	0x312
 2628 062c 01       		.uleb128 0x1
 2629 062d 51       		.byte	0x51
 2630 062e 16       		.uleb128 0x16
 2631 062f 80030000 		.4byte	.LASF73
 2632 0633 01       		.byte	0x1
 2633 0634 3603     		.2byte	0x336
 2634 0636 F4000000 		.4byte	0xf4
 2635 063a 01       		.uleb128 0x1
 2636 063b 52       		.byte	0x52
 2637 063c 18       		.uleb128 0x18
 2638 063d B8050000 		.4byte	.LASF80
 2639 0641 01       		.byte	0x1
 2640 0642 3803     		.2byte	0x338
 2641 0644 F4000000 		.4byte	0xf4
 2642 0648 23020000 		.4byte	.LLST12
 2643 064c 00       		.byte	0
 2644 064d 15       		.uleb128 0x15
 2645 064e 1A040000 		.4byte	.LASF88
 2646 0652 01       		.byte	0x1
 2647 0653 DF02     		.2byte	0x2df
 2648 0655 00000000 		.4byte	.LFB48
 2649 0659 40000000 		.4byte	.LFE48-.LFB48
 2650 065d 01       		.uleb128 0x1
 2651 065e 9C       		.byte	0x9c
 2652 065f C6060000 		.4byte	0x6c6
 2653 0663 17       		.uleb128 0x17
 2654 0664 92030000 		.4byte	.LASF78
ARM GAS  C:\Users\codyg\AppData\Local\Temp\ccRbtLKH.s 			page 81


 2655 0668 01       		.byte	0x1
 2656 0669 DF02     		.2byte	0x2df
 2657 066b F4000000 		.4byte	0xf4
 2658 066f 65020000 		.4byte	.LLST13
 2659 0673 17       		.uleb128 0x17
 2660 0674 ED010000 		.4byte	.LASF79
 2661 0678 01       		.byte	0x1
 2662 0679 DF02     		.2byte	0x2df
 2663 067b F4000000 		.4byte	0xf4
 2664 067f 86020000 		.4byte	.LLST14
 2665 0683 1B       		.uleb128 0x1b
 2666 0684 D1030000 		.4byte	.LASF83
 2667 0688 01       		.byte	0x1
 2668 0689 E102     		.2byte	0x2e1
 2669 068b 51050000 		.4byte	0x551
 2670 068f 18       		.uleb128 0x18
 2671 0690 6C080000 		.4byte	.LASF72
 2672 0694 01       		.byte	0x1
 2673 0695 E202     		.2byte	0x2e2
 2674 0697 12030000 		.4byte	0x312
 2675 069b A7020000 		.4byte	.LLST15
 2676 069f 18       		.uleb128 0x18
 2677 06a0 38080000 		.4byte	.LASF86
 2678 06a4 01       		.byte	0x1
 2679 06a5 E302     		.2byte	0x2e3
 2680 06a7 15040000 		.4byte	0x415
 2681 06ab FA020000 		.4byte	.LLST16
 2682 06af 19       		.uleb128 0x19
 2683 06b0 38000000 		.4byte	.LVL48
 2684 06b4 FC050000 		.4byte	0x5fc
 2685 06b8 1A       		.uleb128 0x1a
 2686 06b9 01       		.uleb128 0x1
 2687 06ba 50       		.byte	0x50
 2688 06bb 02       		.uleb128 0x2
 2689 06bc 74       		.byte	0x74
 2690 06bd 00       		.sleb128 0
 2691 06be 1A       		.uleb128 0x1a
 2692 06bf 01       		.uleb128 0x1
 2693 06c0 51       		.byte	0x51
 2694 06c1 02       		.uleb128 0x2
 2695 06c2 75       		.byte	0x75
 2696 06c3 00       		.sleb128 0
 2697 06c4 00       		.byte	0
 2698 06c5 00       		.byte	0
 2699 06c6 15       		.uleb128 0x15
 2700 06c7 D8080000 		.4byte	.LASF89
 2701 06cb 01       		.byte	0x1
 2702 06cc 0304     		.2byte	0x403
 2703 06ce 00000000 		.4byte	.LFB54
 2704 06d2 28000000 		.4byte	.LFE54-.LFB54
 2705 06d6 01       		.uleb128 0x1
 2706 06d7 9C       		.byte	0x9c
 2707 06d8 17070000 		.4byte	0x717
 2708 06dc 16       		.uleb128 0x16
 2709 06dd 38080000 		.4byte	.LASF86
 2710 06e1 01       		.byte	0x1
 2711 06e2 0304     		.2byte	0x403
ARM GAS  C:\Users\codyg\AppData\Local\Temp\ccRbtLKH.s 			page 82


 2712 06e4 15040000 		.4byte	0x415
 2713 06e8 01       		.uleb128 0x1
 2714 06e9 50       		.byte	0x50
 2715 06ea 16       		.uleb128 0x16
 2716 06eb 98040000 		.4byte	.LASF87
 2717 06ef 01       		.byte	0x1
 2718 06f0 0404     		.2byte	0x404
 2719 06f2 12030000 		.4byte	0x312
 2720 06f6 01       		.uleb128 0x1
 2721 06f7 51       		.byte	0x51
 2722 06f8 16       		.uleb128 0x16
 2723 06f9 80030000 		.4byte	.LASF73
 2724 06fd 01       		.byte	0x1
 2725 06fe 0404     		.2byte	0x404
 2726 0700 F4000000 		.4byte	0xf4
 2727 0704 01       		.uleb128 0x1
 2728 0705 52       		.byte	0x52
 2729 0706 18       		.uleb128 0x18
 2730 0707 B8050000 		.4byte	.LASF80
 2731 070b 01       		.byte	0x1
 2732 070c 0604     		.2byte	0x406
 2733 070e F4000000 		.4byte	0xf4
 2734 0712 0D030000 		.4byte	.LLST17
 2735 0716 00       		.byte	0
 2736 0717 15       		.uleb128 0x15
 2737 0718 D0000000 		.4byte	.LASF90
 2738 071c 01       		.byte	0x1
 2739 071d AC03     		.2byte	0x3ac
 2740 071f 00000000 		.4byte	.LFB52
 2741 0723 40000000 		.4byte	.LFE52-.LFB52
 2742 0727 01       		.uleb128 0x1
 2743 0728 9C       		.byte	0x9c
 2744 0729 90070000 		.4byte	0x790
 2745 072d 17       		.uleb128 0x17
 2746 072e 92030000 		.4byte	.LASF78
 2747 0732 01       		.byte	0x1
 2748 0733 AC03     		.2byte	0x3ac
 2749 0735 F4000000 		.4byte	0xf4
 2750 0739 4F030000 		.4byte	.LLST18
 2751 073d 17       		.uleb128 0x17
 2752 073e ED010000 		.4byte	.LASF79
 2753 0742 01       		.byte	0x1
 2754 0743 AC03     		.2byte	0x3ac
 2755 0745 F4000000 		.4byte	0xf4
 2756 0749 70030000 		.4byte	.LLST19
 2757 074d 1B       		.uleb128 0x1b
 2758 074e D1030000 		.4byte	.LASF83
 2759 0752 01       		.byte	0x1
 2760 0753 AE03     		.2byte	0x3ae
 2761 0755 51050000 		.4byte	0x551
 2762 0759 18       		.uleb128 0x18
 2763 075a 6C080000 		.4byte	.LASF72
 2764 075e 01       		.byte	0x1
 2765 075f AF03     		.2byte	0x3af
 2766 0761 12030000 		.4byte	0x312
 2767 0765 91030000 		.4byte	.LLST20
 2768 0769 18       		.uleb128 0x18
ARM GAS  C:\Users\codyg\AppData\Local\Temp\ccRbtLKH.s 			page 83


 2769 076a 38080000 		.4byte	.LASF86
 2770 076e 01       		.byte	0x1
 2771 076f B003     		.2byte	0x3b0
 2772 0771 15040000 		.4byte	0x415
 2773 0775 E4030000 		.4byte	.LLST21
 2774 0779 19       		.uleb128 0x19
 2775 077a 38000000 		.4byte	.LVL65
 2776 077e C6060000 		.4byte	0x6c6
 2777 0782 1A       		.uleb128 0x1a
 2778 0783 01       		.uleb128 0x1
 2779 0784 50       		.byte	0x50
 2780 0785 02       		.uleb128 0x2
 2781 0786 74       		.byte	0x74
 2782 0787 00       		.sleb128 0
 2783 0788 1A       		.uleb128 0x1a
 2784 0789 01       		.uleb128 0x1
 2785 078a 51       		.byte	0x51
 2786 078b 02       		.uleb128 0x2
 2787 078c 75       		.byte	0x75
 2788 078d 00       		.sleb128 0
 2789 078e 00       		.byte	0
 2790 078f 00       		.byte	0
 2791 0790 15       		.uleb128 0x15
 2792 0791 49080000 		.4byte	.LASF91
 2793 0795 01       		.byte	0x1
 2794 0796 B704     		.2byte	0x4b7
 2795 0798 00000000 		.4byte	.LFB58
 2796 079c 2C000000 		.4byte	.LFE58-.LFB58
 2797 07a0 01       		.uleb128 0x1
 2798 07a1 9C       		.byte	0x9c
 2799 07a2 E1070000 		.4byte	0x7e1
 2800 07a6 16       		.uleb128 0x16
 2801 07a7 38080000 		.4byte	.LASF86
 2802 07ab 01       		.byte	0x1
 2803 07ac B704     		.2byte	0x4b7
 2804 07ae 15040000 		.4byte	0x415
 2805 07b2 01       		.uleb128 0x1
 2806 07b3 50       		.byte	0x50
 2807 07b4 16       		.uleb128 0x16
 2808 07b5 98040000 		.4byte	.LASF87
 2809 07b9 01       		.byte	0x1
 2810 07ba B804     		.2byte	0x4b8
 2811 07bc 12030000 		.4byte	0x312
 2812 07c0 01       		.uleb128 0x1
 2813 07c1 51       		.byte	0x51
 2814 07c2 16       		.uleb128 0x16
 2815 07c3 80030000 		.4byte	.LASF73
 2816 07c7 01       		.byte	0x1
 2817 07c8 B804     		.2byte	0x4b8
 2818 07ca F4000000 		.4byte	0xf4
 2819 07ce 01       		.uleb128 0x1
 2820 07cf 52       		.byte	0x52
 2821 07d0 18       		.uleb128 0x18
 2822 07d1 B8050000 		.4byte	.LASF80
 2823 07d5 01       		.byte	0x1
 2824 07d6 BA04     		.2byte	0x4ba
 2825 07d8 F4000000 		.4byte	0xf4
ARM GAS  C:\Users\codyg\AppData\Local\Temp\ccRbtLKH.s 			page 84


 2826 07dc F7030000 		.4byte	.LLST22
 2827 07e0 00       		.byte	0
 2828 07e1 15       		.uleb128 0x15
 2829 07e2 8D070000 		.4byte	.LASF92
 2830 07e6 01       		.byte	0x1
 2831 07e7 7B02     		.2byte	0x27b
 2832 07e9 00000000 		.4byte	.LFB47
 2833 07ed 70000000 		.4byte	.LFE47-.LFB47
 2834 07f1 01       		.uleb128 0x1
 2835 07f2 9C       		.byte	0x9c
 2836 07f3 B0080000 		.4byte	0x8b0
 2837 07f7 17       		.uleb128 0x17
 2838 07f8 92030000 		.4byte	.LASF78
 2839 07fc 01       		.byte	0x1
 2840 07fd 7B02     		.2byte	0x27b
 2841 07ff F4000000 		.4byte	0xf4
 2842 0803 39040000 		.4byte	.LLST23
 2843 0807 18       		.uleb128 0x18
 2844 0808 ED010000 		.4byte	.LASF79
 2845 080c 01       		.byte	0x1
 2846 080d 7D02     		.2byte	0x27d
 2847 080f F4000000 		.4byte	0xf4
 2848 0813 65040000 		.4byte	.LLST24
 2849 0817 18       		.uleb128 0x18
 2850 0818 1B020000 		.4byte	.LASF82
 2851 081c 01       		.byte	0x1
 2852 081d 7E02     		.2byte	0x27e
 2853 081f F4000000 		.4byte	0xf4
 2854 0823 A6040000 		.4byte	.LLST25
 2855 0827 1B       		.uleb128 0x1b
 2856 0828 D1030000 		.4byte	.LASF83
 2857 082c 01       		.byte	0x1
 2858 082d 8002     		.2byte	0x280
 2859 082f 51050000 		.4byte	0x551
 2860 0833 18       		.uleb128 0x18
 2861 0834 6C080000 		.4byte	.LASF72
 2862 0838 01       		.byte	0x1
 2863 0839 8102     		.2byte	0x281
 2864 083b 12030000 		.4byte	0x312
 2865 083f D8040000 		.4byte	.LLST26
 2866 0843 18       		.uleb128 0x18
 2867 0844 38080000 		.4byte	.LASF86
 2868 0848 01       		.byte	0x1
 2869 0849 8302     		.2byte	0x283
 2870 084b 15040000 		.4byte	0x415
 2871 084f 03050000 		.4byte	.LLST27
 2872 0853 1D       		.uleb128 0x1d
 2873 0854 4A000000 		.4byte	.LVL85
 2874 0858 FC050000 		.4byte	0x5fc
 2875 085c 73080000 		.4byte	0x873
 2876 0860 1A       		.uleb128 0x1a
 2877 0861 01       		.uleb128 0x1
 2878 0862 50       		.byte	0x50
 2879 0863 02       		.uleb128 0x2
 2880 0864 75       		.byte	0x75
 2881 0865 00       		.sleb128 0
 2882 0866 1A       		.uleb128 0x1a
ARM GAS  C:\Users\codyg\AppData\Local\Temp\ccRbtLKH.s 			page 85


 2883 0867 01       		.uleb128 0x1
 2884 0868 51       		.byte	0x51
 2885 0869 02       		.uleb128 0x2
 2886 086a 74       		.byte	0x74
 2887 086b 00       		.sleb128 0
 2888 086c 1A       		.uleb128 0x1a
 2889 086d 01       		.uleb128 0x1
 2890 086e 52       		.byte	0x52
 2891 086f 02       		.uleb128 0x2
 2892 0870 76       		.byte	0x76
 2893 0871 00       		.sleb128 0
 2894 0872 00       		.byte	0
 2895 0873 1D       		.uleb128 0x1d
 2896 0874 54000000 		.4byte	.LVL86
 2897 0878 C6060000 		.4byte	0x6c6
 2898 087c 93080000 		.4byte	0x893
 2899 0880 1A       		.uleb128 0x1a
 2900 0881 01       		.uleb128 0x1
 2901 0882 50       		.byte	0x50
 2902 0883 02       		.uleb128 0x2
 2903 0884 75       		.byte	0x75
 2904 0885 00       		.sleb128 0
 2905 0886 1A       		.uleb128 0x1a
 2906 0887 01       		.uleb128 0x1
 2907 0888 51       		.byte	0x51
 2908 0889 02       		.uleb128 0x2
 2909 088a 74       		.byte	0x74
 2910 088b 00       		.sleb128 0
 2911 088c 1A       		.uleb128 0x1a
 2912 088d 01       		.uleb128 0x1
 2913 088e 52       		.byte	0x52
 2914 088f 02       		.uleb128 0x2
 2915 0890 76       		.byte	0x76
 2916 0891 00       		.sleb128 0
 2917 0892 00       		.byte	0
 2918 0893 19       		.uleb128 0x19
 2919 0894 5E000000 		.4byte	.LVL87
 2920 0898 90070000 		.4byte	0x790
 2921 089c 1A       		.uleb128 0x1a
 2922 089d 01       		.uleb128 0x1
 2923 089e 50       		.byte	0x50
 2924 089f 02       		.uleb128 0x2
 2925 08a0 75       		.byte	0x75
 2926 08a1 00       		.sleb128 0
 2927 08a2 1A       		.uleb128 0x1a
 2928 08a3 01       		.uleb128 0x1
 2929 08a4 51       		.byte	0x51
 2930 08a5 02       		.uleb128 0x2
 2931 08a6 74       		.byte	0x74
 2932 08a7 00       		.sleb128 0
 2933 08a8 1A       		.uleb128 0x1a
 2934 08a9 01       		.uleb128 0x1
 2935 08aa 52       		.byte	0x52
 2936 08ab 02       		.uleb128 0x2
 2937 08ac 76       		.byte	0x76
 2938 08ad 00       		.sleb128 0
 2939 08ae 00       		.byte	0
ARM GAS  C:\Users\codyg\AppData\Local\Temp\ccRbtLKH.s 			page 86


 2940 08af 00       		.byte	0
 2941 08b0 15       		.uleb128 0x15
 2942 08b1 19050000 		.4byte	.LASF93
 2943 08b5 01       		.byte	0x1
 2944 08b6 5D02     		.2byte	0x25d
 2945 08b8 00000000 		.4byte	.LFB46
 2946 08bc 16000000 		.4byte	.LFE46-.LFB46
 2947 08c0 01       		.uleb128 0x1
 2948 08c1 9C       		.byte	0x9c
 2949 08c2 E7080000 		.4byte	0x8e7
 2950 08c6 18       		.uleb128 0x18
 2951 08c7 92030000 		.4byte	.LASF78
 2952 08cb 01       		.byte	0x1
 2953 08cc 5F02     		.2byte	0x25f
 2954 08ce F4000000 		.4byte	0xf4
 2955 08d2 21050000 		.4byte	.LLST28
 2956 08d6 19       		.uleb128 0x19
 2957 08d7 0C000000 		.4byte	.LVL95
 2958 08db E1070000 		.4byte	0x7e1
 2959 08df 1A       		.uleb128 0x1a
 2960 08e0 01       		.uleb128 0x1
 2961 08e1 50       		.byte	0x50
 2962 08e2 02       		.uleb128 0x2
 2963 08e3 74       		.byte	0x74
 2964 08e4 00       		.sleb128 0
 2965 08e5 00       		.byte	0
 2966 08e6 00       		.byte	0
 2967 08e7 1E       		.uleb128 0x1e
 2968 08e8 45040000 		.4byte	.LASF94
 2969 08ec 01       		.byte	0x1
 2970 08ed 3F       		.byte	0x3f
 2971 08ee 00000000 		.4byte	.LFB36
 2972 08f2 08000000 		.4byte	.LFE36-.LFB36
 2973 08f6 01       		.uleb128 0x1
 2974 08f7 9C       		.byte	0x9c
 2975 08f8 06090000 		.4byte	0x906
 2976 08fc 1F       		.uleb128 0x1f
 2977 08fd 06000000 		.4byte	.LVL99
 2978 0901 B0080000 		.4byte	0x8b0
 2979 0905 00       		.byte	0
 2980 0906 15       		.uleb128 0x15
 2981 0907 D7070000 		.4byte	.LASF95
 2982 090b 01       		.byte	0x1
 2983 090c 6004     		.2byte	0x460
 2984 090e 00000000 		.4byte	.LFB56
 2985 0912 40000000 		.4byte	.LFE56-.LFB56
 2986 0916 01       		.uleb128 0x1
 2987 0917 9C       		.byte	0x9c
 2988 0918 7F090000 		.4byte	0x97f
 2989 091c 17       		.uleb128 0x17
 2990 091d 92030000 		.4byte	.LASF78
 2991 0921 01       		.byte	0x1
 2992 0922 6004     		.2byte	0x460
 2993 0924 F4000000 		.4byte	0xf4
 2994 0928 63050000 		.4byte	.LLST29
 2995 092c 17       		.uleb128 0x17
 2996 092d ED010000 		.4byte	.LASF79
ARM GAS  C:\Users\codyg\AppData\Local\Temp\ccRbtLKH.s 			page 87


 2997 0931 01       		.byte	0x1
 2998 0932 6004     		.2byte	0x460
 2999 0934 F4000000 		.4byte	0xf4
 3000 0938 84050000 		.4byte	.LLST30
 3001 093c 1B       		.uleb128 0x1b
 3002 093d D1030000 		.4byte	.LASF83
 3003 0941 01       		.byte	0x1
 3004 0942 6204     		.2byte	0x462
 3005 0944 51050000 		.4byte	0x551
 3006 0948 18       		.uleb128 0x18
 3007 0949 6C080000 		.4byte	.LASF72
 3008 094d 01       		.byte	0x1
 3009 094e 6304     		.2byte	0x463
 3010 0950 12030000 		.4byte	0x312
 3011 0954 A5050000 		.4byte	.LLST31
 3012 0958 18       		.uleb128 0x18
 3013 0959 38080000 		.4byte	.LASF86
 3014 095d 01       		.byte	0x1
 3015 095e 6404     		.2byte	0x464
 3016 0960 15040000 		.4byte	0x415
 3017 0964 F8050000 		.4byte	.LLST32
 3018 0968 19       		.uleb128 0x19
 3019 0969 38000000 		.4byte	.LVL107
 3020 096d 90070000 		.4byte	0x790
 3021 0971 1A       		.uleb128 0x1a
 3022 0972 01       		.uleb128 0x1
 3023 0973 50       		.byte	0x50
 3024 0974 02       		.uleb128 0x2
 3025 0975 74       		.byte	0x74
 3026 0976 00       		.sleb128 0
 3027 0977 1A       		.uleb128 0x1a
 3028 0978 01       		.uleb128 0x1
 3029 0979 51       		.byte	0x51
 3030 097a 02       		.uleb128 0x2
 3031 097b 75       		.byte	0x75
 3032 097c 00       		.sleb128 0
 3033 097d 00       		.byte	0
 3034 097e 00       		.byte	0
 3035 097f 15       		.uleb128 0x15
 3036 0980 85000000 		.4byte	.LASF96
 3037 0984 01       		.byte	0x1
 3038 0985 E304     		.2byte	0x4e3
 3039 0987 00000000 		.4byte	.LFB59
 3040 098b 42000000 		.4byte	.LFE59-.LFB59
 3041 098f 01       		.uleb128 0x1
 3042 0990 9C       		.byte	0x9c
 3043 0991 E0090000 		.4byte	0x9e0
 3044 0995 16       		.uleb128 0x16
 3045 0996 38080000 		.4byte	.LASF86
 3046 099a 01       		.byte	0x1
 3047 099b E304     		.2byte	0x4e3
 3048 099d 15040000 		.4byte	0x415
 3049 09a1 01       		.uleb128 0x1
 3050 09a2 50       		.byte	0x50
 3051 09a3 16       		.uleb128 0x16
 3052 09a4 98040000 		.4byte	.LASF87
 3053 09a8 01       		.byte	0x1
ARM GAS  C:\Users\codyg\AppData\Local\Temp\ccRbtLKH.s 			page 88


 3054 09a9 E404     		.2byte	0x4e4
 3055 09ab 12030000 		.4byte	0x312
 3056 09af 01       		.uleb128 0x1
 3057 09b0 51       		.byte	0x51
 3058 09b1 16       		.uleb128 0x16
 3059 09b2 80030000 		.4byte	.LASF73
 3060 09b6 01       		.byte	0x1
 3061 09b7 E404     		.2byte	0x4e4
 3062 09b9 F4000000 		.4byte	0xf4
 3063 09bd 01       		.uleb128 0x1
 3064 09be 52       		.byte	0x52
 3065 09bf 18       		.uleb128 0x18
 3066 09c0 B8050000 		.4byte	.LASF80
 3067 09c4 01       		.byte	0x1
 3068 09c5 E604     		.2byte	0x4e6
 3069 09c7 F4000000 		.4byte	0xf4
 3070 09cb 0B060000 		.4byte	.LLST33
 3071 09cf 18       		.uleb128 0x18
 3072 09d0 45020000 		.4byte	.LASF97
 3073 09d4 01       		.byte	0x1
 3074 09d5 E704     		.2byte	0x4e7
 3075 09d7 F4000000 		.4byte	0xf4
 3076 09db 4D060000 		.4byte	.LLST34
 3077 09df 00       		.byte	0
 3078 09e0 15       		.uleb128 0x15
 3079 09e1 13030000 		.4byte	.LASF98
 3080 09e5 01       		.byte	0x1
 3081 09e6 8C04     		.2byte	0x48c
 3082 09e8 00000000 		.4byte	.LFB57
 3083 09ec 40000000 		.4byte	.LFE57-.LFB57
 3084 09f0 01       		.uleb128 0x1
 3085 09f1 9C       		.byte	0x9c
 3086 09f2 590A0000 		.4byte	0xa59
 3087 09f6 17       		.uleb128 0x17
 3088 09f7 92030000 		.4byte	.LASF78
 3089 09fb 01       		.byte	0x1
 3090 09fc 8C04     		.2byte	0x48c
 3091 09fe F4000000 		.4byte	0xf4
 3092 0a02 60060000 		.4byte	.LLST35
 3093 0a06 17       		.uleb128 0x17
 3094 0a07 ED010000 		.4byte	.LASF79
 3095 0a0b 01       		.byte	0x1
 3096 0a0c 8C04     		.2byte	0x48c
 3097 0a0e F4000000 		.4byte	0xf4
 3098 0a12 81060000 		.4byte	.LLST36
 3099 0a16 1B       		.uleb128 0x1b
 3100 0a17 D1030000 		.4byte	.LASF83
 3101 0a1b 01       		.byte	0x1
 3102 0a1c 8E04     		.2byte	0x48e
 3103 0a1e 51050000 		.4byte	0x551
 3104 0a22 18       		.uleb128 0x18
 3105 0a23 6C080000 		.4byte	.LASF72
 3106 0a27 01       		.byte	0x1
 3107 0a28 8F04     		.2byte	0x48f
 3108 0a2a 12030000 		.4byte	0x312
 3109 0a2e A2060000 		.4byte	.LLST37
 3110 0a32 18       		.uleb128 0x18
ARM GAS  C:\Users\codyg\AppData\Local\Temp\ccRbtLKH.s 			page 89


 3111 0a33 38080000 		.4byte	.LASF86
 3112 0a37 01       		.byte	0x1
 3113 0a38 9004     		.2byte	0x490
 3114 0a3a 15040000 		.4byte	0x415
 3115 0a3e F5060000 		.4byte	.LLST38
 3116 0a42 19       		.uleb128 0x19
 3117 0a43 38000000 		.4byte	.LVL126
 3118 0a47 7F090000 		.4byte	0x97f
 3119 0a4b 1A       		.uleb128 0x1a
 3120 0a4c 01       		.uleb128 0x1
 3121 0a4d 50       		.byte	0x50
 3122 0a4e 02       		.uleb128 0x2
 3123 0a4f 74       		.byte	0x74
 3124 0a50 00       		.sleb128 0
 3125 0a51 1A       		.uleb128 0x1a
 3126 0a52 01       		.uleb128 0x1
 3127 0a53 51       		.byte	0x51
 3128 0a54 02       		.uleb128 0x2
 3129 0a55 75       		.byte	0x75
 3130 0a56 00       		.sleb128 0
 3131 0a57 00       		.byte	0
 3132 0a58 00       		.byte	0
 3133 0a59 20       		.uleb128 0x20
 3134 0a5a AE030000 		.4byte	.LASF101
 3135 0a5e 01       		.byte	0x1
 3136 0a5f 7F06     		.2byte	0x67f
 3137 0a61 F4000000 		.4byte	0xf4
 3138 0a65 00000000 		.4byte	.LFB62
 3139 0a69 18000000 		.4byte	.LFE62-.LFB62
 3140 0a6d 01       		.uleb128 0x1
 3141 0a6e 9C       		.byte	0x9c
 3142 0a6f AB0A0000 		.4byte	0xaab
 3143 0a73 21       		.uleb128 0x21
 3144 0a74 783100   		.ascii	"x1\000"
 3145 0a77 01       		.byte	0x1
 3146 0a78 7F06     		.2byte	0x67f
 3147 0a7a F4000000 		.4byte	0xf4
 3148 0a7e 08070000 		.4byte	.LLST39
 3149 0a82 21       		.uleb128 0x21
 3150 0a83 783200   		.ascii	"x2\000"
 3151 0a86 01       		.byte	0x1
 3152 0a87 7F06     		.2byte	0x67f
 3153 0a89 F4000000 		.4byte	0xf4
 3154 0a8d 31070000 		.4byte	.LLST40
 3155 0a91 22       		.uleb128 0x22
 3156 0a92 783300   		.ascii	"x3\000"
 3157 0a95 01       		.byte	0x1
 3158 0a96 7F06     		.2byte	0x67f
 3159 0a98 F4000000 		.4byte	0xf4
 3160 0a9c 01       		.uleb128 0x1
 3161 0a9d 52       		.byte	0x52
 3162 0a9e 23       		.uleb128 0x23
 3163 0a9f 746D7000 		.ascii	"tmp\000"
 3164 0aa3 01       		.byte	0x1
 3165 0aa4 8106     		.2byte	0x681
 3166 0aa6 F4000000 		.4byte	0xf4
 3167 0aaa 00       		.byte	0
ARM GAS  C:\Users\codyg\AppData\Local\Temp\ccRbtLKH.s 			page 90


 3168 0aab 15       		.uleb128 0x15
 3169 0aac A3020000 		.4byte	.LASF99
 3170 0ab0 01       		.byte	0x1
 3171 0ab1 2904     		.2byte	0x429
 3172 0ab3 00000000 		.4byte	.LFB55
 3173 0ab7 58000000 		.4byte	.LFE55-.LFB55
 3174 0abb 01       		.uleb128 0x1
 3175 0abc 9C       		.byte	0x9c
 3176 0abd 220B0000 		.4byte	0xb22
 3177 0ac1 17       		.uleb128 0x17
 3178 0ac2 38080000 		.4byte	.LASF86
 3179 0ac6 01       		.byte	0x1
 3180 0ac7 2904     		.2byte	0x429
 3181 0ac9 15040000 		.4byte	0x415
 3182 0acd 4F070000 		.4byte	.LLST41
 3183 0ad1 17       		.uleb128 0x17
 3184 0ad2 98040000 		.4byte	.LASF87
 3185 0ad6 01       		.byte	0x1
 3186 0ad7 2A04     		.2byte	0x42a
 3187 0ad9 12030000 		.4byte	0x312
 3188 0add 83070000 		.4byte	.LLST42
 3189 0ae1 17       		.uleb128 0x17
 3190 0ae2 80030000 		.4byte	.LASF73
 3191 0ae6 01       		.byte	0x1
 3192 0ae7 2A04     		.2byte	0x42a
 3193 0ae9 F4000000 		.4byte	0xf4
 3194 0aed AF070000 		.4byte	.LLST43
 3195 0af1 18       		.uleb128 0x18
 3196 0af2 B8050000 		.4byte	.LASF80
 3197 0af6 01       		.byte	0x1
 3198 0af7 2C04     		.2byte	0x42c
 3199 0af9 F4000000 		.4byte	0xf4
 3200 0afd DB070000 		.4byte	.LLST44
 3201 0b01 18       		.uleb128 0x18
 3202 0b02 45020000 		.4byte	.LASF97
 3203 0b06 01       		.byte	0x1
 3204 0b07 3004     		.2byte	0x430
 3205 0b09 F4000000 		.4byte	0xf4
 3206 0b0d 1D080000 		.4byte	.LLST45
 3207 0b11 19       		.uleb128 0x19
 3208 0b12 38000000 		.4byte	.LVL141
 3209 0b16 590A0000 		.4byte	0xa59
 3210 0b1a 1A       		.uleb128 0x1a
 3211 0b1b 01       		.uleb128 0x1
 3212 0b1c 51       		.byte	0x51
 3213 0b1d 02       		.uleb128 0x2
 3214 0b1e 79       		.byte	0x79
 3215 0b1f 00       		.sleb128 0
 3216 0b20 00       		.byte	0
 3217 0b21 00       		.byte	0
 3218 0b22 15       		.uleb128 0x15
 3219 0b23 5B040000 		.4byte	.LASF100
 3220 0b27 01       		.byte	0x1
 3221 0b28 D803     		.2byte	0x3d8
 3222 0b2a 00000000 		.4byte	.LFB53
 3223 0b2e 40000000 		.4byte	.LFE53-.LFB53
 3224 0b32 01       		.uleb128 0x1
ARM GAS  C:\Users\codyg\AppData\Local\Temp\ccRbtLKH.s 			page 91


 3225 0b33 9C       		.byte	0x9c
 3226 0b34 9B0B0000 		.4byte	0xb9b
 3227 0b38 17       		.uleb128 0x17
 3228 0b39 92030000 		.4byte	.LASF78
 3229 0b3d 01       		.byte	0x1
 3230 0b3e D803     		.2byte	0x3d8
 3231 0b40 F4000000 		.4byte	0xf4
 3232 0b44 30080000 		.4byte	.LLST46
 3233 0b48 17       		.uleb128 0x17
 3234 0b49 ED010000 		.4byte	.LASF79
 3235 0b4d 01       		.byte	0x1
 3236 0b4e D803     		.2byte	0x3d8
 3237 0b50 F4000000 		.4byte	0xf4
 3238 0b54 51080000 		.4byte	.LLST47
 3239 0b58 1B       		.uleb128 0x1b
 3240 0b59 D1030000 		.4byte	.LASF83
 3241 0b5d 01       		.byte	0x1
 3242 0b5e DA03     		.2byte	0x3da
 3243 0b60 51050000 		.4byte	0x551
 3244 0b64 18       		.uleb128 0x18
 3245 0b65 6C080000 		.4byte	.LASF72
 3246 0b69 01       		.byte	0x1
 3247 0b6a DB03     		.2byte	0x3db
 3248 0b6c 12030000 		.4byte	0x312
 3249 0b70 72080000 		.4byte	.LLST48
 3250 0b74 18       		.uleb128 0x18
 3251 0b75 38080000 		.4byte	.LASF86
 3252 0b79 01       		.byte	0x1
 3253 0b7a DC03     		.2byte	0x3dc
 3254 0b7c 15040000 		.4byte	0x415
 3255 0b80 C5080000 		.4byte	.LLST49
 3256 0b84 19       		.uleb128 0x19
 3257 0b85 38000000 		.4byte	.LVL155
 3258 0b89 AB0A0000 		.4byte	0xaab
 3259 0b8d 1A       		.uleb128 0x1a
 3260 0b8e 01       		.uleb128 0x1
 3261 0b8f 50       		.byte	0x50
 3262 0b90 02       		.uleb128 0x2
 3263 0b91 74       		.byte	0x74
 3264 0b92 00       		.sleb128 0
 3265 0b93 1A       		.uleb128 0x1a
 3266 0b94 01       		.uleb128 0x1
 3267 0b95 51       		.byte	0x51
 3268 0b96 02       		.uleb128 0x2
 3269 0b97 75       		.byte	0x75
 3270 0b98 00       		.sleb128 0
 3271 0b99 00       		.byte	0
 3272 0b9a 00       		.byte	0
 3273 0b9b 20       		.uleb128 0x20
 3274 0b9c 07080000 		.4byte	.LASF102
 3275 0ba0 01       		.byte	0x1
 3276 0ba1 A506     		.2byte	0x6a5
 3277 0ba3 F4000000 		.4byte	0xf4
 3278 0ba7 00000000 		.4byte	.LFB63
 3279 0bab 12000000 		.4byte	.LFE63-.LFB63
 3280 0baf 01       		.uleb128 0x1
 3281 0bb0 9C       		.byte	0x9c
ARM GAS  C:\Users\codyg\AppData\Local\Temp\ccRbtLKH.s 			page 92


 3282 0bb1 020C0000 		.4byte	0xc02
 3283 0bb5 17       		.uleb128 0x17
 3284 0bb6 CB010000 		.4byte	.LASF103
 3285 0bba 01       		.byte	0x1
 3286 0bbb A506     		.2byte	0x6a5
 3287 0bbd F4000000 		.4byte	0xf4
 3288 0bc1 D8080000 		.4byte	.LLST50
 3289 0bc5 17       		.uleb128 0x17
 3290 0bc6 9B030000 		.4byte	.LASF104
 3291 0bca 01       		.byte	0x1
 3292 0bcb A506     		.2byte	0x6a5
 3293 0bcd F4000000 		.4byte	0xf4
 3294 0bd1 F9080000 		.4byte	.LLST51
 3295 0bd5 21       		.uleb128 0x21
 3296 0bd6 6E00     		.ascii	"n\000"
 3297 0bd8 01       		.byte	0x1
 3298 0bd9 A506     		.2byte	0x6a5
 3299 0bdb F4000000 		.4byte	0xf4
 3300 0bdf 1A090000 		.4byte	.LLST52
 3301 0be3 17       		.uleb128 0x17
 3302 0be4 E7010000 		.4byte	.LASF105
 3303 0be8 01       		.byte	0x1
 3304 0be9 A506     		.2byte	0x6a5
 3305 0beb F4000000 		.4byte	0xf4
 3306 0bef 3B090000 		.4byte	.LLST53
 3307 0bf3 24       		.uleb128 0x24
 3308 0bf4 21010000 		.4byte	.LASF106
 3309 0bf8 01       		.byte	0x1
 3310 0bf9 A706     		.2byte	0x6a7
 3311 0bfb F4000000 		.4byte	0xf4
 3312 0bff 01       		.uleb128 0x1
 3313 0c00 50       		.byte	0x50
 3314 0c01 00       		.byte	0
 3315 0c02 25       		.uleb128 0x25
 3316 0c03 F9020000 		.4byte	.LASF107
 3317 0c07 01       		.byte	0x1
 3318 0c08 FF       		.byte	0xff
 3319 0c09 F4000000 		.4byte	0xf4
 3320 0c0d 00000000 		.4byte	.LFB40
 3321 0c11 A0000000 		.4byte	.LFE40-.LFB40
 3322 0c15 01       		.uleb128 0x1
 3323 0c16 9C       		.byte	0x9c
 3324 0c17 DE0C0000 		.4byte	0xcde
 3325 0c1b 17       		.uleb128 0x17
 3326 0c1c 07000000 		.4byte	.LASF108
 3327 0c20 01       		.byte	0x1
 3328 0c21 0001     		.2byte	0x100
 3329 0c23 DE0C0000 		.4byte	0xcde
 3330 0c27 5C090000 		.4byte	.LLST54
 3331 0c2b 17       		.uleb128 0x17
 3332 0c2c 6C080000 		.4byte	.LASF72
 3333 0c30 01       		.byte	0x1
 3334 0c31 0101     		.2byte	0x101
 3335 0c33 12030000 		.4byte	0x312
 3336 0c37 88090000 		.4byte	.LLST55
 3337 0c3b 17       		.uleb128 0x17
 3338 0c3c 80030000 		.4byte	.LASF73
ARM GAS  C:\Users\codyg\AppData\Local\Temp\ccRbtLKH.s 			page 93


 3339 0c40 01       		.byte	0x1
 3340 0c41 0201     		.2byte	0x102
 3341 0c43 F4000000 		.4byte	0xf4
 3342 0c47 B4090000 		.4byte	.LLST56
 3343 0c4b 18       		.uleb128 0x18
 3344 0c4c 26080000 		.4byte	.LASF109
 3345 0c50 01       		.byte	0x1
 3346 0c51 0401     		.2byte	0x104
 3347 0c53 F4000000 		.4byte	0xf4
 3348 0c57 D3090000 		.4byte	.LLST57
 3349 0c5b 18       		.uleb128 0x18
 3350 0c5c 7A000000 		.4byte	.LASF110
 3351 0c60 01       		.byte	0x1
 3352 0c61 0501     		.2byte	0x105
 3353 0c63 F4000000 		.4byte	0xf4
 3354 0c67 090A0000 		.4byte	.LLST58
 3355 0c6b 18       		.uleb128 0x18
 3356 0c6c B8050000 		.4byte	.LASF80
 3357 0c70 01       		.byte	0x1
 3358 0c71 0601     		.2byte	0x106
 3359 0c73 F4000000 		.4byte	0xf4
 3360 0c77 320A0000 		.4byte	.LLST59
 3361 0c7b 18       		.uleb128 0x18
 3362 0c7c 8F010000 		.4byte	.LASF111
 3363 0c80 01       		.byte	0x1
 3364 0c81 0701     		.2byte	0x107
 3365 0c83 F4000000 		.4byte	0xf4
 3366 0c87 740A0000 		.4byte	.LLST60
 3367 0c8b 26       		.uleb128 0x26
 3368 0c8c D1080000 		.4byte	.LASF112
 3369 0c90 01       		.byte	0x1
 3370 0c91 0801     		.2byte	0x108
 3371 0c93 F4000000 		.4byte	0xf4
 3372 0c97 00       		.byte	0
 3373 0c98 18       		.uleb128 0x18
 3374 0c99 90040000 		.4byte	.LASF113
 3375 0c9d 01       		.byte	0x1
 3376 0c9e 0B01     		.2byte	0x10b
 3377 0ca0 F4000000 		.4byte	0xf4
 3378 0ca4 880A0000 		.4byte	.LLST61
 3379 0ca8 1D       		.uleb128 0x1d
 3380 0ca9 4C000000 		.4byte	.LVL174
 3381 0cad 21040000 		.4byte	0x421
 3382 0cb1 C90C0000 		.4byte	0xcc9
 3383 0cb5 1A       		.uleb128 0x1a
 3384 0cb6 01       		.uleb128 0x1
 3385 0cb7 50       		.byte	0x50
 3386 0cb8 02       		.uleb128 0x2
 3387 0cb9 76       		.byte	0x76
 3388 0cba 00       		.sleb128 0
 3389 0cbb 1A       		.uleb128 0x1a
 3390 0cbc 01       		.uleb128 0x1
 3391 0cbd 51       		.byte	0x51
 3392 0cbe 03       		.uleb128 0x3
 3393 0cbf 91       		.byte	0x91
 3394 0cc0 64       		.sleb128 -28
 3395 0cc1 06       		.byte	0x6
ARM GAS  C:\Users\codyg\AppData\Local\Temp\ccRbtLKH.s 			page 94


 3396 0cc2 1A       		.uleb128 0x1a
 3397 0cc3 01       		.uleb128 0x1
 3398 0cc4 52       		.byte	0x52
 3399 0cc5 02       		.uleb128 0x2
 3400 0cc6 74       		.byte	0x74
 3401 0cc7 00       		.sleb128 0
 3402 0cc8 00       		.byte	0
 3403 0cc9 19       		.uleb128 0x19
 3404 0cca 82000000 		.4byte	.LVL180
 3405 0cce 9B0B0000 		.4byte	0xb9b
 3406 0cd2 1A       		.uleb128 0x1a
 3407 0cd3 01       		.uleb128 0x1
 3408 0cd4 52       		.byte	0x52
 3409 0cd5 01       		.uleb128 0x1
 3410 0cd6 31       		.byte	0x31
 3411 0cd7 1A       		.uleb128 0x1a
 3412 0cd8 01       		.uleb128 0x1
 3413 0cd9 53       		.byte	0x53
 3414 0cda 01       		.uleb128 0x1
 3415 0cdb 38       		.byte	0x38
 3416 0cdc 00       		.byte	0
 3417 0cdd 00       		.byte	0
 3418 0cde 0F       		.uleb128 0xf
 3419 0cdf 04       		.byte	0x4
 3420 0ce0 FB010000 		.4byte	0x1fb
 3421 0ce4 25       		.uleb128 0x25
 3422 0ce5 4C030000 		.4byte	.LASF114
 3423 0ce9 01       		.byte	0x1
 3424 0cea C8       		.byte	0xc8
 3425 0ceb D0000000 		.4byte	0xd0
 3426 0cef 00000000 		.4byte	.LFB39
 3427 0cf3 2C000000 		.4byte	.LFE39-.LFB39
 3428 0cf7 01       		.uleb128 0x1
 3429 0cf8 9C       		.byte	0x9c
 3430 0cf9 8F0D0000 		.4byte	0xd8f
 3431 0cfd 27       		.uleb128 0x27
 3432 0cfe 92030000 		.4byte	.LASF78
 3433 0d02 01       		.byte	0x1
 3434 0d03 C8       		.byte	0xc8
 3435 0d04 F4000000 		.4byte	0xf4
 3436 0d08 A60A0000 		.4byte	.LLST62
 3437 0d0c 27       		.uleb128 0x27
 3438 0d0d ED010000 		.4byte	.LASF79
 3439 0d11 01       		.byte	0x1
 3440 0d12 C8       		.byte	0xc8
 3441 0d13 F4000000 		.4byte	0xf4
 3442 0d17 C70A0000 		.4byte	.LLST63
 3443 0d1b 28       		.uleb128 0x28
 3444 0d1c D1080000 		.4byte	.LASF112
 3445 0d20 01       		.byte	0x1
 3446 0d21 CA       		.byte	0xca
 3447 0d22 F4000000 		.4byte	0xf4
 3448 0d26 E80A0000 		.4byte	.LLST64
 3449 0d2a 28       		.uleb128 0x28
 3450 0d2b 6C080000 		.4byte	.LASF72
 3451 0d2f 01       		.byte	0x1
 3452 0d30 CC       		.byte	0xcc
ARM GAS  C:\Users\codyg\AppData\Local\Temp\ccRbtLKH.s 			page 95


 3453 0d31 12030000 		.4byte	0x312
 3454 0d35 070B0000 		.4byte	.LLST65
 3455 0d39 29       		.uleb128 0x29
 3456 0d3a D1030000 		.4byte	.LASF83
 3457 0d3e 01       		.byte	0x1
 3458 0d3f CD       		.byte	0xcd
 3459 0d40 51050000 		.4byte	0x551
 3460 0d44 28       		.uleb128 0x28
 3461 0d45 07000000 		.4byte	.LASF108
 3462 0d49 01       		.byte	0x1
 3463 0d4a CE       		.byte	0xce
 3464 0d4b DE0C0000 		.4byte	0xcde
 3465 0d4f 4A0B0000 		.4byte	.LLST66
 3466 0d53 19       		.uleb128 0x19
 3467 0d54 26000000 		.4byte	.LVL194
 3468 0d58 020C0000 		.4byte	0xc02
 3469 0d5c 1A       		.uleb128 0x1a
 3470 0d5d 01       		.uleb128 0x1
 3471 0d5e 50       		.byte	0x50
 3472 0d5f 02       		.uleb128 0x2
 3473 0d60 74       		.byte	0x74
 3474 0d61 00       		.sleb128 0
 3475 0d62 1A       		.uleb128 0x1a
 3476 0d63 01       		.uleb128 0x1
 3477 0d64 51       		.byte	0x51
 3478 0d65 0E       		.uleb128 0xe
 3479 0d66 F3       		.byte	0xf3
 3480 0d67 01       		.uleb128 0x1
 3481 0d68 51       		.byte	0x51
 3482 0d69 32       		.byte	0x32
 3483 0d6a 24       		.byte	0x24
 3484 0d6b F3       		.byte	0xf3
 3485 0d6c 01       		.uleb128 0x1
 3486 0d6d 51       		.byte	0x51
 3487 0d6e 22       		.byte	0x22
 3488 0d6f 31       		.byte	0x31
 3489 0d70 24       		.byte	0x24
 3490 0d71 76       		.byte	0x76
 3491 0d72 00       		.sleb128 0
 3492 0d73 22       		.byte	0x22
 3493 0d74 1A       		.uleb128 0x1a
 3494 0d75 01       		.uleb128 0x1
 3495 0d76 52       		.byte	0x52
 3496 0d77 15       		.uleb128 0x15
 3497 0d78 F3       		.byte	0xf3
 3498 0d79 01       		.uleb128 0x1
 3499 0d7a 50       		.byte	0x50
 3500 0d7b 33       		.byte	0x33
 3501 0d7c 24       		.byte	0x24
 3502 0d7d F3       		.byte	0xf3
 3503 0d7e 01       		.uleb128 0x1
 3504 0d7f 50       		.byte	0x50
 3505 0d80 1C       		.byte	0x1c
 3506 0d81 32       		.byte	0x32
 3507 0d82 24       		.byte	0x24
 3508 0d83 75       		.byte	0x75
 3509 0d84 00       		.sleb128 0
ARM GAS  C:\Users\codyg\AppData\Local\Temp\ccRbtLKH.s 			page 96


 3510 0d85 22       		.byte	0x22
 3511 0d86 23       		.byte	0x23
 3512 0d87 1A       		.uleb128 0x1a
 3513 0d88 94       		.byte	0x94
 3514 0d89 01       		.byte	0x1
 3515 0d8a 08       		.byte	0x8
 3516 0d8b FF       		.byte	0xff
 3517 0d8c 1A       		.byte	0x1a
 3518 0d8d 00       		.byte	0
 3519 0d8e 00       		.byte	0
 3520 0d8f 25       		.uleb128 0x25
 3521 0d90 2A000000 		.4byte	.LASF115
 3522 0d94 01       		.byte	0x1
 3523 0d95 8F       		.byte	0x8f
 3524 0d96 D0000000 		.4byte	0xd0
 3525 0d9a 00000000 		.4byte	.LFB38
 3526 0d9e 30000000 		.4byte	.LFE38-.LFB38
 3527 0da2 01       		.uleb128 0x1
 3528 0da3 9C       		.byte	0x9c
 3529 0da4 060E0000 		.4byte	0xe06
 3530 0da8 27       		.uleb128 0x27
 3531 0da9 92030000 		.4byte	.LASF78
 3532 0dad 01       		.byte	0x1
 3533 0dae 8F       		.byte	0x8f
 3534 0daf F4000000 		.4byte	0xf4
 3535 0db3 770B0000 		.4byte	.LLST67
 3536 0db7 28       		.uleb128 0x28
 3537 0db8 ED010000 		.4byte	.LASF79
 3538 0dbc 01       		.byte	0x1
 3539 0dbd 91       		.byte	0x91
 3540 0dbe F4000000 		.4byte	0xf4
 3541 0dc2 A30B0000 		.4byte	.LLST68
 3542 0dc6 28       		.uleb128 0x28
 3543 0dc7 1B020000 		.4byte	.LASF82
 3544 0dcb 01       		.byte	0x1
 3545 0dcc 92       		.byte	0x92
 3546 0dcd F4000000 		.4byte	0xf4
 3547 0dd1 E40B0000 		.4byte	.LLST69
 3548 0dd5 29       		.uleb128 0x29
 3549 0dd6 D1030000 		.4byte	.LASF83
 3550 0dda 01       		.byte	0x1
 3551 0ddb 94       		.byte	0x94
 3552 0ddc 51050000 		.4byte	0x551
 3553 0de0 28       		.uleb128 0x28
 3554 0de1 87030000 		.4byte	.LASF116
 3555 0de5 01       		.byte	0x1
 3556 0de6 95       		.byte	0x95
 3557 0de7 D0000000 		.4byte	0xd0
 3558 0deb F70B0000 		.4byte	.LLST70
 3559 0def 19       		.uleb128 0x19
 3560 0df0 1C000000 		.4byte	.LVL202
 3561 0df4 E40C0000 		.4byte	0xce4
 3562 0df8 1A       		.uleb128 0x1a
 3563 0df9 01       		.uleb128 0x1
 3564 0dfa 50       		.byte	0x50
 3565 0dfb 02       		.uleb128 0x2
 3566 0dfc 76       		.byte	0x76
ARM GAS  C:\Users\codyg\AppData\Local\Temp\ccRbtLKH.s 			page 97


 3567 0dfd 00       		.sleb128 0
 3568 0dfe 1A       		.uleb128 0x1a
 3569 0dff 01       		.uleb128 0x1
 3570 0e00 51       		.byte	0x51
 3571 0e01 02       		.uleb128 0x2
 3572 0e02 74       		.byte	0x74
 3573 0e03 00       		.sleb128 0
 3574 0e04 00       		.byte	0
 3575 0e05 00       		.byte	0
 3576 0e06 25       		.uleb128 0x25
 3577 0e07 37050000 		.4byte	.LASF117
 3578 0e0b 01       		.byte	0x1
 3579 0e0c 62       		.byte	0x62
 3580 0e0d D0000000 		.4byte	0xd0
 3581 0e11 00000000 		.4byte	.LFB37
 3582 0e15 1C000000 		.4byte	.LFE37-.LFB37
 3583 0e19 01       		.uleb128 0x1
 3584 0e1a 9C       		.byte	0x9c
 3585 0e1b 4E0E0000 		.4byte	0xe4e
 3586 0e1f 28       		.uleb128 0x28
 3587 0e20 92030000 		.4byte	.LASF78
 3588 0e24 01       		.byte	0x1
 3589 0e25 64       		.byte	0x64
 3590 0e26 F4000000 		.4byte	0xf4
 3591 0e2a 210C0000 		.4byte	.LLST71
 3592 0e2e 28       		.uleb128 0x28
 3593 0e2f 87030000 		.4byte	.LASF116
 3594 0e33 01       		.byte	0x1
 3595 0e34 65       		.byte	0x65
 3596 0e35 D0000000 		.4byte	0xd0
 3597 0e39 630C0000 		.4byte	.LLST72
 3598 0e3d 19       		.uleb128 0x19
 3599 0e3e 0E000000 		.4byte	.LVL211
 3600 0e42 8F0D0000 		.4byte	0xd8f
 3601 0e46 1A       		.uleb128 0x1a
 3602 0e47 01       		.uleb128 0x1
 3603 0e48 50       		.byte	0x50
 3604 0e49 02       		.uleb128 0x2
 3605 0e4a 75       		.byte	0x75
 3606 0e4b 00       		.sleb128 0
 3607 0e4c 00       		.byte	0
 3608 0e4d 00       		.byte	0
 3609 0e4e 15       		.uleb128 0x15
 3610 0e4f B9080000 		.4byte	.LASF118
 3611 0e53 01       		.byte	0x1
 3612 0e54 6303     		.2byte	0x363
 3613 0e56 00000000 		.4byte	.LFB51
 3614 0e5a 42000000 		.4byte	.LFE51-.LFB51
 3615 0e5e 01       		.uleb128 0x1
 3616 0e5f 9C       		.byte	0x9c
 3617 0e60 CA0E0000 		.4byte	0xeca
 3618 0e64 17       		.uleb128 0x17
 3619 0e65 38080000 		.4byte	.LASF86
 3620 0e69 01       		.byte	0x1
 3621 0e6a 6303     		.2byte	0x363
 3622 0e6c 15040000 		.4byte	0x415
 3623 0e70 8D0C0000 		.4byte	.LLST73
ARM GAS  C:\Users\codyg\AppData\Local\Temp\ccRbtLKH.s 			page 98


 3624 0e74 17       		.uleb128 0x17
 3625 0e75 98040000 		.4byte	.LASF87
 3626 0e79 01       		.byte	0x1
 3627 0e7a 6403     		.2byte	0x364
 3628 0e7c 12030000 		.4byte	0x312
 3629 0e80 AB0C0000 		.4byte	.LLST74
 3630 0e84 17       		.uleb128 0x17
 3631 0e85 80030000 		.4byte	.LASF73
 3632 0e89 01       		.byte	0x1
 3633 0e8a 6403     		.2byte	0x364
 3634 0e8c F4000000 		.4byte	0xf4
 3635 0e90 CA0C0000 		.4byte	.LLST75
 3636 0e94 18       		.uleb128 0x18
 3637 0e95 B8050000 		.4byte	.LASF80
 3638 0e99 01       		.byte	0x1
 3639 0e9a 6603     		.2byte	0x366
 3640 0e9c F4000000 		.4byte	0xf4
 3641 0ea0 F60C0000 		.4byte	.LLST76
 3642 0ea4 18       		.uleb128 0x18
 3643 0ea5 45020000 		.4byte	.LASF97
 3644 0ea9 01       		.byte	0x1
 3645 0eaa 6703     		.2byte	0x367
 3646 0eac F4000000 		.4byte	0xf4
 3647 0eb0 380D0000 		.4byte	.LLST77
 3648 0eb4 19       		.uleb128 0x19
 3649 0eb5 2A000000 		.4byte	.LVL221
 3650 0eb9 9B0B0000 		.4byte	0xb9b
 3651 0ebd 1A       		.uleb128 0x1a
 3652 0ebe 01       		.uleb128 0x1
 3653 0ebf 52       		.byte	0x52
 3654 0ec0 02       		.uleb128 0x2
 3655 0ec1 08       		.byte	0x8
 3656 0ec2 80       		.byte	0x80
 3657 0ec3 1A       		.uleb128 0x1a
 3658 0ec4 01       		.uleb128 0x1
 3659 0ec5 53       		.byte	0x53
 3660 0ec6 01       		.uleb128 0x1
 3661 0ec7 30       		.byte	0x30
 3662 0ec8 00       		.byte	0
 3663 0ec9 00       		.byte	0
 3664 0eca 15       		.uleb128 0x15
 3665 0ecb F7060000 		.4byte	.LASF119
 3666 0ecf 01       		.byte	0x1
 3667 0ed0 0B03     		.2byte	0x30b
 3668 0ed2 00000000 		.4byte	.LFB49
 3669 0ed6 40000000 		.4byte	.LFE49-.LFB49
 3670 0eda 01       		.uleb128 0x1
 3671 0edb 9C       		.byte	0x9c
 3672 0edc 430F0000 		.4byte	0xf43
 3673 0ee0 17       		.uleb128 0x17
 3674 0ee1 92030000 		.4byte	.LASF78
 3675 0ee5 01       		.byte	0x1
 3676 0ee6 0B03     		.2byte	0x30b
 3677 0ee8 F4000000 		.4byte	0xf4
 3678 0eec 4B0D0000 		.4byte	.LLST78
 3679 0ef0 17       		.uleb128 0x17
 3680 0ef1 ED010000 		.4byte	.LASF79
ARM GAS  C:\Users\codyg\AppData\Local\Temp\ccRbtLKH.s 			page 99


 3681 0ef5 01       		.byte	0x1
 3682 0ef6 0B03     		.2byte	0x30b
 3683 0ef8 F4000000 		.4byte	0xf4
 3684 0efc 6C0D0000 		.4byte	.LLST79
 3685 0f00 1B       		.uleb128 0x1b
 3686 0f01 D1030000 		.4byte	.LASF83
 3687 0f05 01       		.byte	0x1
 3688 0f06 0D03     		.2byte	0x30d
 3689 0f08 51050000 		.4byte	0x551
 3690 0f0c 18       		.uleb128 0x18
 3691 0f0d 6C080000 		.4byte	.LASF72
 3692 0f11 01       		.byte	0x1
 3693 0f12 0E03     		.2byte	0x30e
 3694 0f14 12030000 		.4byte	0x312
 3695 0f18 8D0D0000 		.4byte	.LLST80
 3696 0f1c 18       		.uleb128 0x18
 3697 0f1d 38080000 		.4byte	.LASF86
 3698 0f21 01       		.byte	0x1
 3699 0f22 0F03     		.2byte	0x30f
 3700 0f24 15040000 		.4byte	0x415
 3701 0f28 E00D0000 		.4byte	.LLST81
 3702 0f2c 19       		.uleb128 0x19
 3703 0f2d 38000000 		.4byte	.LVL234
 3704 0f31 4E0E0000 		.4byte	0xe4e
 3705 0f35 1A       		.uleb128 0x1a
 3706 0f36 01       		.uleb128 0x1
 3707 0f37 50       		.byte	0x50
 3708 0f38 02       		.uleb128 0x2
 3709 0f39 74       		.byte	0x74
 3710 0f3a 00       		.sleb128 0
 3711 0f3b 1A       		.uleb128 0x1a
 3712 0f3c 01       		.uleb128 0x1
 3713 0f3d 51       		.byte	0x51
 3714 0f3e 02       		.uleb128 0x2
 3715 0f3f 75       		.byte	0x75
 3716 0f40 00       		.sleb128 0
 3717 0f41 00       		.byte	0
 3718 0f42 00       		.byte	0
 3719 0f43 15       		.uleb128 0x15
 3720 0f44 53050000 		.4byte	.LASF120
 3721 0f48 01       		.byte	0x1
 3722 0f49 1B06     		.2byte	0x61b
 3723 0f4b 00000000 		.4byte	.LFB61
 3724 0f4f 22000000 		.4byte	.LFE61-.LFB61
 3725 0f53 01       		.uleb128 0x1
 3726 0f54 9C       		.byte	0x9c
 3727 0f55 E60F0000 		.4byte	0xfe6
 3728 0f59 17       		.uleb128 0x17
 3729 0f5a 38080000 		.4byte	.LASF86
 3730 0f5e 01       		.byte	0x1
 3731 0f5f 1B06     		.2byte	0x61b
 3732 0f61 15040000 		.4byte	0x415
 3733 0f65 F30D0000 		.4byte	.LLST82
 3734 0f69 17       		.uleb128 0x17
 3735 0f6a 98040000 		.4byte	.LASF87
 3736 0f6e 01       		.byte	0x1
 3737 0f6f 1C06     		.2byte	0x61c
ARM GAS  C:\Users\codyg\AppData\Local\Temp\ccRbtLKH.s 			page 100


 3738 0f71 12030000 		.4byte	0x312
 3739 0f75 110E0000 		.4byte	.LLST83
 3740 0f79 17       		.uleb128 0x17
 3741 0f7a 80030000 		.4byte	.LASF73
 3742 0f7e 01       		.byte	0x1
 3743 0f7f 1C06     		.2byte	0x61c
 3744 0f81 F4000000 		.4byte	0xf4
 3745 0f85 3D0E0000 		.4byte	.LLST84
 3746 0f89 1D       		.uleb128 0x1d
 3747 0f8a 0C000000 		.4byte	.LVL239
 3748 0f8e AB0A0000 		.4byte	0xaab
 3749 0f92 A90F0000 		.4byte	0xfa9
 3750 0f96 1A       		.uleb128 0x1a
 3751 0f97 01       		.uleb128 0x1
 3752 0f98 50       		.byte	0x50
 3753 0f99 02       		.uleb128 0x2
 3754 0f9a 74       		.byte	0x74
 3755 0f9b 00       		.sleb128 0
 3756 0f9c 1A       		.uleb128 0x1a
 3757 0f9d 01       		.uleb128 0x1
 3758 0f9e 51       		.byte	0x51
 3759 0f9f 02       		.uleb128 0x2
 3760 0fa0 75       		.byte	0x75
 3761 0fa1 00       		.sleb128 0
 3762 0fa2 1A       		.uleb128 0x1a
 3763 0fa3 01       		.uleb128 0x1
 3764 0fa4 52       		.byte	0x52
 3765 0fa5 02       		.uleb128 0x2
 3766 0fa6 76       		.byte	0x76
 3767 0fa7 00       		.sleb128 0
 3768 0fa8 00       		.byte	0
 3769 0fa9 1D       		.uleb128 0x1d
 3770 0faa 16000000 		.4byte	.LVL241
 3771 0fae 4E0E0000 		.4byte	0xe4e
 3772 0fb2 C90F0000 		.4byte	0xfc9
 3773 0fb6 1A       		.uleb128 0x1a
 3774 0fb7 01       		.uleb128 0x1
 3775 0fb8 50       		.byte	0x50
 3776 0fb9 02       		.uleb128 0x2
 3777 0fba 74       		.byte	0x74
 3778 0fbb 00       		.sleb128 0
 3779 0fbc 1A       		.uleb128 0x1a
 3780 0fbd 01       		.uleb128 0x1
 3781 0fbe 51       		.byte	0x51
 3782 0fbf 02       		.uleb128 0x2
 3783 0fc0 75       		.byte	0x75
 3784 0fc1 00       		.sleb128 0
 3785 0fc2 1A       		.uleb128 0x1a
 3786 0fc3 01       		.uleb128 0x1
 3787 0fc4 52       		.byte	0x52
 3788 0fc5 02       		.uleb128 0x2
 3789 0fc6 76       		.byte	0x76
 3790 0fc7 00       		.sleb128 0
 3791 0fc8 00       		.byte	0
 3792 0fc9 19       		.uleb128 0x19
 3793 0fca 20000000 		.4byte	.LVL242
 3794 0fce 7F090000 		.4byte	0x97f
ARM GAS  C:\Users\codyg\AppData\Local\Temp\ccRbtLKH.s 			page 101


 3795 0fd2 1A       		.uleb128 0x1a
 3796 0fd3 01       		.uleb128 0x1
 3797 0fd4 50       		.byte	0x50
 3798 0fd5 02       		.uleb128 0x2
 3799 0fd6 74       		.byte	0x74
 3800 0fd7 00       		.sleb128 0
 3801 0fd8 1A       		.uleb128 0x1a
 3802 0fd9 01       		.uleb128 0x1
 3803 0fda 51       		.byte	0x51
 3804 0fdb 02       		.uleb128 0x2
 3805 0fdc 75       		.byte	0x75
 3806 0fdd 00       		.sleb128 0
 3807 0fde 1A       		.uleb128 0x1a
 3808 0fdf 01       		.uleb128 0x1
 3809 0fe0 52       		.byte	0x52
 3810 0fe1 02       		.uleb128 0x2
 3811 0fe2 76       		.byte	0x76
 3812 0fe3 00       		.sleb128 0
 3813 0fe4 00       		.byte	0
 3814 0fe5 00       		.byte	0
 3815 0fe6 15       		.uleb128 0x15
 3816 0fe7 C9020000 		.4byte	.LASF121
 3817 0feb 01       		.byte	0x1
 3818 0fec E905     		.2byte	0x5e9
 3819 0fee 00000000 		.4byte	.LFB60
 3820 0ff2 40000000 		.4byte	.LFE60-.LFB60
 3821 0ff6 01       		.uleb128 0x1
 3822 0ff7 9C       		.byte	0x9c
 3823 0ff8 5F100000 		.4byte	0x105f
 3824 0ffc 17       		.uleb128 0x17
 3825 0ffd 92030000 		.4byte	.LASF78
 3826 1001 01       		.byte	0x1
 3827 1002 E905     		.2byte	0x5e9
 3828 1004 F4000000 		.4byte	0xf4
 3829 1008 690E0000 		.4byte	.LLST85
 3830 100c 17       		.uleb128 0x17
 3831 100d ED010000 		.4byte	.LASF79
 3832 1011 01       		.byte	0x1
 3833 1012 E905     		.2byte	0x5e9
 3834 1014 F4000000 		.4byte	0xf4
 3835 1018 8A0E0000 		.4byte	.LLST86
 3836 101c 1B       		.uleb128 0x1b
 3837 101d D1030000 		.4byte	.LASF83
 3838 1021 01       		.byte	0x1
 3839 1022 EB05     		.2byte	0x5eb
 3840 1024 51050000 		.4byte	0x551
 3841 1028 18       		.uleb128 0x18
 3842 1029 6C080000 		.4byte	.LASF72
 3843 102d 01       		.byte	0x1
 3844 102e EC05     		.2byte	0x5ec
 3845 1030 12030000 		.4byte	0x312
 3846 1034 AB0E0000 		.4byte	.LLST87
 3847 1038 18       		.uleb128 0x18
 3848 1039 38080000 		.4byte	.LASF86
 3849 103d 01       		.byte	0x1
 3850 103e ED05     		.2byte	0x5ed
 3851 1040 15040000 		.4byte	0x415
ARM GAS  C:\Users\codyg\AppData\Local\Temp\ccRbtLKH.s 			page 102


 3852 1044 FE0E0000 		.4byte	.LLST88
 3853 1048 19       		.uleb128 0x19
 3854 1049 38000000 		.4byte	.LVL253
 3855 104d 430F0000 		.4byte	0xf43
 3856 1051 1A       		.uleb128 0x1a
 3857 1052 01       		.uleb128 0x1
 3858 1053 50       		.byte	0x50
 3859 1054 02       		.uleb128 0x2
 3860 1055 74       		.byte	0x74
 3861 1056 00       		.sleb128 0
 3862 1057 1A       		.uleb128 0x1a
 3863 1058 01       		.uleb128 0x1
 3864 1059 51       		.byte	0x51
 3865 105a 02       		.uleb128 0x2
 3866 105b 75       		.byte	0x75
 3867 105c 00       		.sleb128 0
 3868 105d 00       		.byte	0
 3869 105e 00       		.byte	0
 3870 105f 2A       		.uleb128 0x2a
 3871 1060 4A010000 		.4byte	.LASF125
 3872 1064 06       		.byte	0x6
 3873 1065 FE03     		.2byte	0x3fe
 3874 1067 6B100000 		.4byte	0x106b
 3875 106b 1C       		.uleb128 0x1c
 3876 106c 51030000 		.4byte	0x351
 3877 1070 00       		.byte	0
 3878              		.section	.debug_abbrev,"",%progbits
 3879              	.Ldebug_abbrev0:
 3880 0000 01       		.uleb128 0x1
 3881 0001 11       		.uleb128 0x11
 3882 0002 01       		.byte	0x1
 3883 0003 25       		.uleb128 0x25
 3884 0004 0E       		.uleb128 0xe
 3885 0005 13       		.uleb128 0x13
 3886 0006 0B       		.uleb128 0xb
 3887 0007 03       		.uleb128 0x3
 3888 0008 0E       		.uleb128 0xe
 3889 0009 1B       		.uleb128 0x1b
 3890 000a 0E       		.uleb128 0xe
 3891 000b 55       		.uleb128 0x55
 3892 000c 17       		.uleb128 0x17
 3893 000d 11       		.uleb128 0x11
 3894 000e 01       		.uleb128 0x1
 3895 000f 10       		.uleb128 0x10
 3896 0010 17       		.uleb128 0x17
 3897 0011 00       		.byte	0
 3898 0012 00       		.byte	0
 3899 0013 02       		.uleb128 0x2
 3900 0014 24       		.uleb128 0x24
 3901 0015 00       		.byte	0
 3902 0016 0B       		.uleb128 0xb
 3903 0017 0B       		.uleb128 0xb
 3904 0018 3E       		.uleb128 0x3e
 3905 0019 0B       		.uleb128 0xb
 3906 001a 03       		.uleb128 0x3
 3907 001b 08       		.uleb128 0x8
 3908 001c 00       		.byte	0
ARM GAS  C:\Users\codyg\AppData\Local\Temp\ccRbtLKH.s 			page 103


 3909 001d 00       		.byte	0
 3910 001e 03       		.uleb128 0x3
 3911 001f 24       		.uleb128 0x24
 3912 0020 00       		.byte	0
 3913 0021 0B       		.uleb128 0xb
 3914 0022 0B       		.uleb128 0xb
 3915 0023 3E       		.uleb128 0x3e
 3916 0024 0B       		.uleb128 0xb
 3917 0025 03       		.uleb128 0x3
 3918 0026 0E       		.uleb128 0xe
 3919 0027 00       		.byte	0
 3920 0028 00       		.byte	0
 3921 0029 04       		.uleb128 0x4
 3922 002a 16       		.uleb128 0x16
 3923 002b 00       		.byte	0
 3924 002c 03       		.uleb128 0x3
 3925 002d 0E       		.uleb128 0xe
 3926 002e 3A       		.uleb128 0x3a
 3927 002f 0B       		.uleb128 0xb
 3928 0030 3B       		.uleb128 0x3b
 3929 0031 0B       		.uleb128 0xb
 3930 0032 49       		.uleb128 0x49
 3931 0033 13       		.uleb128 0x13
 3932 0034 00       		.byte	0
 3933 0035 00       		.byte	0
 3934 0036 05       		.uleb128 0x5
 3935 0037 16       		.uleb128 0x16
 3936 0038 00       		.byte	0
 3937 0039 03       		.uleb128 0x3
 3938 003a 0E       		.uleb128 0xe
 3939 003b 3A       		.uleb128 0x3a
 3940 003c 0B       		.uleb128 0xb
 3941 003d 3B       		.uleb128 0x3b
 3942 003e 05       		.uleb128 0x5
 3943 003f 49       		.uleb128 0x49
 3944 0040 13       		.uleb128 0x13
 3945 0041 00       		.byte	0
 3946 0042 00       		.byte	0
 3947 0043 06       		.uleb128 0x6
 3948 0044 04       		.uleb128 0x4
 3949 0045 01       		.byte	0x1
 3950 0046 0B       		.uleb128 0xb
 3951 0047 0B       		.uleb128 0xb
 3952 0048 49       		.uleb128 0x49
 3953 0049 13       		.uleb128 0x13
 3954 004a 3A       		.uleb128 0x3a
 3955 004b 0B       		.uleb128 0xb
 3956 004c 3B       		.uleb128 0x3b
 3957 004d 0B       		.uleb128 0xb
 3958 004e 01       		.uleb128 0x1
 3959 004f 13       		.uleb128 0x13
 3960 0050 00       		.byte	0
 3961 0051 00       		.byte	0
 3962 0052 07       		.uleb128 0x7
 3963 0053 28       		.uleb128 0x28
 3964 0054 00       		.byte	0
 3965 0055 03       		.uleb128 0x3
ARM GAS  C:\Users\codyg\AppData\Local\Temp\ccRbtLKH.s 			page 104


 3966 0056 0E       		.uleb128 0xe
 3967 0057 1C       		.uleb128 0x1c
 3968 0058 0B       		.uleb128 0xb
 3969 0059 00       		.byte	0
 3970 005a 00       		.byte	0
 3971 005b 08       		.uleb128 0x8
 3972 005c 13       		.uleb128 0x13
 3973 005d 01       		.byte	0x1
 3974 005e 0B       		.uleb128 0xb
 3975 005f 0B       		.uleb128 0xb
 3976 0060 3A       		.uleb128 0x3a
 3977 0061 0B       		.uleb128 0xb
 3978 0062 3B       		.uleb128 0x3b
 3979 0063 0B       		.uleb128 0xb
 3980 0064 01       		.uleb128 0x1
 3981 0065 13       		.uleb128 0x13
 3982 0066 00       		.byte	0
 3983 0067 00       		.byte	0
 3984 0068 09       		.uleb128 0x9
 3985 0069 0D       		.uleb128 0xd
 3986 006a 00       		.byte	0
 3987 006b 03       		.uleb128 0x3
 3988 006c 0E       		.uleb128 0xe
 3989 006d 3A       		.uleb128 0x3a
 3990 006e 0B       		.uleb128 0xb
 3991 006f 3B       		.uleb128 0x3b
 3992 0070 0B       		.uleb128 0xb
 3993 0071 49       		.uleb128 0x49
 3994 0072 13       		.uleb128 0x13
 3995 0073 38       		.uleb128 0x38
 3996 0074 0B       		.uleb128 0xb
 3997 0075 00       		.byte	0
 3998 0076 00       		.byte	0
 3999 0077 0A       		.uleb128 0xa
 4000 0078 01       		.uleb128 0x1
 4001 0079 01       		.byte	0x1
 4002 007a 49       		.uleb128 0x49
 4003 007b 13       		.uleb128 0x13
 4004 007c 01       		.uleb128 0x1
 4005 007d 13       		.uleb128 0x13
 4006 007e 00       		.byte	0
 4007 007f 00       		.byte	0
 4008 0080 0B       		.uleb128 0xb
 4009 0081 21       		.uleb128 0x21
 4010 0082 00       		.byte	0
 4011 0083 49       		.uleb128 0x49
 4012 0084 13       		.uleb128 0x13
 4013 0085 2F       		.uleb128 0x2f
 4014 0086 0B       		.uleb128 0xb
 4015 0087 00       		.byte	0
 4016 0088 00       		.byte	0
 4017 0089 0C       		.uleb128 0xc
 4018 008a 13       		.uleb128 0x13
 4019 008b 01       		.byte	0x1
 4020 008c 0B       		.uleb128 0xb
 4021 008d 0B       		.uleb128 0xb
 4022 008e 3A       		.uleb128 0x3a
ARM GAS  C:\Users\codyg\AppData\Local\Temp\ccRbtLKH.s 			page 105


 4023 008f 0B       		.uleb128 0xb
 4024 0090 3B       		.uleb128 0x3b
 4025 0091 05       		.uleb128 0x5
 4026 0092 01       		.uleb128 0x1
 4027 0093 13       		.uleb128 0x13
 4028 0094 00       		.byte	0
 4029 0095 00       		.byte	0
 4030 0096 0D       		.uleb128 0xd
 4031 0097 0D       		.uleb128 0xd
 4032 0098 00       		.byte	0
 4033 0099 03       		.uleb128 0x3
 4034 009a 08       		.uleb128 0x8
 4035 009b 3A       		.uleb128 0x3a
 4036 009c 0B       		.uleb128 0xb
 4037 009d 3B       		.uleb128 0x3b
 4038 009e 05       		.uleb128 0x5
 4039 009f 49       		.uleb128 0x49
 4040 00a0 13       		.uleb128 0x13
 4041 00a1 38       		.uleb128 0x38
 4042 00a2 0B       		.uleb128 0xb
 4043 00a3 00       		.byte	0
 4044 00a4 00       		.byte	0
 4045 00a5 0E       		.uleb128 0xe
 4046 00a6 0D       		.uleb128 0xd
 4047 00a7 00       		.byte	0
 4048 00a8 03       		.uleb128 0x3
 4049 00a9 0E       		.uleb128 0xe
 4050 00aa 3A       		.uleb128 0x3a
 4051 00ab 0B       		.uleb128 0xb
 4052 00ac 3B       		.uleb128 0x3b
 4053 00ad 05       		.uleb128 0x5
 4054 00ae 49       		.uleb128 0x49
 4055 00af 13       		.uleb128 0x13
 4056 00b0 38       		.uleb128 0x38
 4057 00b1 0B       		.uleb128 0xb
 4058 00b2 00       		.byte	0
 4059 00b3 00       		.byte	0
 4060 00b4 0F       		.uleb128 0xf
 4061 00b5 0F       		.uleb128 0xf
 4062 00b6 00       		.byte	0
 4063 00b7 0B       		.uleb128 0xb
 4064 00b8 0B       		.uleb128 0xb
 4065 00b9 49       		.uleb128 0x49
 4066 00ba 13       		.uleb128 0x13
 4067 00bb 00       		.byte	0
 4068 00bc 00       		.byte	0
 4069 00bd 10       		.uleb128 0x10
 4070 00be 26       		.uleb128 0x26
 4071 00bf 00       		.byte	0
 4072 00c0 00       		.byte	0
 4073 00c1 00       		.byte	0
 4074 00c2 11       		.uleb128 0x11
 4075 00c3 0F       		.uleb128 0xf
 4076 00c4 00       		.byte	0
 4077 00c5 0B       		.uleb128 0xb
 4078 00c6 0B       		.uleb128 0xb
 4079 00c7 00       		.byte	0
ARM GAS  C:\Users\codyg\AppData\Local\Temp\ccRbtLKH.s 			page 106


 4080 00c8 00       		.byte	0
 4081 00c9 12       		.uleb128 0x12
 4082 00ca 17       		.uleb128 0x17
 4083 00cb 01       		.byte	0x1
 4084 00cc 0B       		.uleb128 0xb
 4085 00cd 0B       		.uleb128 0xb
 4086 00ce 3A       		.uleb128 0x3a
 4087 00cf 0B       		.uleb128 0xb
 4088 00d0 3B       		.uleb128 0x3b
 4089 00d1 05       		.uleb128 0x5
 4090 00d2 01       		.uleb128 0x1
 4091 00d3 13       		.uleb128 0x13
 4092 00d4 00       		.byte	0
 4093 00d5 00       		.byte	0
 4094 00d6 13       		.uleb128 0x13
 4095 00d7 0D       		.uleb128 0xd
 4096 00d8 00       		.byte	0
 4097 00d9 03       		.uleb128 0x3
 4098 00da 08       		.uleb128 0x8
 4099 00db 3A       		.uleb128 0x3a
 4100 00dc 0B       		.uleb128 0xb
 4101 00dd 3B       		.uleb128 0x3b
 4102 00de 05       		.uleb128 0x5
 4103 00df 49       		.uleb128 0x49
 4104 00e0 13       		.uleb128 0x13
 4105 00e1 00       		.byte	0
 4106 00e2 00       		.byte	0
 4107 00e3 14       		.uleb128 0x14
 4108 00e4 0D       		.uleb128 0xd
 4109 00e5 00       		.byte	0
 4110 00e6 03       		.uleb128 0x3
 4111 00e7 0E       		.uleb128 0xe
 4112 00e8 3A       		.uleb128 0x3a
 4113 00e9 0B       		.uleb128 0xb
 4114 00ea 3B       		.uleb128 0x3b
 4115 00eb 05       		.uleb128 0x5
 4116 00ec 49       		.uleb128 0x49
 4117 00ed 13       		.uleb128 0x13
 4118 00ee 00       		.byte	0
 4119 00ef 00       		.byte	0
 4120 00f0 15       		.uleb128 0x15
 4121 00f1 2E       		.uleb128 0x2e
 4122 00f2 01       		.byte	0x1
 4123 00f3 3F       		.uleb128 0x3f
 4124 00f4 19       		.uleb128 0x19
 4125 00f5 03       		.uleb128 0x3
 4126 00f6 0E       		.uleb128 0xe
 4127 00f7 3A       		.uleb128 0x3a
 4128 00f8 0B       		.uleb128 0xb
 4129 00f9 3B       		.uleb128 0x3b
 4130 00fa 05       		.uleb128 0x5
 4131 00fb 27       		.uleb128 0x27
 4132 00fc 19       		.uleb128 0x19
 4133 00fd 11       		.uleb128 0x11
 4134 00fe 01       		.uleb128 0x1
 4135 00ff 12       		.uleb128 0x12
 4136 0100 06       		.uleb128 0x6
ARM GAS  C:\Users\codyg\AppData\Local\Temp\ccRbtLKH.s 			page 107


 4137 0101 40       		.uleb128 0x40
 4138 0102 18       		.uleb128 0x18
 4139 0103 9742     		.uleb128 0x2117
 4140 0105 19       		.uleb128 0x19
 4141 0106 01       		.uleb128 0x1
 4142 0107 13       		.uleb128 0x13
 4143 0108 00       		.byte	0
 4144 0109 00       		.byte	0
 4145 010a 16       		.uleb128 0x16
 4146 010b 05       		.uleb128 0x5
 4147 010c 00       		.byte	0
 4148 010d 03       		.uleb128 0x3
 4149 010e 0E       		.uleb128 0xe
 4150 010f 3A       		.uleb128 0x3a
 4151 0110 0B       		.uleb128 0xb
 4152 0111 3B       		.uleb128 0x3b
 4153 0112 05       		.uleb128 0x5
 4154 0113 49       		.uleb128 0x49
 4155 0114 13       		.uleb128 0x13
 4156 0115 02       		.uleb128 0x2
 4157 0116 18       		.uleb128 0x18
 4158 0117 00       		.byte	0
 4159 0118 00       		.byte	0
 4160 0119 17       		.uleb128 0x17
 4161 011a 05       		.uleb128 0x5
 4162 011b 00       		.byte	0
 4163 011c 03       		.uleb128 0x3
 4164 011d 0E       		.uleb128 0xe
 4165 011e 3A       		.uleb128 0x3a
 4166 011f 0B       		.uleb128 0xb
 4167 0120 3B       		.uleb128 0x3b
 4168 0121 05       		.uleb128 0x5
 4169 0122 49       		.uleb128 0x49
 4170 0123 13       		.uleb128 0x13
 4171 0124 02       		.uleb128 0x2
 4172 0125 17       		.uleb128 0x17
 4173 0126 00       		.byte	0
 4174 0127 00       		.byte	0
 4175 0128 18       		.uleb128 0x18
 4176 0129 34       		.uleb128 0x34
 4177 012a 00       		.byte	0
 4178 012b 03       		.uleb128 0x3
 4179 012c 0E       		.uleb128 0xe
 4180 012d 3A       		.uleb128 0x3a
 4181 012e 0B       		.uleb128 0xb
 4182 012f 3B       		.uleb128 0x3b
 4183 0130 05       		.uleb128 0x5
 4184 0131 49       		.uleb128 0x49
 4185 0132 13       		.uleb128 0x13
 4186 0133 02       		.uleb128 0x2
 4187 0134 17       		.uleb128 0x17
 4188 0135 00       		.byte	0
 4189 0136 00       		.byte	0
 4190 0137 19       		.uleb128 0x19
 4191 0138 898201   		.uleb128 0x4109
 4192 013b 01       		.byte	0x1
 4193 013c 11       		.uleb128 0x11
ARM GAS  C:\Users\codyg\AppData\Local\Temp\ccRbtLKH.s 			page 108


 4194 013d 01       		.uleb128 0x1
 4195 013e 31       		.uleb128 0x31
 4196 013f 13       		.uleb128 0x13
 4197 0140 00       		.byte	0
 4198 0141 00       		.byte	0
 4199 0142 1A       		.uleb128 0x1a
 4200 0143 8A8201   		.uleb128 0x410a
 4201 0146 00       		.byte	0
 4202 0147 02       		.uleb128 0x2
 4203 0148 18       		.uleb128 0x18
 4204 0149 9142     		.uleb128 0x2111
 4205 014b 18       		.uleb128 0x18
 4206 014c 00       		.byte	0
 4207 014d 00       		.byte	0
 4208 014e 1B       		.uleb128 0x1b
 4209 014f 34       		.uleb128 0x34
 4210 0150 00       		.byte	0
 4211 0151 03       		.uleb128 0x3
 4212 0152 0E       		.uleb128 0xe
 4213 0153 3A       		.uleb128 0x3a
 4214 0154 0B       		.uleb128 0xb
 4215 0155 3B       		.uleb128 0x3b
 4216 0156 05       		.uleb128 0x5
 4217 0157 49       		.uleb128 0x49
 4218 0158 13       		.uleb128 0x13
 4219 0159 00       		.byte	0
 4220 015a 00       		.byte	0
 4221 015b 1C       		.uleb128 0x1c
 4222 015c 26       		.uleb128 0x26
 4223 015d 00       		.byte	0
 4224 015e 49       		.uleb128 0x49
 4225 015f 13       		.uleb128 0x13
 4226 0160 00       		.byte	0
 4227 0161 00       		.byte	0
 4228 0162 1D       		.uleb128 0x1d
 4229 0163 898201   		.uleb128 0x4109
 4230 0166 01       		.byte	0x1
 4231 0167 11       		.uleb128 0x11
 4232 0168 01       		.uleb128 0x1
 4233 0169 31       		.uleb128 0x31
 4234 016a 13       		.uleb128 0x13
 4235 016b 01       		.uleb128 0x1
 4236 016c 13       		.uleb128 0x13
 4237 016d 00       		.byte	0
 4238 016e 00       		.byte	0
 4239 016f 1E       		.uleb128 0x1e
 4240 0170 2E       		.uleb128 0x2e
 4241 0171 01       		.byte	0x1
 4242 0172 3F       		.uleb128 0x3f
 4243 0173 19       		.uleb128 0x19
 4244 0174 03       		.uleb128 0x3
 4245 0175 0E       		.uleb128 0xe
 4246 0176 3A       		.uleb128 0x3a
 4247 0177 0B       		.uleb128 0xb
 4248 0178 3B       		.uleb128 0x3b
 4249 0179 0B       		.uleb128 0xb
 4250 017a 27       		.uleb128 0x27
ARM GAS  C:\Users\codyg\AppData\Local\Temp\ccRbtLKH.s 			page 109


 4251 017b 19       		.uleb128 0x19
 4252 017c 11       		.uleb128 0x11
 4253 017d 01       		.uleb128 0x1
 4254 017e 12       		.uleb128 0x12
 4255 017f 06       		.uleb128 0x6
 4256 0180 40       		.uleb128 0x40
 4257 0181 18       		.uleb128 0x18
 4258 0182 9742     		.uleb128 0x2117
 4259 0184 19       		.uleb128 0x19
 4260 0185 01       		.uleb128 0x1
 4261 0186 13       		.uleb128 0x13
 4262 0187 00       		.byte	0
 4263 0188 00       		.byte	0
 4264 0189 1F       		.uleb128 0x1f
 4265 018a 898201   		.uleb128 0x4109
 4266 018d 00       		.byte	0
 4267 018e 11       		.uleb128 0x11
 4268 018f 01       		.uleb128 0x1
 4269 0190 31       		.uleb128 0x31
 4270 0191 13       		.uleb128 0x13
 4271 0192 00       		.byte	0
 4272 0193 00       		.byte	0
 4273 0194 20       		.uleb128 0x20
 4274 0195 2E       		.uleb128 0x2e
 4275 0196 01       		.byte	0x1
 4276 0197 3F       		.uleb128 0x3f
 4277 0198 19       		.uleb128 0x19
 4278 0199 03       		.uleb128 0x3
 4279 019a 0E       		.uleb128 0xe
 4280 019b 3A       		.uleb128 0x3a
 4281 019c 0B       		.uleb128 0xb
 4282 019d 3B       		.uleb128 0x3b
 4283 019e 05       		.uleb128 0x5
 4284 019f 27       		.uleb128 0x27
 4285 01a0 19       		.uleb128 0x19
 4286 01a1 49       		.uleb128 0x49
 4287 01a2 13       		.uleb128 0x13
 4288 01a3 11       		.uleb128 0x11
 4289 01a4 01       		.uleb128 0x1
 4290 01a5 12       		.uleb128 0x12
 4291 01a6 06       		.uleb128 0x6
 4292 01a7 40       		.uleb128 0x40
 4293 01a8 18       		.uleb128 0x18
 4294 01a9 9742     		.uleb128 0x2117
 4295 01ab 19       		.uleb128 0x19
 4296 01ac 01       		.uleb128 0x1
 4297 01ad 13       		.uleb128 0x13
 4298 01ae 00       		.byte	0
 4299 01af 00       		.byte	0
 4300 01b0 21       		.uleb128 0x21
 4301 01b1 05       		.uleb128 0x5
 4302 01b2 00       		.byte	0
 4303 01b3 03       		.uleb128 0x3
 4304 01b4 08       		.uleb128 0x8
 4305 01b5 3A       		.uleb128 0x3a
 4306 01b6 0B       		.uleb128 0xb
 4307 01b7 3B       		.uleb128 0x3b
ARM GAS  C:\Users\codyg\AppData\Local\Temp\ccRbtLKH.s 			page 110


 4308 01b8 05       		.uleb128 0x5
 4309 01b9 49       		.uleb128 0x49
 4310 01ba 13       		.uleb128 0x13
 4311 01bb 02       		.uleb128 0x2
 4312 01bc 17       		.uleb128 0x17
 4313 01bd 00       		.byte	0
 4314 01be 00       		.byte	0
 4315 01bf 22       		.uleb128 0x22
 4316 01c0 05       		.uleb128 0x5
 4317 01c1 00       		.byte	0
 4318 01c2 03       		.uleb128 0x3
 4319 01c3 08       		.uleb128 0x8
 4320 01c4 3A       		.uleb128 0x3a
 4321 01c5 0B       		.uleb128 0xb
 4322 01c6 3B       		.uleb128 0x3b
 4323 01c7 05       		.uleb128 0x5
 4324 01c8 49       		.uleb128 0x49
 4325 01c9 13       		.uleb128 0x13
 4326 01ca 02       		.uleb128 0x2
 4327 01cb 18       		.uleb128 0x18
 4328 01cc 00       		.byte	0
 4329 01cd 00       		.byte	0
 4330 01ce 23       		.uleb128 0x23
 4331 01cf 34       		.uleb128 0x34
 4332 01d0 00       		.byte	0
 4333 01d1 03       		.uleb128 0x3
 4334 01d2 08       		.uleb128 0x8
 4335 01d3 3A       		.uleb128 0x3a
 4336 01d4 0B       		.uleb128 0xb
 4337 01d5 3B       		.uleb128 0x3b
 4338 01d6 05       		.uleb128 0x5
 4339 01d7 49       		.uleb128 0x49
 4340 01d8 13       		.uleb128 0x13
 4341 01d9 00       		.byte	0
 4342 01da 00       		.byte	0
 4343 01db 24       		.uleb128 0x24
 4344 01dc 34       		.uleb128 0x34
 4345 01dd 00       		.byte	0
 4346 01de 03       		.uleb128 0x3
 4347 01df 0E       		.uleb128 0xe
 4348 01e0 3A       		.uleb128 0x3a
 4349 01e1 0B       		.uleb128 0xb
 4350 01e2 3B       		.uleb128 0x3b
 4351 01e3 05       		.uleb128 0x5
 4352 01e4 49       		.uleb128 0x49
 4353 01e5 13       		.uleb128 0x13
 4354 01e6 02       		.uleb128 0x2
 4355 01e7 18       		.uleb128 0x18
 4356 01e8 00       		.byte	0
 4357 01e9 00       		.byte	0
 4358 01ea 25       		.uleb128 0x25
 4359 01eb 2E       		.uleb128 0x2e
 4360 01ec 01       		.byte	0x1
 4361 01ed 3F       		.uleb128 0x3f
 4362 01ee 19       		.uleb128 0x19
 4363 01ef 03       		.uleb128 0x3
 4364 01f0 0E       		.uleb128 0xe
ARM GAS  C:\Users\codyg\AppData\Local\Temp\ccRbtLKH.s 			page 111


 4365 01f1 3A       		.uleb128 0x3a
 4366 01f2 0B       		.uleb128 0xb
 4367 01f3 3B       		.uleb128 0x3b
 4368 01f4 0B       		.uleb128 0xb
 4369 01f5 27       		.uleb128 0x27
 4370 01f6 19       		.uleb128 0x19
 4371 01f7 49       		.uleb128 0x49
 4372 01f8 13       		.uleb128 0x13
 4373 01f9 11       		.uleb128 0x11
 4374 01fa 01       		.uleb128 0x1
 4375 01fb 12       		.uleb128 0x12
 4376 01fc 06       		.uleb128 0x6
 4377 01fd 40       		.uleb128 0x40
 4378 01fe 18       		.uleb128 0x18
 4379 01ff 9742     		.uleb128 0x2117
 4380 0201 19       		.uleb128 0x19
 4381 0202 01       		.uleb128 0x1
 4382 0203 13       		.uleb128 0x13
 4383 0204 00       		.byte	0
 4384 0205 00       		.byte	0
 4385 0206 26       		.uleb128 0x26
 4386 0207 34       		.uleb128 0x34
 4387 0208 00       		.byte	0
 4388 0209 03       		.uleb128 0x3
 4389 020a 0E       		.uleb128 0xe
 4390 020b 3A       		.uleb128 0x3a
 4391 020c 0B       		.uleb128 0xb
 4392 020d 3B       		.uleb128 0x3b
 4393 020e 05       		.uleb128 0x5
 4394 020f 49       		.uleb128 0x49
 4395 0210 13       		.uleb128 0x13
 4396 0211 1C       		.uleb128 0x1c
 4397 0212 0B       		.uleb128 0xb
 4398 0213 00       		.byte	0
 4399 0214 00       		.byte	0
 4400 0215 27       		.uleb128 0x27
 4401 0216 05       		.uleb128 0x5
 4402 0217 00       		.byte	0
 4403 0218 03       		.uleb128 0x3
 4404 0219 0E       		.uleb128 0xe
 4405 021a 3A       		.uleb128 0x3a
 4406 021b 0B       		.uleb128 0xb
 4407 021c 3B       		.uleb128 0x3b
 4408 021d 0B       		.uleb128 0xb
 4409 021e 49       		.uleb128 0x49
 4410 021f 13       		.uleb128 0x13
 4411 0220 02       		.uleb128 0x2
 4412 0221 17       		.uleb128 0x17
 4413 0222 00       		.byte	0
 4414 0223 00       		.byte	0
 4415 0224 28       		.uleb128 0x28
 4416 0225 34       		.uleb128 0x34
 4417 0226 00       		.byte	0
 4418 0227 03       		.uleb128 0x3
 4419 0228 0E       		.uleb128 0xe
 4420 0229 3A       		.uleb128 0x3a
 4421 022a 0B       		.uleb128 0xb
ARM GAS  C:\Users\codyg\AppData\Local\Temp\ccRbtLKH.s 			page 112


 4422 022b 3B       		.uleb128 0x3b
 4423 022c 0B       		.uleb128 0xb
 4424 022d 49       		.uleb128 0x49
 4425 022e 13       		.uleb128 0x13
 4426 022f 02       		.uleb128 0x2
 4427 0230 17       		.uleb128 0x17
 4428 0231 00       		.byte	0
 4429 0232 00       		.byte	0
 4430 0233 29       		.uleb128 0x29
 4431 0234 34       		.uleb128 0x34
 4432 0235 00       		.byte	0
 4433 0236 03       		.uleb128 0x3
 4434 0237 0E       		.uleb128 0xe
 4435 0238 3A       		.uleb128 0x3a
 4436 0239 0B       		.uleb128 0xb
 4437 023a 3B       		.uleb128 0x3b
 4438 023b 0B       		.uleb128 0xb
 4439 023c 49       		.uleb128 0x49
 4440 023d 13       		.uleb128 0x13
 4441 023e 00       		.byte	0
 4442 023f 00       		.byte	0
 4443 0240 2A       		.uleb128 0x2a
 4444 0241 34       		.uleb128 0x34
 4445 0242 00       		.byte	0
 4446 0243 03       		.uleb128 0x3
 4447 0244 0E       		.uleb128 0xe
 4448 0245 3A       		.uleb128 0x3a
 4449 0246 0B       		.uleb128 0xb
 4450 0247 3B       		.uleb128 0x3b
 4451 0248 05       		.uleb128 0x5
 4452 0249 49       		.uleb128 0x49
 4453 024a 13       		.uleb128 0x13
 4454 024b 3F       		.uleb128 0x3f
 4455 024c 19       		.uleb128 0x19
 4456 024d 3C       		.uleb128 0x3c
 4457 024e 19       		.uleb128 0x19
 4458 024f 00       		.byte	0
 4459 0250 00       		.byte	0
 4460 0251 00       		.byte	0
 4461              		.section	.debug_loc,"",%progbits
 4462              	.Ldebug_loc0:
 4463              	.LLST0:
 4464 0000 00000000 		.4byte	.LVL0
 4465 0004 04000000 		.4byte	.LVL1
 4466 0008 0100     		.2byte	0x1
 4467 000a 51       		.byte	0x51
 4468 000b 04000000 		.4byte	.LVL1
 4469 000f 1E000000 		.4byte	.LFE45
 4470 0013 0400     		.2byte	0x4
 4471 0015 F3       		.byte	0xf3
 4472 0016 01       		.uleb128 0x1
 4473 0017 51       		.byte	0x51
 4474 0018 9F       		.byte	0x9f
 4475 0019 00000000 		.4byte	0
 4476 001d 00000000 		.4byte	0
 4477              	.LLST1:
 4478 0021 00000000 		.4byte	.LVL0
ARM GAS  C:\Users\codyg\AppData\Local\Temp\ccRbtLKH.s 			page 113


 4479 0025 18000000 		.4byte	.LVL2
 4480 0029 0100     		.2byte	0x1
 4481 002b 52       		.byte	0x52
 4482 002c 18000000 		.4byte	.LVL2
 4483 0030 1E000000 		.4byte	.LFE45
 4484 0034 0400     		.2byte	0x4
 4485 0036 F3       		.byte	0xf3
 4486 0037 01       		.uleb128 0x1
 4487 0038 52       		.byte	0x52
 4488 0039 9F       		.byte	0x9f
 4489 003a 00000000 		.4byte	0
 4490 003e 00000000 		.4byte	0
 4491              	.LLST2:
 4492 0042 00000000 		.4byte	.LVL3
 4493 0046 0A000000 		.4byte	.LVL5
 4494 004a 0100     		.2byte	0x1
 4495 004c 50       		.byte	0x50
 4496 004d 0A000000 		.4byte	.LVL5
 4497 0051 1C000000 		.4byte	.LVL11
 4498 0055 0100     		.2byte	0x1
 4499 0057 56       		.byte	0x56
 4500 0058 1C000000 		.4byte	.LVL11
 4501 005c 1E000000 		.4byte	.LFE44
 4502 0060 0400     		.2byte	0x4
 4503 0062 F3       		.byte	0xf3
 4504 0063 01       		.uleb128 0x1
 4505 0064 50       		.byte	0x50
 4506 0065 9F       		.byte	0x9f
 4507 0066 00000000 		.4byte	0
 4508 006a 00000000 		.4byte	0
 4509              	.LLST3:
 4510 006e 00000000 		.4byte	.LVL3
 4511 0072 0A000000 		.4byte	.LVL5
 4512 0076 0100     		.2byte	0x1
 4513 0078 51       		.byte	0x51
 4514 0079 0A000000 		.4byte	.LVL5
 4515 007d 1C000000 		.4byte	.LVL10
 4516 0081 0100     		.2byte	0x1
 4517 0083 55       		.byte	0x55
 4518 0084 1C000000 		.4byte	.LVL10
 4519 0088 1E000000 		.4byte	.LFE44
 4520 008c 0400     		.2byte	0x4
 4521 008e F3       		.byte	0xf3
 4522 008f 01       		.uleb128 0x1
 4523 0090 51       		.byte	0x51
 4524 0091 9F       		.byte	0x9f
 4525 0092 00000000 		.4byte	0
 4526 0096 00000000 		.4byte	0
 4527              	.LLST4:
 4528 009a 06000000 		.4byte	.LVL4
 4529 009e 0A000000 		.4byte	.LVL5
 4530 00a2 0200     		.2byte	0x2
 4531 00a4 31       		.byte	0x31
 4532 00a5 9F       		.byte	0x9f
 4533 00a6 0A000000 		.4byte	.LVL5
 4534 00aa 16000000 		.4byte	.LVL7
 4535 00ae 0100     		.2byte	0x1
ARM GAS  C:\Users\codyg\AppData\Local\Temp\ccRbtLKH.s 			page 114


 4536 00b0 54       		.byte	0x54
 4537 00b1 16000000 		.4byte	.LVL7
 4538 00b5 18000000 		.4byte	.LVL8
 4539 00b9 0100     		.2byte	0x1
 4540 00bb 53       		.byte	0x53
 4541 00bc 18000000 		.4byte	.LVL8
 4542 00c0 1C000000 		.4byte	.LVL9
 4543 00c4 0100     		.2byte	0x1
 4544 00c6 54       		.byte	0x54
 4545 00c7 1C000000 		.4byte	.LVL9
 4546 00cb 1E000000 		.4byte	.LFE44
 4547 00cf 0300     		.2byte	0x3
 4548 00d1 73       		.byte	0x73
 4549 00d2 7F       		.sleb128 -1
 4550 00d3 9F       		.byte	0x9f
 4551 00d4 00000000 		.4byte	0
 4552 00d8 00000000 		.4byte	0
 4553              	.LLST5:
 4554 00dc 00000000 		.4byte	.LVL12
 4555 00e0 20000000 		.4byte	.LVL17
 4556 00e4 0100     		.2byte	0x1
 4557 00e6 50       		.byte	0x50
 4558 00e7 20000000 		.4byte	.LVL17
 4559 00eb 2C000000 		.4byte	.LFE43
 4560 00ef 0400     		.2byte	0x4
 4561 00f1 F3       		.byte	0xf3
 4562 00f2 01       		.uleb128 0x1
 4563 00f3 50       		.byte	0x50
 4564 00f4 9F       		.byte	0x9f
 4565 00f5 00000000 		.4byte	0
 4566 00f9 00000000 		.4byte	0
 4567              	.LLST6:
 4568 00fd 00000000 		.4byte	.LVL12
 4569 0101 12000000 		.4byte	.LVL15
 4570 0105 0100     		.2byte	0x1
 4571 0107 51       		.byte	0x51
 4572 0108 12000000 		.4byte	.LVL15
 4573 010c 2C000000 		.4byte	.LFE43
 4574 0110 0400     		.2byte	0x4
 4575 0112 F3       		.byte	0xf3
 4576 0113 01       		.uleb128 0x1
 4577 0114 51       		.byte	0x51
 4578 0115 9F       		.byte	0x9f
 4579 0116 00000000 		.4byte	0
 4580 011a 00000000 		.4byte	0
 4581              	.LLST7:
 4582 011e 02000000 		.4byte	.LVL13
 4583 0122 0E000000 		.4byte	.LVL14
 4584 0126 0200     		.2byte	0x2
 4585 0128 30       		.byte	0x30
 4586 0129 9F       		.byte	0x9f
 4587 012a 0E000000 		.4byte	.LVL14
 4588 012e 16000000 		.4byte	.LVL16
 4589 0132 0100     		.2byte	0x1
 4590 0134 55       		.byte	0x55
 4591 0135 16000000 		.4byte	.LVL16
 4592 0139 23000000 		.4byte	.LVL18-1
ARM GAS  C:\Users\codyg\AppData\Local\Temp\ccRbtLKH.s 			page 115


 4593 013d 0100     		.2byte	0x1
 4594 013f 52       		.byte	0x52
 4595 0140 23000000 		.4byte	.LVL18-1
 4596 0144 24000000 		.4byte	.LVL19
 4597 0148 0F00     		.2byte	0xf
 4598 014a F3       		.byte	0xf3
 4599 014b 01       		.uleb128 0x1
 4600 014c 51       		.byte	0x51
 4601 014d 32       		.byte	0x32
 4602 014e 24       		.byte	0x24
 4603 014f F3       		.byte	0xf3
 4604 0150 01       		.uleb128 0x1
 4605 0151 51       		.byte	0x51
 4606 0152 22       		.byte	0x22
 4607 0153 31       		.byte	0x31
 4608 0154 24       		.byte	0x24
 4609 0155 75       		.byte	0x75
 4610 0156 00       		.sleb128 0
 4611 0157 22       		.byte	0x22
 4612 0158 9F       		.byte	0x9f
 4613 0159 00000000 		.4byte	0
 4614 015d 00000000 		.4byte	0
 4615              	.LLST8:
 4616 0161 00000000 		.4byte	.LVL20
 4617 0165 12000000 		.4byte	.LVL23
 4618 0169 0100     		.2byte	0x1
 4619 016b 50       		.byte	0x50
 4620 016c 12000000 		.4byte	.LVL23
 4621 0170 22000000 		.4byte	.LVL28
 4622 0174 0100     		.2byte	0x1
 4623 0176 55       		.byte	0x55
 4624 0177 22000000 		.4byte	.LVL28
 4625 017b 28000000 		.4byte	.LFE42
 4626 017f 0400     		.2byte	0x4
 4627 0181 F3       		.byte	0xf3
 4628 0182 01       		.uleb128 0x1
 4629 0183 50       		.byte	0x50
 4630 0184 9F       		.byte	0x9f
 4631 0185 00000000 		.4byte	0
 4632 0189 00000000 		.4byte	0
 4633              	.LLST9:
 4634 018d 10000000 		.4byte	.LVL22
 4635 0191 12000000 		.4byte	.LVL23
 4636 0195 0100     		.2byte	0x1
 4637 0197 53       		.byte	0x53
 4638 0198 12000000 		.4byte	.LVL23
 4639 019c 1C000000 		.4byte	.LVL25
 4640 01a0 0100     		.2byte	0x1
 4641 01a2 54       		.byte	0x54
 4642 01a3 1C000000 		.4byte	.LVL25
 4643 01a7 1E000000 		.4byte	.LVL26
 4644 01ab 0100     		.2byte	0x1
 4645 01ad 53       		.byte	0x53
 4646 01ae 1E000000 		.4byte	.LVL26
 4647 01b2 22000000 		.4byte	.LVL27
 4648 01b6 0100     		.2byte	0x1
 4649 01b8 54       		.byte	0x54
ARM GAS  C:\Users\codyg\AppData\Local\Temp\ccRbtLKH.s 			page 116


 4650 01b9 22000000 		.4byte	.LVL27
 4651 01bd 28000000 		.4byte	.LFE42
 4652 01c1 0300     		.2byte	0x3
 4653 01c3 73       		.byte	0x73
 4654 01c4 7F       		.sleb128 -1
 4655 01c5 9F       		.byte	0x9f
 4656 01c6 00000000 		.4byte	0
 4657 01ca 00000000 		.4byte	0
 4658              	.LLST10:
 4659 01ce 10000000 		.4byte	.LVL22
 4660 01d2 12000000 		.4byte	.LVL23
 4661 01d6 0100     		.2byte	0x1
 4662 01d8 53       		.byte	0x53
 4663 01d9 00000000 		.4byte	0
 4664 01dd 00000000 		.4byte	0
 4665              	.LLST11:
 4666 01e1 02000000 		.4byte	.LVL29
 4667 01e5 06000000 		.4byte	.LVL30
 4668 01e9 0200     		.2byte	0x2
 4669 01eb 31       		.byte	0x31
 4670 01ec 9F       		.byte	0x9f
 4671 01ed 06000000 		.4byte	.LVL30
 4672 01f1 0E000000 		.4byte	.LVL32
 4673 01f5 0100     		.2byte	0x1
 4674 01f7 54       		.byte	0x54
 4675 01f8 0E000000 		.4byte	.LVL32
 4676 01fc 10000000 		.4byte	.LVL33
 4677 0200 0100     		.2byte	0x1
 4678 0202 53       		.byte	0x53
 4679 0203 10000000 		.4byte	.LVL33
 4680 0207 14000000 		.4byte	.LVL34
 4681 020b 0100     		.2byte	0x1
 4682 020d 54       		.byte	0x54
 4683 020e 14000000 		.4byte	.LVL34
 4684 0212 16000000 		.4byte	.LFE41
 4685 0216 0300     		.2byte	0x3
 4686 0218 73       		.byte	0x73
 4687 0219 7F       		.sleb128 -1
 4688 021a 9F       		.byte	0x9f
 4689 021b 00000000 		.4byte	0
 4690 021f 00000000 		.4byte	0
 4691              	.LLST12:
 4692 0223 02000000 		.4byte	.LVL36
 4693 0227 06000000 		.4byte	.LVL37
 4694 022b 0200     		.2byte	0x2
 4695 022d 31       		.byte	0x31
 4696 022e 9F       		.byte	0x9f
 4697 022f 06000000 		.4byte	.LVL37
 4698 0233 1A000000 		.4byte	.LVL38
 4699 0237 0100     		.2byte	0x1
 4700 0239 54       		.byte	0x54
 4701 023a 1A000000 		.4byte	.LVL38
 4702 023e 1C000000 		.4byte	.LVL39
 4703 0242 0100     		.2byte	0x1
 4704 0244 53       		.byte	0x53
 4705 0245 1C000000 		.4byte	.LVL39
 4706 0249 20000000 		.4byte	.LVL40
ARM GAS  C:\Users\codyg\AppData\Local\Temp\ccRbtLKH.s 			page 117


 4707 024d 0100     		.2byte	0x1
 4708 024f 54       		.byte	0x54
 4709 0250 20000000 		.4byte	.LVL40
 4710 0254 22000000 		.4byte	.LFE50
 4711 0258 0300     		.2byte	0x3
 4712 025a 73       		.byte	0x73
 4713 025b 7F       		.sleb128 -1
 4714 025c 9F       		.byte	0x9f
 4715 025d 00000000 		.4byte	0
 4716 0261 00000000 		.4byte	0
 4717              	.LLST13:
 4718 0265 00000000 		.4byte	.LVL41
 4719 0269 34000000 		.4byte	.LVL47
 4720 026d 0100     		.2byte	0x1
 4721 026f 50       		.byte	0x50
 4722 0270 34000000 		.4byte	.LVL47
 4723 0274 40000000 		.4byte	.LFE48
 4724 0278 0400     		.2byte	0x4
 4725 027a F3       		.byte	0xf3
 4726 027b 01       		.uleb128 0x1
 4727 027c 50       		.byte	0x50
 4728 027d 9F       		.byte	0x9f
 4729 027e 00000000 		.4byte	0
 4730 0282 00000000 		.4byte	0
 4731              	.LLST14:
 4732 0286 00000000 		.4byte	.LVL41
 4733 028a 32000000 		.4byte	.LVL46
 4734 028e 0100     		.2byte	0x1
 4735 0290 51       		.byte	0x51
 4736 0291 32000000 		.4byte	.LVL46
 4737 0295 40000000 		.4byte	.LFE48
 4738 0299 0400     		.2byte	0x4
 4739 029b F3       		.byte	0xf3
 4740 029c 01       		.uleb128 0x1
 4741 029d 51       		.byte	0x51
 4742 029e 9F       		.byte	0x9f
 4743 029f 00000000 		.4byte	0
 4744 02a3 00000000 		.4byte	0
 4745              	.LLST15:
 4746 02a7 02000000 		.4byte	.LVL42
 4747 02ab 0C000000 		.4byte	.LVL43
 4748 02af 0200     		.2byte	0x2
 4749 02b1 30       		.byte	0x30
 4750 02b2 9F       		.byte	0x9f
 4751 02b3 0C000000 		.4byte	.LVL43
 4752 02b7 18000000 		.4byte	.LVL44
 4753 02bb 0200     		.2byte	0x2
 4754 02bd 72       		.byte	0x72
 4755 02be 08       		.sleb128 8
 4756 02bf 18000000 		.4byte	.LVL44
 4757 02c3 38000000 		.4byte	.LVL50
 4758 02c7 0100     		.2byte	0x1
 4759 02c9 55       		.byte	0x55
 4760 02ca 38000000 		.4byte	.LVL50
 4761 02ce 38000000 		.4byte	.LVL51
 4762 02d2 1E00     		.2byte	0x1e
 4763 02d4 F3       		.byte	0xf3
ARM GAS  C:\Users\codyg\AppData\Local\Temp\ccRbtLKH.s 			page 118


 4764 02d5 01       		.uleb128 0x1
 4765 02d6 51       		.byte	0x51
 4766 02d7 32       		.byte	0x32
 4767 02d8 24       		.byte	0x24
 4768 02d9 F3       		.byte	0xf3
 4769 02da 01       		.uleb128 0x1
 4770 02db 51       		.byte	0x51
 4771 02dc 22       		.byte	0x22
 4772 02dd 31       		.byte	0x31
 4773 02de 24       		.byte	0x24
 4774 02df F3       		.byte	0xf3
 4775 02e0 01       		.uleb128 0x1
 4776 02e1 50       		.byte	0x50
 4777 02e2 33       		.byte	0x33
 4778 02e3 24       		.byte	0x24
 4779 02e4 F3       		.byte	0xf3
 4780 02e5 01       		.uleb128 0x1
 4781 02e6 50       		.byte	0x50
 4782 02e7 1C       		.byte	0x1c
 4783 02e8 32       		.byte	0x32
 4784 02e9 24       		.byte	0x24
 4785 02ea 76       		.byte	0x76
 4786 02eb 00       		.sleb128 0
 4787 02ec 22       		.byte	0x22
 4788 02ed 23       		.byte	0x23
 4789 02ee 08       		.uleb128 0x8
 4790 02ef 06       		.byte	0x6
 4791 02f0 22       		.byte	0x22
 4792 02f1 9F       		.byte	0x9f
 4793 02f2 00000000 		.4byte	0
 4794 02f6 00000000 		.4byte	0
 4795              	.LLST16:
 4796 02fa 32000000 		.4byte	.LVL46
 4797 02fe 38000000 		.4byte	.LVL49
 4798 0302 0100     		.2byte	0x1
 4799 0304 54       		.byte	0x54
 4800 0305 00000000 		.4byte	0
 4801 0309 00000000 		.4byte	0
 4802              	.LLST17:
 4803 030d 02000000 		.4byte	.LVL53
 4804 0311 06000000 		.4byte	.LVL54
 4805 0315 0200     		.2byte	0x2
 4806 0317 31       		.byte	0x31
 4807 0318 9F       		.byte	0x9f
 4808 0319 06000000 		.4byte	.LVL54
 4809 031d 20000000 		.4byte	.LVL55
 4810 0321 0100     		.2byte	0x1
 4811 0323 54       		.byte	0x54
 4812 0324 20000000 		.4byte	.LVL55
 4813 0328 22000000 		.4byte	.LVL56
 4814 032c 0100     		.2byte	0x1
 4815 032e 53       		.byte	0x53
 4816 032f 22000000 		.4byte	.LVL56
 4817 0333 26000000 		.4byte	.LVL57
 4818 0337 0100     		.2byte	0x1
 4819 0339 54       		.byte	0x54
 4820 033a 26000000 		.4byte	.LVL57
ARM GAS  C:\Users\codyg\AppData\Local\Temp\ccRbtLKH.s 			page 119


 4821 033e 28000000 		.4byte	.LFE54
 4822 0342 0300     		.2byte	0x3
 4823 0344 73       		.byte	0x73
 4824 0345 7F       		.sleb128 -1
 4825 0346 9F       		.byte	0x9f
 4826 0347 00000000 		.4byte	0
 4827 034b 00000000 		.4byte	0
 4828              	.LLST18:
 4829 034f 00000000 		.4byte	.LVL58
 4830 0353 34000000 		.4byte	.LVL64
 4831 0357 0100     		.2byte	0x1
 4832 0359 50       		.byte	0x50
 4833 035a 34000000 		.4byte	.LVL64
 4834 035e 40000000 		.4byte	.LFE52
 4835 0362 0400     		.2byte	0x4
 4836 0364 F3       		.byte	0xf3
 4837 0365 01       		.uleb128 0x1
 4838 0366 50       		.byte	0x50
 4839 0367 9F       		.byte	0x9f
 4840 0368 00000000 		.4byte	0
 4841 036c 00000000 		.4byte	0
 4842              	.LLST19:
 4843 0370 00000000 		.4byte	.LVL58
 4844 0374 32000000 		.4byte	.LVL63
 4845 0378 0100     		.2byte	0x1
 4846 037a 51       		.byte	0x51
 4847 037b 32000000 		.4byte	.LVL63
 4848 037f 40000000 		.4byte	.LFE52
 4849 0383 0400     		.2byte	0x4
 4850 0385 F3       		.byte	0xf3
 4851 0386 01       		.uleb128 0x1
 4852 0387 51       		.byte	0x51
 4853 0388 9F       		.byte	0x9f
 4854 0389 00000000 		.4byte	0
 4855 038d 00000000 		.4byte	0
 4856              	.LLST20:
 4857 0391 02000000 		.4byte	.LVL59
 4858 0395 0C000000 		.4byte	.LVL60
 4859 0399 0200     		.2byte	0x2
 4860 039b 30       		.byte	0x30
 4861 039c 9F       		.byte	0x9f
 4862 039d 0C000000 		.4byte	.LVL60
 4863 03a1 18000000 		.4byte	.LVL61
 4864 03a5 0200     		.2byte	0x2
 4865 03a7 72       		.byte	0x72
 4866 03a8 08       		.sleb128 8
 4867 03a9 18000000 		.4byte	.LVL61
 4868 03ad 38000000 		.4byte	.LVL67
 4869 03b1 0100     		.2byte	0x1
 4870 03b3 55       		.byte	0x55
 4871 03b4 38000000 		.4byte	.LVL67
 4872 03b8 38000000 		.4byte	.LVL68
 4873 03bc 1E00     		.2byte	0x1e
 4874 03be F3       		.byte	0xf3
 4875 03bf 01       		.uleb128 0x1
 4876 03c0 51       		.byte	0x51
 4877 03c1 32       		.byte	0x32
ARM GAS  C:\Users\codyg\AppData\Local\Temp\ccRbtLKH.s 			page 120


 4878 03c2 24       		.byte	0x24
 4879 03c3 F3       		.byte	0xf3
 4880 03c4 01       		.uleb128 0x1
 4881 03c5 51       		.byte	0x51
 4882 03c6 22       		.byte	0x22
 4883 03c7 31       		.byte	0x31
 4884 03c8 24       		.byte	0x24
 4885 03c9 F3       		.byte	0xf3
 4886 03ca 01       		.uleb128 0x1
 4887 03cb 50       		.byte	0x50
 4888 03cc 33       		.byte	0x33
 4889 03cd 24       		.byte	0x24
 4890 03ce F3       		.byte	0xf3
 4891 03cf 01       		.uleb128 0x1
 4892 03d0 50       		.byte	0x50
 4893 03d1 1C       		.byte	0x1c
 4894 03d2 32       		.byte	0x32
 4895 03d3 24       		.byte	0x24
 4896 03d4 76       		.byte	0x76
 4897 03d5 00       		.sleb128 0
 4898 03d6 22       		.byte	0x22
 4899 03d7 23       		.byte	0x23
 4900 03d8 08       		.uleb128 0x8
 4901 03d9 06       		.byte	0x6
 4902 03da 22       		.byte	0x22
 4903 03db 9F       		.byte	0x9f
 4904 03dc 00000000 		.4byte	0
 4905 03e0 00000000 		.4byte	0
 4906              	.LLST21:
 4907 03e4 32000000 		.4byte	.LVL63
 4908 03e8 38000000 		.4byte	.LVL66
 4909 03ec 0100     		.2byte	0x1
 4910 03ee 54       		.byte	0x54
 4911 03ef 00000000 		.4byte	0
 4912 03f3 00000000 		.4byte	0
 4913              	.LLST22:
 4914 03f7 02000000 		.4byte	.LVL70
 4915 03fb 06000000 		.4byte	.LVL71
 4916 03ff 0200     		.2byte	0x2
 4917 0401 31       		.byte	0x31
 4918 0402 9F       		.byte	0x9f
 4919 0403 06000000 		.4byte	.LVL71
 4920 0407 24000000 		.4byte	.LVL72
 4921 040b 0100     		.2byte	0x1
 4922 040d 54       		.byte	0x54
 4923 040e 24000000 		.4byte	.LVL72
 4924 0412 26000000 		.4byte	.LVL73
 4925 0416 0100     		.2byte	0x1
 4926 0418 53       		.byte	0x53
 4927 0419 26000000 		.4byte	.LVL73
 4928 041d 2A000000 		.4byte	.LVL74
 4929 0421 0100     		.2byte	0x1
 4930 0423 54       		.byte	0x54
 4931 0424 2A000000 		.4byte	.LVL74
 4932 0428 2C000000 		.4byte	.LFE58
 4933 042c 0300     		.2byte	0x3
 4934 042e 73       		.byte	0x73
ARM GAS  C:\Users\codyg\AppData\Local\Temp\ccRbtLKH.s 			page 121


 4935 042f 7F       		.sleb128 -1
 4936 0430 9F       		.byte	0x9f
 4937 0431 00000000 		.4byte	0
 4938 0435 00000000 		.4byte	0
 4939              	.LLST23:
 4940 0439 00000000 		.4byte	.LVL75
 4941 043d 16000000 		.4byte	.LVL78
 4942 0441 0100     		.2byte	0x1
 4943 0443 50       		.byte	0x50
 4944 0444 16000000 		.4byte	.LVL78
 4945 0448 66000000 		.4byte	.LVL92
 4946 044c 0100     		.2byte	0x1
 4947 044e 58       		.byte	0x58
 4948 044f 66000000 		.4byte	.LVL92
 4949 0453 70000000 		.4byte	.LFE47
 4950 0457 0400     		.2byte	0x4
 4951 0459 F3       		.byte	0xf3
 4952 045a 01       		.uleb128 0x1
 4953 045b 50       		.byte	0x50
 4954 045c 9F       		.byte	0x9f
 4955 045d 00000000 		.4byte	0
 4956 0461 00000000 		.4byte	0
 4957              	.LLST24:
 4958 0465 14000000 		.4byte	.LVL77
 4959 0469 16000000 		.4byte	.LVL78
 4960 046d 0100     		.2byte	0x1
 4961 046f 53       		.byte	0x53
 4962 0470 16000000 		.4byte	.LVL78
 4963 0474 60000000 		.4byte	.LVL88
 4964 0478 0100     		.2byte	0x1
 4965 047a 57       		.byte	0x57
 4966 047b 60000000 		.4byte	.LVL88
 4967 047f 62000000 		.4byte	.LVL89
 4968 0483 0100     		.2byte	0x1
 4969 0485 53       		.byte	0x53
 4970 0486 62000000 		.4byte	.LVL89
 4971 048a 66000000 		.4byte	.LVL91
 4972 048e 0100     		.2byte	0x1
 4973 0490 57       		.byte	0x57
 4974 0491 66000000 		.4byte	.LVL91
 4975 0495 70000000 		.4byte	.LFE47
 4976 0499 0300     		.2byte	0x3
 4977 049b 73       		.byte	0x73
 4978 049c 7F       		.sleb128 -1
 4979 049d 9F       		.byte	0x9f
 4980 049e 00000000 		.4byte	0
 4981 04a2 00000000 		.4byte	0
 4982              	.LLST25:
 4983 04a6 14000000 		.4byte	.LVL77
 4984 04aa 16000000 		.4byte	.LVL78
 4985 04ae 0100     		.2byte	0x1
 4986 04b0 53       		.byte	0x53
 4987 04b1 20000000 		.4byte	.LVL79
 4988 04b5 24000000 		.4byte	.LVL81
 4989 04b9 1500     		.2byte	0x15
 4990 04bb 78       		.byte	0x78
 4991 04bc 00       		.sleb128 0
ARM GAS  C:\Users\codyg\AppData\Local\Temp\ccRbtLKH.s 			page 122


 4992 04bd 33       		.byte	0x33
 4993 04be 24       		.byte	0x24
 4994 04bf 78       		.byte	0x78
 4995 04c0 00       		.sleb128 0
 4996 04c1 1C       		.byte	0x1c
 4997 04c2 32       		.byte	0x32
 4998 04c3 24       		.byte	0x24
 4999 04c4 72       		.byte	0x72
 5000 04c5 00       		.sleb128 0
 5001 04c6 22       		.byte	0x22
 5002 04c7 23       		.byte	0x23
 5003 04c8 18       		.uleb128 0x18
 5004 04c9 94       		.byte	0x94
 5005 04ca 02       		.byte	0x2
 5006 04cb 0A       		.byte	0xa
 5007 04cc FFFF     		.2byte	0xffff
 5008 04ce 1A       		.byte	0x1a
 5009 04cf 9F       		.byte	0x9f
 5010 04d0 00000000 		.4byte	0
 5011 04d4 00000000 		.4byte	0
 5012              	.LLST26:
 5013 04d8 08000000 		.4byte	.LVL76
 5014 04dc 16000000 		.4byte	.LVL78
 5015 04e0 0200     		.2byte	0x2
 5016 04e2 30       		.byte	0x30
 5017 04e3 9F       		.byte	0x9f
 5018 04e4 22000000 		.4byte	.LVL80
 5019 04e8 2E000000 		.4byte	.LVL82
 5020 04ec 0200     		.2byte	0x2
 5021 04ee 73       		.byte	0x73
 5022 04ef 08       		.sleb128 8
 5023 04f0 2E000000 		.4byte	.LVL82
 5024 04f4 60000000 		.4byte	.LVL88
 5025 04f8 0100     		.2byte	0x1
 5026 04fa 54       		.byte	0x54
 5027 04fb 00000000 		.4byte	0
 5028 04ff 00000000 		.4byte	0
 5029              	.LLST27:
 5030 0503 16000000 		.4byte	.LVL78
 5031 0507 32000000 		.4byte	.LVL83
 5032 050b 0100     		.2byte	0x1
 5033 050d 55       		.byte	0x55
 5034 050e 44000000 		.4byte	.LVL84
 5035 0512 66000000 		.4byte	.LVL90
 5036 0516 0100     		.2byte	0x1
 5037 0518 55       		.byte	0x55
 5038 0519 00000000 		.4byte	0
 5039 051d 00000000 		.4byte	0
 5040              	.LLST28:
 5041 0521 02000000 		.4byte	.LVL93
 5042 0525 06000000 		.4byte	.LVL94
 5043 0529 0200     		.2byte	0x2
 5044 052b 31       		.byte	0x31
 5045 052c 9F       		.byte	0x9f
 5046 052d 06000000 		.4byte	.LVL94
 5047 0531 0E000000 		.4byte	.LVL96
 5048 0535 0100     		.2byte	0x1
ARM GAS  C:\Users\codyg\AppData\Local\Temp\ccRbtLKH.s 			page 123


 5049 0537 54       		.byte	0x54
 5050 0538 0E000000 		.4byte	.LVL96
 5051 053c 10000000 		.4byte	.LVL97
 5052 0540 0100     		.2byte	0x1
 5053 0542 53       		.byte	0x53
 5054 0543 10000000 		.4byte	.LVL97
 5055 0547 14000000 		.4byte	.LVL98
 5056 054b 0100     		.2byte	0x1
 5057 054d 54       		.byte	0x54
 5058 054e 14000000 		.4byte	.LVL98
 5059 0552 16000000 		.4byte	.LFE46
 5060 0556 0300     		.2byte	0x3
 5061 0558 73       		.byte	0x73
 5062 0559 7F       		.sleb128 -1
 5063 055a 9F       		.byte	0x9f
 5064 055b 00000000 		.4byte	0
 5065 055f 00000000 		.4byte	0
 5066              	.LLST29:
 5067 0563 00000000 		.4byte	.LVL100
 5068 0567 34000000 		.4byte	.LVL106
 5069 056b 0100     		.2byte	0x1
 5070 056d 50       		.byte	0x50
 5071 056e 34000000 		.4byte	.LVL106
 5072 0572 40000000 		.4byte	.LFE56
 5073 0576 0400     		.2byte	0x4
 5074 0578 F3       		.byte	0xf3
 5075 0579 01       		.uleb128 0x1
 5076 057a 50       		.byte	0x50
 5077 057b 9F       		.byte	0x9f
 5078 057c 00000000 		.4byte	0
 5079 0580 00000000 		.4byte	0
 5080              	.LLST30:
 5081 0584 00000000 		.4byte	.LVL100
 5082 0588 32000000 		.4byte	.LVL105
 5083 058c 0100     		.2byte	0x1
 5084 058e 51       		.byte	0x51
 5085 058f 32000000 		.4byte	.LVL105
 5086 0593 40000000 		.4byte	.LFE56
 5087 0597 0400     		.2byte	0x4
 5088 0599 F3       		.byte	0xf3
 5089 059a 01       		.uleb128 0x1
 5090 059b 51       		.byte	0x51
 5091 059c 9F       		.byte	0x9f
 5092 059d 00000000 		.4byte	0
 5093 05a1 00000000 		.4byte	0
 5094              	.LLST31:
 5095 05a5 02000000 		.4byte	.LVL101
 5096 05a9 0C000000 		.4byte	.LVL102
 5097 05ad 0200     		.2byte	0x2
 5098 05af 30       		.byte	0x30
 5099 05b0 9F       		.byte	0x9f
 5100 05b1 0C000000 		.4byte	.LVL102
 5101 05b5 18000000 		.4byte	.LVL103
 5102 05b9 0200     		.2byte	0x2
 5103 05bb 72       		.byte	0x72
 5104 05bc 08       		.sleb128 8
 5105 05bd 18000000 		.4byte	.LVL103
ARM GAS  C:\Users\codyg\AppData\Local\Temp\ccRbtLKH.s 			page 124


 5106 05c1 38000000 		.4byte	.LVL109
 5107 05c5 0100     		.2byte	0x1
 5108 05c7 55       		.byte	0x55
 5109 05c8 38000000 		.4byte	.LVL109
 5110 05cc 38000000 		.4byte	.LVL110
 5111 05d0 1E00     		.2byte	0x1e
 5112 05d2 F3       		.byte	0xf3
 5113 05d3 01       		.uleb128 0x1
 5114 05d4 51       		.byte	0x51
 5115 05d5 32       		.byte	0x32
 5116 05d6 24       		.byte	0x24
 5117 05d7 F3       		.byte	0xf3
 5118 05d8 01       		.uleb128 0x1
 5119 05d9 51       		.byte	0x51
 5120 05da 22       		.byte	0x22
 5121 05db 31       		.byte	0x31
 5122 05dc 24       		.byte	0x24
 5123 05dd F3       		.byte	0xf3
 5124 05de 01       		.uleb128 0x1
 5125 05df 50       		.byte	0x50
 5126 05e0 33       		.byte	0x33
 5127 05e1 24       		.byte	0x24
 5128 05e2 F3       		.byte	0xf3
 5129 05e3 01       		.uleb128 0x1
 5130 05e4 50       		.byte	0x50
 5131 05e5 1C       		.byte	0x1c
 5132 05e6 32       		.byte	0x32
 5133 05e7 24       		.byte	0x24
 5134 05e8 76       		.byte	0x76
 5135 05e9 00       		.sleb128 0
 5136 05ea 22       		.byte	0x22
 5137 05eb 23       		.byte	0x23
 5138 05ec 08       		.uleb128 0x8
 5139 05ed 06       		.byte	0x6
 5140 05ee 22       		.byte	0x22
 5141 05ef 9F       		.byte	0x9f
 5142 05f0 00000000 		.4byte	0
 5143 05f4 00000000 		.4byte	0
 5144              	.LLST32:
 5145 05f8 32000000 		.4byte	.LVL105
 5146 05fc 38000000 		.4byte	.LVL108
 5147 0600 0100     		.2byte	0x1
 5148 0602 54       		.byte	0x54
 5149 0603 00000000 		.4byte	0
 5150 0607 00000000 		.4byte	0
 5151              	.LLST33:
 5152 060b 02000000 		.4byte	.LVL112
 5153 060f 06000000 		.4byte	.LVL113
 5154 0613 0200     		.2byte	0x2
 5155 0615 31       		.byte	0x31
 5156 0616 9F       		.byte	0x9f
 5157 0617 06000000 		.4byte	.LVL113
 5158 061b 3A000000 		.4byte	.LVL116
 5159 061f 0100     		.2byte	0x1
 5160 0621 54       		.byte	0x54
 5161 0622 3A000000 		.4byte	.LVL116
 5162 0626 3C000000 		.4byte	.LVL117
ARM GAS  C:\Users\codyg\AppData\Local\Temp\ccRbtLKH.s 			page 125


 5163 062a 0100     		.2byte	0x1
 5164 062c 53       		.byte	0x53
 5165 062d 3C000000 		.4byte	.LVL117
 5166 0631 40000000 		.4byte	.LVL118
 5167 0635 0100     		.2byte	0x1
 5168 0637 54       		.byte	0x54
 5169 0638 40000000 		.4byte	.LVL118
 5170 063c 42000000 		.4byte	.LFE59
 5171 0640 0300     		.2byte	0x3
 5172 0642 73       		.byte	0x73
 5173 0643 7F       		.sleb128 -1
 5174 0644 9F       		.byte	0x9f
 5175 0645 00000000 		.4byte	0
 5176 0649 00000000 		.4byte	0
 5177              	.LLST34:
 5178 064d 2A000000 		.4byte	.LVL114
 5179 0651 38000000 		.4byte	.LVL115
 5180 0655 0100     		.2byte	0x1
 5181 0657 55       		.byte	0x55
 5182 0658 00000000 		.4byte	0
 5183 065c 00000000 		.4byte	0
 5184              	.LLST35:
 5185 0660 00000000 		.4byte	.LVL119
 5186 0664 34000000 		.4byte	.LVL125
 5187 0668 0100     		.2byte	0x1
 5188 066a 50       		.byte	0x50
 5189 066b 34000000 		.4byte	.LVL125
 5190 066f 40000000 		.4byte	.LFE57
 5191 0673 0400     		.2byte	0x4
 5192 0675 F3       		.byte	0xf3
 5193 0676 01       		.uleb128 0x1
 5194 0677 50       		.byte	0x50
 5195 0678 9F       		.byte	0x9f
 5196 0679 00000000 		.4byte	0
 5197 067d 00000000 		.4byte	0
 5198              	.LLST36:
 5199 0681 00000000 		.4byte	.LVL119
 5200 0685 32000000 		.4byte	.LVL124
 5201 0689 0100     		.2byte	0x1
 5202 068b 51       		.byte	0x51
 5203 068c 32000000 		.4byte	.LVL124
 5204 0690 40000000 		.4byte	.LFE57
 5205 0694 0400     		.2byte	0x4
 5206 0696 F3       		.byte	0xf3
 5207 0697 01       		.uleb128 0x1
 5208 0698 51       		.byte	0x51
 5209 0699 9F       		.byte	0x9f
 5210 069a 00000000 		.4byte	0
 5211 069e 00000000 		.4byte	0
 5212              	.LLST37:
 5213 06a2 02000000 		.4byte	.LVL120
 5214 06a6 0C000000 		.4byte	.LVL121
 5215 06aa 0200     		.2byte	0x2
 5216 06ac 30       		.byte	0x30
 5217 06ad 9F       		.byte	0x9f
 5218 06ae 0C000000 		.4byte	.LVL121
 5219 06b2 18000000 		.4byte	.LVL122
ARM GAS  C:\Users\codyg\AppData\Local\Temp\ccRbtLKH.s 			page 126


 5220 06b6 0200     		.2byte	0x2
 5221 06b8 72       		.byte	0x72
 5222 06b9 08       		.sleb128 8
 5223 06ba 18000000 		.4byte	.LVL122
 5224 06be 38000000 		.4byte	.LVL128
 5225 06c2 0100     		.2byte	0x1
 5226 06c4 55       		.byte	0x55
 5227 06c5 38000000 		.4byte	.LVL128
 5228 06c9 38000000 		.4byte	.LVL129
 5229 06cd 1E00     		.2byte	0x1e
 5230 06cf F3       		.byte	0xf3
 5231 06d0 01       		.uleb128 0x1
 5232 06d1 51       		.byte	0x51
 5233 06d2 32       		.byte	0x32
 5234 06d3 24       		.byte	0x24
 5235 06d4 F3       		.byte	0xf3
 5236 06d5 01       		.uleb128 0x1
 5237 06d6 51       		.byte	0x51
 5238 06d7 22       		.byte	0x22
 5239 06d8 31       		.byte	0x31
 5240 06d9 24       		.byte	0x24
 5241 06da F3       		.byte	0xf3
 5242 06db 01       		.uleb128 0x1
 5243 06dc 50       		.byte	0x50
 5244 06dd 33       		.byte	0x33
 5245 06de 24       		.byte	0x24
 5246 06df F3       		.byte	0xf3
 5247 06e0 01       		.uleb128 0x1
 5248 06e1 50       		.byte	0x50
 5249 06e2 1C       		.byte	0x1c
 5250 06e3 32       		.byte	0x32
 5251 06e4 24       		.byte	0x24
 5252 06e5 76       		.byte	0x76
 5253 06e6 00       		.sleb128 0
 5254 06e7 22       		.byte	0x22
 5255 06e8 23       		.byte	0x23
 5256 06e9 08       		.uleb128 0x8
 5257 06ea 06       		.byte	0x6
 5258 06eb 22       		.byte	0x22
 5259 06ec 9F       		.byte	0x9f
 5260 06ed 00000000 		.4byte	0
 5261 06f1 00000000 		.4byte	0
 5262              	.LLST38:
 5263 06f5 32000000 		.4byte	.LVL124
 5264 06f9 38000000 		.4byte	.LVL127
 5265 06fd 0100     		.2byte	0x1
 5266 06ff 54       		.byte	0x54
 5267 0700 00000000 		.4byte	0
 5268 0704 00000000 		.4byte	0
 5269              	.LLST39:
 5270 0708 00000000 		.4byte	.LVL130
 5271 070c 08000000 		.4byte	.LVL131
 5272 0710 0100     		.2byte	0x1
 5273 0712 50       		.byte	0x50
 5274 0713 08000000 		.4byte	.LVL131
 5275 0717 0A000000 		.4byte	.LVL132
 5276 071b 0100     		.2byte	0x1
ARM GAS  C:\Users\codyg\AppData\Local\Temp\ccRbtLKH.s 			page 127


 5277 071d 53       		.byte	0x53
 5278 071e 0A000000 		.4byte	.LVL132
 5279 0722 16000000 		.4byte	.LVL134
 5280 0726 0100     		.2byte	0x1
 5281 0728 50       		.byte	0x50
 5282 0729 00000000 		.4byte	0
 5283 072d 00000000 		.4byte	0
 5284              	.LLST40:
 5285 0731 00000000 		.4byte	.LVL130
 5286 0735 0A000000 		.4byte	.LVL132
 5287 0739 0100     		.2byte	0x1
 5288 073b 51       		.byte	0x51
 5289 073c 0A000000 		.4byte	.LVL132
 5290 0740 18000000 		.4byte	.LFE62
 5291 0744 0100     		.2byte	0x1
 5292 0746 51       		.byte	0x51
 5293 0747 00000000 		.4byte	0
 5294 074b 00000000 		.4byte	0
 5295              	.LLST41:
 5296 074f 00000000 		.4byte	.LVL135
 5297 0753 22000000 		.4byte	.LVL138
 5298 0757 0100     		.2byte	0x1
 5299 0759 50       		.byte	0x50
 5300 075a 28000000 		.4byte	.LVL139
 5301 075e 2E000000 		.4byte	.LVL140
 5302 0762 0100     		.2byte	0x1
 5303 0764 53       		.byte	0x53
 5304 0765 2E000000 		.4byte	.LVL140
 5305 0769 37000000 		.4byte	.LVL141-1
 5306 076d 0100     		.2byte	0x1
 5307 076f 5C       		.byte	0x5c
 5308 0770 46000000 		.4byte	.LVL142
 5309 0774 58000000 		.4byte	.LFE55
 5310 0778 0100     		.2byte	0x1
 5311 077a 50       		.byte	0x50
 5312 077b 00000000 		.4byte	0
 5313 077f 00000000 		.4byte	0
 5314              	.LLST42:
 5315 0783 00000000 		.4byte	.LVL135
 5316 0787 14000000 		.4byte	.LVL137
 5317 078b 0100     		.2byte	0x1
 5318 078d 51       		.byte	0x51
 5319 078e 14000000 		.4byte	.LVL137
 5320 0792 50000000 		.4byte	.LVL145
 5321 0796 0100     		.2byte	0x1
 5322 0798 54       		.byte	0x54
 5323 0799 50000000 		.4byte	.LVL145
 5324 079d 58000000 		.4byte	.LFE55
 5325 07a1 0400     		.2byte	0x4
 5326 07a3 F3       		.byte	0xf3
 5327 07a4 01       		.uleb128 0x1
 5328 07a5 51       		.byte	0x51
 5329 07a6 9F       		.byte	0x9f
 5330 07a7 00000000 		.4byte	0
 5331 07ab 00000000 		.4byte	0
 5332              	.LLST43:
 5333 07af 00000000 		.4byte	.LVL135
ARM GAS  C:\Users\codyg\AppData\Local\Temp\ccRbtLKH.s 			page 128


 5334 07b3 14000000 		.4byte	.LVL137
 5335 07b7 0100     		.2byte	0x1
 5336 07b9 52       		.byte	0x52
 5337 07ba 14000000 		.4byte	.LVL137
 5338 07be 50000000 		.4byte	.LVL147
 5339 07c2 0100     		.2byte	0x1
 5340 07c4 57       		.byte	0x57
 5341 07c5 50000000 		.4byte	.LVL147
 5342 07c9 58000000 		.4byte	.LFE55
 5343 07cd 0400     		.2byte	0x4
 5344 07cf F3       		.byte	0xf3
 5345 07d0 01       		.uleb128 0x1
 5346 07d1 52       		.byte	0x52
 5347 07d2 9F       		.byte	0x9f
 5348 07d3 00000000 		.4byte	0
 5349 07d7 00000000 		.4byte	0
 5350              	.LLST44:
 5351 07db 10000000 		.4byte	.LVL136
 5352 07df 14000000 		.4byte	.LVL137
 5353 07e3 0200     		.2byte	0x2
 5354 07e5 31       		.byte	0x31
 5355 07e6 9F       		.byte	0x9f
 5356 07e7 14000000 		.4byte	.LVL137
 5357 07eb 48000000 		.4byte	.LVL143
 5358 07ef 0100     		.2byte	0x1
 5359 07f1 55       		.byte	0x55
 5360 07f2 48000000 		.4byte	.LVL143
 5361 07f6 4A000000 		.4byte	.LVL144
 5362 07fa 0100     		.2byte	0x1
 5363 07fc 53       		.byte	0x53
 5364 07fd 4A000000 		.4byte	.LVL144
 5365 0801 50000000 		.4byte	.LVL146
 5366 0805 0100     		.2byte	0x1
 5367 0807 55       		.byte	0x55
 5368 0808 50000000 		.4byte	.LVL146
 5369 080c 58000000 		.4byte	.LFE55
 5370 0810 0300     		.2byte	0x3
 5371 0812 73       		.byte	0x73
 5372 0813 7F       		.sleb128 -1
 5373 0814 9F       		.byte	0x9f
 5374 0815 00000000 		.4byte	0
 5375 0819 00000000 		.4byte	0
 5376              	.LLST45:
 5377 081d 38000000 		.4byte	.LVL141
 5378 0821 46000000 		.4byte	.LVL142
 5379 0825 0100     		.2byte	0x1
 5380 0827 50       		.byte	0x50
 5381 0828 00000000 		.4byte	0
 5382 082c 00000000 		.4byte	0
 5383              	.LLST46:
 5384 0830 00000000 		.4byte	.LVL148
 5385 0834 34000000 		.4byte	.LVL154
 5386 0838 0100     		.2byte	0x1
 5387 083a 50       		.byte	0x50
 5388 083b 34000000 		.4byte	.LVL154
 5389 083f 40000000 		.4byte	.LFE53
 5390 0843 0400     		.2byte	0x4
ARM GAS  C:\Users\codyg\AppData\Local\Temp\ccRbtLKH.s 			page 129


 5391 0845 F3       		.byte	0xf3
 5392 0846 01       		.uleb128 0x1
 5393 0847 50       		.byte	0x50
 5394 0848 9F       		.byte	0x9f
 5395 0849 00000000 		.4byte	0
 5396 084d 00000000 		.4byte	0
 5397              	.LLST47:
 5398 0851 00000000 		.4byte	.LVL148
 5399 0855 32000000 		.4byte	.LVL153
 5400 0859 0100     		.2byte	0x1
 5401 085b 51       		.byte	0x51
 5402 085c 32000000 		.4byte	.LVL153
 5403 0860 40000000 		.4byte	.LFE53
 5404 0864 0400     		.2byte	0x4
 5405 0866 F3       		.byte	0xf3
 5406 0867 01       		.uleb128 0x1
 5407 0868 51       		.byte	0x51
 5408 0869 9F       		.byte	0x9f
 5409 086a 00000000 		.4byte	0
 5410 086e 00000000 		.4byte	0
 5411              	.LLST48:
 5412 0872 02000000 		.4byte	.LVL149
 5413 0876 0C000000 		.4byte	.LVL150
 5414 087a 0200     		.2byte	0x2
 5415 087c 30       		.byte	0x30
 5416 087d 9F       		.byte	0x9f
 5417 087e 0C000000 		.4byte	.LVL150
 5418 0882 18000000 		.4byte	.LVL151
 5419 0886 0200     		.2byte	0x2
 5420 0888 72       		.byte	0x72
 5421 0889 08       		.sleb128 8
 5422 088a 18000000 		.4byte	.LVL151
 5423 088e 38000000 		.4byte	.LVL157
 5424 0892 0100     		.2byte	0x1
 5425 0894 55       		.byte	0x55
 5426 0895 38000000 		.4byte	.LVL157
 5427 0899 38000000 		.4byte	.LVL158
 5428 089d 1E00     		.2byte	0x1e
 5429 089f F3       		.byte	0xf3
 5430 08a0 01       		.uleb128 0x1
 5431 08a1 51       		.byte	0x51
 5432 08a2 32       		.byte	0x32
 5433 08a3 24       		.byte	0x24
 5434 08a4 F3       		.byte	0xf3
 5435 08a5 01       		.uleb128 0x1
 5436 08a6 51       		.byte	0x51
 5437 08a7 22       		.byte	0x22
 5438 08a8 31       		.byte	0x31
 5439 08a9 24       		.byte	0x24
 5440 08aa F3       		.byte	0xf3
 5441 08ab 01       		.uleb128 0x1
 5442 08ac 50       		.byte	0x50
 5443 08ad 33       		.byte	0x33
 5444 08ae 24       		.byte	0x24
 5445 08af F3       		.byte	0xf3
 5446 08b0 01       		.uleb128 0x1
 5447 08b1 50       		.byte	0x50
ARM GAS  C:\Users\codyg\AppData\Local\Temp\ccRbtLKH.s 			page 130


 5448 08b2 1C       		.byte	0x1c
 5449 08b3 32       		.byte	0x32
 5450 08b4 24       		.byte	0x24
 5451 08b5 76       		.byte	0x76
 5452 08b6 00       		.sleb128 0
 5453 08b7 22       		.byte	0x22
 5454 08b8 23       		.byte	0x23
 5455 08b9 08       		.uleb128 0x8
 5456 08ba 06       		.byte	0x6
 5457 08bb 22       		.byte	0x22
 5458 08bc 9F       		.byte	0x9f
 5459 08bd 00000000 		.4byte	0
 5460 08c1 00000000 		.4byte	0
 5461              	.LLST49:
 5462 08c5 32000000 		.4byte	.LVL153
 5463 08c9 38000000 		.4byte	.LVL156
 5464 08cd 0100     		.2byte	0x1
 5465 08cf 54       		.byte	0x54
 5466 08d0 00000000 		.4byte	0
 5467 08d4 00000000 		.4byte	0
 5468              	.LLST50:
 5469 08d8 00000000 		.4byte	.LVL159
 5470 08dc 02000000 		.4byte	.LVL160
 5471 08e0 0100     		.2byte	0x1
 5472 08e2 50       		.byte	0x50
 5473 08e3 02000000 		.4byte	.LVL160
 5474 08e7 12000000 		.4byte	.LFE63
 5475 08eb 0400     		.2byte	0x4
 5476 08ed F3       		.byte	0xf3
 5477 08ee 01       		.uleb128 0x1
 5478 08ef 50       		.byte	0x50
 5479 08f0 9F       		.byte	0x9f
 5480 08f1 00000000 		.4byte	0
 5481 08f5 00000000 		.4byte	0
 5482              	.LLST51:
 5483 08f9 00000000 		.4byte	.LVL159
 5484 08fd 0C000000 		.4byte	.LVL163
 5485 0901 0100     		.2byte	0x1
 5486 0903 51       		.byte	0x51
 5487 0904 0C000000 		.4byte	.LVL163
 5488 0908 12000000 		.4byte	.LFE63
 5489 090c 0400     		.2byte	0x4
 5490 090e F3       		.byte	0xf3
 5491 090f 01       		.uleb128 0x1
 5492 0910 51       		.byte	0x51
 5493 0911 9F       		.byte	0x9f
 5494 0912 00000000 		.4byte	0
 5495 0916 00000000 		.4byte	0
 5496              	.LLST52:
 5497 091a 00000000 		.4byte	.LVL159
 5498 091e 0A000000 		.4byte	.LVL162
 5499 0922 0100     		.2byte	0x1
 5500 0924 52       		.byte	0x52
 5501 0925 0A000000 		.4byte	.LVL162
 5502 0929 12000000 		.4byte	.LFE63
 5503 092d 0400     		.2byte	0x4
 5504 092f F3       		.byte	0xf3
ARM GAS  C:\Users\codyg\AppData\Local\Temp\ccRbtLKH.s 			page 131


 5505 0930 01       		.uleb128 0x1
 5506 0931 52       		.byte	0x52
 5507 0932 9F       		.byte	0x9f
 5508 0933 00000000 		.4byte	0
 5509 0937 00000000 		.4byte	0
 5510              	.LLST53:
 5511 093b 00000000 		.4byte	.LVL159
 5512 093f 06000000 		.4byte	.LVL161
 5513 0943 0100     		.2byte	0x1
 5514 0945 53       		.byte	0x53
 5515 0946 06000000 		.4byte	.LVL161
 5516 094a 12000000 		.4byte	.LFE63
 5517 094e 0400     		.2byte	0x4
 5518 0950 F3       		.byte	0xf3
 5519 0951 01       		.uleb128 0x1
 5520 0952 53       		.byte	0x53
 5521 0953 9F       		.byte	0x9f
 5522 0954 00000000 		.4byte	0
 5523 0958 00000000 		.4byte	0
 5524              	.LLST54:
 5525 095c 00000000 		.4byte	.LVL165
 5526 0960 12000000 		.4byte	.LVL167
 5527 0964 0100     		.2byte	0x1
 5528 0966 50       		.byte	0x50
 5529 0967 12000000 		.4byte	.LVL167
 5530 096b 9A000000 		.4byte	.LVL186
 5531 096f 0100     		.2byte	0x1
 5532 0971 57       		.byte	0x57
 5533 0972 9A000000 		.4byte	.LVL186
 5534 0976 A0000000 		.4byte	.LFE40
 5535 097a 0400     		.2byte	0x4
 5536 097c F3       		.byte	0xf3
 5537 097d 01       		.uleb128 0x1
 5538 097e 50       		.byte	0x50
 5539 097f 9F       		.byte	0x9f
 5540 0980 00000000 		.4byte	0
 5541 0984 00000000 		.4byte	0
 5542              	.LLST55:
 5543 0988 00000000 		.4byte	.LVL165
 5544 098c 12000000 		.4byte	.LVL167
 5545 0990 0100     		.2byte	0x1
 5546 0992 51       		.byte	0x51
 5547 0993 12000000 		.4byte	.LVL167
 5548 0997 9A000000 		.4byte	.LVL185
 5549 099b 0100     		.2byte	0x1
 5550 099d 56       		.byte	0x56
 5551 099e 9A000000 		.4byte	.LVL185
 5552 09a2 A0000000 		.4byte	.LFE40
 5553 09a6 0400     		.2byte	0x4
 5554 09a8 F3       		.byte	0xf3
 5555 09a9 01       		.uleb128 0x1
 5556 09aa 51       		.byte	0x51
 5557 09ab 9F       		.byte	0x9f
 5558 09ac 00000000 		.4byte	0
 5559 09b0 00000000 		.4byte	0
 5560              	.LLST56:
 5561 09b4 00000000 		.4byte	.LVL165
ARM GAS  C:\Users\codyg\AppData\Local\Temp\ccRbtLKH.s 			page 132


 5562 09b8 12000000 		.4byte	.LVL167
 5563 09bc 0100     		.2byte	0x1
 5564 09be 52       		.byte	0x52
 5565 09bf 12000000 		.4byte	.LVL167
 5566 09c3 A0000000 		.4byte	.LFE40
 5567 09c7 0200     		.2byte	0x2
 5568 09c9 91       		.byte	0x91
 5569 09ca 64       		.sleb128 -28
 5570 09cb 00000000 		.4byte	0
 5571 09cf 00000000 		.4byte	0
 5572              	.LLST57:
 5573 09d3 20000000 		.4byte	.LVL168
 5574 09d7 2A000000 		.4byte	.LVL169
 5575 09db 0200     		.2byte	0x2
 5576 09dd 31       		.byte	0x31
 5577 09de 9F       		.byte	0x9f
 5578 09df 2C000000 		.4byte	.LVL170
 5579 09e3 2E000000 		.4byte	.LVL171
 5580 09e7 0200     		.2byte	0x2
 5581 09e9 30       		.byte	0x30
 5582 09ea 9F       		.byte	0x9f
 5583 09eb 2E000000 		.4byte	.LVL171
 5584 09ef 3E000000 		.4byte	.LVL173
 5585 09f3 0100     		.2byte	0x1
 5586 09f5 52       		.byte	0x52
 5587 09f6 56000000 		.4byte	.LVL175
 5588 09fa 6A000000 		.4byte	.LVL177
 5589 09fe 0100     		.2byte	0x1
 5590 0a00 52       		.byte	0x52
 5591 0a01 00000000 		.4byte	0
 5592 0a05 00000000 		.4byte	0
 5593              	.LLST58:
 5594 0a09 20000000 		.4byte	.LVL168
 5595 0a0d 2A000000 		.4byte	.LVL169
 5596 0a11 0100     		.2byte	0x1
 5597 0a13 53       		.byte	0x53
 5598 0a14 2C000000 		.4byte	.LVL170
 5599 0a18 3A000000 		.4byte	.LVL172
 5600 0a1c 0100     		.2byte	0x1
 5601 0a1e 53       		.byte	0x53
 5602 0a1f 56000000 		.4byte	.LVL175
 5603 0a23 68000000 		.4byte	.LVL176
 5604 0a27 0100     		.2byte	0x1
 5605 0a29 53       		.byte	0x53
 5606 0a2a 00000000 		.4byte	0
 5607 0a2e 00000000 		.4byte	0
 5608              	.LLST59:
 5609 0a32 0E000000 		.4byte	.LVL166
 5610 0a36 12000000 		.4byte	.LVL167
 5611 0a3a 0200     		.2byte	0x2
 5612 0a3c 31       		.byte	0x31
 5613 0a3d 9F       		.byte	0x9f
 5614 0a3e 12000000 		.4byte	.LVL167
 5615 0a42 90000000 		.4byte	.LVL182
 5616 0a46 0100     		.2byte	0x1
 5617 0a48 54       		.byte	0x54
 5618 0a49 90000000 		.4byte	.LVL182
ARM GAS  C:\Users\codyg\AppData\Local\Temp\ccRbtLKH.s 			page 133


 5619 0a4d 92000000 		.4byte	.LVL183
 5620 0a51 0100     		.2byte	0x1
 5621 0a53 53       		.byte	0x53
 5622 0a54 92000000 		.4byte	.LVL183
 5623 0a58 9A000000 		.4byte	.LVL184
 5624 0a5c 0100     		.2byte	0x1
 5625 0a5e 54       		.byte	0x54
 5626 0a5f 9A000000 		.4byte	.LVL184
 5627 0a63 A0000000 		.4byte	.LFE40
 5628 0a67 0300     		.2byte	0x3
 5629 0a69 73       		.byte	0x73
 5630 0a6a 7F       		.sleb128 -1
 5631 0a6b 9F       		.byte	0x9f
 5632 0a6c 00000000 		.4byte	0
 5633 0a70 00000000 		.4byte	0
 5634              	.LLST60:
 5635 0a74 7A000000 		.4byte	.LVL179
 5636 0a78 8E000000 		.4byte	.LVL181
 5637 0a7c 0200     		.2byte	0x2
 5638 0a7e 31       		.byte	0x31
 5639 0a7f 9F       		.byte	0x9f
 5640 0a80 00000000 		.4byte	0
 5641 0a84 00000000 		.4byte	0
 5642              	.LLST61:
 5643 0a88 72000000 		.4byte	.LVL178
 5644 0a8c 81000000 		.4byte	.LVL180-1
 5645 0a90 0100     		.2byte	0x1
 5646 0a92 51       		.byte	0x51
 5647 0a93 82000000 		.4byte	.LVL180
 5648 0a97 8E000000 		.4byte	.LVL181
 5649 0a9b 0100     		.2byte	0x1
 5650 0a9d 50       		.byte	0x50
 5651 0a9e 00000000 		.4byte	0
 5652 0aa2 00000000 		.4byte	0
 5653              	.LLST62:
 5654 0aa6 00000000 		.4byte	.LVL187
 5655 0aaa 22000000 		.4byte	.LVL193
 5656 0aae 0100     		.2byte	0x1
 5657 0ab0 50       		.byte	0x50
 5658 0ab1 22000000 		.4byte	.LVL193
 5659 0ab5 2C000000 		.4byte	.LFE39
 5660 0ab9 0400     		.2byte	0x4
 5661 0abb F3       		.byte	0xf3
 5662 0abc 01       		.uleb128 0x1
 5663 0abd 50       		.byte	0x50
 5664 0abe 9F       		.byte	0x9f
 5665 0abf 00000000 		.4byte	0
 5666 0ac3 00000000 		.4byte	0
 5667              	.LLST63:
 5668 0ac7 00000000 		.4byte	.LVL187
 5669 0acb 16000000 		.4byte	.LVL191
 5670 0acf 0100     		.2byte	0x1
 5671 0ad1 51       		.byte	0x51
 5672 0ad2 16000000 		.4byte	.LVL191
 5673 0ad6 2C000000 		.4byte	.LFE39
 5674 0ada 0400     		.2byte	0x4
 5675 0adc F3       		.byte	0xf3
ARM GAS  C:\Users\codyg\AppData\Local\Temp\ccRbtLKH.s 			page 134


 5676 0add 01       		.uleb128 0x1
 5677 0ade 51       		.byte	0x51
 5678 0adf 9F       		.byte	0x9f
 5679 0ae0 00000000 		.4byte	0
 5680 0ae4 00000000 		.4byte	0
 5681              	.LLST64:
 5682 0ae8 02000000 		.4byte	.LVL188
 5683 0aec 26000000 		.4byte	.LVL194
 5684 0af0 0200     		.2byte	0x2
 5685 0af2 30       		.byte	0x30
 5686 0af3 9F       		.byte	0x9f
 5687 0af4 26000000 		.4byte	.LVL194
 5688 0af8 2C000000 		.4byte	.LFE39
 5689 0afc 0100     		.2byte	0x1
 5690 0afe 50       		.byte	0x50
 5691 0aff 00000000 		.4byte	0
 5692 0b03 00000000 		.4byte	0
 5693              	.LLST65:
 5694 0b07 02000000 		.4byte	.LVL188
 5695 0b0b 10000000 		.4byte	.LVL190
 5696 0b0f 0200     		.2byte	0x2
 5697 0b11 30       		.byte	0x30
 5698 0b12 9F       		.byte	0x9f
 5699 0b13 10000000 		.4byte	.LVL190
 5700 0b17 18000000 		.4byte	.LVL192
 5701 0b1b 0100     		.2byte	0x1
 5702 0b1d 56       		.byte	0x56
 5703 0b1e 18000000 		.4byte	.LVL192
 5704 0b22 25000000 		.4byte	.LVL194-1
 5705 0b26 0100     		.2byte	0x1
 5706 0b28 51       		.byte	0x51
 5707 0b29 25000000 		.4byte	.LVL194-1
 5708 0b2d 26000000 		.4byte	.LVL197
 5709 0b31 0F00     		.2byte	0xf
 5710 0b33 F3       		.byte	0xf3
 5711 0b34 01       		.uleb128 0x1
 5712 0b35 51       		.byte	0x51
 5713 0b36 32       		.byte	0x32
 5714 0b37 24       		.byte	0x24
 5715 0b38 F3       		.byte	0xf3
 5716 0b39 01       		.uleb128 0x1
 5717 0b3a 51       		.byte	0x51
 5718 0b3b 22       		.byte	0x22
 5719 0b3c 31       		.byte	0x31
 5720 0b3d 24       		.byte	0x24
 5721 0b3e 76       		.byte	0x76
 5722 0b3f 00       		.sleb128 0
 5723 0b40 22       		.byte	0x22
 5724 0b41 9F       		.byte	0x9f
 5725 0b42 00000000 		.4byte	0
 5726 0b46 00000000 		.4byte	0
 5727              	.LLST66:
 5728 0b4a 0E000000 		.4byte	.LVL189
 5729 0b4e 26000000 		.4byte	.LVL195
 5730 0b52 0100     		.2byte	0x1
 5731 0b54 54       		.byte	0x54
 5732 0b55 26000000 		.4byte	.LVL195
ARM GAS  C:\Users\codyg\AppData\Local\Temp\ccRbtLKH.s 			page 135


 5733 0b59 26000000 		.4byte	.LVL196
 5734 0b5d 1000     		.2byte	0x10
 5735 0b5f F3       		.byte	0xf3
 5736 0b60 01       		.uleb128 0x1
 5737 0b61 50       		.byte	0x50
 5738 0b62 33       		.byte	0x33
 5739 0b63 24       		.byte	0x24
 5740 0b64 F3       		.byte	0xf3
 5741 0b65 01       		.uleb128 0x1
 5742 0b66 50       		.byte	0x50
 5743 0b67 1C       		.byte	0x1c
 5744 0b68 32       		.byte	0x32
 5745 0b69 24       		.byte	0x24
 5746 0b6a 75       		.byte	0x75
 5747 0b6b 00       		.sleb128 0
 5748 0b6c 22       		.byte	0x22
 5749 0b6d 23       		.byte	0x23
 5750 0b6e 04       		.uleb128 0x4
 5751 0b6f 00000000 		.4byte	0
 5752 0b73 00000000 		.4byte	0
 5753              	.LLST67:
 5754 0b77 00000000 		.4byte	.LVL198
 5755 0b7b 14000000 		.4byte	.LVL201
 5756 0b7f 0100     		.2byte	0x1
 5757 0b81 50       		.byte	0x50
 5758 0b82 14000000 		.4byte	.LVL201
 5759 0b86 28000000 		.4byte	.LVL208
 5760 0b8a 0100     		.2byte	0x1
 5761 0b8c 56       		.byte	0x56
 5762 0b8d 28000000 		.4byte	.LVL208
 5763 0b91 30000000 		.4byte	.LFE38
 5764 0b95 0400     		.2byte	0x4
 5765 0b97 F3       		.byte	0xf3
 5766 0b98 01       		.uleb128 0x1
 5767 0b99 50       		.byte	0x50
 5768 0b9a 9F       		.byte	0x9f
 5769 0b9b 00000000 		.4byte	0
 5770 0b9f 00000000 		.4byte	0
 5771              	.LLST68:
 5772 0ba3 10000000 		.4byte	.LVL200
 5773 0ba7 14000000 		.4byte	.LVL201
 5774 0bab 0100     		.2byte	0x1
 5775 0bad 53       		.byte	0x53
 5776 0bae 14000000 		.4byte	.LVL201
 5777 0bb2 20000000 		.4byte	.LVL204
 5778 0bb6 0100     		.2byte	0x1
 5779 0bb8 54       		.byte	0x54
 5780 0bb9 20000000 		.4byte	.LVL204
 5781 0bbd 22000000 		.4byte	.LVL205
 5782 0bc1 0100     		.2byte	0x1
 5783 0bc3 53       		.byte	0x53
 5784 0bc4 22000000 		.4byte	.LVL205
 5785 0bc8 28000000 		.4byte	.LVL206
 5786 0bcc 0100     		.2byte	0x1
 5787 0bce 54       		.byte	0x54
 5788 0bcf 28000000 		.4byte	.LVL206
 5789 0bd3 30000000 		.4byte	.LFE38
ARM GAS  C:\Users\codyg\AppData\Local\Temp\ccRbtLKH.s 			page 136


 5790 0bd7 0300     		.2byte	0x3
 5791 0bd9 73       		.byte	0x73
 5792 0bda 7F       		.sleb128 -1
 5793 0bdb 9F       		.byte	0x9f
 5794 0bdc 00000000 		.4byte	0
 5795 0be0 00000000 		.4byte	0
 5796              	.LLST69:
 5797 0be4 10000000 		.4byte	.LVL200
 5798 0be8 14000000 		.4byte	.LVL201
 5799 0bec 0100     		.2byte	0x1
 5800 0bee 53       		.byte	0x53
 5801 0bef 00000000 		.4byte	0
 5802 0bf3 00000000 		.4byte	0
 5803              	.LLST70:
 5804 0bf7 04000000 		.4byte	.LVL199
 5805 0bfb 14000000 		.4byte	.LVL201
 5806 0bff 0200     		.2byte	0x2
 5807 0c01 30       		.byte	0x30
 5808 0c02 9F       		.byte	0x9f
 5809 0c03 14000000 		.4byte	.LVL201
 5810 0c07 28000000 		.4byte	.LVL207
 5811 0c0b 0100     		.2byte	0x1
 5812 0c0d 55       		.byte	0x55
 5813 0c0e 28000000 		.4byte	.LVL207
 5814 0c12 30000000 		.4byte	.LFE38
 5815 0c16 0100     		.2byte	0x1
 5816 0c18 50       		.byte	0x50
 5817 0c19 00000000 		.4byte	0
 5818 0c1d 00000000 		.4byte	0
 5819              	.LLST71:
 5820 0c21 02000000 		.4byte	.LVL209
 5821 0c25 08000000 		.4byte	.LVL210
 5822 0c29 0200     		.2byte	0x2
 5823 0c2b 31       		.byte	0x31
 5824 0c2c 9F       		.byte	0x9f
 5825 0c2d 08000000 		.4byte	.LVL210
 5826 0c31 12000000 		.4byte	.LVL213
 5827 0c35 0100     		.2byte	0x1
 5828 0c37 55       		.byte	0x55
 5829 0c38 12000000 		.4byte	.LVL213
 5830 0c3c 14000000 		.4byte	.LVL214
 5831 0c40 0100     		.2byte	0x1
 5832 0c42 53       		.byte	0x53
 5833 0c43 14000000 		.4byte	.LVL214
 5834 0c47 1A000000 		.4byte	.LVL216
 5835 0c4b 0100     		.2byte	0x1
 5836 0c4d 55       		.byte	0x55
 5837 0c4e 1A000000 		.4byte	.LVL216
 5838 0c52 1C000000 		.4byte	.LFE37
 5839 0c56 0300     		.2byte	0x3
 5840 0c58 73       		.byte	0x73
 5841 0c59 7F       		.sleb128 -1
 5842 0c5a 9F       		.byte	0x9f
 5843 0c5b 00000000 		.4byte	0
 5844 0c5f 00000000 		.4byte	0
 5845              	.LLST72:
 5846 0c63 02000000 		.4byte	.LVL209
ARM GAS  C:\Users\codyg\AppData\Local\Temp\ccRbtLKH.s 			page 137


 5847 0c67 08000000 		.4byte	.LVL210
 5848 0c6b 0200     		.2byte	0x2
 5849 0c6d 30       		.byte	0x30
 5850 0c6e 9F       		.byte	0x9f
 5851 0c6f 08000000 		.4byte	.LVL210
 5852 0c73 1A000000 		.4byte	.LVL215
 5853 0c77 0100     		.2byte	0x1
 5854 0c79 54       		.byte	0x54
 5855 0c7a 1A000000 		.4byte	.LVL215
 5856 0c7e 1C000000 		.4byte	.LFE37
 5857 0c82 0100     		.2byte	0x1
 5858 0c84 50       		.byte	0x50
 5859 0c85 00000000 		.4byte	0
 5860 0c89 00000000 		.4byte	0
 5861              	.LLST73:
 5862 0c8d 00000000 		.4byte	.LVL217
 5863 0c91 1C000000 		.4byte	.LVL220
 5864 0c95 0100     		.2byte	0x1
 5865 0c97 50       		.byte	0x50
 5866 0c98 1C000000 		.4byte	.LVL220
 5867 0c9c 42000000 		.4byte	.LFE51
 5868 0ca0 0100     		.2byte	0x1
 5869 0ca2 55       		.byte	0x55
 5870 0ca3 00000000 		.4byte	0
 5871 0ca7 00000000 		.4byte	0
 5872              	.LLST74:
 5873 0cab 00000000 		.4byte	.LVL217
 5874 0caf 0E000000 		.4byte	.LVL219
 5875 0cb3 0100     		.2byte	0x1
 5876 0cb5 51       		.byte	0x51
 5877 0cb6 0E000000 		.4byte	.LVL219
 5878 0cba 42000000 		.4byte	.LFE51
 5879 0cbe 0200     		.2byte	0x2
 5880 0cc0 91       		.byte	0x91
 5881 0cc1 64       		.sleb128 -28
 5882 0cc2 00000000 		.4byte	0
 5883 0cc6 00000000 		.4byte	0
 5884              	.LLST75:
 5885 0cca 00000000 		.4byte	.LVL217
 5886 0cce 0E000000 		.4byte	.LVL219
 5887 0cd2 0100     		.2byte	0x1
 5888 0cd4 52       		.byte	0x52
 5889 0cd5 0E000000 		.4byte	.LVL219
 5890 0cd9 40000000 		.4byte	.LVL226
 5891 0cdd 0100     		.2byte	0x1
 5892 0cdf 57       		.byte	0x57
 5893 0ce0 40000000 		.4byte	.LVL226
 5894 0ce4 42000000 		.4byte	.LFE51
 5895 0ce8 0400     		.2byte	0x4
 5896 0cea F3       		.byte	0xf3
 5897 0ceb 01       		.uleb128 0x1
 5898 0cec 52       		.byte	0x52
 5899 0ced 9F       		.byte	0x9f
 5900 0cee 00000000 		.4byte	0
 5901 0cf2 00000000 		.4byte	0
 5902              	.LLST76:
 5903 0cf6 0A000000 		.4byte	.LVL218
ARM GAS  C:\Users\codyg\AppData\Local\Temp\ccRbtLKH.s 			page 138


 5904 0cfa 0E000000 		.4byte	.LVL219
 5905 0cfe 0200     		.2byte	0x2
 5906 0d00 31       		.byte	0x31
 5907 0d01 9F       		.byte	0x9f
 5908 0d02 0E000000 		.4byte	.LVL219
 5909 0d06 38000000 		.4byte	.LVL223
 5910 0d0a 0100     		.2byte	0x1
 5911 0d0c 56       		.byte	0x56
 5912 0d0d 38000000 		.4byte	.LVL223
 5913 0d11 3A000000 		.4byte	.LVL224
 5914 0d15 0100     		.2byte	0x1
 5915 0d17 53       		.byte	0x53
 5916 0d18 3A000000 		.4byte	.LVL224
 5917 0d1c 40000000 		.4byte	.LVL225
 5918 0d20 0100     		.2byte	0x1
 5919 0d22 56       		.byte	0x56
 5920 0d23 40000000 		.4byte	.LVL225
 5921 0d27 42000000 		.4byte	.LFE51
 5922 0d2b 0300     		.2byte	0x3
 5923 0d2d 73       		.byte	0x73
 5924 0d2e 7F       		.sleb128 -1
 5925 0d2f 9F       		.byte	0x9f
 5926 0d30 00000000 		.4byte	0
 5927 0d34 00000000 		.4byte	0
 5928              	.LLST77:
 5929 0d38 2A000000 		.4byte	.LVL221
 5930 0d3c 2C000000 		.4byte	.LVL222
 5931 0d40 0100     		.2byte	0x1
 5932 0d42 50       		.byte	0x50
 5933 0d43 00000000 		.4byte	0
 5934 0d47 00000000 		.4byte	0
 5935              	.LLST78:
 5936 0d4b 00000000 		.4byte	.LVL227
 5937 0d4f 34000000 		.4byte	.LVL233
 5938 0d53 0100     		.2byte	0x1
 5939 0d55 50       		.byte	0x50
 5940 0d56 34000000 		.4byte	.LVL233
 5941 0d5a 40000000 		.4byte	.LFE49
 5942 0d5e 0400     		.2byte	0x4
 5943 0d60 F3       		.byte	0xf3
 5944 0d61 01       		.uleb128 0x1
 5945 0d62 50       		.byte	0x50
 5946 0d63 9F       		.byte	0x9f
 5947 0d64 00000000 		.4byte	0
 5948 0d68 00000000 		.4byte	0
 5949              	.LLST79:
 5950 0d6c 00000000 		.4byte	.LVL227
 5951 0d70 32000000 		.4byte	.LVL232
 5952 0d74 0100     		.2byte	0x1
 5953 0d76 51       		.byte	0x51
 5954 0d77 32000000 		.4byte	.LVL232
 5955 0d7b 40000000 		.4byte	.LFE49
 5956 0d7f 0400     		.2byte	0x4
 5957 0d81 F3       		.byte	0xf3
 5958 0d82 01       		.uleb128 0x1
 5959 0d83 51       		.byte	0x51
 5960 0d84 9F       		.byte	0x9f
ARM GAS  C:\Users\codyg\AppData\Local\Temp\ccRbtLKH.s 			page 139


 5961 0d85 00000000 		.4byte	0
 5962 0d89 00000000 		.4byte	0
 5963              	.LLST80:
 5964 0d8d 02000000 		.4byte	.LVL228
 5965 0d91 0C000000 		.4byte	.LVL229
 5966 0d95 0200     		.2byte	0x2
 5967 0d97 30       		.byte	0x30
 5968 0d98 9F       		.byte	0x9f
 5969 0d99 0C000000 		.4byte	.LVL229
 5970 0d9d 18000000 		.4byte	.LVL230
 5971 0da1 0200     		.2byte	0x2
 5972 0da3 72       		.byte	0x72
 5973 0da4 08       		.sleb128 8
 5974 0da5 18000000 		.4byte	.LVL230
 5975 0da9 38000000 		.4byte	.LVL236
 5976 0dad 0100     		.2byte	0x1
 5977 0daf 55       		.byte	0x55
 5978 0db0 38000000 		.4byte	.LVL236
 5979 0db4 38000000 		.4byte	.LVL237
 5980 0db8 1E00     		.2byte	0x1e
 5981 0dba F3       		.byte	0xf3
 5982 0dbb 01       		.uleb128 0x1
 5983 0dbc 51       		.byte	0x51
 5984 0dbd 32       		.byte	0x32
 5985 0dbe 24       		.byte	0x24
 5986 0dbf F3       		.byte	0xf3
 5987 0dc0 01       		.uleb128 0x1
 5988 0dc1 51       		.byte	0x51
 5989 0dc2 22       		.byte	0x22
 5990 0dc3 31       		.byte	0x31
 5991 0dc4 24       		.byte	0x24
 5992 0dc5 F3       		.byte	0xf3
 5993 0dc6 01       		.uleb128 0x1
 5994 0dc7 50       		.byte	0x50
 5995 0dc8 33       		.byte	0x33
 5996 0dc9 24       		.byte	0x24
 5997 0dca F3       		.byte	0xf3
 5998 0dcb 01       		.uleb128 0x1
 5999 0dcc 50       		.byte	0x50
 6000 0dcd 1C       		.byte	0x1c
 6001 0dce 32       		.byte	0x32
 6002 0dcf 24       		.byte	0x24
 6003 0dd0 76       		.byte	0x76
 6004 0dd1 00       		.sleb128 0
 6005 0dd2 22       		.byte	0x22
 6006 0dd3 23       		.byte	0x23
 6007 0dd4 08       		.uleb128 0x8
 6008 0dd5 06       		.byte	0x6
 6009 0dd6 22       		.byte	0x22
 6010 0dd7 9F       		.byte	0x9f
 6011 0dd8 00000000 		.4byte	0
 6012 0ddc 00000000 		.4byte	0
 6013              	.LLST81:
 6014 0de0 32000000 		.4byte	.LVL232
 6015 0de4 38000000 		.4byte	.LVL235
 6016 0de8 0100     		.2byte	0x1
 6017 0dea 54       		.byte	0x54
ARM GAS  C:\Users\codyg\AppData\Local\Temp\ccRbtLKH.s 			page 140


 6018 0deb 00000000 		.4byte	0
 6019 0def 00000000 		.4byte	0
 6020              	.LLST82:
 6021 0df3 00000000 		.4byte	.LVL238
 6022 0df7 0B000000 		.4byte	.LVL239-1
 6023 0dfb 0100     		.2byte	0x1
 6024 0dfd 50       		.byte	0x50
 6025 0dfe 10000000 		.4byte	.LVL240
 6026 0e02 20000000 		.4byte	.LVL243
 6027 0e06 0100     		.2byte	0x1
 6028 0e08 54       		.byte	0x54
 6029 0e09 00000000 		.4byte	0
 6030 0e0d 00000000 		.4byte	0
 6031              	.LLST83:
 6032 0e11 00000000 		.4byte	.LVL238
 6033 0e15 0B000000 		.4byte	.LVL239-1
 6034 0e19 0100     		.2byte	0x1
 6035 0e1b 51       		.byte	0x51
 6036 0e1c 0B000000 		.4byte	.LVL239-1
 6037 0e20 20000000 		.4byte	.LVL244
 6038 0e24 0100     		.2byte	0x1
 6039 0e26 55       		.byte	0x55
 6040 0e27 20000000 		.4byte	.LVL244
 6041 0e2b 22000000 		.4byte	.LFE61
 6042 0e2f 0400     		.2byte	0x4
 6043 0e31 F3       		.byte	0xf3
 6044 0e32 01       		.uleb128 0x1
 6045 0e33 51       		.byte	0x51
 6046 0e34 9F       		.byte	0x9f
 6047 0e35 00000000 		.4byte	0
 6048 0e39 00000000 		.4byte	0
 6049              	.LLST84:
 6050 0e3d 00000000 		.4byte	.LVL238
 6051 0e41 0B000000 		.4byte	.LVL239-1
 6052 0e45 0100     		.2byte	0x1
 6053 0e47 52       		.byte	0x52
 6054 0e48 0B000000 		.4byte	.LVL239-1
 6055 0e4c 20000000 		.4byte	.LVL245
 6056 0e50 0100     		.2byte	0x1
 6057 0e52 56       		.byte	0x56
 6058 0e53 20000000 		.4byte	.LVL245
 6059 0e57 22000000 		.4byte	.LFE61
 6060 0e5b 0400     		.2byte	0x4
 6061 0e5d F3       		.byte	0xf3
 6062 0e5e 01       		.uleb128 0x1
 6063 0e5f 52       		.byte	0x52
 6064 0e60 9F       		.byte	0x9f
 6065 0e61 00000000 		.4byte	0
 6066 0e65 00000000 		.4byte	0
 6067              	.LLST85:
 6068 0e69 00000000 		.4byte	.LVL246
 6069 0e6d 34000000 		.4byte	.LVL252
 6070 0e71 0100     		.2byte	0x1
 6071 0e73 50       		.byte	0x50
 6072 0e74 34000000 		.4byte	.LVL252
 6073 0e78 40000000 		.4byte	.LFE60
 6074 0e7c 0400     		.2byte	0x4
ARM GAS  C:\Users\codyg\AppData\Local\Temp\ccRbtLKH.s 			page 141


 6075 0e7e F3       		.byte	0xf3
 6076 0e7f 01       		.uleb128 0x1
 6077 0e80 50       		.byte	0x50
 6078 0e81 9F       		.byte	0x9f
 6079 0e82 00000000 		.4byte	0
 6080 0e86 00000000 		.4byte	0
 6081              	.LLST86:
 6082 0e8a 00000000 		.4byte	.LVL246
 6083 0e8e 32000000 		.4byte	.LVL251
 6084 0e92 0100     		.2byte	0x1
 6085 0e94 51       		.byte	0x51
 6086 0e95 32000000 		.4byte	.LVL251
 6087 0e99 40000000 		.4byte	.LFE60
 6088 0e9d 0400     		.2byte	0x4
 6089 0e9f F3       		.byte	0xf3
 6090 0ea0 01       		.uleb128 0x1
 6091 0ea1 51       		.byte	0x51
 6092 0ea2 9F       		.byte	0x9f
 6093 0ea3 00000000 		.4byte	0
 6094 0ea7 00000000 		.4byte	0
 6095              	.LLST87:
 6096 0eab 02000000 		.4byte	.LVL247
 6097 0eaf 0C000000 		.4byte	.LVL248
 6098 0eb3 0200     		.2byte	0x2
 6099 0eb5 30       		.byte	0x30
 6100 0eb6 9F       		.byte	0x9f
 6101 0eb7 0C000000 		.4byte	.LVL248
 6102 0ebb 18000000 		.4byte	.LVL249
 6103 0ebf 0200     		.2byte	0x2
 6104 0ec1 72       		.byte	0x72
 6105 0ec2 08       		.sleb128 8
 6106 0ec3 18000000 		.4byte	.LVL249
 6107 0ec7 38000000 		.4byte	.LVL255
 6108 0ecb 0100     		.2byte	0x1
 6109 0ecd 55       		.byte	0x55
 6110 0ece 38000000 		.4byte	.LVL255
 6111 0ed2 38000000 		.4byte	.LVL256
 6112 0ed6 1E00     		.2byte	0x1e
 6113 0ed8 F3       		.byte	0xf3
 6114 0ed9 01       		.uleb128 0x1
 6115 0eda 51       		.byte	0x51
 6116 0edb 32       		.byte	0x32
 6117 0edc 24       		.byte	0x24
 6118 0edd F3       		.byte	0xf3
 6119 0ede 01       		.uleb128 0x1
 6120 0edf 51       		.byte	0x51
 6121 0ee0 22       		.byte	0x22
 6122 0ee1 31       		.byte	0x31
 6123 0ee2 24       		.byte	0x24
 6124 0ee3 F3       		.byte	0xf3
 6125 0ee4 01       		.uleb128 0x1
 6126 0ee5 50       		.byte	0x50
 6127 0ee6 33       		.byte	0x33
 6128 0ee7 24       		.byte	0x24
 6129 0ee8 F3       		.byte	0xf3
 6130 0ee9 01       		.uleb128 0x1
 6131 0eea 50       		.byte	0x50
ARM GAS  C:\Users\codyg\AppData\Local\Temp\ccRbtLKH.s 			page 142


 6132 0eeb 1C       		.byte	0x1c
 6133 0eec 32       		.byte	0x32
 6134 0eed 24       		.byte	0x24
 6135 0eee 76       		.byte	0x76
 6136 0eef 00       		.sleb128 0
 6137 0ef0 22       		.byte	0x22
 6138 0ef1 23       		.byte	0x23
 6139 0ef2 08       		.uleb128 0x8
 6140 0ef3 06       		.byte	0x6
 6141 0ef4 22       		.byte	0x22
 6142 0ef5 9F       		.byte	0x9f
 6143 0ef6 00000000 		.4byte	0
 6144 0efa 00000000 		.4byte	0
 6145              	.LLST88:
 6146 0efe 32000000 		.4byte	.LVL251
 6147 0f02 38000000 		.4byte	.LVL254
 6148 0f06 0100     		.2byte	0x1
 6149 0f08 54       		.byte	0x54
 6150 0f09 00000000 		.4byte	0
 6151 0f0d 00000000 		.4byte	0
 6152              		.section	.debug_aranges,"",%progbits
 6153 0000 F4000000 		.4byte	0xf4
 6154 0004 0200     		.2byte	0x2
 6155 0006 00000000 		.4byte	.Ldebug_info0
 6156 000a 04       		.byte	0x4
 6157 000b 00       		.byte	0
 6158 000c 0000     		.2byte	0
 6159 000e 0000     		.2byte	0
 6160 0010 00000000 		.4byte	.LFB45
 6161 0014 1E000000 		.4byte	.LFE45-.LFB45
 6162 0018 00000000 		.4byte	.LFB44
 6163 001c 1E000000 		.4byte	.LFE44-.LFB44
 6164 0020 00000000 		.4byte	.LFB43
 6165 0024 2C000000 		.4byte	.LFE43-.LFB43
 6166 0028 00000000 		.4byte	.LFB42
 6167 002c 28000000 		.4byte	.LFE42-.LFB42
 6168 0030 00000000 		.4byte	.LFB41
 6169 0034 16000000 		.4byte	.LFE41-.LFB41
 6170 0038 00000000 		.4byte	.LFB50
 6171 003c 22000000 		.4byte	.LFE50-.LFB50
 6172 0040 00000000 		.4byte	.LFB48
 6173 0044 40000000 		.4byte	.LFE48-.LFB48
 6174 0048 00000000 		.4byte	.LFB54
 6175 004c 28000000 		.4byte	.LFE54-.LFB54
 6176 0050 00000000 		.4byte	.LFB52
 6177 0054 40000000 		.4byte	.LFE52-.LFB52
 6178 0058 00000000 		.4byte	.LFB58
 6179 005c 2C000000 		.4byte	.LFE58-.LFB58
 6180 0060 00000000 		.4byte	.LFB47
 6181 0064 70000000 		.4byte	.LFE47-.LFB47
 6182 0068 00000000 		.4byte	.LFB46
 6183 006c 16000000 		.4byte	.LFE46-.LFB46
 6184 0070 00000000 		.4byte	.LFB36
 6185 0074 08000000 		.4byte	.LFE36-.LFB36
 6186 0078 00000000 		.4byte	.LFB56
 6187 007c 40000000 		.4byte	.LFE56-.LFB56
 6188 0080 00000000 		.4byte	.LFB59
ARM GAS  C:\Users\codyg\AppData\Local\Temp\ccRbtLKH.s 			page 143


 6189 0084 42000000 		.4byte	.LFE59-.LFB59
 6190 0088 00000000 		.4byte	.LFB57
 6191 008c 40000000 		.4byte	.LFE57-.LFB57
 6192 0090 00000000 		.4byte	.LFB62
 6193 0094 18000000 		.4byte	.LFE62-.LFB62
 6194 0098 00000000 		.4byte	.LFB55
 6195 009c 58000000 		.4byte	.LFE55-.LFB55
 6196 00a0 00000000 		.4byte	.LFB53
 6197 00a4 40000000 		.4byte	.LFE53-.LFB53
 6198 00a8 00000000 		.4byte	.LFB63
 6199 00ac 12000000 		.4byte	.LFE63-.LFB63
 6200 00b0 00000000 		.4byte	.LFB40
 6201 00b4 A0000000 		.4byte	.LFE40-.LFB40
 6202 00b8 00000000 		.4byte	.LFB39
 6203 00bc 2C000000 		.4byte	.LFE39-.LFB39
 6204 00c0 00000000 		.4byte	.LFB38
 6205 00c4 30000000 		.4byte	.LFE38-.LFB38
 6206 00c8 00000000 		.4byte	.LFB37
 6207 00cc 1C000000 		.4byte	.LFE37-.LFB37
 6208 00d0 00000000 		.4byte	.LFB51
 6209 00d4 42000000 		.4byte	.LFE51-.LFB51
 6210 00d8 00000000 		.4byte	.LFB49
 6211 00dc 40000000 		.4byte	.LFE49-.LFB49
 6212 00e0 00000000 		.4byte	.LFB61
 6213 00e4 22000000 		.4byte	.LFE61-.LFB61
 6214 00e8 00000000 		.4byte	.LFB60
 6215 00ec 40000000 		.4byte	.LFE60-.LFB60
 6216 00f0 00000000 		.4byte	0
 6217 00f4 00000000 		.4byte	0
 6218              		.section	.debug_ranges,"",%progbits
 6219              	.Ldebug_ranges0:
 6220 0000 00000000 		.4byte	.LFB45
 6221 0004 1E000000 		.4byte	.LFE45
 6222 0008 00000000 		.4byte	.LFB44
 6223 000c 1E000000 		.4byte	.LFE44
 6224 0010 00000000 		.4byte	.LFB43
 6225 0014 2C000000 		.4byte	.LFE43
 6226 0018 00000000 		.4byte	.LFB42
 6227 001c 28000000 		.4byte	.LFE42
 6228 0020 00000000 		.4byte	.LFB41
 6229 0024 16000000 		.4byte	.LFE41
 6230 0028 00000000 		.4byte	.LFB50
 6231 002c 22000000 		.4byte	.LFE50
 6232 0030 00000000 		.4byte	.LFB48
 6233 0034 40000000 		.4byte	.LFE48
 6234 0038 00000000 		.4byte	.LFB54
 6235 003c 28000000 		.4byte	.LFE54
 6236 0040 00000000 		.4byte	.LFB52
 6237 0044 40000000 		.4byte	.LFE52
 6238 0048 00000000 		.4byte	.LFB58
 6239 004c 2C000000 		.4byte	.LFE58
 6240 0050 00000000 		.4byte	.LFB47
 6241 0054 70000000 		.4byte	.LFE47
 6242 0058 00000000 		.4byte	.LFB46
 6243 005c 16000000 		.4byte	.LFE46
 6244 0060 00000000 		.4byte	.LFB36
 6245 0064 08000000 		.4byte	.LFE36
ARM GAS  C:\Users\codyg\AppData\Local\Temp\ccRbtLKH.s 			page 144


 6246 0068 00000000 		.4byte	.LFB56
 6247 006c 40000000 		.4byte	.LFE56
 6248 0070 00000000 		.4byte	.LFB59
 6249 0074 42000000 		.4byte	.LFE59
 6250 0078 00000000 		.4byte	.LFB57
 6251 007c 40000000 		.4byte	.LFE57
 6252 0080 00000000 		.4byte	.LFB62
 6253 0084 18000000 		.4byte	.LFE62
 6254 0088 00000000 		.4byte	.LFB55
 6255 008c 58000000 		.4byte	.LFE55
 6256 0090 00000000 		.4byte	.LFB53
 6257 0094 40000000 		.4byte	.LFE53
 6258 0098 00000000 		.4byte	.LFB63
 6259 009c 12000000 		.4byte	.LFE63
 6260 00a0 00000000 		.4byte	.LFB40
 6261 00a4 A0000000 		.4byte	.LFE40
 6262 00a8 00000000 		.4byte	.LFB39
 6263 00ac 2C000000 		.4byte	.LFE39
 6264 00b0 00000000 		.4byte	.LFB38
 6265 00b4 30000000 		.4byte	.LFE38
 6266 00b8 00000000 		.4byte	.LFB37
 6267 00bc 1C000000 		.4byte	.LFE37
 6268 00c0 00000000 		.4byte	.LFB51
 6269 00c4 42000000 		.4byte	.LFE51
 6270 00c8 00000000 		.4byte	.LFB49
 6271 00cc 40000000 		.4byte	.LFE49
 6272 00d0 00000000 		.4byte	.LFB61
 6273 00d4 22000000 		.4byte	.LFE61
 6274 00d8 00000000 		.4byte	.LFB60
 6275 00dc 40000000 		.4byte	.LFE60
 6276 00e0 00000000 		.4byte	0
 6277 00e4 00000000 		.4byte	0
 6278              		.section	.debug_line,"",%progbits
 6279              	.Ldebug_line0:
 6280 0000 07050000 		.section	.debug_str,"MS",%progbits,1
 6280      0200B401 
 6280      00000201 
 6280      FB0E0D00 
 6280      01010101 
 6281              	.LASF22:
 6282 0000 75696E74 		.ascii	"uint16\000"
 6282      313600
 6283              	.LASF108:
 6284 0007 70747257 		.ascii	"ptrWidgetRam\000"
 6284      69646765 
 6284      7452616D 
 6284      00
 6285              	.LASF63:
 6286 0014 43617053 		.ascii	"CapSense_FLASH_STRUCT\000"
 6286      656E7365 
 6286      5F464C41 
 6286      53485F53 
 6286      54525543 
 6287              	.LASF115:
 6288 002a 43617053 		.ascii	"CapSense_UpdateWidgetBaseline\000"
 6288      656E7365 
 6288      5F557064 
ARM GAS  C:\Users\codyg\AppData\Local\Temp\ccRbtLKH.s 			page 145


 6288      61746557 
 6288      69646765 
 6289              	.LASF76:
 6290 0048 43617053 		.ascii	"CapSense_FtInitializeBaseline\000"
 6290      656E7365 
 6290      5F467449 
 6290      6E697469 
 6290      616C697A 
 6291              	.LASF6:
 6292 0066 5F5F7569 		.ascii	"__uint8_t\000"
 6292      6E74385F 
 6292      7400
 6293              	.LASF43:
 6294 0070 66696E67 		.ascii	"fingerCap\000"
 6294      65724361 
 6294      7000
 6295              	.LASF110:
 6296 007a 64696666 		.ascii	"difference\000"
 6296      6572656E 
 6296      636500
 6297              	.LASF96:
 6298 0085 43617053 		.ascii	"CapSense_RunAverageInternal\000"
 6298      656E7365 
 6298      5F52756E 
 6298      41766572 
 6298      61676549 
 6299              	.LASF51:
 6300 00a1 43617053 		.ascii	"CapSense_RAM_SNS_STRUCT\000"
 6300      656E7365 
 6300      5F52414D 
 6300      5F534E53 
 6300      5F535452 
 6301              	.LASF12:
 6302 00b9 6C6F6E67 		.ascii	"long long unsigned int\000"
 6302      206C6F6E 
 6302      6720756E 
 6302      7369676E 
 6302      65642069 
 6303              	.LASF90:
 6304 00d0 43617053 		.ascii	"CapSense_InitializeMedian\000"
 6304      656E7365 
 6304      5F496E69 
 6304      7469616C 
 6304      697A654D 
 6305              	.LASF52:
 6306 00ea 70747232 		.ascii	"ptr2SnsFlash\000"
 6306      536E7346 
 6306      6C617368 
 6306      00
 6307              	.LASF20:
 6308 00f7 63795F73 		.ascii	"cy_status\000"
 6308      74617475 
 6308      7300
 6309              	.LASF48:
 6310 0101 64696666 		.ascii	"diff\000"
 6310      00
 6311              	.LASF25:
ARM GAS  C:\Users\codyg\AppData\Local\Temp\ccRbtLKH.s 			page 146


 6312 0106 43617053 		.ascii	"CapSense_LOW_BSLN_RST_TYPE\000"
 6312      656E7365 
 6312      5F4C4F57 
 6312      5F42534C 
 6312      4E5F5253 
 6313              	.LASF106:
 6314 0121 66696C74 		.ascii	"filteredOutput\000"
 6314      65726564 
 6314      4F757470 
 6314      757400
 6315              	.LASF69:
 6316 0130 43617053 		.ascii	"CapSense_PROX_FLTR_STRUCT\000"
 6316      656E7365 
 6316      5F50524F 
 6316      585F464C 
 6316      54525F53 
 6317              	.LASF125:
 6318 014a 43617053 		.ascii	"CapSense_dsFlash\000"
 6318      656E7365 
 6318      5F647346 
 6318      6C617368 
 6318      00
 6319              	.LASF24:
 6320 015b 43617053 		.ascii	"CapSense_THRESHOLD_TYPE\000"
 6320      656E7365 
 6320      5F544852 
 6320      4553484F 
 6320      4C445F54 
 6321              	.LASF27:
 6322 0173 43617053 		.ascii	"CapSense_WD_LINEAR_SLIDER_E\000"
 6322      656E7365 
 6322      5F57445F 
 6322      4C494E45 
 6322      41525F53 
 6323              	.LASF111:
 6324 018f 62617365 		.ascii	"baselineCoeff\000"
 6324      6C696E65 
 6324      436F6566 
 6324      6600
 6325              	.LASF1:
 6326 019d 6C6F6E67 		.ascii	"long long int\000"
 6326      206C6F6E 
 6326      6720696E 
 6326      7400
 6327              	.LASF3:
 6328 01ab 7369676E 		.ascii	"signed char\000"
 6328      65642063 
 6328      68617200 
 6329              	.LASF9:
 6330 01b7 6C6F6E67 		.ascii	"long int\000"
 6330      20696E74 
 6330      00
 6331              	.LASF54:
 6332 01c0 70747232 		.ascii	"ptr2SnsRam\000"
 6332      536E7352 
 6332      616D00
 6333              	.LASF103:
ARM GAS  C:\Users\codyg\AppData\Local\Temp\ccRbtLKH.s 			page 147


 6334 01cb 696E7075 		.ascii	"input\000"
 6334      7400
 6335              	.LASF21:
 6336 01d1 75696E74 		.ascii	"uint8\000"
 6336      3800
 6337              	.LASF14:
 6338 01d7 75696E74 		.ascii	"uint16_t\000"
 6338      31365F74 
 6338      00
 6339              	.LASF19:
 6340 01e0 646F7562 		.ascii	"double\000"
 6340      6C6500
 6341              	.LASF105:
 6342 01e7 73686966 		.ascii	"shift\000"
 6342      7400
 6343              	.LASF79:
 6344 01ed 73656E73 		.ascii	"sensorId\000"
 6344      6F724964 
 6344      00
 6345              	.LASF23:
 6346 01f6 75696E74 		.ascii	"uint32\000"
 6346      333200
 6347              	.LASF37:
 6348 01fd 68797374 		.ascii	"hysteresis\000"
 6348      65726573 
 6348      697300
 6349              	.LASF10:
 6350 0208 5F5F7569 		.ascii	"__uint32_t\000"
 6350      6E743332 
 6350      5F7400
 6351              	.LASF47:
 6352 0213 62736C6E 		.ascii	"bslnExt\000"
 6352      45787400 
 6353              	.LASF82:
 6354 021b 73656E73 		.ascii	"sensorsNumber\000"
 6354      6F72734E 
 6354      756D6265 
 6354      7200
 6355              	.LASF29:
 6356 0229 43617053 		.ascii	"CapSense_WD_MATRIX_BUTTON_E\000"
 6356      656E7365 
 6356      5F57445F 
 6356      4D415452 
 6356      49585F42 
 6357              	.LASF97:
 6358 0245 74656D70 		.ascii	"temp\000"
 6358      00
 6359              	.LASF64:
 6360 024a 69697248 		.ascii	"iirHistory\000"
 6360      6973746F 
 6360      727900
 6361              	.LASF46:
 6362 0255 62736C6E 		.ascii	"bsln\000"
 6362      00
 6363              	.LASF0:
 6364 025a 756E7369 		.ascii	"unsigned int\000"
 6364      676E6564 
ARM GAS  C:\Users\codyg\AppData\Local\Temp\ccRbtLKH.s 			page 148


 6364      20696E74 
 6364      00
 6365              	.LASF11:
 6366 0267 6C6F6E67 		.ascii	"long unsigned int\000"
 6366      20756E73 
 6366      69676E65 
 6366      6420696E 
 6366      7400
 6367              	.LASF85:
 6368 0279 43617053 		.ascii	"CapSense_InitializeIIRInternal\000"
 6368      656E7365 
 6368      5F496E69 
 6368      7469616C 
 6368      697A6549 
 6369              	.LASF65:
 6370 0298 6D656448 		.ascii	"medHistory\000"
 6370      6973746F 
 6370      727900
 6371              	.LASF99:
 6372 02a3 43617053 		.ascii	"CapSense_RunMedianInternal\000"
 6372      656E7365 
 6372      5F52756E 
 6372      4D656469 
 6372      616E496E 
 6373              	.LASF39:
 6374 02be 6C6F7742 		.ascii	"lowBslnRst\000"
 6374      736C6E52 
 6374      737400
 6375              	.LASF121:
 6376 02c9 43617053 		.ascii	"CapSense_FtRunEnabledFilters\000"
 6376      656E7365 
 6376      5F467452 
 6376      756E456E 
 6376      61626C65 
 6377              	.LASF8:
 6378 02e6 73686F72 		.ascii	"short unsigned int\000"
 6378      7420756E 
 6378      7369676E 
 6378      65642069 
 6378      6E7400
 6379              	.LASF107:
 6380 02f9 43617053 		.ascii	"CapSense_FtUpdateBaseline\000"
 6380      656E7365 
 6380      5F467455 
 6380      70646174 
 6380      65426173 
 6381              	.LASF98:
 6382 0313 43617053 		.ascii	"CapSense_RunAverage\000"
 6382      656E7365 
 6382      5F52756E 
 6382      41766572 
 6382      61676500 
 6383              	.LASF75:
 6384 0327 43617053 		.ascii	"CapSense_FtInitializeBaselineChannel\000"
 6384      656E7365 
 6384      5F467449 
 6384      6E697469 
ARM GAS  C:\Users\codyg\AppData\Local\Temp\ccRbtLKH.s 			page 149


 6384      616C697A 
 6385              	.LASF114:
 6386 034c 43617053 		.ascii	"CapSense_UpdateSensorBaseline\000"
 6386      656E7365 
 6386      5F557064 
 6386      61746553 
 6386      656E736F 
 6387              	.LASF53:
 6388 036a 70747232 		.ascii	"ptr2WdgtRam\000"
 6388      57646774 
 6388      52616D00 
 6389              	.LASF5:
 6390 0376 73686F72 		.ascii	"short int\000"
 6390      7420696E 
 6390      7400
 6391              	.LASF73:
 6392 0380 77645479 		.ascii	"wdType\000"
 6392      706500
 6393              	.LASF116:
 6394 0387 62736C6E 		.ascii	"bslnStatus\000"
 6394      53746174 
 6394      757300
 6395              	.LASF78:
 6396 0392 77696467 		.ascii	"widgetId\000"
 6396      65744964 
 6396      00
 6397              	.LASF104:
 6398 039b 70726576 		.ascii	"prevOutput\000"
 6398      4F757470 
 6398      757400
 6399              	.LASF40:
 6400 03a6 69646163 		.ascii	"idacMod\000"
 6400      4D6F6400 
 6401              	.LASF101:
 6402 03ae 43617053 		.ascii	"CapSense_FtMedian\000"
 6402      656E7365 
 6402      5F46744D 
 6402      65646961 
 6402      6E00
 6403              	.LASF60:
 6404 03c0 6E756D43 		.ascii	"numCols\000"
 6404      6F6C7300 
 6405              	.LASF16:
 6406 03c8 73697A65 		.ascii	"sizetype\000"
 6406      74797065 
 6406      00
 6407              	.LASF83:
 6408 03d1 70747257 		.ascii	"ptrWidget\000"
 6408      69646765 
 6408      7400
 6409              	.LASF77:
 6410 03db 43617053 		.ascii	"CapSense_InitializeSensorBaseline\000"
 6410      656E7365 
 6410      5F496E69 
 6410      7469616C 
 6410      697A6553 
 6411              	.LASF57:
ARM GAS  C:\Users\codyg\AppData\Local\Temp\ccRbtLKH.s 			page 150


 6412 03fd 73746174 		.ascii	"staticConfig\000"
 6412      6963436F 
 6412      6E666967 
 6412      00
 6413              	.LASF36:
 6414 040a 6E4E6F69 		.ascii	"nNoiseTh\000"
 6414      73655468 
 6414      00
 6415              	.LASF44:
 6416 0413 73696750 		.ascii	"sigPFC\000"
 6416      464300
 6417              	.LASF88:
 6418 041a 43617053 		.ascii	"CapSense_InitializeIIR\000"
 6418      656E7365 
 6418      5F496E69 
 6418      7469616C 
 6418      697A6549 
 6419              	.LASF59:
 6420 0431 77646774 		.ascii	"wdgtType\000"
 6420      54797065 
 6420      00
 6421              	.LASF66:
 6422 043a 61766748 		.ascii	"avgHistory\000"
 6422      6973746F 
 6422      727900
 6423              	.LASF94:
 6424 0445 43617053 		.ascii	"CapSense_FtInitialize\000"
 6424      656E7365 
 6424      5F467449 
 6424      6E697469 
 6424      616C697A 
 6425              	.LASF100:
 6426 045b 43617053 		.ascii	"CapSense_RunMedian\000"
 6426      656E7365 
 6426      5F52756E 
 6426      4D656469 
 6426      616E00
 6427              	.LASF18:
 6428 046e 666C6F61 		.ascii	"float\000"
 6428      7400
 6429              	.LASF28:
 6430 0474 43617053 		.ascii	"CapSense_WD_RADIAL_SLIDER_E\000"
 6430      656E7365 
 6430      5F57445F 
 6430      52414449 
 6430      414C5F53 
 6431              	.LASF113:
 6432 0490 68697374 		.ascii	"history\000"
 6432      6F727900 
 6433              	.LASF87:
 6434 0498 70747253 		.ascii	"ptrSensorObj\000"
 6434      656E736F 
 6434      724F626A 
 6434      00
 6435              	.LASF26:
 6436 04a5 43617053 		.ascii	"CapSense_WD_BUTTON_E\000"
 6436      656E7365 
ARM GAS  C:\Users\codyg\AppData\Local\Temp\ccRbtLKH.s 			page 151


 6436      5F57445F 
 6436      42555454 
 6436      4F4E5F45 
 6437              	.LASF4:
 6438 04ba 756E7369 		.ascii	"unsigned char\000"
 6438      676E6564 
 6438      20636861 
 6438      7200
 6439              	.LASF84:
 6440 04c8 43617053 		.ascii	"CapSense_InitializeAllBaselines\000"
 6440      656E7365 
 6440      5F496E69 
 6440      7469616C 
 6440      697A6541 
 6441              	.LASF61:
 6442 04e8 43617053 		.ascii	"CapSense_FLASH_WD_STRUCT\000"
 6442      656E7365 
 6442      5F464C41 
 6442      53485F57 
 6442      445F5354 
 6443              	.LASF55:
 6444 0501 70747232 		.ascii	"ptr2FltrHistory\000"
 6444      466C7472 
 6444      48697374 
 6444      6F727900 
 6445              	.LASF70:
 6446 0511 70747250 		.ascii	"ptrProx\000"
 6446      726F7800 
 6447              	.LASF93:
 6448 0519 43617053 		.ascii	"CapSense_InitializeAllFilters\000"
 6448      656E7365 
 6448      5F496E69 
 6448      7469616C 
 6448      697A6541 
 6449              	.LASF117:
 6450 0537 43617053 		.ascii	"CapSense_UpdateAllBaselines\000"
 6450      656E7365 
 6450      5F557064 
 6450      61746541 
 6450      6C6C4261 
 6451              	.LASF120:
 6452 0553 43617053 		.ascii	"CapSense_FtRunEnabledFiltersInternal\000"
 6452      656E7365 
 6452      5F467452 
 6452      756E456E 
 6452      61626C65 
 6453              	.LASF30:
 6454 0578 43617053 		.ascii	"CapSense_WD_TOUCHPAD_E\000"
 6454      656E7365 
 6454      5F57445F 
 6454      544F5543 
 6454      48504144 
 6455              	.LASF123:
 6456 058f 47656E65 		.ascii	"Generated_Source\\PSoC6\\CapSense_Filter.c\000"
 6456      72617465 
 6456      645F536F 
 6456      75726365 
ARM GAS  C:\Users\codyg\AppData\Local\Temp\ccRbtLKH.s 			page 152


 6456      5C50536F 
 6457              	.LASF80:
 6458 05b8 66726571 		.ascii	"freqChannel\000"
 6458      4368616E 
 6458      6E656C00 
 6459              	.LASF74:
 6460 05c4 6368616E 		.ascii	"channel\000"
 6460      6E656C00 
 6461              	.LASF71:
 6462 05cc 43617053 		.ascii	"CapSense_PTR_FILTER_VARIANT\000"
 6462      656E7365 
 6462      5F505452 
 6462      5F46494C 
 6462      5445525F 
 6463              	.LASF15:
 6464 05e8 75696E74 		.ascii	"uint32_t\000"
 6464      33325F74 
 6464      00
 6465              	.LASF124:
 6466 05f1 433A5C55 		.ascii	"C:\\Users\\codyg\\git\\psoc6-realtime-processing\\B"
 6466      73657273 
 6466      5C636F64 
 6466      79675C67 
 6466      69745C70 
 6467 061f 4C455F52 		.ascii	"LE_RTC_IMU.cydsn\\CE218137_BLE_Proximity_RTOS01.cyd"
 6467      54435F49 
 6467      4D552E63 
 6467      7964736E 
 6467      5C434532 
 6468 0651 736E00   		.ascii	"sn\000"
 6469              	.LASF122:
 6470 0654 474E5520 		.ascii	"GNU C11 5.4.1 20160609 (release) [ARM/embedded-5-br"
 6470      43313120 
 6470      352E342E 
 6470      31203230 
 6470      31363036 
 6471 0687 616E6368 		.ascii	"anch revision 237715] -mcpu=cortex-m0plus -mthumb -"
 6471      20726576 
 6471      6973696F 
 6471      6E203233 
 6471      37373135 
 6472 06ba 67202D4F 		.ascii	"g -Og -ffunction-sections -ffat-lto-objects\000"
 6472      67202D66 
 6472      66756E63 
 6472      74696F6E 
 6472      2D736563 
 6473              	.LASF2:
 6474 06e6 6C6F6E67 		.ascii	"long double\000"
 6474      20646F75 
 6474      626C6500 
 6475              	.LASF17:
 6476 06f2 63686172 		.ascii	"char\000"
 6476      00
 6477              	.LASF119:
 6478 06f7 43617053 		.ascii	"CapSense_RunIIR\000"
 6478      656E7365 
 6478      5F52756E 
ARM GAS  C:\Users\codyg\AppData\Local\Temp\ccRbtLKH.s 			page 153


 6478      49495200 
 6479              	.LASF68:
 6480 0707 70726F78 		.ascii	"proxChannel\000"
 6480      4368616E 
 6480      6E656C00 
 6481              	.LASF7:
 6482 0713 5F5F7569 		.ascii	"__uint16_t\000"
 6482      6E743136 
 6482      5F7400
 6483              	.LASF41:
 6484 071e 736E7343 		.ascii	"snsClk\000"
 6484      6C6B00
 6485              	.LASF45:
 6486 0725 43617053 		.ascii	"CapSense_RAM_WD_BASE_STRUCT\000"
 6486      656E7365 
 6486      5F52414D 
 6486      5F57445F 
 6486      42415345 
 6487              	.LASF38:
 6488 0741 6F6E4465 		.ascii	"onDebounce\000"
 6488      626F756E 
 6488      636500
 6489              	.LASF32:
 6490 074c 43617053 		.ascii	"CapSense_WD_TYPE_ENUM\000"
 6490      656E7365 
 6490      5F57445F 
 6490      54595045 
 6490      5F454E55 
 6491              	.LASF81:
 6492 0762 43617053 		.ascii	"CapSense_InitializeWidgetBaseline\000"
 6492      656E7365 
 6492      5F496E69 
 6492      7469616C 
 6492      697A6557 
 6493              	.LASF50:
 6494 0784 69646163 		.ascii	"idacComp\000"
 6494      436F6D70 
 6494      00
 6495              	.LASF92:
 6496 078d 43617053 		.ascii	"CapSense_InitializeWidgetFilter\000"
 6496      656E7365 
 6496      5F496E69 
 6496      7469616C 
 6496      697A6557 
 6497              	.LASF49:
 6498 07ad 6E656742 		.ascii	"negBslnRstCnt\000"
 6498      736C6E52 
 6498      7374436E 
 6498      7400
 6499              	.LASF58:
 6500 07bb 746F7461 		.ascii	"totalNumSns\000"
 6500      6C4E756D 
 6500      536E7300 
 6501              	.LASF56:
 6502 07c7 70747232 		.ascii	"ptr2DebounceArr\000"
 6502      4465626F 
 6502      756E6365 
ARM GAS  C:\Users\codyg\AppData\Local\Temp\ccRbtLKH.s 			page 154


 6502      41727200 
 6503              	.LASF95:
 6504 07d7 43617053 		.ascii	"CapSense_InitializeAverage\000"
 6504      656E7365 
 6504      5F496E69 
 6504      7469616C 
 6504      697A6541 
 6505              	.LASF33:
 6506 07f2 7265736F 		.ascii	"resolution\000"
 6506      6C757469 
 6506      6F6E00
 6507              	.LASF62:
 6508 07fd 77646774 		.ascii	"wdgtArray\000"
 6508      41727261 
 6508      7900
 6509              	.LASF102:
 6510 0807 43617053 		.ascii	"CapSense_FtIIR1stOrder\000"
 6510      656E7365 
 6510      5F467449 
 6510      49523173 
 6510      744F7264 
 6511              	.LASF13:
 6512 081e 75696E74 		.ascii	"uint8_t\000"
 6512      385F7400 
 6513              	.LASF109:
 6514 0826 7369676E 		.ascii	"sign\000"
 6514      00
 6515              	.LASF42:
 6516 082b 736E7343 		.ascii	"snsClkSource\000"
 6516      6C6B536F 
 6516      75726365 
 6516      00
 6517              	.LASF86:
 6518 0838 70747246 		.ascii	"ptrFilterHistObj\000"
 6518      696C7465 
 6518      72486973 
 6518      744F626A 
 6518      00
 6519              	.LASF91:
 6520 0849 43617053 		.ascii	"CapSense_InitializeAverageInternal\000"
 6520      656E7365 
 6520      5F496E69 
 6520      7469616C 
 6520      697A6541 
 6521              	.LASF72:
 6522 086c 70747253 		.ascii	"ptrSensor\000"
 6522      656E736F 
 6522      7200
 6523              	.LASF34:
 6524 0876 66696E67 		.ascii	"fingerTh\000"
 6524      65725468 
 6524      00
 6525              	.LASF67:
 6526 087f 43617053 		.ascii	"CapSense_PROX_FLTR_CHANNEL_STRUCT\000"
 6526      656E7365 
 6526      5F50524F 
 6526      585F464C 
ARM GAS  C:\Users\codyg\AppData\Local\Temp\ccRbtLKH.s 			page 155


 6526      54525F43 
 6527              	.LASF31:
 6528 08a1 43617053 		.ascii	"CapSense_WD_PROXIMITY_E\000"
 6528      656E7365 
 6528      5F57445F 
 6528      50524F58 
 6528      494D4954 
 6529              	.LASF118:
 6530 08b9 43617053 		.ascii	"CapSense_RunIIRInternal\000"
 6530      656E7365 
 6530      5F52756E 
 6530      49495249 
 6530      6E746572 
 6531              	.LASF112:
 6532 08d1 72657375 		.ascii	"result\000"
 6532      6C7400
 6533              	.LASF89:
 6534 08d8 43617053 		.ascii	"CapSense_InitializeMedianInternal\000"
 6534      656E7365 
 6534      5F496E69 
 6534      7469616C 
 6534      697A654D 
 6535              	.LASF35:
 6536 08fa 6E6F6973 		.ascii	"noiseTh\000"
 6536      65546800 
 6537              		.ident	"GCC: (GNU Tools for ARM Embedded Processors) 5.4.1 20160609 (release) [ARM/embedded-5-bran
