ARM GAS  C:\Users\codyg\AppData\Local\Temp\ccRbtLKH.s 			page 1


   1              		.syntax unified
   2              		.cpu cortex-m0plus
   3              		.fpu softvfp
   4              		.eabi_attribute 20, 1
   5              		.eabi_attribute 21, 1
   6              		.eabi_attribute 23, 3
   7              		.eabi_attribute 24, 1
   8              		.eabi_attribute 25, 1
   9              		.eabi_attribute 26, 1
  10              		.eabi_attribute 30, 1
  11              		.eabi_attribute 34, 0
  12              		.eabi_attribute 18, 4
  13              		.thumb
  14              		.syntax unified
  15              		.file	"CapSense_Filter.c"
  16              		.text
  17              	.Ltext0:
  18              		.cfi_sections	.debug_frame
  19              		.section	.text.CapSense_FtInitializeBaselineChannel,"ax",%progbits
  20              		.align	2
  21              		.global	CapSense_FtInitializeBaselineChannel
  22              		.code	16
  23              		.thumb_func
  24              		.type	CapSense_FtInitializeBaselineChannel, %function
  25              	CapSense_FtInitializeBaselineChannel:
  26              	.LFB45:
  27              		.file 1 "Generated_Source\\PSoC6\\CapSense_Filter.c"
   1:Generated_Source\PSoC6/CapSense_Filter.c **** /***************************************************************************//**
   2:Generated_Source\PSoC6/CapSense_Filter.c **** * \file CapSense_Filter.c
   3:Generated_Source\PSoC6/CapSense_Filter.c **** * \version 2.0
   4:Generated_Source\PSoC6/CapSense_Filter.c **** *
   5:Generated_Source\PSoC6/CapSense_Filter.c **** * \brief
   6:Generated_Source\PSoC6/CapSense_Filter.c **** *   This file contains the implementation source code to implement all
   7:Generated_Source\PSoC6/CapSense_Filter.c **** *   firmware filters.
   8:Generated_Source\PSoC6/CapSense_Filter.c **** *
   9:Generated_Source\PSoC6/CapSense_Filter.c **** * \see CapSense v2.0 Datasheet
  10:Generated_Source\PSoC6/CapSense_Filter.c **** *
  11:Generated_Source\PSoC6/CapSense_Filter.c **** *//*****************************************************************************
  12:Generated_Source\PSoC6/CapSense_Filter.c **** * Copyright (2016-2017), Cypress Semiconductor Corporation.
  13:Generated_Source\PSoC6/CapSense_Filter.c **** ********************************************************************************
  14:Generated_Source\PSoC6/CapSense_Filter.c **** * This software is owned by Cypress Semiconductor Corporation (Cypress) and is
  15:Generated_Source\PSoC6/CapSense_Filter.c **** * protected by and subject to worldwide patent protection (United States and
  16:Generated_Source\PSoC6/CapSense_Filter.c **** * foreign), United States copyright laws and international treaty provisions.
  17:Generated_Source\PSoC6/CapSense_Filter.c **** * Cypress hereby grants to licensee a personal, non-exclusive, non-transferable
  18:Generated_Source\PSoC6/CapSense_Filter.c **** * license to copy, use, modify, create derivative works of, and compile the
  19:Generated_Source\PSoC6/CapSense_Filter.c **** * Cypress Source Code and derivative works for the sole purpose of creating
  20:Generated_Source\PSoC6/CapSense_Filter.c **** * custom software in support of licensee product to be used only in conjunction
  21:Generated_Source\PSoC6/CapSense_Filter.c **** * with a Cypress integrated circuit as specified in the applicable agreement.
  22:Generated_Source\PSoC6/CapSense_Filter.c **** * Any reproduction, modification, translation, compilation, or representation of
  23:Generated_Source\PSoC6/CapSense_Filter.c **** * this software except as specified above is prohibited without the express
  24:Generated_Source\PSoC6/CapSense_Filter.c **** * written permission of Cypress.
  25:Generated_Source\PSoC6/CapSense_Filter.c **** *
  26:Generated_Source\PSoC6/CapSense_Filter.c **** * Disclaimer: CYPRESS MAKES NO WARRANTY OF ANY KIND, EXPRESS OR IMPLIED, WITH
  27:Generated_Source\PSoC6/CapSense_Filter.c **** * REGARD TO THIS MATERIAL, INCLUDING, BUT NOT LIMITED TO, THE IMPLIED
  28:Generated_Source\PSoC6/CapSense_Filter.c **** * WARRANTIES OF MERCHANTABILITY AND FITNESS FOR A PARTICULAR PURPOSE.
  29:Generated_Source\PSoC6/CapSense_Filter.c **** * Cypress reserves the right to make changes without further notice to the
  30:Generated_Source\PSoC6/CapSense_Filter.c **** * materials described herein. Cypress does not assume any liability arising out
ARM GAS  C:\Users\codyg\AppData\Local\Temp\ccRbtLKH.s 			page 2


  31:Generated_Source\PSoC6/CapSense_Filter.c **** * of the application or use of any product or circuit described herein. Cypress
  32:Generated_Source\PSoC6/CapSense_Filter.c **** * does not authorize its products for use as critical components in life-support
  33:Generated_Source\PSoC6/CapSense_Filter.c **** * systems where a malfunction or failure may reasonably be expected to result in
  34:Generated_Source\PSoC6/CapSense_Filter.c **** * significant injury to the user. The inclusion of Cypress' product in a life-
  35:Generated_Source\PSoC6/CapSense_Filter.c **** * support systems application implies that the manufacturer assumes all risk of
  36:Generated_Source\PSoC6/CapSense_Filter.c **** * such use and in doing so indemnifies Cypress against all charges. Use may be
  37:Generated_Source\PSoC6/CapSense_Filter.c **** * limited by and subject to the applicable Cypress software license agreement.
  38:Generated_Source\PSoC6/CapSense_Filter.c **** *******************************************************************************/
  39:Generated_Source\PSoC6/CapSense_Filter.c **** 
  40:Generated_Source\PSoC6/CapSense_Filter.c **** #include "stddef.h"
  41:Generated_Source\PSoC6/CapSense_Filter.c **** #include "CapSense_Filter.h"
  42:Generated_Source\PSoC6/CapSense_Filter.c **** #include "CapSense_Configuration.h"
  43:Generated_Source\PSoC6/CapSense_Filter.c **** 
  44:Generated_Source\PSoC6/CapSense_Filter.c **** #if (0 != (CapSense_CSD_AUTOTUNE & CapSense_CSD_SS_TH_EN))
  45:Generated_Source\PSoC6/CapSense_Filter.c ****     #include "CapSense_SmartSense_LL.h"
  46:Generated_Source\PSoC6/CapSense_Filter.c **** #endif /* (0 != (CapSense_CSD_AUTOTUNE & CapSense_CSD_SS_TH_EN)) */
  47:Generated_Source\PSoC6/CapSense_Filter.c **** 
  48:Generated_Source\PSoC6/CapSense_Filter.c **** #if (CapSense_ENABLE == CapSense_SELF_TEST_EN)
  49:Generated_Source\PSoC6/CapSense_Filter.c ****     #include "CapSense_SelfTest.h"
  50:Generated_Source\PSoC6/CapSense_Filter.c **** #endif
  51:Generated_Source\PSoC6/CapSense_Filter.c **** 
  52:Generated_Source\PSoC6/CapSense_Filter.c **** /*******************************************************************************
  53:Generated_Source\PSoC6/CapSense_Filter.c **** * Function Name: CapSense_FtInitialize
  54:Generated_Source\PSoC6/CapSense_Filter.c **** ****************************************************************************//**
  55:Generated_Source\PSoC6/CapSense_Filter.c **** *
  56:Generated_Source\PSoC6/CapSense_Filter.c **** * \brief
  57:Generated_Source\PSoC6/CapSense_Filter.c **** *    Initializes all the firmware filter history, except the baseline filter.
  58:Generated_Source\PSoC6/CapSense_Filter.c **** *
  59:Generated_Source\PSoC6/CapSense_Filter.c **** * \details
  60:Generated_Source\PSoC6/CapSense_Filter.c **** *    Initializes all the firmware filter history, except the baseline filter.
  61:Generated_Source\PSoC6/CapSense_Filter.c **** *
  62:Generated_Source\PSoC6/CapSense_Filter.c **** *******************************************************************************/
  63:Generated_Source\PSoC6/CapSense_Filter.c **** void CapSense_FtInitialize(void)
  64:Generated_Source\PSoC6/CapSense_Filter.c **** {
  65:Generated_Source\PSoC6/CapSense_Filter.c ****     #if ((CapSense_ENABLE == CapSense_RC_FILTER_EN) || \
  66:Generated_Source\PSoC6/CapSense_Filter.c ****          (0u != (CapSense_CSD_AUTOTUNE & CapSense_CSD_SS_TH_EN)))
  67:Generated_Source\PSoC6/CapSense_Filter.c ****         CapSense_InitializeAllFilters();
  68:Generated_Source\PSoC6/CapSense_Filter.c ****     #endif /* ((CapSense_ENABLE == CapSense_RC_FILTER_EN) || \
  69:Generated_Source\PSoC6/CapSense_Filter.c ****                (0u != (CapSense_CSD_AUTOTUNE & CapSense_CSD_SS_TH_EN))) */
  70:Generated_Source\PSoC6/CapSense_Filter.c **** }
  71:Generated_Source\PSoC6/CapSense_Filter.c **** 
  72:Generated_Source\PSoC6/CapSense_Filter.c **** 
  73:Generated_Source\PSoC6/CapSense_Filter.c **** /*******************************************************************************
  74:Generated_Source\PSoC6/CapSense_Filter.c **** * Function Name: CapSense_UpdateAllBaselines
  75:Generated_Source\PSoC6/CapSense_Filter.c **** ****************************************************************************//**
  76:Generated_Source\PSoC6/CapSense_Filter.c **** *
  77:Generated_Source\PSoC6/CapSense_Filter.c **** * \brief
  78:Generated_Source\PSoC6/CapSense_Filter.c **** *  Updates the baseline for all the sensors in all the widgets.
  79:Generated_Source\PSoC6/CapSense_Filter.c **** *
  80:Generated_Source\PSoC6/CapSense_Filter.c **** * \details
  81:Generated_Source\PSoC6/CapSense_Filter.c **** *  Updates the baseline for all the sensors in all the widgets. Baseline updating is a
  82:Generated_Source\PSoC6/CapSense_Filter.c **** *  part of data processing performed by the process functions. So, no need to
  83:Generated_Source\PSoC6/CapSense_Filter.c **** *  call this function except a specific process flow is implemented.
  84:Generated_Source\PSoC6/CapSense_Filter.c **** *
  85:Generated_Source\PSoC6/CapSense_Filter.c **** *  This function ignores the value of the wdgtEnable register. Multiple calling
  86:Generated_Source\PSoC6/CapSense_Filter.c **** *  of this function (or any other function with a baseline updating task)
  87:Generated_Source\PSoC6/CapSense_Filter.c **** *  without scanning leads to unexpected behavior.
ARM GAS  C:\Users\codyg\AppData\Local\Temp\ccRbtLKH.s 			page 3


  88:Generated_Source\PSoC6/CapSense_Filter.c **** *
  89:Generated_Source\PSoC6/CapSense_Filter.c **** *  If the Self-test library is enabled, this function executes the baseline duplication
  90:Generated_Source\PSoC6/CapSense_Filter.c **** *  test. Refer to CapSense_CheckBaselineDuplication() for details.
  91:Generated_Source\PSoC6/CapSense_Filter.c **** *
  92:Generated_Source\PSoC6/CapSense_Filter.c **** * \return
  93:Generated_Source\PSoC6/CapSense_Filter.c **** *  Returns the status of the update baseline operation of all the widgets:
  94:Generated_Source\PSoC6/CapSense_Filter.c **** *  - CY_RET_SUCCESS - The operation is successfully completed.
  95:Generated_Source\PSoC6/CapSense_Filter.c **** *  - CY_RET_BAD_DATA - The baseline processing failed.
  96:Generated_Source\PSoC6/CapSense_Filter.c **** *
  97:Generated_Source\PSoC6/CapSense_Filter.c **** *******************************************************************************/
  98:Generated_Source\PSoC6/CapSense_Filter.c **** cy_status CapSense_UpdateAllBaselines(void)
  99:Generated_Source\PSoC6/CapSense_Filter.c **** {
 100:Generated_Source\PSoC6/CapSense_Filter.c ****     uint32 widgetId;
 101:Generated_Source\PSoC6/CapSense_Filter.c ****     cy_status bslnStatus = CY_RET_SUCCESS;
 102:Generated_Source\PSoC6/CapSense_Filter.c **** 
 103:Generated_Source\PSoC6/CapSense_Filter.c ****     for(widgetId = CapSense_TOTAL_WIDGETS; widgetId-- > 0u;)
 104:Generated_Source\PSoC6/CapSense_Filter.c ****     {
 105:Generated_Source\PSoC6/CapSense_Filter.c ****         bslnStatus |= CapSense_UpdateWidgetBaseline(widgetId);
 106:Generated_Source\PSoC6/CapSense_Filter.c ****     }
 107:Generated_Source\PSoC6/CapSense_Filter.c **** 
 108:Generated_Source\PSoC6/CapSense_Filter.c ****     return(bslnStatus);
 109:Generated_Source\PSoC6/CapSense_Filter.c **** }
 110:Generated_Source\PSoC6/CapSense_Filter.c **** 
 111:Generated_Source\PSoC6/CapSense_Filter.c **** 
 112:Generated_Source\PSoC6/CapSense_Filter.c **** /*******************************************************************************
 113:Generated_Source\PSoC6/CapSense_Filter.c **** * Function Name: CapSense_UpdateWidgetBaseline
 114:Generated_Source\PSoC6/CapSense_Filter.c **** ****************************************************************************//**
 115:Generated_Source\PSoC6/CapSense_Filter.c **** *
 116:Generated_Source\PSoC6/CapSense_Filter.c **** * \brief
 117:Generated_Source\PSoC6/CapSense_Filter.c **** *  Updates the baselines for all the sensors in a widget specified by the input parameter.
 118:Generated_Source\PSoC6/CapSense_Filter.c **** *
 119:Generated_Source\PSoC6/CapSense_Filter.c **** * \details
 120:Generated_Source\PSoC6/CapSense_Filter.c **** *  This function performs exactly the same tasks as
 121:Generated_Source\PSoC6/CapSense_Filter.c **** *  CapSense_UpdateAllBaselines() but only for a specified widget.
 122:Generated_Source\PSoC6/CapSense_Filter.c **** *
 123:Generated_Source\PSoC6/CapSense_Filter.c **** *  This function ignores the value of the wdgtEnable register. Multiple calling
 124:Generated_Source\PSoC6/CapSense_Filter.c **** *  of this function (or any other function with a baseline updating task)
 125:Generated_Source\PSoC6/CapSense_Filter.c **** *  without scanning leads to unexpected behavior.
 126:Generated_Source\PSoC6/CapSense_Filter.c **** *
 127:Generated_Source\PSoC6/CapSense_Filter.c **** *  If the Self-test library is enabled, this function executes the baseline duplication
 128:Generated_Source\PSoC6/CapSense_Filter.c **** *  test. Refer to CapSense_CheckBaselineDuplication() for details.
 129:Generated_Source\PSoC6/CapSense_Filter.c **** *
 130:Generated_Source\PSoC6/CapSense_Filter.c **** * \param widgetId
 131:Generated_Source\PSoC6/CapSense_Filter.c **** *  Specifies the ID number of the widget to update the baseline of all the sensors
 132:Generated_Source\PSoC6/CapSense_Filter.c **** *  in the widget.
 133:Generated_Source\PSoC6/CapSense_Filter.c **** *  A macro for the widget ID can be found in the
 134:Generated_Source\PSoC6/CapSense_Filter.c **** *  CapSense Configuration header file defined as
 135:Generated_Source\PSoC6/CapSense_Filter.c **** *  CapSense_<WidgetName>_WDGT_ID.
 136:Generated_Source\PSoC6/CapSense_Filter.c **** *
 137:Generated_Source\PSoC6/CapSense_Filter.c **** * \return
 138:Generated_Source\PSoC6/CapSense_Filter.c **** *  Returns the status of the specified widget update baseline operation:
 139:Generated_Source\PSoC6/CapSense_Filter.c **** *  - CY_RET_SUCCESS - The operation is successfully completed.
 140:Generated_Source\PSoC6/CapSense_Filter.c **** *  - CY_RET_BAD_DATA - The baseline processing failed.
 141:Generated_Source\PSoC6/CapSense_Filter.c **** *
 142:Generated_Source\PSoC6/CapSense_Filter.c **** *******************************************************************************/
 143:Generated_Source\PSoC6/CapSense_Filter.c **** cy_status CapSense_UpdateWidgetBaseline(uint32 widgetId)
 144:Generated_Source\PSoC6/CapSense_Filter.c **** {
ARM GAS  C:\Users\codyg\AppData\Local\Temp\ccRbtLKH.s 			page 4


 145:Generated_Source\PSoC6/CapSense_Filter.c ****     uint32 sensorId;
 146:Generated_Source\PSoC6/CapSense_Filter.c ****     uint32 sensorsNumber;
 147:Generated_Source\PSoC6/CapSense_Filter.c **** 
 148:Generated_Source\PSoC6/CapSense_Filter.c ****     CapSense_FLASH_WD_STRUCT const *ptrWidget = &CapSense_dsFlash.wdgtArray[widgetId];
 149:Generated_Source\PSoC6/CapSense_Filter.c ****     cy_status bslnStatus = CY_RET_SUCCESS;
 150:Generated_Source\PSoC6/CapSense_Filter.c **** 
 151:Generated_Source\PSoC6/CapSense_Filter.c ****     /* Find total amount of sensors in specified widget */
 152:Generated_Source\PSoC6/CapSense_Filter.c ****     sensorsNumber = CapSense_GET_SNS_CNT_BY_PTR(ptrWidget);
 153:Generated_Source\PSoC6/CapSense_Filter.c **** 
 154:Generated_Source\PSoC6/CapSense_Filter.c ****     for(sensorId = sensorsNumber; sensorId-- > 0u;)
 155:Generated_Source\PSoC6/CapSense_Filter.c ****     {
 156:Generated_Source\PSoC6/CapSense_Filter.c ****         bslnStatus |= CapSense_UpdateSensorBaseline(widgetId, sensorId);
 157:Generated_Source\PSoC6/CapSense_Filter.c ****     }
 158:Generated_Source\PSoC6/CapSense_Filter.c **** 
 159:Generated_Source\PSoC6/CapSense_Filter.c ****     return(bslnStatus);
 160:Generated_Source\PSoC6/CapSense_Filter.c **** }
 161:Generated_Source\PSoC6/CapSense_Filter.c **** 
 162:Generated_Source\PSoC6/CapSense_Filter.c **** 
 163:Generated_Source\PSoC6/CapSense_Filter.c **** /*******************************************************************************
 164:Generated_Source\PSoC6/CapSense_Filter.c **** * Function Name: CapSense_UpdateSensorBaseline
 165:Generated_Source\PSoC6/CapSense_Filter.c **** ****************************************************************************//**
 166:Generated_Source\PSoC6/CapSense_Filter.c **** *
 167:Generated_Source\PSoC6/CapSense_Filter.c **** * \brief
 168:Generated_Source\PSoC6/CapSense_Filter.c **** *  Updates the baseline for a sensor in a widget specified by the input parameters.
 169:Generated_Source\PSoC6/CapSense_Filter.c **** *
 170:Generated_Source\PSoC6/CapSense_Filter.c **** * \details
 171:Generated_Source\PSoC6/CapSense_Filter.c **** *  This function performs exactly the same tasks as
 172:Generated_Source\PSoC6/CapSense_Filter.c **** *  CapSense_UpdateAllBaselines() and
 173:Generated_Source\PSoC6/CapSense_Filter.c **** *  CapSense_UpdateWidgetBaseline() but only for a specified sensor.
 174:Generated_Source\PSoC6/CapSense_Filter.c **** *
 175:Generated_Source\PSoC6/CapSense_Filter.c **** *  This function ignores the value of the wdgtEnable register. Multiple calling
 176:Generated_Source\PSoC6/CapSense_Filter.c **** *  of this function (or any other function with a baseline updating task)
 177:Generated_Source\PSoC6/CapSense_Filter.c **** *  without scanning leads to unexpected behavior.
 178:Generated_Source\PSoC6/CapSense_Filter.c **** *
 179:Generated_Source\PSoC6/CapSense_Filter.c **** *  If the Self-test library is enabled, this function executes the baseline duplication
 180:Generated_Source\PSoC6/CapSense_Filter.c **** *  test. Refer to CapSense_CheckBaselineDuplication() for details.
 181:Generated_Source\PSoC6/CapSense_Filter.c **** *
 182:Generated_Source\PSoC6/CapSense_Filter.c **** * \param   widgetId
 183:Generated_Source\PSoC6/CapSense_Filter.c **** *  Specifies the ID number of the widget to update the baseline of the sensor
 184:Generated_Source\PSoC6/CapSense_Filter.c **** *  specified by the sensorId argument.
 185:Generated_Source\PSoC6/CapSense_Filter.c **** *  A macro for the widget ID can be found in the CapSense Configuration header
 186:Generated_Source\PSoC6/CapSense_Filter.c **** *  file defined as CapSense_<WidgetName>_WDGT_ID.
 187:Generated_Source\PSoC6/CapSense_Filter.c **** *
 188:Generated_Source\PSoC6/CapSense_Filter.c **** * \param   sensorId
 189:Generated_Source\PSoC6/CapSense_Filter.c **** *  Specifies the ID number of the sensor within the widget to update its baseline.
 190:Generated_Source\PSoC6/CapSense_Filter.c **** *  A macro for the sensor ID within a specified widget can be found in the
 191:Generated_Source\PSoC6/CapSense_Filter.c **** *  CapSense Configuration header file defined as
 192:Generated_Source\PSoC6/CapSense_Filter.c **** *  CapSense_<WidgetName>_SNS<SensorNumber>_ID.
 193:Generated_Source\PSoC6/CapSense_Filter.c **** *
 194:Generated_Source\PSoC6/CapSense_Filter.c **** * \return
 195:Generated_Source\PSoC6/CapSense_Filter.c **** *  Returns the status of the specified sensor update baseline operation:
 196:Generated_Source\PSoC6/CapSense_Filter.c **** *  - CY_RET_SUCCESS - The operation is successfully completed.
 197:Generated_Source\PSoC6/CapSense_Filter.c **** *  - CY_RET_BAD_DATA - The baseline processing failed.
 198:Generated_Source\PSoC6/CapSense_Filter.c **** *
 199:Generated_Source\PSoC6/CapSense_Filter.c **** *******************************************************************************/
 200:Generated_Source\PSoC6/CapSense_Filter.c **** cy_status CapSense_UpdateSensorBaseline(uint32 widgetId, uint32 sensorId)
 201:Generated_Source\PSoC6/CapSense_Filter.c **** {
ARM GAS  C:\Users\codyg\AppData\Local\Temp\ccRbtLKH.s 			page 5


 202:Generated_Source\PSoC6/CapSense_Filter.c ****     uint32 result = CY_RET_SUCCESS;
 203:Generated_Source\PSoC6/CapSense_Filter.c **** 
 204:Generated_Source\PSoC6/CapSense_Filter.c ****     CapSense_RAM_SNS_STRUCT *ptrSensor = NULL;
 205:Generated_Source\PSoC6/CapSense_Filter.c ****     CapSense_FLASH_WD_STRUCT const *ptrWidget = &CapSense_dsFlash.wdgtArray[widgetId];
 206:Generated_Source\PSoC6/CapSense_Filter.c ****     CapSense_RAM_WD_BASE_STRUCT *ptrWidgetRam = (CapSense_RAM_WD_BASE_STRUCT *)ptrWidget->ptr2WdgtR
 207:Generated_Source\PSoC6/CapSense_Filter.c **** 
 208:Generated_Source\PSoC6/CapSense_Filter.c ****     /* Find pointer to specified sensor object */
 209:Generated_Source\PSoC6/CapSense_Filter.c ****     ptrSensor = ptrWidget->ptr2SnsRam;
 210:Generated_Source\PSoC6/CapSense_Filter.c ****     ptrSensor = &ptrSensor[sensorId];
 211:Generated_Source\PSoC6/CapSense_Filter.c ****     result = CapSense_FtUpdateBaseline(ptrWidgetRam, ptrSensor, (uint32)ptrWidget->wdgtType);
 212:Generated_Source\PSoC6/CapSense_Filter.c **** 
 213:Generated_Source\PSoC6/CapSense_Filter.c ****     #if (CapSense_ENABLE == CapSense_TST_BSLN_DUPLICATION_EN)
 214:Generated_Source\PSoC6/CapSense_Filter.c ****         if (CY_RET_SUCCESS != result)
 215:Generated_Source\PSoC6/CapSense_Filter.c ****         {
 216:Generated_Source\PSoC6/CapSense_Filter.c ****             result = CY_RET_BAD_DATA;
 217:Generated_Source\PSoC6/CapSense_Filter.c ****             CapSense_UpdateTestResultBaselineDuplication(widgetId, sensorId);
 218:Generated_Source\PSoC6/CapSense_Filter.c ****         }
 219:Generated_Source\PSoC6/CapSense_Filter.c ****     #endif /* (CapSense_ENABLE == CapSense_TST_BSLN_DUPLICATION_EN) */
 220:Generated_Source\PSoC6/CapSense_Filter.c **** 
 221:Generated_Source\PSoC6/CapSense_Filter.c ****     return result;
 222:Generated_Source\PSoC6/CapSense_Filter.c **** }
 223:Generated_Source\PSoC6/CapSense_Filter.c **** 
 224:Generated_Source\PSoC6/CapSense_Filter.c **** /*******************************************************************************
 225:Generated_Source\PSoC6/CapSense_Filter.c **** * Function Name: CapSense_FtUpdateBaseline
 226:Generated_Source\PSoC6/CapSense_Filter.c **** ****************************************************************************//**
 227:Generated_Source\PSoC6/CapSense_Filter.c **** *
 228:Generated_Source\PSoC6/CapSense_Filter.c **** * \brief
 229:Generated_Source\PSoC6/CapSense_Filter.c **** *  Updates the baseline for a sensor specified by an input parameter.
 230:Generated_Source\PSoC6/CapSense_Filter.c **** *
 231:Generated_Source\PSoC6/CapSense_Filter.c **** * \details
 232:Generated_Source\PSoC6/CapSense_Filter.c **** *  Check a matching of present baseline and its inverse duplication. If they
 233:Generated_Source\PSoC6/CapSense_Filter.c **** *  match then updates the baseline for a sensor specified by an input parameter.
 234:Generated_Source\PSoC6/CapSense_Filter.c **** *  If don't match the function return CapSense_TST_BSLN_DUPLICATION
 235:Generated_Source\PSoC6/CapSense_Filter.c **** *  result and don't update baseline.
 236:Generated_Source\PSoC6/CapSense_Filter.c **** *
 237:Generated_Source\PSoC6/CapSense_Filter.c **** * \param    ptrWidgetRam
 238:Generated_Source\PSoC6/CapSense_Filter.c **** *  The pointer to the widget RAM structure where all the widget parameters
 239:Generated_Source\PSoC6/CapSense_Filter.c **** *  are stored.
 240:Generated_Source\PSoC6/CapSense_Filter.c **** *
 241:Generated_Source\PSoC6/CapSense_Filter.c **** * \param    ptrSensor
 242:Generated_Source\PSoC6/CapSense_Filter.c **** *  The pointer to the sensor RAM structure where all the sensor parameters
 243:Generated_Source\PSoC6/CapSense_Filter.c **** *  are stored.
 244:Generated_Source\PSoC6/CapSense_Filter.c **** *
 245:Generated_Source\PSoC6/CapSense_Filter.c **** * \param    wdType
 246:Generated_Source\PSoC6/CapSense_Filter.c **** *  Specifies the type of a widget.
 247:Generated_Source\PSoC6/CapSense_Filter.c **** *
 248:Generated_Source\PSoC6/CapSense_Filter.c **** * \return
 249:Generated_Source\PSoC6/CapSense_Filter.c **** *  Returns a status indicating whether the baseline has been updated:
 250:Generated_Source\PSoC6/CapSense_Filter.c **** *  - CY_RET_SUCCESS if baseline updating was successful;
 251:Generated_Source\PSoC6/CapSense_Filter.c **** *  - CapSense_PROCESS_BASELINE_FAILED if present sensor's any channel
 252:Generated_Source\PSoC6/CapSense_Filter.c **** *    baseline and its inversion doesn't matched
 253:Generated_Source\PSoC6/CapSense_Filter.c **** *
 254:Generated_Source\PSoC6/CapSense_Filter.c **** *******************************************************************************/
 255:Generated_Source\PSoC6/CapSense_Filter.c **** uint32 CapSense_FtUpdateBaseline(
 256:Generated_Source\PSoC6/CapSense_Filter.c ****                                 CapSense_RAM_WD_BASE_STRUCT *ptrWidgetRam,
 257:Generated_Source\PSoC6/CapSense_Filter.c ****                                 CapSense_RAM_SNS_STRUCT *ptrSensor,
 258:Generated_Source\PSoC6/CapSense_Filter.c ****                                 uint32 wdType)
ARM GAS  C:\Users\codyg\AppData\Local\Temp\ccRbtLKH.s 			page 6


 259:Generated_Source\PSoC6/CapSense_Filter.c **** {
 260:Generated_Source\PSoC6/CapSense_Filter.c ****     uint32 sign;
 261:Generated_Source\PSoC6/CapSense_Filter.c ****     uint32 difference;
 262:Generated_Source\PSoC6/CapSense_Filter.c ****     uint32 freqChannel;
 263:Generated_Source\PSoC6/CapSense_Filter.c ****     uint32 baselineCoeff;
 264:Generated_Source\PSoC6/CapSense_Filter.c ****     uint32 result = CY_RET_SUCCESS;
 265:Generated_Source\PSoC6/CapSense_Filter.c **** 
 266:Generated_Source\PSoC6/CapSense_Filter.c ****     #if (CapSense_TOTAL_WIDGETS)
 267:Generated_Source\PSoC6/CapSense_Filter.c ****         uint32 history;
 268:Generated_Source\PSoC6/CapSense_Filter.c ****     #endif /* (CapSense_TOTAL_WIDGETS) */
 269:Generated_Source\PSoC6/CapSense_Filter.c **** 
 270:Generated_Source\PSoC6/CapSense_Filter.c ****     /* Apply baseline to every channel in sensor */
 271:Generated_Source\PSoC6/CapSense_Filter.c ****     for(freqChannel = CapSense_NUM_SCAN_FREQS; freqChannel-- > 0u;)
 272:Generated_Source\PSoC6/CapSense_Filter.c ****     {
 273:Generated_Source\PSoC6/CapSense_Filter.c ****         #if (CapSense_ENABLE == CapSense_TST_BSLN_DUPLICATION_EN)
 274:Generated_Source\PSoC6/CapSense_Filter.c ****             if (ptrSensor->bslnInv[freqChannel] != ((uint16) ~(ptrSensor->bsln[freqChannel])))
 275:Generated_Source\PSoC6/CapSense_Filter.c ****             {
 276:Generated_Source\PSoC6/CapSense_Filter.c ****                 result = CapSense_PROCESS_BASELINE_FAILED;
 277:Generated_Source\PSoC6/CapSense_Filter.c ****             }
 278:Generated_Source\PSoC6/CapSense_Filter.c ****             else
 279:Generated_Source\PSoC6/CapSense_Filter.c ****             {
 280:Generated_Source\PSoC6/CapSense_Filter.c ****         #endif /* (CapSense_ENABLE == CapSense_TST_BSLN_DUPLICATION_EN) */
 281:Generated_Source\PSoC6/CapSense_Filter.c **** 
 282:Generated_Source\PSoC6/CapSense_Filter.c ****         /* Calculate signal value and its sign */
 283:Generated_Source\PSoC6/CapSense_Filter.c ****         if(ptrSensor->raw[freqChannel] >= ptrSensor->bsln[freqChannel])
 284:Generated_Source\PSoC6/CapSense_Filter.c ****         {
 285:Generated_Source\PSoC6/CapSense_Filter.c ****             difference = (uint32)ptrSensor->raw[freqChannel] - (uint32)ptrSensor->bsln[freqChannel]
 286:Generated_Source\PSoC6/CapSense_Filter.c ****             sign = 1u;
 287:Generated_Source\PSoC6/CapSense_Filter.c ****             ptrSensor->negBslnRstCnt[freqChannel] = 0u;
 288:Generated_Source\PSoC6/CapSense_Filter.c ****         }
 289:Generated_Source\PSoC6/CapSense_Filter.c ****         else
 290:Generated_Source\PSoC6/CapSense_Filter.c ****         {
 291:Generated_Source\PSoC6/CapSense_Filter.c ****             difference = (uint32)ptrSensor->bsln[freqChannel] - (uint32)ptrSensor->raw[freqChannel]
 292:Generated_Source\PSoC6/CapSense_Filter.c ****             sign = 0u;
 293:Generated_Source\PSoC6/CapSense_Filter.c ****         }
 294:Generated_Source\PSoC6/CapSense_Filter.c **** 
 295:Generated_Source\PSoC6/CapSense_Filter.c ****         /* Reset baseline if condition is met */
 296:Generated_Source\PSoC6/CapSense_Filter.c ****         if((sign == 0u) && (difference > (uint32) ptrWidgetRam->nNoiseTh))
 297:Generated_Source\PSoC6/CapSense_Filter.c ****         {
 298:Generated_Source\PSoC6/CapSense_Filter.c ****             if(ptrSensor->negBslnRstCnt[freqChannel] >= ptrWidgetRam->lowBslnRst)
 299:Generated_Source\PSoC6/CapSense_Filter.c ****             {
 300:Generated_Source\PSoC6/CapSense_Filter.c ****                 CapSense_FtInitializeBaselineChannel(ptrSensor, wdType, freqChannel);
 301:Generated_Source\PSoC6/CapSense_Filter.c ****             }
 302:Generated_Source\PSoC6/CapSense_Filter.c ****             else
 303:Generated_Source\PSoC6/CapSense_Filter.c ****             {
 304:Generated_Source\PSoC6/CapSense_Filter.c ****                 ptrSensor->negBslnRstCnt[freqChannel]++;
 305:Generated_Source\PSoC6/CapSense_Filter.c ****             }
 306:Generated_Source\PSoC6/CapSense_Filter.c ****         }
 307:Generated_Source\PSoC6/CapSense_Filter.c ****         else
 308:Generated_Source\PSoC6/CapSense_Filter.c ****         {
 309:Generated_Source\PSoC6/CapSense_Filter.c ****             #if (!CapSense_SENSOR_AUTO_RESET_EN)
 310:Generated_Source\PSoC6/CapSense_Filter.c ****                 /* Update baseline only if signal is in range between noiseThreshold and negativeno
 311:Generated_Source\PSoC6/CapSense_Filter.c ****                 if ((difference <= (uint32)ptrWidgetRam->noiseTh) ||
 312:Generated_Source\PSoC6/CapSense_Filter.c ****                     ((difference < (uint32) ptrWidgetRam->nNoiseTh) && (sign == 0u)))
 313:Generated_Source\PSoC6/CapSense_Filter.c ****                 {
 314:Generated_Source\PSoC6/CapSense_Filter.c ****             #endif /* (CapSense_CSD_AUTO_RESET == CapSense_CSD_AUTO_RESET_DISABLE) */
 315:Generated_Source\PSoC6/CapSense_Filter.c **** 
ARM GAS  C:\Users\codyg\AppData\Local\Temp\ccRbtLKH.s 			page 7


 316:Generated_Source\PSoC6/CapSense_Filter.c ****             #if (CapSense_BASELINE_TYPE == CapSense_IIR_BASELINE)
 317:Generated_Source\PSoC6/CapSense_Filter.c ****                 /* Calculate baseline value */
 318:Generated_Source\PSoC6/CapSense_Filter.c ****                 if ((CapSense_WD_TYPE_ENUM)wdType != CapSense_WD_PROXIMITY_E)
 319:Generated_Source\PSoC6/CapSense_Filter.c ****                 {
 320:Generated_Source\PSoC6/CapSense_Filter.c ****                     #if (CapSense_REGULAR_SENSOR_EN)
 321:Generated_Source\PSoC6/CapSense_Filter.c ****                         #if (CapSense_REGULAR_IIR_BL_TYPE == CapSense_IIR_FILTER_PERFORMANCE)
 322:Generated_Source\PSoC6/CapSense_Filter.c ****                             history = (uint32) ptrSensor->bsln[freqChannel] << 8u;
 323:Generated_Source\PSoC6/CapSense_Filter.c ****                             history |= ptrSensor->bslnExt[freqChannel];
 324:Generated_Source\PSoC6/CapSense_Filter.c ****                         #else
 325:Generated_Source\PSoC6/CapSense_Filter.c ****                             history = ptrSensor->bsln[freqChannel];
 326:Generated_Source\PSoC6/CapSense_Filter.c ****                         #endif /* (CapSense_REGULAR_IIR_BL_TYPE == CapSense_IIR_FILTER_PERFORMANCE)
 327:Generated_Source\PSoC6/CapSense_Filter.c **** 
 328:Generated_Source\PSoC6/CapSense_Filter.c ****                         #if (CapSense_ENABLE == CapSense_WD_BSLN_COEFF_EN)
 329:Generated_Source\PSoC6/CapSense_Filter.c ****                             baselineCoeff = ptrWidgetRam->bslnCoeff;
 330:Generated_Source\PSoC6/CapSense_Filter.c ****                         #else /* (CapSense_ENABLE == CapSense_WD_BSLN_COEFF_EN) */
 331:Generated_Source\PSoC6/CapSense_Filter.c ****                             baselineCoeff = CapSense_REGULAR_IIR_BL_N;
 332:Generated_Source\PSoC6/CapSense_Filter.c ****                         #endif /* (CapSense_ENABLE == CapSense_WD_BSLN_COEFF_EN) */
 333:Generated_Source\PSoC6/CapSense_Filter.c **** 
 334:Generated_Source\PSoC6/CapSense_Filter.c ****                         history =  CapSense_FtIIR1stOrder(
 335:Generated_Source\PSoC6/CapSense_Filter.c ****                                         (uint32)ptrSensor->raw[freqChannel],
 336:Generated_Source\PSoC6/CapSense_Filter.c ****                                         history, baselineCoeff,
 337:Generated_Source\PSoC6/CapSense_Filter.c ****                                         CapSense_REGULAR_IIR_BL_SHIFT);
 338:Generated_Source\PSoC6/CapSense_Filter.c **** 
 339:Generated_Source\PSoC6/CapSense_Filter.c ****                         #if (CapSense_REGULAR_IIR_BL_TYPE == CapSense_IIR_FILTER_PERFORMANCE)
 340:Generated_Source\PSoC6/CapSense_Filter.c ****                                     ptrSensor->bsln[freqChannel] = CY_LO16(history >> 8u);
 341:Generated_Source\PSoC6/CapSense_Filter.c ****                                     ptrSensor->bslnExt[freqChannel] = CY_LO8(history);
 342:Generated_Source\PSoC6/CapSense_Filter.c ****                         #else
 343:Generated_Source\PSoC6/CapSense_Filter.c ****                                     ptrSensor->bsln[freqChannel] = CY_LO16(history);
 344:Generated_Source\PSoC6/CapSense_Filter.c ****                         #endif /* (CapSense_REGULAR_IIR_BL_TYPE == CapSense_IIR_FILTER_PERFORMANCE)
 345:Generated_Source\PSoC6/CapSense_Filter.c ****                     #endif /* (CapSense_REGULAR_SENSOR_EN) */
 346:Generated_Source\PSoC6/CapSense_Filter.c ****                 }
 347:Generated_Source\PSoC6/CapSense_Filter.c ****                 else
 348:Generated_Source\PSoC6/CapSense_Filter.c ****                 {
 349:Generated_Source\PSoC6/CapSense_Filter.c ****                     #if (CapSense_PROXIMITY_SENSOR_EN)
 350:Generated_Source\PSoC6/CapSense_Filter.c ****                         #if (CapSense_PROX_IIR_BL_TYPE == CapSense_IIR_FILTER_PERFORMANCE)
 351:Generated_Source\PSoC6/CapSense_Filter.c ****                             history = (uint32) ptrSensor->bsln[freqChannel] << 8u;
 352:Generated_Source\PSoC6/CapSense_Filter.c ****                             history |= ptrSensor->bslnExt[freqChannel];
 353:Generated_Source\PSoC6/CapSense_Filter.c ****                         #else
 354:Generated_Source\PSoC6/CapSense_Filter.c ****                             history = (uint32) ptrSensor->bsln[freqChannel];
 355:Generated_Source\PSoC6/CapSense_Filter.c ****                         #endif /* (CapSense_PROX_IIR_BL_TYPE == CapSense_IIR_FILTER_PERFORMANCE) */
 356:Generated_Source\PSoC6/CapSense_Filter.c **** 
 357:Generated_Source\PSoC6/CapSense_Filter.c ****                         #if (CapSense_ENABLE == CapSense_WD_BSLN_COEFF_EN)
 358:Generated_Source\PSoC6/CapSense_Filter.c ****                             baselineCoeff = ptrWidgetRam->bslnCoeff;
 359:Generated_Source\PSoC6/CapSense_Filter.c ****                         #else /* (CapSense_ENABLE == CapSense_WD_BSLN_COEFF_EN) */
 360:Generated_Source\PSoC6/CapSense_Filter.c ****                             baselineCoeff = CapSense_PROX_IIR_BL_N;
 361:Generated_Source\PSoC6/CapSense_Filter.c ****                         #endif /* (CapSense_ENABLE == CapSense_WD_BSLN_COEFF_EN) */
 362:Generated_Source\PSoC6/CapSense_Filter.c **** 
 363:Generated_Source\PSoC6/CapSense_Filter.c ****                         history = CapSense_FtIIR1stOrder(
 364:Generated_Source\PSoC6/CapSense_Filter.c ****                                         (uint32)ptrSensor->raw[freqChannel],
 365:Generated_Source\PSoC6/CapSense_Filter.c ****                                         history, baselineCoeff,
 366:Generated_Source\PSoC6/CapSense_Filter.c ****                                         CapSense_PROX_IIR_BL_SHIFT);
 367:Generated_Source\PSoC6/CapSense_Filter.c **** 
 368:Generated_Source\PSoC6/CapSense_Filter.c ****                         #if (CapSense_PROX_IIR_BL_TYPE == CapSense_IIR_FILTER_PERFORMANCE)
 369:Generated_Source\PSoC6/CapSense_Filter.c ****                                     ptrSensor->bsln[freqChannel] = CY_LO16(history >> 8u);
 370:Generated_Source\PSoC6/CapSense_Filter.c ****                                     ptrSensor->bslnExt[freqChannel] = CY_LO8(history);
 371:Generated_Source\PSoC6/CapSense_Filter.c ****                         #else
 372:Generated_Source\PSoC6/CapSense_Filter.c ****                                     ptrSensor->bsln[freqChannel] = CY_LO16(history);
ARM GAS  C:\Users\codyg\AppData\Local\Temp\ccRbtLKH.s 			page 8


 373:Generated_Source\PSoC6/CapSense_Filter.c ****                         #endif /* (CapSense_PROX_IIR_BL_TYPE == CapSense_IIR_FILTER_PERFORMANCE) */
 374:Generated_Source\PSoC6/CapSense_Filter.c ****                     #endif /* (CapSense_PROX_SENSOR_EN) */
 375:Generated_Source\PSoC6/CapSense_Filter.c ****                 }
 376:Generated_Source\PSoC6/CapSense_Filter.c ****             #else /* (CapSense_CSD_BASELINE_TYPE == CapSense_IIR_BASELINE) */
 377:Generated_Source\PSoC6/CapSense_Filter.c **** 
 378:Generated_Source\PSoC6/CapSense_Filter.c ****                 /******************************************************************
 379:Generated_Source\PSoC6/CapSense_Filter.c ****                 * This is the place where the bucket algorithm should be implemented.
 380:Generated_Source\PSoC6/CapSense_Filter.c ****                 * The bucket method will be implemented in future Component version.
 381:Generated_Source\PSoC6/CapSense_Filter.c ****                 *******************************************************************/
 382:Generated_Source\PSoC6/CapSense_Filter.c **** 
 383:Generated_Source\PSoC6/CapSense_Filter.c ****             #endif /* (CapSense_CSD_BASELINE_TYPE == CapSense_IIR_BASELINE) */
 384:Generated_Source\PSoC6/CapSense_Filter.c **** 
 385:Generated_Source\PSoC6/CapSense_Filter.c ****             #if (!CapSense_SENSOR_AUTO_RESET_EN)
 386:Generated_Source\PSoC6/CapSense_Filter.c ****                 }
 387:Generated_Source\PSoC6/CapSense_Filter.c ****             #endif /* (!CapSense_SENSOR_AUTO_RESET_EN) */
 388:Generated_Source\PSoC6/CapSense_Filter.c ****         }
 389:Generated_Source\PSoC6/CapSense_Filter.c **** 
 390:Generated_Source\PSoC6/CapSense_Filter.c ****         #if (CapSense_ENABLE == CapSense_TST_BSLN_DUPLICATION_EN)
 391:Generated_Source\PSoC6/CapSense_Filter.c ****             /* Update baseline inversion of every channel in sensor */
 392:Generated_Source\PSoC6/CapSense_Filter.c ****             ptrSensor->bslnInv[freqChannel] = ~(ptrSensor->bsln[freqChannel]);
 393:Generated_Source\PSoC6/CapSense_Filter.c ****             }
 394:Generated_Source\PSoC6/CapSense_Filter.c ****         #endif /* (CapSense_ENABLE == CapSense_TST_BSLN_DUPLICATION_EN) */
 395:Generated_Source\PSoC6/CapSense_Filter.c **** 
 396:Generated_Source\PSoC6/CapSense_Filter.c ****     }
 397:Generated_Source\PSoC6/CapSense_Filter.c ****     return result;
 398:Generated_Source\PSoC6/CapSense_Filter.c **** }
 399:Generated_Source\PSoC6/CapSense_Filter.c **** 
 400:Generated_Source\PSoC6/CapSense_Filter.c **** 
 401:Generated_Source\PSoC6/CapSense_Filter.c **** /*******************************************************************************
 402:Generated_Source\PSoC6/CapSense_Filter.c **** * Function Name: CapSense_InitializeAllBaselines
 403:Generated_Source\PSoC6/CapSense_Filter.c **** ****************************************************************************//**
 404:Generated_Source\PSoC6/CapSense_Filter.c **** *
 405:Generated_Source\PSoC6/CapSense_Filter.c **** * \brief
 406:Generated_Source\PSoC6/CapSense_Filter.c **** *  Initializes (or re-initializes) the baselines of all the sensors of all the widgets.
 407:Generated_Source\PSoC6/CapSense_Filter.c **** *
 408:Generated_Source\PSoC6/CapSense_Filter.c **** * \details
 409:Generated_Source\PSoC6/CapSense_Filter.c **** *  Initializes the baseline for all the sensors of all the widgets. Also, this function
 410:Generated_Source\PSoC6/CapSense_Filter.c **** *  can be used to re-initialize baselines. CapSense_Start() calls this
 411:Generated_Source\PSoC6/CapSense_Filter.c **** *  API as part of CapSense operation initialization.
 412:Generated_Source\PSoC6/CapSense_Filter.c **** *  
 413:Generated_Source\PSoC6/CapSense_Filter.c **** *  If any raw count filter is enabled, make sure the raw count filter history is 
 414:Generated_Source\PSoC6/CapSense_Filter.c **** *  initialized as well using one of these functions:
 415:Generated_Source\PSoC6/CapSense_Filter.c **** *  - CapSense_InitializeAllFilters().
 416:Generated_Source\PSoC6/CapSense_Filter.c **** *  - CapSense_InitializeWidgetFilter().
 417:Generated_Source\PSoC6/CapSense_Filter.c **** *
 418:Generated_Source\PSoC6/CapSense_Filter.c **** *******************************************************************************/
 419:Generated_Source\PSoC6/CapSense_Filter.c **** void CapSense_InitializeAllBaselines(void)
 420:Generated_Source\PSoC6/CapSense_Filter.c **** {
 421:Generated_Source\PSoC6/CapSense_Filter.c ****     uint32 widgetId;
 422:Generated_Source\PSoC6/CapSense_Filter.c **** 
 423:Generated_Source\PSoC6/CapSense_Filter.c ****     for(widgetId = CapSense_TOTAL_WIDGETS; widgetId-- > 0u;)
 424:Generated_Source\PSoC6/CapSense_Filter.c ****     {
 425:Generated_Source\PSoC6/CapSense_Filter.c ****         CapSense_InitializeWidgetBaseline(widgetId);
 426:Generated_Source\PSoC6/CapSense_Filter.c ****     }
 427:Generated_Source\PSoC6/CapSense_Filter.c **** }
 428:Generated_Source\PSoC6/CapSense_Filter.c **** 
 429:Generated_Source\PSoC6/CapSense_Filter.c **** 
ARM GAS  C:\Users\codyg\AppData\Local\Temp\ccRbtLKH.s 			page 9


 430:Generated_Source\PSoC6/CapSense_Filter.c **** /*******************************************************************************
 431:Generated_Source\PSoC6/CapSense_Filter.c **** * Function Name: CapSense_InitializeWidgetBaseline
 432:Generated_Source\PSoC6/CapSense_Filter.c **** ****************************************************************************//**
 433:Generated_Source\PSoC6/CapSense_Filter.c **** *
 434:Generated_Source\PSoC6/CapSense_Filter.c **** * \brief
 435:Generated_Source\PSoC6/CapSense_Filter.c **** *  Initializes (or re-initializes) the baselines of all the sensors in a widget
 436:Generated_Source\PSoC6/CapSense_Filter.c **** *  specified by the input parameter.
 437:Generated_Source\PSoC6/CapSense_Filter.c **** *
 438:Generated_Source\PSoC6/CapSense_Filter.c **** * \details
 439:Generated_Source\PSoC6/CapSense_Filter.c **** *  Initializes (or re-initializes) the baseline for all the sensors of the
 440:Generated_Source\PSoC6/CapSense_Filter.c **** *  specified widget.
 441:Generated_Source\PSoC6/CapSense_Filter.c **** *  
 442:Generated_Source\PSoC6/CapSense_Filter.c **** *  If any raw count filter is enabled, make sure the raw count filter history is 
 443:Generated_Source\PSoC6/CapSense_Filter.c **** *  initialized as well using one of these functions:
 444:Generated_Source\PSoC6/CapSense_Filter.c **** *  - CapSense_InitializeAllFilters().
 445:Generated_Source\PSoC6/CapSense_Filter.c **** *  - CapSense_InitializeWidgetFilter().
 446:Generated_Source\PSoC6/CapSense_Filter.c **** *
 447:Generated_Source\PSoC6/CapSense_Filter.c **** * \param  widgetId
 448:Generated_Source\PSoC6/CapSense_Filter.c **** *  Specifies the ID number of a widget to initialize the baseline of all the sensors
 449:Generated_Source\PSoC6/CapSense_Filter.c **** *  in the widget.
 450:Generated_Source\PSoC6/CapSense_Filter.c **** *  A macro for the widget ID can be found in the
 451:Generated_Source\PSoC6/CapSense_Filter.c **** *  CapSense Configuration header file defined as
 452:Generated_Source\PSoC6/CapSense_Filter.c **** *  CapSense_<WidgetName>_WDGT_ID.
 453:Generated_Source\PSoC6/CapSense_Filter.c **** *
 454:Generated_Source\PSoC6/CapSense_Filter.c **** *******************************************************************************/
 455:Generated_Source\PSoC6/CapSense_Filter.c **** void CapSense_InitializeWidgetBaseline(uint32 widgetId)
 456:Generated_Source\PSoC6/CapSense_Filter.c **** {
 457:Generated_Source\PSoC6/CapSense_Filter.c ****     uint32 sensorId;
 458:Generated_Source\PSoC6/CapSense_Filter.c ****     uint32 sensorsNumber;
 459:Generated_Source\PSoC6/CapSense_Filter.c **** 
 460:Generated_Source\PSoC6/CapSense_Filter.c ****     CapSense_FLASH_WD_STRUCT const *ptrWidget = &CapSense_dsFlash.wdgtArray[widgetId];
 461:Generated_Source\PSoC6/CapSense_Filter.c **** 
 462:Generated_Source\PSoC6/CapSense_Filter.c ****     /* Find total amount of sensors in specified widget */
 463:Generated_Source\PSoC6/CapSense_Filter.c ****     sensorsNumber = CapSense_GET_SNS_CNT_BY_PTR(ptrWidget);
 464:Generated_Source\PSoC6/CapSense_Filter.c **** 
 465:Generated_Source\PSoC6/CapSense_Filter.c ****     for(sensorId = sensorsNumber; sensorId-- > 0u;)
 466:Generated_Source\PSoC6/CapSense_Filter.c ****     {
 467:Generated_Source\PSoC6/CapSense_Filter.c ****         CapSense_InitializeSensorBaseline(widgetId, sensorId);
 468:Generated_Source\PSoC6/CapSense_Filter.c ****     }
 469:Generated_Source\PSoC6/CapSense_Filter.c **** }
 470:Generated_Source\PSoC6/CapSense_Filter.c **** 
 471:Generated_Source\PSoC6/CapSense_Filter.c **** 
 472:Generated_Source\PSoC6/CapSense_Filter.c **** /*******************************************************************************
 473:Generated_Source\PSoC6/CapSense_Filter.c **** * Function Name: CapSense_InitializeSensorBaseline
 474:Generated_Source\PSoC6/CapSense_Filter.c **** ****************************************************************************//**
 475:Generated_Source\PSoC6/CapSense_Filter.c **** *
 476:Generated_Source\PSoC6/CapSense_Filter.c **** * \brief
 477:Generated_Source\PSoC6/CapSense_Filter.c **** *  Initializes (or re-initializes) the baseline of a sensor in a widget specified
 478:Generated_Source\PSoC6/CapSense_Filter.c **** *  by the input parameters.
 479:Generated_Source\PSoC6/CapSense_Filter.c **** *
 480:Generated_Source\PSoC6/CapSense_Filter.c **** * \details
 481:Generated_Source\PSoC6/CapSense_Filter.c **** *  Initializes (or re-initializes) the baseline for a specified sensor within
 482:Generated_Source\PSoC6/CapSense_Filter.c **** *  a specified widget.
 483:Generated_Source\PSoC6/CapSense_Filter.c **** *
 484:Generated_Source\PSoC6/CapSense_Filter.c **** * \param    widgetId
 485:Generated_Source\PSoC6/CapSense_Filter.c **** *  Specifies the ID number of a widget to initialize the baseline of the sensor
 486:Generated_Source\PSoC6/CapSense_Filter.c **** *  in the widget.
ARM GAS  C:\Users\codyg\AppData\Local\Temp\ccRbtLKH.s 			page 10


 487:Generated_Source\PSoC6/CapSense_Filter.c **** *  A macro for the widget ID can be found in the
 488:Generated_Source\PSoC6/CapSense_Filter.c **** *  CapSense Configuration header file defined as
 489:Generated_Source\PSoC6/CapSense_Filter.c **** *  CapSense_<WidgetName>_WDGT_ID.
 490:Generated_Source\PSoC6/CapSense_Filter.c **** *
 491:Generated_Source\PSoC6/CapSense_Filter.c **** * \param    sensorId
 492:Generated_Source\PSoC6/CapSense_Filter.c **** *  Specifies the ID number of the sensor within the widget to initialize its
 493:Generated_Source\PSoC6/CapSense_Filter.c **** *  baseline.
 494:Generated_Source\PSoC6/CapSense_Filter.c **** *  A macro for the sensor ID within a specified widget can be found in the
 495:Generated_Source\PSoC6/CapSense_Filter.c **** *  CapSense Configuration header file defined as
 496:Generated_Source\PSoC6/CapSense_Filter.c **** *  CapSense_<WidgetName>_SNS<SensorNumber>_ID.
 497:Generated_Source\PSoC6/CapSense_Filter.c **** *
 498:Generated_Source\PSoC6/CapSense_Filter.c **** *******************************************************************************/
 499:Generated_Source\PSoC6/CapSense_Filter.c **** void CapSense_InitializeSensorBaseline(uint32 widgetId, uint32 sensorId)
 500:Generated_Source\PSoC6/CapSense_Filter.c **** {
 501:Generated_Source\PSoC6/CapSense_Filter.c ****     CapSense_RAM_SNS_STRUCT *ptrSensor = NULL;
 502:Generated_Source\PSoC6/CapSense_Filter.c ****     CapSense_FLASH_WD_STRUCT const *ptrWidget = NULL;
 503:Generated_Source\PSoC6/CapSense_Filter.c ****     ptrWidget = &CapSense_dsFlash.wdgtArray[widgetId];
 504:Generated_Source\PSoC6/CapSense_Filter.c **** 
 505:Generated_Source\PSoC6/CapSense_Filter.c ****     /* Find pointer to specified sensor object */
 506:Generated_Source\PSoC6/CapSense_Filter.c ****     ptrSensor = ptrWidget->ptr2SnsRam;
 507:Generated_Source\PSoC6/CapSense_Filter.c ****     ptrSensor = &ptrSensor[sensorId];
 508:Generated_Source\PSoC6/CapSense_Filter.c **** 
 509:Generated_Source\PSoC6/CapSense_Filter.c ****     CapSense_FtInitializeBaseline(ptrSensor, (uint32)ptrWidget->wdgtType);
 510:Generated_Source\PSoC6/CapSense_Filter.c **** }
 511:Generated_Source\PSoC6/CapSense_Filter.c **** 
 512:Generated_Source\PSoC6/CapSense_Filter.c **** 
 513:Generated_Source\PSoC6/CapSense_Filter.c **** /*******************************************************************************
 514:Generated_Source\PSoC6/CapSense_Filter.c **** * Function Name: CapSense_FtInitializeBaseline
 515:Generated_Source\PSoC6/CapSense_Filter.c **** ****************************************************************************//**
 516:Generated_Source\PSoC6/CapSense_Filter.c **** *
 517:Generated_Source\PSoC6/CapSense_Filter.c **** * \brief    Initializes the baseline history for a sensor indicated by an input
 518:Generated_Source\PSoC6/CapSense_Filter.c **** *           parameter.
 519:Generated_Source\PSoC6/CapSense_Filter.c **** *
 520:Generated_Source\PSoC6/CapSense_Filter.c **** * \details  Initializes the baseline history for a sensor indicated by an input
 521:Generated_Source\PSoC6/CapSense_Filter.c **** *           parameter.
 522:Generated_Source\PSoC6/CapSense_Filter.c **** *
 523:Generated_Source\PSoC6/CapSense_Filter.c **** * \param    *ptrSensor The pointer to the sensor RAM object.
 524:Generated_Source\PSoC6/CapSense_Filter.c **** * \param    wdType     Specifies the type of a widget.
 525:Generated_Source\PSoC6/CapSense_Filter.c **** *
 526:Generated_Source\PSoC6/CapSense_Filter.c **** *******************************************************************************/
 527:Generated_Source\PSoC6/CapSense_Filter.c **** void CapSense_FtInitializeBaseline(CapSense_RAM_SNS_STRUCT *ptrSensor, uint32 wdType)
 528:Generated_Source\PSoC6/CapSense_Filter.c **** {
 529:Generated_Source\PSoC6/CapSense_Filter.c ****     uint32 freqChannel;
 530:Generated_Source\PSoC6/CapSense_Filter.c **** 
 531:Generated_Source\PSoC6/CapSense_Filter.c ****     /* Apply baseline initialization to every channel in sensor */
 532:Generated_Source\PSoC6/CapSense_Filter.c ****     for(freqChannel = CapSense_NUM_SCAN_FREQS; freqChannel-- > 0u;)
 533:Generated_Source\PSoC6/CapSense_Filter.c ****     {
 534:Generated_Source\PSoC6/CapSense_Filter.c ****         CapSense_FtInitializeBaselineChannel(ptrSensor, wdType, freqChannel);
 535:Generated_Source\PSoC6/CapSense_Filter.c ****     }
 536:Generated_Source\PSoC6/CapSense_Filter.c **** }
 537:Generated_Source\PSoC6/CapSense_Filter.c **** 
 538:Generated_Source\PSoC6/CapSense_Filter.c **** 
 539:Generated_Source\PSoC6/CapSense_Filter.c **** /*******************************************************************************
 540:Generated_Source\PSoC6/CapSense_Filter.c **** * Function Name: CapSense_FtInitializeBaselineChannel
 541:Generated_Source\PSoC6/CapSense_Filter.c **** ****************************************************************************//**
 542:Generated_Source\PSoC6/CapSense_Filter.c **** *
 543:Generated_Source\PSoC6/CapSense_Filter.c **** * \brief    Initializes the baseline history for a sensor indicated by an input
ARM GAS  C:\Users\codyg\AppData\Local\Temp\ccRbtLKH.s 			page 11


 544:Generated_Source\PSoC6/CapSense_Filter.c **** *           parameter.
 545:Generated_Source\PSoC6/CapSense_Filter.c **** *
 546:Generated_Source\PSoC6/CapSense_Filter.c **** * \details  Initializes the baseline history for a sensor indicated by an input
 547:Generated_Source\PSoC6/CapSense_Filter.c **** *           parameter.
 548:Generated_Source\PSoC6/CapSense_Filter.c **** *
 549:Generated_Source\PSoC6/CapSense_Filter.c **** * \param    *ptrSensor The pointer to the sensor RAM object.
 550:Generated_Source\PSoC6/CapSense_Filter.c **** * \param    wdType     Specifies the type of a widget.
 551:Generated_Source\PSoC6/CapSense_Filter.c **** * \param    channel    Specifies the number of the channel to be initialized.
 552:Generated_Source\PSoC6/CapSense_Filter.c **** *
 553:Generated_Source\PSoC6/CapSense_Filter.c **** *******************************************************************************/
 554:Generated_Source\PSoC6/CapSense_Filter.c **** void CapSense_FtInitializeBaselineChannel(CapSense_RAM_SNS_STRUCT *ptrSensor, uint32 wdType, uint32
 555:Generated_Source\PSoC6/CapSense_Filter.c **** {
  28              		.loc 1 555 0
  29              		.cfi_startproc
  30              		@ args = 0, pretend = 0, frame = 0
  31              		@ frame_needed = 0, uses_anonymous_args = 0
  32              		@ link register save eliminated.
  33              	.LVL0:
 556:Generated_Source\PSoC6/CapSense_Filter.c ****     #if (CapSense_BASELINE_TYPE == CapSense_IIR_BASELINE)
 557:Generated_Source\PSoC6/CapSense_Filter.c ****         if ((CapSense_WD_TYPE_ENUM)wdType != CapSense_WD_PROXIMITY_E)
  34              		.loc 1 557 0
  35 0000 FF23     		movs	r3, #255
  36 0002 1940     		ands	r1, r3
  37              	.LVL1:
  38 0004 0629     		cmp	r1, #6
  39 0006 02D1     		bne	.L2
 558:Generated_Source\PSoC6/CapSense_Filter.c ****         {
 559:Generated_Source\PSoC6/CapSense_Filter.c ****             #if (CapSense_REGULAR_SENSOR_EN)
 560:Generated_Source\PSoC6/CapSense_Filter.c ****                 #if (CapSense_REGULAR_IIR_BL_TYPE == CapSense_IIR_FILTER_PERFORMANCE)
 561:Generated_Source\PSoC6/CapSense_Filter.c ****                     ptrSensor->bslnExt[channel] = 0u;
 562:Generated_Source\PSoC6/CapSense_Filter.c ****                 #endif /* (CapSense_REGULAR_IIR_BL_TYPE == CapSense_IIR_FILTER_PERFORMANCE) */
 563:Generated_Source\PSoC6/CapSense_Filter.c ****             #endif /* (CapSense_REGULAR_SENSOR_EN) */
 564:Generated_Source\PSoC6/CapSense_Filter.c ****         }
 565:Generated_Source\PSoC6/CapSense_Filter.c ****         else
 566:Generated_Source\PSoC6/CapSense_Filter.c ****         {
 567:Generated_Source\PSoC6/CapSense_Filter.c ****             #if (CapSense_PROXIMITY_SENSOR_EN)
 568:Generated_Source\PSoC6/CapSense_Filter.c ****                 #if (CapSense_PROX_IIR_BL_TYPE == CapSense_IIR_FILTER_PERFORMANCE)
 569:Generated_Source\PSoC6/CapSense_Filter.c ****                     ptrSensor->bslnExt[channel] = 0u;
  40              		.loc 1 569 0
  41 0008 8318     		adds	r3, r0, r2
  42 000a 0021     		movs	r1, #0
  43 000c 1971     		strb	r1, [r3, #4]
  44              	.L2:
 570:Generated_Source\PSoC6/CapSense_Filter.c ****                 #endif /* (CapSense_PROX_IIR_BL_TYPE == CapSense_IIR_FILTER_PERFORMANCE) */
 571:Generated_Source\PSoC6/CapSense_Filter.c ****             #endif /* (CapSense_PROX_SENSOR_EN) */
 572:Generated_Source\PSoC6/CapSense_Filter.c ****         }
 573:Generated_Source\PSoC6/CapSense_Filter.c ****     #else
 574:Generated_Source\PSoC6/CapSense_Filter.c ****         /* CapSense_BASELINE_TYPE == CapSense_BUCKET_BASELINE */
 575:Generated_Source\PSoC6/CapSense_Filter.c ****         ptrSensor->bslnExt[channel] = 0u;
 576:Generated_Source\PSoC6/CapSense_Filter.c ****     #endif /* (CapSense_BASELINE_TYPE == CapSense_IIR_BASELINE) */
 577:Generated_Source\PSoC6/CapSense_Filter.c **** 
 578:Generated_Source\PSoC6/CapSense_Filter.c ****     ptrSensor->bsln[channel] = ptrSensor->raw[channel];
  45              		.loc 1 578 0
  46 000e 5300     		lsls	r3, r2, #1
  47 0010 195A     		ldrh	r1, [r3, r0]
  48 0012 C318     		adds	r3, r0, r3
  49 0014 5980     		strh	r1, [r3, #2]
ARM GAS  C:\Users\codyg\AppData\Local\Temp\ccRbtLKH.s 			page 12


 579:Generated_Source\PSoC6/CapSense_Filter.c **** 
 580:Generated_Source\PSoC6/CapSense_Filter.c ****     #if (CapSense_ENABLE == CapSense_TST_BSLN_DUPLICATION_EN)
 581:Generated_Source\PSoC6/CapSense_Filter.c ****     /* Update baseline inversion of the channel in sensor */
 582:Generated_Source\PSoC6/CapSense_Filter.c ****         ptrSensor->bslnInv[channel] = ~(ptrSensor->bsln[channel]);
 583:Generated_Source\PSoC6/CapSense_Filter.c ****     #endif /* (CapSense_ENABLE == CapSense_TST_BSLN_DUPLICATION_EN) */
 584:Generated_Source\PSoC6/CapSense_Filter.c **** 
 585:Generated_Source\PSoC6/CapSense_Filter.c ****     ptrSensor->negBslnRstCnt[channel] = 0u;
  50              		.loc 1 585 0
  51 0016 8218     		adds	r2, r0, r2
  52              	.LVL2:
  53 0018 0023     		movs	r3, #0
  54 001a 1372     		strb	r3, [r2, #8]
 586:Generated_Source\PSoC6/CapSense_Filter.c **** }
  55              		.loc 1 586 0
  56              		@ sp needed
  57 001c 7047     		bx	lr
  58              		.cfi_endproc
  59              	.LFE45:
  60              		.size	CapSense_FtInitializeBaselineChannel, .-CapSense_FtInitializeBaselineChannel
  61 001e C046     		.section	.text.CapSense_FtInitializeBaseline,"ax",%progbits
  62              		.align	2
  63              		.global	CapSense_FtInitializeBaseline
  64              		.code	16
  65              		.thumb_func
  66              		.type	CapSense_FtInitializeBaseline, %function
  67              	CapSense_FtInitializeBaseline:
  68              	.LFB44:
 528:Generated_Source\PSoC6/CapSense_Filter.c ****     uint32 freqChannel;
  69              		.loc 1 528 0
  70              		.cfi_startproc
  71              		@ args = 0, pretend = 0, frame = 0
  72              		@ frame_needed = 0, uses_anonymous_args = 0
  73              	.LVL3:
  74 0000 70B5     		push	{r4, r5, r6, lr}
  75              		.cfi_def_cfa_offset 16
  76              		.cfi_offset 4, -16
  77              		.cfi_offset 5, -12
  78              		.cfi_offset 6, -8
  79              		.cfi_offset 14, -4
  80 0002 0600     		movs	r6, r0
  81 0004 0D00     		movs	r5, r1
  82              	.LVL4:
 532:Generated_Source\PSoC6/CapSense_Filter.c ****     {
  83              		.loc 1 532 0
  84 0006 0123     		movs	r3, #1
  85 0008 05E0     		b	.L4
  86              	.LVL5:
  87              	.L5:
 534:Generated_Source\PSoC6/CapSense_Filter.c ****     }
  88              		.loc 1 534 0
  89 000a 2200     		movs	r2, r4
  90 000c 2900     		movs	r1, r5
  91 000e 3000     		movs	r0, r6
  92 0010 FFF7FEFF 		bl	CapSense_FtInitializeBaselineChannel
  93              	.LVL6:
 532:Generated_Source\PSoC6/CapSense_Filter.c ****     {
  94              		.loc 1 532 0
ARM GAS  C:\Users\codyg\AppData\Local\Temp\ccRbtLKH.s 			page 13


  95 0014 2300     		movs	r3, r4
  96              	.LVL7:
  97              	.L4:
 532:Generated_Source\PSoC6/CapSense_Filter.c ****     {
  98              		.loc 1 532 0 is_stmt 0 discriminator 1
  99 0016 5C1E     		subs	r4, r3, #1
 100              	.LVL8:
 101 0018 002B     		cmp	r3, #0
 102 001a F6D1     		bne	.L5
 536:Generated_Source\PSoC6/CapSense_Filter.c **** 
 103              		.loc 1 536 0 is_stmt 1
 104              		@ sp needed
 105              	.LVL9:
 106              	.LVL10:
 107              	.LVL11:
 108 001c 70BD     		pop	{r4, r5, r6, pc}
 109              		.cfi_endproc
 110              	.LFE44:
 111              		.size	CapSense_FtInitializeBaseline, .-CapSense_FtInitializeBaseline
 112 001e C046     		.section	.text.CapSense_InitializeSensorBaseline,"ax",%progbits
 113              		.align	2
 114              		.global	CapSense_InitializeSensorBaseline
 115              		.code	16
 116              		.thumb_func
 117              		.type	CapSense_InitializeSensorBaseline, %function
 118              	CapSense_InitializeSensorBaseline:
 119              	.LFB43:
 500:Generated_Source\PSoC6/CapSense_Filter.c ****     CapSense_RAM_SNS_STRUCT *ptrSensor = NULL;
 120              		.loc 1 500 0
 121              		.cfi_startproc
 122              		@ args = 0, pretend = 0, frame = 0
 123              		@ frame_needed = 0, uses_anonymous_args = 0
 124              	.LVL12:
 125 0000 70B5     		push	{r4, r5, r6, lr}
 126              		.cfi_def_cfa_offset 16
 127              		.cfi_offset 4, -16
 128              		.cfi_offset 5, -12
 129              		.cfi_offset 6, -8
 130              		.cfi_offset 14, -4
 131              	.LVL13:
 506:Generated_Source\PSoC6/CapSense_Filter.c ****     ptrSensor = &ptrSensor[sensorId];
 132              		.loc 1 506 0
 133 0002 094C     		ldr	r4, .L7
 134 0004 C300     		lsls	r3, r0, #3
 135 0006 1D1A     		subs	r5, r3, r0
 136 0008 AA00     		lsls	r2, r5, #2
 137 000a A218     		adds	r2, r4, r2
 138 000c 9568     		ldr	r5, [r2, #8]
 139              	.LVL14:
 507:Generated_Source\PSoC6/CapSense_Filter.c **** 
 140              		.loc 1 507 0
 141 000e 8A00     		lsls	r2, r1, #2
 142 0010 5118     		adds	r1, r2, r1
 143              	.LVL15:
 144 0012 4A00     		lsls	r2, r1, #1
 145 0014 AA18     		adds	r2, r5, r2
 146              	.LVL16:
ARM GAS  C:\Users\codyg\AppData\Local\Temp\ccRbtLKH.s 			page 14


 509:Generated_Source\PSoC6/CapSense_Filter.c **** }
 147              		.loc 1 509 0
 148 0016 1B1A     		subs	r3, r3, r0
 149 0018 9900     		lsls	r1, r3, #2
 150 001a 6118     		adds	r1, r4, r1
 151 001c 897E     		ldrb	r1, [r1, #26]
 152 001e 1000     		movs	r0, r2
 153              	.LVL17:
 154 0020 FFF7FEFF 		bl	CapSense_FtInitializeBaseline
 155              	.LVL18:
 510:Generated_Source\PSoC6/CapSense_Filter.c **** 
 156              		.loc 1 510 0
 157              		@ sp needed
 158              	.LVL19:
 159 0024 70BD     		pop	{r4, r5, r6, pc}
 160              	.L8:
 161 0026 C046     		.align	2
 162              	.L7:
 163 0028 00000000 		.word	CapSense_dsFlash
 164              		.cfi_endproc
 165              	.LFE43:
 166              		.size	CapSense_InitializeSensorBaseline, .-CapSense_InitializeSensorBaseline
 167              		.section	.text.CapSense_InitializeWidgetBaseline,"ax",%progbits
 168              		.align	2
 169              		.global	CapSense_InitializeWidgetBaseline
 170              		.code	16
 171              		.thumb_func
 172              		.type	CapSense_InitializeWidgetBaseline, %function
 173              	CapSense_InitializeWidgetBaseline:
 174              	.LFB42:
 456:Generated_Source\PSoC6/CapSense_Filter.c ****     uint32 sensorId;
 175              		.loc 1 456 0
 176              		.cfi_startproc
 177              		@ args = 0, pretend = 0, frame = 0
 178              		@ frame_needed = 0, uses_anonymous_args = 0
 179              	.LVL20:
 180 0000 70B5     		push	{r4, r5, r6, lr}
 181              		.cfi_def_cfa_offset 16
 182              		.cfi_offset 4, -16
 183              		.cfi_offset 5, -12
 184              		.cfi_offset 6, -8
 185              		.cfi_offset 14, -4
 186 0002 0500     		movs	r5, r0
 187              	.LVL21:
 463:Generated_Source\PSoC6/CapSense_Filter.c **** 
 188              		.loc 1 463 0
 189 0004 C200     		lsls	r2, r0, #3
 190 0006 121A     		subs	r2, r2, r0
 191 0008 9300     		lsls	r3, r2, #2
 192 000a 064A     		ldr	r2, .L12
 193 000c D318     		adds	r3, r2, r3
 194 000e 1B8B     		ldrh	r3, [r3, #24]
 195              	.LVL22:
 465:Generated_Source\PSoC6/CapSense_Filter.c ****     {
 196              		.loc 1 465 0
 197 0010 04E0     		b	.L10
 198              	.LVL23:
ARM GAS  C:\Users\codyg\AppData\Local\Temp\ccRbtLKH.s 			page 15


 199              	.L11:
 467:Generated_Source\PSoC6/CapSense_Filter.c ****     }
 200              		.loc 1 467 0
 201 0012 2100     		movs	r1, r4
 202 0014 2800     		movs	r0, r5
 203 0016 FFF7FEFF 		bl	CapSense_InitializeSensorBaseline
 204              	.LVL24:
 465:Generated_Source\PSoC6/CapSense_Filter.c ****     {
 205              		.loc 1 465 0
 206 001a 2300     		movs	r3, r4
 207              	.LVL25:
 208              	.L10:
 465:Generated_Source\PSoC6/CapSense_Filter.c ****     {
 209              		.loc 1 465 0 is_stmt 0 discriminator 1
 210 001c 5C1E     		subs	r4, r3, #1
 211              	.LVL26:
 212 001e 002B     		cmp	r3, #0
 213 0020 F7D1     		bne	.L11
 469:Generated_Source\PSoC6/CapSense_Filter.c **** 
 214              		.loc 1 469 0 is_stmt 1
 215              		@ sp needed
 216              	.LVL27:
 217              	.LVL28:
 218 0022 70BD     		pop	{r4, r5, r6, pc}
 219              	.L13:
 220              		.align	2
 221              	.L12:
 222 0024 00000000 		.word	CapSense_dsFlash
 223              		.cfi_endproc
 224              	.LFE42:
 225              		.size	CapSense_InitializeWidgetBaseline, .-CapSense_InitializeWidgetBaseline
 226              		.section	.text.CapSense_InitializeAllBaselines,"ax",%progbits
 227              		.align	2
 228              		.global	CapSense_InitializeAllBaselines
 229              		.code	16
 230              		.thumb_func
 231              		.type	CapSense_InitializeAllBaselines, %function
 232              	CapSense_InitializeAllBaselines:
 233              	.LFB41:
 420:Generated_Source\PSoC6/CapSense_Filter.c ****     uint32 widgetId;
 234              		.loc 1 420 0
 235              		.cfi_startproc
 236              		@ args = 0, pretend = 0, frame = 0
 237              		@ frame_needed = 0, uses_anonymous_args = 0
 238 0000 10B5     		push	{r4, lr}
 239              		.cfi_def_cfa_offset 8
 240              		.cfi_offset 4, -8
 241              		.cfi_offset 14, -4
 242              	.LVL29:
 423:Generated_Source\PSoC6/CapSense_Filter.c ****     {
 243              		.loc 1 423 0
 244 0002 0123     		movs	r3, #1
 245 0004 03E0     		b	.L15
 246              	.LVL30:
 247              	.L16:
 425:Generated_Source\PSoC6/CapSense_Filter.c ****     }
 248              		.loc 1 425 0
ARM GAS  C:\Users\codyg\AppData\Local\Temp\ccRbtLKH.s 			page 16


 249 0006 2000     		movs	r0, r4
 250 0008 FFF7FEFF 		bl	CapSense_InitializeWidgetBaseline
 251              	.LVL31:
 423:Generated_Source\PSoC6/CapSense_Filter.c ****     {
 252              		.loc 1 423 0
 253 000c 2300     		movs	r3, r4
 254              	.LVL32:
 255              	.L15:
 423:Generated_Source\PSoC6/CapSense_Filter.c ****     {
 256              		.loc 1 423 0 is_stmt 0 discriminator 1
 257 000e 5C1E     		subs	r4, r3, #1
 258              	.LVL33:
 259 0010 002B     		cmp	r3, #0
 260 0012 F8D1     		bne	.L16
 427:Generated_Source\PSoC6/CapSense_Filter.c **** 
 261              		.loc 1 427 0 is_stmt 1
 262              		@ sp needed
 263              	.LVL34:
 264 0014 10BD     		pop	{r4, pc}
 265              		.cfi_endproc
 266              	.LFE41:
 267              		.size	CapSense_InitializeAllBaselines, .-CapSense_InitializeAllBaselines
 268 0016 C046     		.section	.text.CapSense_InitializeIIRInternal,"ax",%progbits
 269              		.align	2
 270              		.global	CapSense_InitializeIIRInternal
 271              		.code	16
 272              		.thumb_func
 273              		.type	CapSense_InitializeIIRInternal, %function
 274              	CapSense_InitializeIIRInternal:
 275              	.LFB50:
 587:Generated_Source\PSoC6/CapSense_Filter.c **** 
 588:Generated_Source\PSoC6/CapSense_Filter.c **** #if ((CapSense_ENABLE == CapSense_RC_FILTER_EN) || \
 589:Generated_Source\PSoC6/CapSense_Filter.c ****      (0u != (CapSense_CSD_AUTOTUNE & CapSense_CSD_SS_TH_EN)))
 590:Generated_Source\PSoC6/CapSense_Filter.c **** /*******************************************************************************
 591:Generated_Source\PSoC6/CapSense_Filter.c **** * Function Name: CapSense_InitializeAllFilters
 592:Generated_Source\PSoC6/CapSense_Filter.c **** ****************************************************************************//**
 593:Generated_Source\PSoC6/CapSense_Filter.c **** *
 594:Generated_Source\PSoC6/CapSense_Filter.c **** * \brief
 595:Generated_Source\PSoC6/CapSense_Filter.c **** *  Initializes (or re-initializes) the raw count filter history of all the 
 596:Generated_Source\PSoC6/CapSense_Filter.c **** *  sensors of all the widgets.
 597:Generated_Source\PSoC6/CapSense_Filter.c **** *
 598:Generated_Source\PSoC6/CapSense_Filter.c **** * \details
 599:Generated_Source\PSoC6/CapSense_Filter.c **** *  Initializes the raw count filter history for all the sensors of all the 
 600:Generated_Source\PSoC6/CapSense_Filter.c **** *  widgets. Also, this function can be used to re-initialize baselines. 
 601:Generated_Source\PSoC6/CapSense_Filter.c **** *  CapSense_Start() calls this API as part of CapSense 
 602:Generated_Source\PSoC6/CapSense_Filter.c **** *  operation initialization.
 603:Generated_Source\PSoC6/CapSense_Filter.c **** *
 604:Generated_Source\PSoC6/CapSense_Filter.c **** *******************************************************************************/
 605:Generated_Source\PSoC6/CapSense_Filter.c **** void CapSense_InitializeAllFilters(void)
 606:Generated_Source\PSoC6/CapSense_Filter.c **** {
 607:Generated_Source\PSoC6/CapSense_Filter.c ****     uint32 widgetId;
 608:Generated_Source\PSoC6/CapSense_Filter.c **** 
 609:Generated_Source\PSoC6/CapSense_Filter.c ****     for(widgetId = CapSense_TOTAL_WIDGETS; widgetId-- > 0u;)
 610:Generated_Source\PSoC6/CapSense_Filter.c ****     {
 611:Generated_Source\PSoC6/CapSense_Filter.c ****         CapSense_InitializeWidgetFilter(widgetId);
 612:Generated_Source\PSoC6/CapSense_Filter.c ****     }
 613:Generated_Source\PSoC6/CapSense_Filter.c **** }
ARM GAS  C:\Users\codyg\AppData\Local\Temp\ccRbtLKH.s 			page 17


 614:Generated_Source\PSoC6/CapSense_Filter.c **** 
 615:Generated_Source\PSoC6/CapSense_Filter.c **** /*******************************************************************************
 616:Generated_Source\PSoC6/CapSense_Filter.c **** * Function Name: CapSense_InitializeWidgetFilter
 617:Generated_Source\PSoC6/CapSense_Filter.c **** ****************************************************************************//**
 618:Generated_Source\PSoC6/CapSense_Filter.c **** *
 619:Generated_Source\PSoC6/CapSense_Filter.c **** * \brief
 620:Generated_Source\PSoC6/CapSense_Filter.c **** *  Initializes (or re-initializes) the raw count filter history of all the sensors 
 621:Generated_Source\PSoC6/CapSense_Filter.c **** *  in a widget specified by the input parameter.
 622:Generated_Source\PSoC6/CapSense_Filter.c **** *
 623:Generated_Source\PSoC6/CapSense_Filter.c **** * \details
 624:Generated_Source\PSoC6/CapSense_Filter.c **** *  Initializes (or re-initializes) the raw count filter history of all the sensors 
 625:Generated_Source\PSoC6/CapSense_Filter.c **** *  in a widget specified by the input parameter.
 626:Generated_Source\PSoC6/CapSense_Filter.c **** *
 627:Generated_Source\PSoC6/CapSense_Filter.c **** * \param  widgetId
 628:Generated_Source\PSoC6/CapSense_Filter.c **** *  Specifies the ID number of a widget to initialize the filter history of all 
 629:Generated_Source\PSoC6/CapSense_Filter.c **** *  the sensors in the widget.
 630:Generated_Source\PSoC6/CapSense_Filter.c **** *  A macro for the widget ID can be found in the
 631:Generated_Source\PSoC6/CapSense_Filter.c **** *  CapSense Configuration header file defined as
 632:Generated_Source\PSoC6/CapSense_Filter.c **** *  CapSense_<WidgetName>_WDGT_ID.
 633:Generated_Source\PSoC6/CapSense_Filter.c **** *
 634:Generated_Source\PSoC6/CapSense_Filter.c **** *******************************************************************************/
 635:Generated_Source\PSoC6/CapSense_Filter.c **** void CapSense_InitializeWidgetFilter(uint32 widgetId)
 636:Generated_Source\PSoC6/CapSense_Filter.c **** {
 637:Generated_Source\PSoC6/CapSense_Filter.c ****     uint32 sensorId;
 638:Generated_Source\PSoC6/CapSense_Filter.c ****     uint32 sensorsNumber;
 639:Generated_Source\PSoC6/CapSense_Filter.c **** 
 640:Generated_Source\PSoC6/CapSense_Filter.c ****     CapSense_FLASH_WD_STRUCT const *ptrWidget;
 641:Generated_Source\PSoC6/CapSense_Filter.c ****     CapSense_RAM_SNS_STRUCT *ptrSensor = NULL;
 642:Generated_Source\PSoC6/CapSense_Filter.c ****     #if (CapSense_ENABLE == CapSense_RC_FILTER_EN)
 643:Generated_Source\PSoC6/CapSense_Filter.c ****         CapSense_PTR_FILTER_VARIANT ptrFilterHistObj;
 644:Generated_Source\PSoC6/CapSense_Filter.c ****     #endif
 645:Generated_Source\PSoC6/CapSense_Filter.c ****     
 646:Generated_Source\PSoC6/CapSense_Filter.c ****     #if (0u != (CapSense_CSD_AUTOTUNE & CapSense_CSD_SS_TH_EN))
 647:Generated_Source\PSoC6/CapSense_Filter.c ****         CapSense_RAM_WD_BASE_STRUCT *ptrWidgetRam;
 648:Generated_Source\PSoC6/CapSense_Filter.c ****         SMARTSENSE_CSD_NOISE_ENVELOPE_STRUCT *ptrNoiseEnvelope = NULL;
 649:Generated_Source\PSoC6/CapSense_Filter.c ****     #endif /* (0u != (CapSense_CSD_AUTOTUNE & CapSense_CSD_SS_TH_EN)) */
 650:Generated_Source\PSoC6/CapSense_Filter.c **** 
 651:Generated_Source\PSoC6/CapSense_Filter.c ****     ptrWidget = &CapSense_dsFlash.wdgtArray[widgetId];
 652:Generated_Source\PSoC6/CapSense_Filter.c **** 
 653:Generated_Source\PSoC6/CapSense_Filter.c ****     #if (0u != (CapSense_CSD_AUTOTUNE & CapSense_CSD_SS_TH_EN))
 654:Generated_Source\PSoC6/CapSense_Filter.c ****         ptrWidgetRam = ptrWidget->ptr2WdgtRam;
 655:Generated_Source\PSoC6/CapSense_Filter.c ****     #endif /* (0u != (CapSense_CSD_AUTOTUNE & CapSense_CSD_SS_TH_EN)) */
 656:Generated_Source\PSoC6/CapSense_Filter.c **** 
 657:Generated_Source\PSoC6/CapSense_Filter.c ****     /* Find total amount of sensors in specified widget */
 658:Generated_Source\PSoC6/CapSense_Filter.c ****     sensorsNumber = CapSense_GET_SNS_CNT_BY_PTR(ptrWidget);
 659:Generated_Source\PSoC6/CapSense_Filter.c **** 
 660:Generated_Source\PSoC6/CapSense_Filter.c ****     for (sensorId = sensorsNumber; sensorId-- > 0u;)
 661:Generated_Source\PSoC6/CapSense_Filter.c ****     {
 662:Generated_Source\PSoC6/CapSense_Filter.c ****         /* Find pointer to specified sensor object */
 663:Generated_Source\PSoC6/CapSense_Filter.c ****         ptrSensor = ptrWidget->ptr2SnsRam;
 664:Generated_Source\PSoC6/CapSense_Filter.c ****         ptrSensor = &ptrSensor[sensorId];
 665:Generated_Source\PSoC6/CapSense_Filter.c **** 
 666:Generated_Source\PSoC6/CapSense_Filter.c ****         #if (CapSense_ENABLE == CapSense_RC_FILTER_EN)
 667:Generated_Source\PSoC6/CapSense_Filter.c ****             /* Find pointer to to specified filter sensor object */
 668:Generated_Source\PSoC6/CapSense_Filter.c ****             ptrFilterHistObj.ptr = ptrWidget->ptr2FltrHistory;
 669:Generated_Source\PSoC6/CapSense_Filter.c ****         #endif
 670:Generated_Source\PSoC6/CapSense_Filter.c **** 
ARM GAS  C:\Users\codyg\AppData\Local\Temp\ccRbtLKH.s 			page 18


 671:Generated_Source\PSoC6/CapSense_Filter.c ****         #if (0u != (CapSense_CSD_AUTOTUNE & CapSense_CSD_SS_TH_EN))
 672:Generated_Source\PSoC6/CapSense_Filter.c ****             /* Find pointer to specified noise envelope sensor object */
 673:Generated_Source\PSoC6/CapSense_Filter.c ****             ptrNoiseEnvelope = ptrWidget->ptr2NoiseEnvlp;
 674:Generated_Source\PSoC6/CapSense_Filter.c ****             ptrNoiseEnvelope = &ptrNoiseEnvelope[sensorId];
 675:Generated_Source\PSoC6/CapSense_Filter.c ****         #endif /* (0u != (CapSense_CSD_AUTOTUNE & CapSense_CSD_SS_TH_EN)) */
 676:Generated_Source\PSoC6/CapSense_Filter.c **** 
 677:Generated_Source\PSoC6/CapSense_Filter.c ****         if ((CapSense_WD_TYPE_ENUM)ptrWidget->wdgtType != CapSense_WD_PROXIMITY_E)
 678:Generated_Source\PSoC6/CapSense_Filter.c ****         {
 679:Generated_Source\PSoC6/CapSense_Filter.c ****             #if (0u != CapSense_REGULAR_RC_ALP_FILTER_EN)
 680:Generated_Source\PSoC6/CapSense_Filter.c ****                 ptrFilterHistObj.ptrAlp = &ptrFilterHistObj.ptrAlp[sensorId];
 681:Generated_Source\PSoC6/CapSense_Filter.c ****             #elif (0u != CapSense_REGULAR_RC_FILTER_EN)
 682:Generated_Source\PSoC6/CapSense_Filter.c ****                 ptrFilterHistObj.ptrRegular = &ptrFilterHistObj.ptrRegular[sensorId];
 683:Generated_Source\PSoC6/CapSense_Filter.c ****             #endif
 684:Generated_Source\PSoC6/CapSense_Filter.c ****         }
 685:Generated_Source\PSoC6/CapSense_Filter.c ****         else
 686:Generated_Source\PSoC6/CapSense_Filter.c ****         {
 687:Generated_Source\PSoC6/CapSense_Filter.c ****             #if (0u != CapSense_PROX_RC_ALP_FILTER_EN)
 688:Generated_Source\PSoC6/CapSense_Filter.c ****                 ptrFilterHistObj.ptrAlp = &ptrFilterHistObj.ptrAlp[sensorId];
 689:Generated_Source\PSoC6/CapSense_Filter.c ****             #elif (0u != CapSense_PROX_RC_FILTER_EN)
 690:Generated_Source\PSoC6/CapSense_Filter.c ****                 ptrFilterHistObj.ptrProx = &ptrFilterHistObj.ptrProx[sensorId];
 691:Generated_Source\PSoC6/CapSense_Filter.c ****             #endif /* #if (0u != CapSense_PROX_RC_FILTER_EN) */
 692:Generated_Source\PSoC6/CapSense_Filter.c ****         }
 693:Generated_Source\PSoC6/CapSense_Filter.c **** 
 694:Generated_Source\PSoC6/CapSense_Filter.c ****         #if (CapSense_REGULAR_RC_IIR_FILTER_EN || CapSense_PROX_RC_IIR_FILTER_EN)
 695:Generated_Source\PSoC6/CapSense_Filter.c ****             CapSense_InitializeIIRInternal(ptrFilterHistObj, ptrSensor, (uint32)ptrWidget->wdgtType
 696:Generated_Source\PSoC6/CapSense_Filter.c ****         #endif /* (CapSense_REGULAR_RC_IIR_FILTER_EN || CapSense_PROX_RC_IIR_FILTER_EN) */
 697:Generated_Source\PSoC6/CapSense_Filter.c **** 
 698:Generated_Source\PSoC6/CapSense_Filter.c ****         #if (CapSense_REGULAR_RC_MEDIAN_FILTER_EN || CapSense_PROX_RC_MEDIAN_FILTER_EN)
 699:Generated_Source\PSoC6/CapSense_Filter.c ****             CapSense_InitializeMedianInternal(ptrFilterHistObj, ptrSensor, (uint32)ptrWidget->wdgtT
 700:Generated_Source\PSoC6/CapSense_Filter.c ****         #endif /* (CapSense_REGULAR_RC_MEDIAN_FILTER_EN || CapSense_PROX_RC_MEDIAN_FILTER_EN) */
 701:Generated_Source\PSoC6/CapSense_Filter.c **** 
 702:Generated_Source\PSoC6/CapSense_Filter.c ****         #if (CapSense_REGULAR_RC_AVERAGE_FILTER_EN || CapSense_PROX_RC_AVERAGE_FILTER_EN)
 703:Generated_Source\PSoC6/CapSense_Filter.c ****             CapSense_InitializeAverageInternal(ptrFilterHistObj, ptrSensor, (uint32)ptrWidget->wdgt
 704:Generated_Source\PSoC6/CapSense_Filter.c ****         #endif /* (CapSense_REGULAR_RC_AVERAGE_FILTER_EN || CapSense_PROX_RC_AVERAGE_FILTER_EN) */
 705:Generated_Source\PSoC6/CapSense_Filter.c **** 
 706:Generated_Source\PSoC6/CapSense_Filter.c ****         #if (CapSense_ALP_FILTER_EN)
 707:Generated_Source\PSoC6/CapSense_Filter.c ****             CapSense_InitializeALPInternal(ptrFilterHistObj, ptrSensor, (uint32)ptrWidget->wdgtType
 708:Generated_Source\PSoC6/CapSense_Filter.c ****         #endif
 709:Generated_Source\PSoC6/CapSense_Filter.c **** 
 710:Generated_Source\PSoC6/CapSense_Filter.c ****         #if (0u != (CapSense_CSD_AUTOTUNE & CapSense_CSD_SS_TH_EN))
 711:Generated_Source\PSoC6/CapSense_Filter.c ****             if (CapSense_SENSE_METHOD_CSD_E ==
 712:Generated_Source\PSoC6/CapSense_Filter.c ****                 CapSense_GET_SENSE_METHOD(&CapSense_dsFlash.wdgtArray[widgetId]))
 713:Generated_Source\PSoC6/CapSense_Filter.c ****             {
 714:Generated_Source\PSoC6/CapSense_Filter.c ****                 SmartSense_InitializeNoiseEnvelope(ptrSensor->raw[0u], ptrWidgetRam->sigPFC, ptrNoi
 715:Generated_Source\PSoC6/CapSense_Filter.c ****             }
 716:Generated_Source\PSoC6/CapSense_Filter.c ****         #endif /* (0u != (CapSense_CSD_AUTOTUNE & CapSense_CSD_SS_TH_EN)) */
 717:Generated_Source\PSoC6/CapSense_Filter.c ****     }
 718:Generated_Source\PSoC6/CapSense_Filter.c **** }
 719:Generated_Source\PSoC6/CapSense_Filter.c **** #endif /* ((CapSense_ENABLE == CapSense_RC_FILTER_EN) || \
 720:Generated_Source\PSoC6/CapSense_Filter.c ****            (0u != (CapSense_CSD_AUTOTUNE & CapSense_CSD_SS_TH_EN))) */
 721:Generated_Source\PSoC6/CapSense_Filter.c **** 
 722:Generated_Source\PSoC6/CapSense_Filter.c **** #if (CapSense_REGULAR_RC_IIR_FILTER_EN || CapSense_PROX_RC_IIR_FILTER_EN)
 723:Generated_Source\PSoC6/CapSense_Filter.c **** /*******************************************************************************
 724:Generated_Source\PSoC6/CapSense_Filter.c **** * Function Name: CapSense_InitializeIIR
 725:Generated_Source\PSoC6/CapSense_Filter.c **** ****************************************************************************//**
 726:Generated_Source\PSoC6/CapSense_Filter.c **** *
 727:Generated_Source\PSoC6/CapSense_Filter.c **** * \brief    Initialize the IIR filter history.
ARM GAS  C:\Users\codyg\AppData\Local\Temp\ccRbtLKH.s 			page 19


 728:Generated_Source\PSoC6/CapSense_Filter.c **** *
 729:Generated_Source\PSoC6/CapSense_Filter.c **** * \details  Initialize the IIR filter history.
 730:Generated_Source\PSoC6/CapSense_Filter.c **** *
 731:Generated_Source\PSoC6/CapSense_Filter.c **** * \param    widgetId Specifies the ID number of the widget.
 732:Generated_Source\PSoC6/CapSense_Filter.c **** * \param    sensorId Specifies the ID number of the sensor in the widget.
 733:Generated_Source\PSoC6/CapSense_Filter.c **** *
 734:Generated_Source\PSoC6/CapSense_Filter.c **** *******************************************************************************/
 735:Generated_Source\PSoC6/CapSense_Filter.c **** void CapSense_InitializeIIR(uint32 widgetId, uint32 sensorId)
 736:Generated_Source\PSoC6/CapSense_Filter.c **** {
 737:Generated_Source\PSoC6/CapSense_Filter.c ****     CapSense_FLASH_WD_STRUCT const *ptrWidget = &CapSense_dsFlash.wdgtArray[widgetId];
 738:Generated_Source\PSoC6/CapSense_Filter.c ****     CapSense_RAM_SNS_STRUCT *ptrSensor = NULL;
 739:Generated_Source\PSoC6/CapSense_Filter.c ****     CapSense_PTR_FILTER_VARIANT ptrFilterHistObj;
 740:Generated_Source\PSoC6/CapSense_Filter.c **** 
 741:Generated_Source\PSoC6/CapSense_Filter.c ****     /* Find pointer to specified sensor object */
 742:Generated_Source\PSoC6/CapSense_Filter.c ****     ptrSensor = ptrWidget->ptr2SnsRam;
 743:Generated_Source\PSoC6/CapSense_Filter.c ****     ptrSensor = &ptrSensor[sensorId];
 744:Generated_Source\PSoC6/CapSense_Filter.c **** 
 745:Generated_Source\PSoC6/CapSense_Filter.c ****     /* Find pointer to specified filter sensor object */
 746:Generated_Source\PSoC6/CapSense_Filter.c ****     ptrFilterHistObj.ptr = ptrWidget->ptr2FltrHistory;
 747:Generated_Source\PSoC6/CapSense_Filter.c **** 
 748:Generated_Source\PSoC6/CapSense_Filter.c ****     if ((CapSense_WD_TYPE_ENUM)ptrWidget->wdgtType != CapSense_WD_PROXIMITY_E)
 749:Generated_Source\PSoC6/CapSense_Filter.c ****     {
 750:Generated_Source\PSoC6/CapSense_Filter.c ****         #if (CapSense_REGULAR_SENSOR_EN)
 751:Generated_Source\PSoC6/CapSense_Filter.c ****             ptrFilterHistObj.ptrRegular = &ptrFilterHistObj.ptrRegular[sensorId];
 752:Generated_Source\PSoC6/CapSense_Filter.c ****         #endif /* (CapSense_REGULAR_SENSOR_EN) */
 753:Generated_Source\PSoC6/CapSense_Filter.c ****     }
 754:Generated_Source\PSoC6/CapSense_Filter.c ****     else
 755:Generated_Source\PSoC6/CapSense_Filter.c ****     {
 756:Generated_Source\PSoC6/CapSense_Filter.c ****         #if (CapSense_PROXIMITY_SENSOR_EN)
 757:Generated_Source\PSoC6/CapSense_Filter.c ****             ptrFilterHistObj.ptrProx = &ptrFilterHistObj.ptrProx[sensorId];
 758:Generated_Source\PSoC6/CapSense_Filter.c ****         #endif /* (CapSense_PROXIMITY_SENSOR_EN) */
 759:Generated_Source\PSoC6/CapSense_Filter.c ****     }
 760:Generated_Source\PSoC6/CapSense_Filter.c **** 
 761:Generated_Source\PSoC6/CapSense_Filter.c ****     CapSense_InitializeIIRInternal(ptrFilterHistObj, ptrSensor, (uint32)ptrWidget->wdgtType);
 762:Generated_Source\PSoC6/CapSense_Filter.c **** }
 763:Generated_Source\PSoC6/CapSense_Filter.c **** 
 764:Generated_Source\PSoC6/CapSense_Filter.c **** 
 765:Generated_Source\PSoC6/CapSense_Filter.c **** /*******************************************************************************
 766:Generated_Source\PSoC6/CapSense_Filter.c **** * Function Name: CapSense_RunIIR
 767:Generated_Source\PSoC6/CapSense_Filter.c **** ****************************************************************************//**
 768:Generated_Source\PSoC6/CapSense_Filter.c **** *
 769:Generated_Source\PSoC6/CapSense_Filter.c **** * \brief    Executes the IIR filter algorithm on a sensor indicated by an input
 770:Generated_Source\PSoC6/CapSense_Filter.c **** *           parameter.
 771:Generated_Source\PSoC6/CapSense_Filter.c **** *
 772:Generated_Source\PSoC6/CapSense_Filter.c **** * \details  Executes the IIR filter algorithm on a sensor indicated by an input
 773:Generated_Source\PSoC6/CapSense_Filter.c **** *           parameter.
 774:Generated_Source\PSoC6/CapSense_Filter.c **** *
 775:Generated_Source\PSoC6/CapSense_Filter.c **** * \param    widgetId Specifies the ID number of the widget.
 776:Generated_Source\PSoC6/CapSense_Filter.c **** * \param    sensorId Specifies the ID number of the sensor in the widget.
 777:Generated_Source\PSoC6/CapSense_Filter.c **** *
 778:Generated_Source\PSoC6/CapSense_Filter.c **** *******************************************************************************/
 779:Generated_Source\PSoC6/CapSense_Filter.c **** void CapSense_RunIIR(uint32 widgetId, uint32 sensorId)
 780:Generated_Source\PSoC6/CapSense_Filter.c **** {
 781:Generated_Source\PSoC6/CapSense_Filter.c ****     CapSense_FLASH_WD_STRUCT const *ptrWidget = &CapSense_dsFlash.wdgtArray[widgetId];
 782:Generated_Source\PSoC6/CapSense_Filter.c ****     CapSense_RAM_SNS_STRUCT *ptrSensor = NULL;
 783:Generated_Source\PSoC6/CapSense_Filter.c ****     CapSense_PTR_FILTER_VARIANT ptrFilterHistObj;
 784:Generated_Source\PSoC6/CapSense_Filter.c **** 
ARM GAS  C:\Users\codyg\AppData\Local\Temp\ccRbtLKH.s 			page 20


 785:Generated_Source\PSoC6/CapSense_Filter.c ****     /* Find pointer to specified sensor object */
 786:Generated_Source\PSoC6/CapSense_Filter.c ****     ptrSensor = ptrWidget->ptr2SnsRam;
 787:Generated_Source\PSoC6/CapSense_Filter.c ****     ptrSensor = &ptrSensor[sensorId];
 788:Generated_Source\PSoC6/CapSense_Filter.c **** 
 789:Generated_Source\PSoC6/CapSense_Filter.c ****     /* Find pointer to specified filter sensor object */
 790:Generated_Source\PSoC6/CapSense_Filter.c ****     ptrFilterHistObj.ptr = ptrWidget->ptr2FltrHistory;
 791:Generated_Source\PSoC6/CapSense_Filter.c **** 
 792:Generated_Source\PSoC6/CapSense_Filter.c ****     if ((CapSense_WD_TYPE_ENUM)ptrWidget->wdgtType != CapSense_WD_PROXIMITY_E)
 793:Generated_Source\PSoC6/CapSense_Filter.c ****     {
 794:Generated_Source\PSoC6/CapSense_Filter.c ****         #if (CapSense_REGULAR_SENSOR_EN)
 795:Generated_Source\PSoC6/CapSense_Filter.c ****             ptrFilterHistObj.ptrRegular = &ptrFilterHistObj.ptrRegular[sensorId];
 796:Generated_Source\PSoC6/CapSense_Filter.c ****         #endif /* (CapSense_REGULAR_SENSOR_EN) */
 797:Generated_Source\PSoC6/CapSense_Filter.c ****     }
 798:Generated_Source\PSoC6/CapSense_Filter.c ****     else
 799:Generated_Source\PSoC6/CapSense_Filter.c ****     {
 800:Generated_Source\PSoC6/CapSense_Filter.c ****         #if (CapSense_PROXIMITY_SENSOR_EN)
 801:Generated_Source\PSoC6/CapSense_Filter.c ****             ptrFilterHistObj.ptrProx = &ptrFilterHistObj.ptrProx[sensorId];
 802:Generated_Source\PSoC6/CapSense_Filter.c ****         #endif /* (CapSense_PROXIMITY_SENSOR_EN) */
 803:Generated_Source\PSoC6/CapSense_Filter.c ****     }
 804:Generated_Source\PSoC6/CapSense_Filter.c **** 
 805:Generated_Source\PSoC6/CapSense_Filter.c ****     CapSense_RunIIRInternal(ptrFilterHistObj, ptrSensor, (uint32)ptrWidget->wdgtType);
 806:Generated_Source\PSoC6/CapSense_Filter.c **** }
 807:Generated_Source\PSoC6/CapSense_Filter.c **** 
 808:Generated_Source\PSoC6/CapSense_Filter.c **** /*******************************************************************************
 809:Generated_Source\PSoC6/CapSense_Filter.c **** * Function Name: CapSense_InitializeIIRInternal
 810:Generated_Source\PSoC6/CapSense_Filter.c **** ****************************************************************************//**
 811:Generated_Source\PSoC6/CapSense_Filter.c **** *
 812:Generated_Source\PSoC6/CapSense_Filter.c **** * \brief    Initializes the IIR filter history.
 813:Generated_Source\PSoC6/CapSense_Filter.c **** *
 814:Generated_Source\PSoC6/CapSense_Filter.c **** * \details  Initializes the IIR filter history.
 815:Generated_Source\PSoC6/CapSense_Filter.c **** *
 816:Generated_Source\PSoC6/CapSense_Filter.c **** * \param    ptrFilterHistObj The pointer to the filter RAM object of the sensor.
 817:Generated_Source\PSoC6/CapSense_Filter.c **** * \param    ptrSensorObj     The pointer to the sensor RAM object of the sensor.
 818:Generated_Source\PSoC6/CapSense_Filter.c **** * \param    wdType           Specifies the type of a widget.
 819:Generated_Source\PSoC6/CapSense_Filter.c **** *
 820:Generated_Source\PSoC6/CapSense_Filter.c **** *******************************************************************************/
 821:Generated_Source\PSoC6/CapSense_Filter.c **** void CapSense_InitializeIIRInternal(CapSense_PTR_FILTER_VARIANT ptrFilterHistObj,
 822:Generated_Source\PSoC6/CapSense_Filter.c ****                                             CapSense_RAM_SNS_STRUCT *ptrSensorObj, uint32 wdType)
 823:Generated_Source\PSoC6/CapSense_Filter.c **** {
 276              		.loc 1 823 0
 277              		.cfi_startproc
 278              		@ args = 0, pretend = 0, frame = 0
 279              		@ frame_needed = 0, uses_anonymous_args = 0
 280              	.LVL35:
 281 0000 70B5     		push	{r4, r5, r6, lr}
 282              		.cfi_def_cfa_offset 16
 283              		.cfi_offset 4, -16
 284              		.cfi_offset 5, -12
 285              		.cfi_offset 6, -8
 286              		.cfi_offset 14, -4
 287              	.LVL36:
 824:Generated_Source\PSoC6/CapSense_Filter.c ****     uint32 freqChannel;
 825:Generated_Source\PSoC6/CapSense_Filter.c **** 
 826:Generated_Source\PSoC6/CapSense_Filter.c ****     for(freqChannel = CapSense_NUM_SCAN_FREQS; freqChannel-- > 0u;)
 288              		.loc 1 826 0
 289 0002 0123     		movs	r3, #1
 290 0004 09E0     		b	.L18
ARM GAS  C:\Users\codyg\AppData\Local\Temp\ccRbtLKH.s 			page 21


 291              	.LVL37:
 292              	.L20:
 827:Generated_Source\PSoC6/CapSense_Filter.c ****     {
 828:Generated_Source\PSoC6/CapSense_Filter.c ****         if ((CapSense_WD_TYPE_ENUM)wdType != CapSense_WD_PROXIMITY_E)
 293              		.loc 1 828 0
 294 0006 FF23     		movs	r3, #255
 295 0008 1340     		ands	r3, r2
 296 000a 062B     		cmp	r3, #6
 297 000c 04D1     		bne	.L19
 829:Generated_Source\PSoC6/CapSense_Filter.c ****         {
 830:Generated_Source\PSoC6/CapSense_Filter.c ****             #if (CapSense_REGULAR_SENSOR_EN && CapSense_REGULAR_RC_IIR_FILTER_EN)
 831:Generated_Source\PSoC6/CapSense_Filter.c ****                 #if (CapSense_REGULAR_IIR_RC_TYPE == CapSense_IIR_FILTER_PERFORMANCE)
 832:Generated_Source\PSoC6/CapSense_Filter.c ****                     ptrFilterHistObj.ptrRegular->regularChannel[freqChannel].iirHistory = ptrSensor
 833:Generated_Source\PSoC6/CapSense_Filter.c ****                     ptrFilterHistObj.ptrRegular->regularChannel[freqChannel].iirHistoryLow = 0u;
 834:Generated_Source\PSoC6/CapSense_Filter.c ****                 #else
 835:Generated_Source\PSoC6/CapSense_Filter.c ****                     ptrFilterHistObj.ptrRegular->regularChannel[freqChannel].iirHistory = ptrSensor
 836:Generated_Source\PSoC6/CapSense_Filter.c ****                 #endif /* (CapSense_REGULAR_IIR_RC_TYPE == CapSense_IIR_FILTER_PERFORMANCE) */
 837:Generated_Source\PSoC6/CapSense_Filter.c ****             #endif /* (CapSense_REGULAR_SENSOR_EN) */
 838:Generated_Source\PSoC6/CapSense_Filter.c ****         }
 839:Generated_Source\PSoC6/CapSense_Filter.c ****         else
 840:Generated_Source\PSoC6/CapSense_Filter.c ****         {
 841:Generated_Source\PSoC6/CapSense_Filter.c ****             #if (CapSense_PROXIMITY_SENSOR_EN && CapSense_PROX_RC_IIR_FILTER_EN)
 842:Generated_Source\PSoC6/CapSense_Filter.c ****                 #if (CapSense_PROX_IIR_RC_TYPE == CapSense_IIR_FILTER_PERFORMANCE)
 843:Generated_Source\PSoC6/CapSense_Filter.c ****                     ptrFilterHistObj.ptrProx->proxChannel[freqChannel].iirHistory = ptrSensorObj->r
 844:Generated_Source\PSoC6/CapSense_Filter.c ****                     ptrFilterHistObj.ptrProx->proxChannel[freqChannel].iirHistoryLow = 0u;
 845:Generated_Source\PSoC6/CapSense_Filter.c ****                 #else
 846:Generated_Source\PSoC6/CapSense_Filter.c ****                     ptrFilterHistObj.ptrProx->proxChannel[freqChannel].iirHistory = ptrSensorObj->r
 298              		.loc 1 846 0
 299 000e 6300     		lsls	r3, r4, #1
 300 0010 5E5A     		ldrh	r6, [r3, r1]
 301 0012 1B19     		adds	r3, r3, r4
 302 0014 9D00     		lsls	r5, r3, #2
 303 0016 2E52     		strh	r6, [r5, r0]
 304              	.L19:
 823:Generated_Source\PSoC6/CapSense_Filter.c ****     uint32 freqChannel;
 305              		.loc 1 823 0 discriminator 1
 306 0018 2300     		movs	r3, r4
 307              	.LVL38:
 308              	.L18:
 826:Generated_Source\PSoC6/CapSense_Filter.c ****     {
 309              		.loc 1 826 0 discriminator 1
 310 001a 5C1E     		subs	r4, r3, #1
 311              	.LVL39:
 312 001c 002B     		cmp	r3, #0
 313 001e F2D1     		bne	.L20
 847:Generated_Source\PSoC6/CapSense_Filter.c ****                 #endif /* (CapSense_PROX_IIR_RC_TYPE == CapSense_IIR_FILTER_PERFORMANCE) */
 848:Generated_Source\PSoC6/CapSense_Filter.c ****             #endif /* (CapSense_PROX_SENSOR_EN) */
 849:Generated_Source\PSoC6/CapSense_Filter.c ****         }
 850:Generated_Source\PSoC6/CapSense_Filter.c ****     }
 851:Generated_Source\PSoC6/CapSense_Filter.c **** }
 314              		.loc 1 851 0
 315              		@ sp needed
 316              	.LVL40:
 317 0020 70BD     		pop	{r4, r5, r6, pc}
 318              		.cfi_endproc
 319              	.LFE50:
 320              		.size	CapSense_InitializeIIRInternal, .-CapSense_InitializeIIRInternal
ARM GAS  C:\Users\codyg\AppData\Local\Temp\ccRbtLKH.s 			page 22


 321 0022 C046     		.section	.text.CapSense_InitializeIIR,"ax",%progbits
 322              		.align	2
 323              		.global	CapSense_InitializeIIR
 324              		.code	16
 325              		.thumb_func
 326              		.type	CapSense_InitializeIIR, %function
 327              	CapSense_InitializeIIR:
 328              	.LFB48:
 736:Generated_Source\PSoC6/CapSense_Filter.c ****     CapSense_FLASH_WD_STRUCT const *ptrWidget = &CapSense_dsFlash.wdgtArray[widgetId];
 329              		.loc 1 736 0
 330              		.cfi_startproc
 331              		@ args = 0, pretend = 0, frame = 0
 332              		@ frame_needed = 0, uses_anonymous_args = 0
 333              	.LVL41:
 334 0000 F8B5     		push	{r3, r4, r5, r6, r7, lr}
 335              		.cfi_def_cfa_offset 24
 336              		.cfi_offset 3, -24
 337              		.cfi_offset 4, -20
 338              		.cfi_offset 5, -16
 339              		.cfi_offset 6, -12
 340              		.cfi_offset 7, -8
 341              		.cfi_offset 14, -4
 342              	.LVL42:
 742:Generated_Source\PSoC6/CapSense_Filter.c ****     ptrSensor = &ptrSensor[sensorId];
 343              		.loc 1 742 0
 344 0002 0E4E     		ldr	r6, .L23
 345 0004 C300     		lsls	r3, r0, #3
 346 0006 1C1A     		subs	r4, r3, r0
 347 0008 A200     		lsls	r2, r4, #2
 348 000a B218     		adds	r2, r6, r2
 349              	.LVL43:
 743:Generated_Source\PSoC6/CapSense_Filter.c **** 
 350              		.loc 1 743 0
 351 000c 8C00     		lsls	r4, r1, #2
 352 000e 6418     		adds	r4, r4, r1
 353 0010 6500     		lsls	r5, r4, #1
 354 0012 9468     		ldr	r4, [r2, #8]
 355 0014 A446     		mov	ip, r4
 356 0016 6544     		add	r5, r5, ip
 357              	.LVL44:
 746:Generated_Source\PSoC6/CapSense_Filter.c **** 
 358              		.loc 1 746 0
 359 0018 D768     		ldr	r7, [r2, #12]
 360 001a 3C00     		movs	r4, r7
 361              	.LVL45:
 748:Generated_Source\PSoC6/CapSense_Filter.c ****     {
 362              		.loc 1 748 0
 363 001c 1B1A     		subs	r3, r3, r0
 364 001e 9A00     		lsls	r2, r3, #2
 365 0020 B218     		adds	r2, r6, r2
 366 0022 927E     		ldrb	r2, [r2, #26]
 367 0024 062A     		cmp	r2, #6
 368 0026 03D1     		bne	.L22
 757:Generated_Source\PSoC6/CapSense_Filter.c ****         #endif /* (CapSense_PROXIMITY_SENSOR_EN) */
 369              		.loc 1 757 0
 370 0028 4B00     		lsls	r3, r1, #1
 371 002a 5B18     		adds	r3, r3, r1
ARM GAS  C:\Users\codyg\AppData\Local\Temp\ccRbtLKH.s 			page 23


 372 002c 9C00     		lsls	r4, r3, #2
 373 002e 3C19     		adds	r4, r7, r4
 374              	.L22:
 761:Generated_Source\PSoC6/CapSense_Filter.c **** }
 375              		.loc 1 761 0
 376 0030 2900     		movs	r1, r5
 377              	.LVL46:
 378 0032 2000     		movs	r0, r4
 379              	.LVL47:
 380 0034 FFF7FEFF 		bl	CapSense_InitializeIIRInternal
 381              	.LVL48:
 762:Generated_Source\PSoC6/CapSense_Filter.c **** 
 382              		.loc 1 762 0
 383              		@ sp needed
 384              	.LVL49:
 385              	.LVL50:
 386              	.LVL51:
 387 0038 F8BD     		pop	{r3, r4, r5, r6, r7, pc}
 388              	.L24:
 389 003a C046     		.align	2
 390              	.L23:
 391 003c 00000000 		.word	CapSense_dsFlash
 392              		.cfi_endproc
 393              	.LFE48:
 394              		.size	CapSense_InitializeIIR, .-CapSense_InitializeIIR
 395              		.section	.text.CapSense_InitializeMedianInternal,"ax",%progbits
 396              		.align	2
 397              		.global	CapSense_InitializeMedianInternal
 398              		.code	16
 399              		.thumb_func
 400              		.type	CapSense_InitializeMedianInternal, %function
 401              	CapSense_InitializeMedianInternal:
 402              	.LFB54:
 852:Generated_Source\PSoC6/CapSense_Filter.c **** 
 853:Generated_Source\PSoC6/CapSense_Filter.c **** 
 854:Generated_Source\PSoC6/CapSense_Filter.c **** /*******************************************************************************
 855:Generated_Source\PSoC6/CapSense_Filter.c **** * Function Name: CapSense_RunIIRInternal
 856:Generated_Source\PSoC6/CapSense_Filter.c **** ****************************************************************************//**
 857:Generated_Source\PSoC6/CapSense_Filter.c **** *
 858:Generated_Source\PSoC6/CapSense_Filter.c **** * \brief    Run the IIR filter.
 859:Generated_Source\PSoC6/CapSense_Filter.c **** *
 860:Generated_Source\PSoC6/CapSense_Filter.c **** * \details  Run the IIR filter.
 861:Generated_Source\PSoC6/CapSense_Filter.c **** *
 862:Generated_Source\PSoC6/CapSense_Filter.c **** * \param    ptrFilterHistObj The pointer to the filter RAM object of the sensor.
 863:Generated_Source\PSoC6/CapSense_Filter.c **** * \param    ptrSensorObj     The pointer to the sensor RAM object of the sensor.
 864:Generated_Source\PSoC6/CapSense_Filter.c **** * \param    wdType           Specifies the type of a widget.
 865:Generated_Source\PSoC6/CapSense_Filter.c **** *
 866:Generated_Source\PSoC6/CapSense_Filter.c **** *******************************************************************************/
 867:Generated_Source\PSoC6/CapSense_Filter.c **** void CapSense_RunIIRInternal(CapSense_PTR_FILTER_VARIANT ptrFilterHistObj,
 868:Generated_Source\PSoC6/CapSense_Filter.c ****                                      CapSense_RAM_SNS_STRUCT *ptrSensorObj, uint32 wdType)
 869:Generated_Source\PSoC6/CapSense_Filter.c **** {
 870:Generated_Source\PSoC6/CapSense_Filter.c ****     uint32 freqChannel;
 871:Generated_Source\PSoC6/CapSense_Filter.c ****     uint32 temp;
 872:Generated_Source\PSoC6/CapSense_Filter.c **** 
 873:Generated_Source\PSoC6/CapSense_Filter.c ****     for(freqChannel = CapSense_NUM_SCAN_FREQS; freqChannel-- > 0u;)
 874:Generated_Source\PSoC6/CapSense_Filter.c ****     {
 875:Generated_Source\PSoC6/CapSense_Filter.c ****         if ((CapSense_WD_TYPE_ENUM)wdType != CapSense_WD_PROXIMITY_E)
ARM GAS  C:\Users\codyg\AppData\Local\Temp\ccRbtLKH.s 			page 24


 876:Generated_Source\PSoC6/CapSense_Filter.c ****         {
 877:Generated_Source\PSoC6/CapSense_Filter.c ****             #if (CapSense_REGULAR_SENSOR_EN && CapSense_REGULAR_RC_IIR_FILTER_EN)
 878:Generated_Source\PSoC6/CapSense_Filter.c ****                 #if (CapSense_REGULAR_IIR_RC_TYPE == CapSense_IIR_FILTER_PERFORMANCE)
 879:Generated_Source\PSoC6/CapSense_Filter.c ****                     temp = ((uint32)ptrFilterHistObj.ptrRegular->regularChannel[freqChannel].iirHis
 880:Generated_Source\PSoC6/CapSense_Filter.c ****                     temp |= ptrFilterHistObj.ptrRegular->regularChannel[freqChannel].iirHistoryLow;
 881:Generated_Source\PSoC6/CapSense_Filter.c ****                     temp = CapSense_FtIIR1stOrder((uint32)ptrSensorObj->raw[freqChannel],
 882:Generated_Source\PSoC6/CapSense_Filter.c ****                                                         temp,
 883:Generated_Source\PSoC6/CapSense_Filter.c ****                                                         CapSense_REGULAR_IIR_RC_N,
 884:Generated_Source\PSoC6/CapSense_Filter.c ****                                                         CapSense_REGULAR_IIR_RC_SHIFT);
 885:Generated_Source\PSoC6/CapSense_Filter.c ****                     ptrFilterHistObj.ptrRegular->regularChannel[freqChannel].iirHistory = CY_LO16(t
 886:Generated_Source\PSoC6/CapSense_Filter.c ****                     ptrFilterHistObj.ptrRegular->regularChannel[freqChannel].iirHistoryLow = CY_LO8
 887:Generated_Source\PSoC6/CapSense_Filter.c ****                     ptrSensorObj->raw[freqChannel] = CY_LO16(temp >>CapSense_REGULAR_IIR_RC_SHIFT);
 888:Generated_Source\PSoC6/CapSense_Filter.c ****                 #else
 889:Generated_Source\PSoC6/CapSense_Filter.c ****                     temp =CapSense_FtIIR1stOrder((uint32)ptrSensorObj->raw[freqChannel],
 890:Generated_Source\PSoC6/CapSense_Filter.c ****                                                         (uint32)ptrFilterHistObj.ptrRegular->regula
 891:Generated_Source\PSoC6/CapSense_Filter.c ****                                                         CapSense_REGULAR_IIR_RC_N,
 892:Generated_Source\PSoC6/CapSense_Filter.c ****                                                         CapSense_REGULAR_IIR_RC_SHIFT);
 893:Generated_Source\PSoC6/CapSense_Filter.c ****                     ptrFilterHistObj.ptrRegular->regularChannel[freqChannel].iirHistory = CY_LO16(t
 894:Generated_Source\PSoC6/CapSense_Filter.c ****                     ptrSensorObj->raw[freqChannel] = CY_LO16(temp >>CapSense_REGULAR_IIR_RC_SHIFT);
 895:Generated_Source\PSoC6/CapSense_Filter.c ****                 #endif /* (CapSense_REGULAR_IIR_RC_TYPE == CapSense_IIR_FILTER_PERFORMANCE) */
 896:Generated_Source\PSoC6/CapSense_Filter.c ****             #endif /* (CapSense_REGULAR_SENSOR_EN) */
 897:Generated_Source\PSoC6/CapSense_Filter.c ****         }
 898:Generated_Source\PSoC6/CapSense_Filter.c ****         else
 899:Generated_Source\PSoC6/CapSense_Filter.c ****         {
 900:Generated_Source\PSoC6/CapSense_Filter.c ****             #if (CapSense_PROXIMITY_SENSOR_EN && CapSense_PROX_RC_IIR_FILTER_EN)
 901:Generated_Source\PSoC6/CapSense_Filter.c ****                 #if (CapSense_PROX_IIR_RC_TYPE == CapSense_IIR_FILTER_PERFORMANCE)
 902:Generated_Source\PSoC6/CapSense_Filter.c ****                     temp =  ptrFilterHistObj.ptrProx->proxChannel[freqChannel].iirHistory << CapSen
 903:Generated_Source\PSoC6/CapSense_Filter.c ****                     temp |= ptrFilterHistObj.ptrProx->proxChannel[freqChannel].iirHistoryLow;
 904:Generated_Source\PSoC6/CapSense_Filter.c ****                     temp =CapSense_FtIIR1stOrder((uint32)ptrSensorObj->raw[freqChannel],
 905:Generated_Source\PSoC6/CapSense_Filter.c ****                                                         temp,
 906:Generated_Source\PSoC6/CapSense_Filter.c ****                                                         CapSense_PROX_IIR_RC_N,
 907:Generated_Source\PSoC6/CapSense_Filter.c ****                                                         CapSense_PROX_IIR_RC_SHIFT);
 908:Generated_Source\PSoC6/CapSense_Filter.c ****                     ptrFilterHistObj.ptrProx->proxChannel[freqChannel].iirHistory = CY_LO16(temp >>
 909:Generated_Source\PSoC6/CapSense_Filter.c ****                     ptrFilterHistObj.ptrProx->proxChannel[freqChannel].iirHistoryLow = CY_LO8(temp)
 910:Generated_Source\PSoC6/CapSense_Filter.c ****                     ptrSensorObj->raw[freqChannel] = CY_LO16(temp >>CapSense_PROX_IIR_RC_SHIFT);
 911:Generated_Source\PSoC6/CapSense_Filter.c ****                 #else
 912:Generated_Source\PSoC6/CapSense_Filter.c ****                     temp =CapSense_FtIIR1stOrder((uint32)ptrSensorObj->raw[freqChannel],
 913:Generated_Source\PSoC6/CapSense_Filter.c ****                                                         (uint32)ptrFilterHistObj.ptrProx->proxChann
 914:Generated_Source\PSoC6/CapSense_Filter.c ****                                                         CapSense_PROX_IIR_RC_N,
 915:Generated_Source\PSoC6/CapSense_Filter.c ****                                                         CapSense_PROX_IIR_RC_SHIFT);
 916:Generated_Source\PSoC6/CapSense_Filter.c ****                     ptrFilterHistObj.ptrProx->proxChannel[freqChannel].iirHistory = CY_LO16(temp);
 917:Generated_Source\PSoC6/CapSense_Filter.c ****                     ptrSensorObj->raw[freqChannel] = CY_LO16(temp >>CapSense_PROX_IIR_RC_SHIFT);
 918:Generated_Source\PSoC6/CapSense_Filter.c ****                 #endif /* (CapSense_PROX_IIR_RC_TYPE == CapSense_IIR_FILTER_PERFORMANCE) */
 919:Generated_Source\PSoC6/CapSense_Filter.c ****             #endif /* (CapSense_PROX_SENSOR_EN) */
 920:Generated_Source\PSoC6/CapSense_Filter.c ****         }
 921:Generated_Source\PSoC6/CapSense_Filter.c ****     }
 922:Generated_Source\PSoC6/CapSense_Filter.c **** }
 923:Generated_Source\PSoC6/CapSense_Filter.c **** #endif /* #if (CapSense_REGULAR_RC_IIR_FILTER_EN || CapSense_PROX_RC_IIR_FILTER_EN) */
 924:Generated_Source\PSoC6/CapSense_Filter.c **** 
 925:Generated_Source\PSoC6/CapSense_Filter.c **** 
 926:Generated_Source\PSoC6/CapSense_Filter.c **** #if (CapSense_REGULAR_RC_MEDIAN_FILTER_EN || CapSense_PROX_RC_MEDIAN_FILTER_EN)
 927:Generated_Source\PSoC6/CapSense_Filter.c **** 
 928:Generated_Source\PSoC6/CapSense_Filter.c **** /*******************************************************************************
 929:Generated_Source\PSoC6/CapSense_Filter.c **** * Function Name: CapSense_InitializeMedian
 930:Generated_Source\PSoC6/CapSense_Filter.c **** ****************************************************************************//**
 931:Generated_Source\PSoC6/CapSense_Filter.c **** *
 932:Generated_Source\PSoC6/CapSense_Filter.c **** * \brief    Initializes the Median filter history.
ARM GAS  C:\Users\codyg\AppData\Local\Temp\ccRbtLKH.s 			page 25


 933:Generated_Source\PSoC6/CapSense_Filter.c **** *
 934:Generated_Source\PSoC6/CapSense_Filter.c **** * \details  Initializes the Median filter history.
 935:Generated_Source\PSoC6/CapSense_Filter.c **** *
 936:Generated_Source\PSoC6/CapSense_Filter.c **** * \param    widgetId Specifies the ID number of the widget.
 937:Generated_Source\PSoC6/CapSense_Filter.c **** * \param    sensorId Specifies the ID number of the sensor in the widget.
 938:Generated_Source\PSoC6/CapSense_Filter.c **** *
 939:Generated_Source\PSoC6/CapSense_Filter.c **** *******************************************************************************/
 940:Generated_Source\PSoC6/CapSense_Filter.c **** void CapSense_InitializeMedian(uint32 widgetId, uint32 sensorId)
 941:Generated_Source\PSoC6/CapSense_Filter.c **** {
 942:Generated_Source\PSoC6/CapSense_Filter.c ****     CapSense_FLASH_WD_STRUCT const *ptrWidget = &CapSense_dsFlash.wdgtArray[widgetId];
 943:Generated_Source\PSoC6/CapSense_Filter.c ****     CapSense_RAM_SNS_STRUCT *ptrSensor = NULL;
 944:Generated_Source\PSoC6/CapSense_Filter.c ****     CapSense_PTR_FILTER_VARIANT ptrFilterHistObj;
 945:Generated_Source\PSoC6/CapSense_Filter.c **** 
 946:Generated_Source\PSoC6/CapSense_Filter.c ****     /* Find pointer to specified sensor object */
 947:Generated_Source\PSoC6/CapSense_Filter.c ****     ptrSensor = ptrWidget->ptr2SnsRam;
 948:Generated_Source\PSoC6/CapSense_Filter.c ****     ptrSensor = &ptrSensor[sensorId];
 949:Generated_Source\PSoC6/CapSense_Filter.c **** 
 950:Generated_Source\PSoC6/CapSense_Filter.c ****     /* Find pointer to specified filter sensor object */
 951:Generated_Source\PSoC6/CapSense_Filter.c ****     ptrFilterHistObj.ptr = ptrWidget->ptr2FltrHistory;
 952:Generated_Source\PSoC6/CapSense_Filter.c **** 
 953:Generated_Source\PSoC6/CapSense_Filter.c ****     if ((CapSense_WD_TYPE_ENUM)ptrWidget->wdgtType != CapSense_WD_PROXIMITY_E)
 954:Generated_Source\PSoC6/CapSense_Filter.c ****     {
 955:Generated_Source\PSoC6/CapSense_Filter.c ****         #if (CapSense_REGULAR_SENSOR_EN)
 956:Generated_Source\PSoC6/CapSense_Filter.c ****             ptrFilterHistObj.ptrRegular = &ptrFilterHistObj.ptrRegular[sensorId];
 957:Generated_Source\PSoC6/CapSense_Filter.c ****         #endif /* (CapSense_REGULAR_SENSOR_EN) */
 958:Generated_Source\PSoC6/CapSense_Filter.c ****     }
 959:Generated_Source\PSoC6/CapSense_Filter.c ****     else
 960:Generated_Source\PSoC6/CapSense_Filter.c ****     {
 961:Generated_Source\PSoC6/CapSense_Filter.c ****         #if (CapSense_PROXIMITY_SENSOR_EN)
 962:Generated_Source\PSoC6/CapSense_Filter.c ****             ptrFilterHistObj.ptrProx = &ptrFilterHistObj.ptrProx[sensorId];
 963:Generated_Source\PSoC6/CapSense_Filter.c ****         #endif /* (CapSense_PROXIMITY_SENSOR_EN) */
 964:Generated_Source\PSoC6/CapSense_Filter.c ****     }
 965:Generated_Source\PSoC6/CapSense_Filter.c **** 
 966:Generated_Source\PSoC6/CapSense_Filter.c ****     CapSense_InitializeMedianInternal(ptrFilterHistObj, ptrSensor, (uint32)ptrWidget->wdgtType);
 967:Generated_Source\PSoC6/CapSense_Filter.c **** }
 968:Generated_Source\PSoC6/CapSense_Filter.c **** 
 969:Generated_Source\PSoC6/CapSense_Filter.c **** 
 970:Generated_Source\PSoC6/CapSense_Filter.c **** /*******************************************************************************
 971:Generated_Source\PSoC6/CapSense_Filter.c **** * Function Name: CapSense_RunMedian
 972:Generated_Source\PSoC6/CapSense_Filter.c **** ****************************************************************************//**
 973:Generated_Source\PSoC6/CapSense_Filter.c **** *
 974:Generated_Source\PSoC6/CapSense_Filter.c **** * \brief    Executes the Median filter algorithm on a sensor indicated by an input
 975:Generated_Source\PSoC6/CapSense_Filter.c **** *           parameter.
 976:Generated_Source\PSoC6/CapSense_Filter.c **** *
 977:Generated_Source\PSoC6/CapSense_Filter.c **** * \details  Executes the Median filter algorithm on a sensor indicated by an input
 978:Generated_Source\PSoC6/CapSense_Filter.c **** *           parameter.
 979:Generated_Source\PSoC6/CapSense_Filter.c **** *
 980:Generated_Source\PSoC6/CapSense_Filter.c **** * \param    widgetId Specifies the ID number of the widget.
 981:Generated_Source\PSoC6/CapSense_Filter.c **** * \param    sensorId Specifies the ID number of the sensor in the widget.
 982:Generated_Source\PSoC6/CapSense_Filter.c **** *
 983:Generated_Source\PSoC6/CapSense_Filter.c **** *******************************************************************************/
 984:Generated_Source\PSoC6/CapSense_Filter.c **** void CapSense_RunMedian(uint32 widgetId, uint32 sensorId)
 985:Generated_Source\PSoC6/CapSense_Filter.c **** {
 986:Generated_Source\PSoC6/CapSense_Filter.c ****     CapSense_FLASH_WD_STRUCT const *ptrWidget = &CapSense_dsFlash.wdgtArray[widgetId];
 987:Generated_Source\PSoC6/CapSense_Filter.c ****     CapSense_RAM_SNS_STRUCT *ptrSensor = NULL;
 988:Generated_Source\PSoC6/CapSense_Filter.c ****     CapSense_PTR_FILTER_VARIANT ptrFilterHistObj;
 989:Generated_Source\PSoC6/CapSense_Filter.c **** 
ARM GAS  C:\Users\codyg\AppData\Local\Temp\ccRbtLKH.s 			page 26


 990:Generated_Source\PSoC6/CapSense_Filter.c ****     /* Find pointer to specified sensor object */
 991:Generated_Source\PSoC6/CapSense_Filter.c ****     ptrSensor = ptrWidget->ptr2SnsRam;
 992:Generated_Source\PSoC6/CapSense_Filter.c ****     ptrSensor = &ptrSensor[sensorId];
 993:Generated_Source\PSoC6/CapSense_Filter.c **** 
 994:Generated_Source\PSoC6/CapSense_Filter.c ****     /* Find pointer to specified filter sensor object */
 995:Generated_Source\PSoC6/CapSense_Filter.c ****     ptrFilterHistObj.ptr = ptrWidget->ptr2FltrHistory;
 996:Generated_Source\PSoC6/CapSense_Filter.c **** 
 997:Generated_Source\PSoC6/CapSense_Filter.c ****     if ((CapSense_WD_TYPE_ENUM)ptrWidget->wdgtType != CapSense_WD_PROXIMITY_E)
 998:Generated_Source\PSoC6/CapSense_Filter.c ****     {
 999:Generated_Source\PSoC6/CapSense_Filter.c ****         #if (CapSense_REGULAR_SENSOR_EN)
1000:Generated_Source\PSoC6/CapSense_Filter.c ****             ptrFilterHistObj.ptrRegular = &ptrFilterHistObj.ptrRegular[sensorId];
1001:Generated_Source\PSoC6/CapSense_Filter.c ****         #endif /* (CapSense_REGULAR_SENSOR_EN) */
1002:Generated_Source\PSoC6/CapSense_Filter.c ****     }
1003:Generated_Source\PSoC6/CapSense_Filter.c ****     else
1004:Generated_Source\PSoC6/CapSense_Filter.c ****     {
1005:Generated_Source\PSoC6/CapSense_Filter.c ****         #if (CapSense_PROXIMITY_SENSOR_EN)
1006:Generated_Source\PSoC6/CapSense_Filter.c ****             ptrFilterHistObj.ptrProx = &ptrFilterHistObj.ptrProx[sensorId];
1007:Generated_Source\PSoC6/CapSense_Filter.c ****         #endif /* (CapSense_PROXIMITY_SENSOR_EN) */
1008:Generated_Source\PSoC6/CapSense_Filter.c ****     }
1009:Generated_Source\PSoC6/CapSense_Filter.c **** 
1010:Generated_Source\PSoC6/CapSense_Filter.c ****     CapSense_RunMedianInternal(ptrFilterHistObj, ptrSensor, (uint32)ptrWidget->wdgtType);
1011:Generated_Source\PSoC6/CapSense_Filter.c **** }
1012:Generated_Source\PSoC6/CapSense_Filter.c **** 
1013:Generated_Source\PSoC6/CapSense_Filter.c **** 
1014:Generated_Source\PSoC6/CapSense_Filter.c **** /*******************************************************************************
1015:Generated_Source\PSoC6/CapSense_Filter.c **** * Function Name: CapSense_InitializeMedianInternal
1016:Generated_Source\PSoC6/CapSense_Filter.c **** ****************************************************************************//**
1017:Generated_Source\PSoC6/CapSense_Filter.c **** *
1018:Generated_Source\PSoC6/CapSense_Filter.c **** * \brief    Initializes the Median filter.
1019:Generated_Source\PSoC6/CapSense_Filter.c **** *
1020:Generated_Source\PSoC6/CapSense_Filter.c **** * \details  Initializes the Median filter.
1021:Generated_Source\PSoC6/CapSense_Filter.c **** *
1022:Generated_Source\PSoC6/CapSense_Filter.c **** * \param    ptrFilterHistObj The pointer to the filter RAM object of the sensor.
1023:Generated_Source\PSoC6/CapSense_Filter.c **** * \param    ptrSensorObj     The pointer to the sensor RAM object of the sensor.
1024:Generated_Source\PSoC6/CapSense_Filter.c **** * \param    wdType           Specifies the type of a widget.
1025:Generated_Source\PSoC6/CapSense_Filter.c **** *
1026:Generated_Source\PSoC6/CapSense_Filter.c **** *******************************************************************************/
1027:Generated_Source\PSoC6/CapSense_Filter.c **** void CapSense_InitializeMedianInternal(CapSense_PTR_FILTER_VARIANT ptrFilterHistObj,
1028:Generated_Source\PSoC6/CapSense_Filter.c ****                                                CapSense_RAM_SNS_STRUCT *ptrSensorObj, uint32 wdType
1029:Generated_Source\PSoC6/CapSense_Filter.c **** {
 403              		.loc 1 1029 0
 404              		.cfi_startproc
 405              		@ args = 0, pretend = 0, frame = 0
 406              		@ frame_needed = 0, uses_anonymous_args = 0
 407              	.LVL52:
 408 0000 F0B5     		push	{r4, r5, r6, r7, lr}
 409              		.cfi_def_cfa_offset 20
 410              		.cfi_offset 4, -20
 411              		.cfi_offset 5, -16
 412              		.cfi_offset 6, -12
 413              		.cfi_offset 7, -8
 414              		.cfi_offset 14, -4
 415              	.LVL53:
1030:Generated_Source\PSoC6/CapSense_Filter.c ****     uint32 freqChannel;
1031:Generated_Source\PSoC6/CapSense_Filter.c **** 
1032:Generated_Source\PSoC6/CapSense_Filter.c ****     for(freqChannel = CapSense_NUM_SCAN_FREQS; freqChannel-- > 0u;)
 416              		.loc 1 1032 0
ARM GAS  C:\Users\codyg\AppData\Local\Temp\ccRbtLKH.s 			page 27


 417 0002 0123     		movs	r3, #1
 418 0004 0CE0     		b	.L26
 419              	.LVL54:
 420              	.L28:
1033:Generated_Source\PSoC6/CapSense_Filter.c ****     {
1034:Generated_Source\PSoC6/CapSense_Filter.c ****         if ((CapSense_WD_TYPE_ENUM)wdType != CapSense_WD_PROXIMITY_E)
 421              		.loc 1 1034 0
 422 0006 FF23     		movs	r3, #255
 423 0008 1340     		ands	r3, r2
 424 000a 062B     		cmp	r3, #6
 425 000c 07D1     		bne	.L27
1035:Generated_Source\PSoC6/CapSense_Filter.c ****         {
1036:Generated_Source\PSoC6/CapSense_Filter.c ****             #if (CapSense_REGULAR_SENSOR_EN && CapSense_REGULAR_RC_MEDIAN_FILTER_EN)
1037:Generated_Source\PSoC6/CapSense_Filter.c ****                 ptrFilterHistObj.ptrRegular->regularChannel[freqChannel].medHistory[0u] = ptrSensor
1038:Generated_Source\PSoC6/CapSense_Filter.c ****                 ptrFilterHistObj.ptrRegular->regularChannel[freqChannel].medHistory[1u] = ptrSensor
1039:Generated_Source\PSoC6/CapSense_Filter.c ****             #endif /* (CapSense_REGULAR_SENSOR_EN) */
1040:Generated_Source\PSoC6/CapSense_Filter.c ****         }
1041:Generated_Source\PSoC6/CapSense_Filter.c ****         else
1042:Generated_Source\PSoC6/CapSense_Filter.c ****         {
1043:Generated_Source\PSoC6/CapSense_Filter.c ****             #if (CapSense_PROXIMITY_SENSOR_EN && CapSense_PROX_RC_MEDIAN_FILTER_EN)
1044:Generated_Source\PSoC6/CapSense_Filter.c ****                 ptrFilterHistObj.ptrProx->proxChannel[freqChannel].medHistory[0u] = ptrSensorObj->r
 426              		.loc 1 1044 0
 427 000e 6500     		lsls	r5, r4, #1
 428 0010 6F5A     		ldrh	r7, [r5, r1]
 429 0012 2E19     		adds	r6, r5, r4
 430 0014 B300     		lsls	r3, r6, #2
 431 0016 C318     		adds	r3, r0, r3
 432 0018 5F80     		strh	r7, [r3, #2]
1045:Generated_Source\PSoC6/CapSense_Filter.c ****                 ptrFilterHistObj.ptrProx->proxChannel[freqChannel].medHistory[1u] = ptrSensorObj->r
 433              		.loc 1 1045 0
 434 001a 6D5A     		ldrh	r5, [r5, r1]
 435 001c 9D80     		strh	r5, [r3, #4]
 436              	.L27:
1029:Generated_Source\PSoC6/CapSense_Filter.c ****     uint32 freqChannel;
 437              		.loc 1 1029 0 discriminator 1
 438 001e 2300     		movs	r3, r4
 439              	.LVL55:
 440              	.L26:
1032:Generated_Source\PSoC6/CapSense_Filter.c ****     {
 441              		.loc 1 1032 0 discriminator 1
 442 0020 5C1E     		subs	r4, r3, #1
 443              	.LVL56:
 444 0022 002B     		cmp	r3, #0
 445 0024 EFD1     		bne	.L28
1046:Generated_Source\PSoC6/CapSense_Filter.c ****             #endif /* (CapSense_PROXIMITY_SENSOR_EN) */
1047:Generated_Source\PSoC6/CapSense_Filter.c ****         }
1048:Generated_Source\PSoC6/CapSense_Filter.c ****     }
1049:Generated_Source\PSoC6/CapSense_Filter.c **** }
 446              		.loc 1 1049 0
 447              		@ sp needed
 448              	.LVL57:
 449 0026 F0BD     		pop	{r4, r5, r6, r7, pc}
 450              		.cfi_endproc
 451              	.LFE54:
 452              		.size	CapSense_InitializeMedianInternal, .-CapSense_InitializeMedianInternal
 453              		.section	.text.CapSense_InitializeMedian,"ax",%progbits
 454              		.align	2
ARM GAS  C:\Users\codyg\AppData\Local\Temp\ccRbtLKH.s 			page 28


 455              		.global	CapSense_InitializeMedian
 456              		.code	16
 457              		.thumb_func
 458              		.type	CapSense_InitializeMedian, %function
 459              	CapSense_InitializeMedian:
 460              	.LFB52:
 941:Generated_Source\PSoC6/CapSense_Filter.c ****     CapSense_FLASH_WD_STRUCT const *ptrWidget = &CapSense_dsFlash.wdgtArray[widgetId];
 461              		.loc 1 941 0
 462              		.cfi_startproc
 463              		@ args = 0, pretend = 0, frame = 0
 464              		@ frame_needed = 0, uses_anonymous_args = 0
 465              	.LVL58:
 466 0000 F8B5     		push	{r3, r4, r5, r6, r7, lr}
 467              		.cfi_def_cfa_offset 24
 468              		.cfi_offset 3, -24
 469              		.cfi_offset 4, -20
 470              		.cfi_offset 5, -16
 471              		.cfi_offset 6, -12
 472              		.cfi_offset 7, -8
 473              		.cfi_offset 14, -4
 474              	.LVL59:
 947:Generated_Source\PSoC6/CapSense_Filter.c ****     ptrSensor = &ptrSensor[sensorId];
 475              		.loc 1 947 0
 476 0002 0E4E     		ldr	r6, .L31
 477 0004 C300     		lsls	r3, r0, #3
 478 0006 1C1A     		subs	r4, r3, r0
 479 0008 A200     		lsls	r2, r4, #2
 480 000a B218     		adds	r2, r6, r2
 481              	.LVL60:
 948:Generated_Source\PSoC6/CapSense_Filter.c **** 
 482              		.loc 1 948 0
 483 000c 8C00     		lsls	r4, r1, #2
 484 000e 6418     		adds	r4, r4, r1
 485 0010 6500     		lsls	r5, r4, #1
 486 0012 9468     		ldr	r4, [r2, #8]
 487 0014 A446     		mov	ip, r4
 488 0016 6544     		add	r5, r5, ip
 489              	.LVL61:
 951:Generated_Source\PSoC6/CapSense_Filter.c **** 
 490              		.loc 1 951 0
 491 0018 D768     		ldr	r7, [r2, #12]
 492 001a 3C00     		movs	r4, r7
 493              	.LVL62:
 953:Generated_Source\PSoC6/CapSense_Filter.c ****     {
 494              		.loc 1 953 0
 495 001c 1B1A     		subs	r3, r3, r0
 496 001e 9A00     		lsls	r2, r3, #2
 497 0020 B218     		adds	r2, r6, r2
 498 0022 927E     		ldrb	r2, [r2, #26]
 499 0024 062A     		cmp	r2, #6
 500 0026 03D1     		bne	.L30
 962:Generated_Source\PSoC6/CapSense_Filter.c ****         #endif /* (CapSense_PROXIMITY_SENSOR_EN) */
 501              		.loc 1 962 0
 502 0028 4B00     		lsls	r3, r1, #1
 503 002a 5B18     		adds	r3, r3, r1
 504 002c 9C00     		lsls	r4, r3, #2
 505 002e 3C19     		adds	r4, r7, r4
ARM GAS  C:\Users\codyg\AppData\Local\Temp\ccRbtLKH.s 			page 29


 506              	.L30:
 966:Generated_Source\PSoC6/CapSense_Filter.c **** }
 507              		.loc 1 966 0
 508 0030 2900     		movs	r1, r5
 509              	.LVL63:
 510 0032 2000     		movs	r0, r4
 511              	.LVL64:
 512 0034 FFF7FEFF 		bl	CapSense_InitializeMedianInternal
 513              	.LVL65:
 967:Generated_Source\PSoC6/CapSense_Filter.c **** 
 514              		.loc 1 967 0
 515              		@ sp needed
 516              	.LVL66:
 517              	.LVL67:
 518              	.LVL68:
 519 0038 F8BD     		pop	{r3, r4, r5, r6, r7, pc}
 520              	.L32:
 521 003a C046     		.align	2
 522              	.L31:
 523 003c 00000000 		.word	CapSense_dsFlash
 524              		.cfi_endproc
 525              	.LFE52:
 526              		.size	CapSense_InitializeMedian, .-CapSense_InitializeMedian
 527              		.section	.text.CapSense_InitializeAverageInternal,"ax",%progbits
 528              		.align	2
 529              		.global	CapSense_InitializeAverageInternal
 530              		.code	16
 531              		.thumb_func
 532              		.type	CapSense_InitializeAverageInternal, %function
 533              	CapSense_InitializeAverageInternal:
 534              	.LFB58:
1050:Generated_Source\PSoC6/CapSense_Filter.c **** 
1051:Generated_Source\PSoC6/CapSense_Filter.c **** 
1052:Generated_Source\PSoC6/CapSense_Filter.c **** /*******************************************************************************
1053:Generated_Source\PSoC6/CapSense_Filter.c **** * Function Name: CapSense_RunMedianInternal
1054:Generated_Source\PSoC6/CapSense_Filter.c **** ****************************************************************************//**
1055:Generated_Source\PSoC6/CapSense_Filter.c **** *
1056:Generated_Source\PSoC6/CapSense_Filter.c **** * \brief    Runs the Median filter.
1057:Generated_Source\PSoC6/CapSense_Filter.c **** *
1058:Generated_Source\PSoC6/CapSense_Filter.c **** * \details  Runs the Median filter.
1059:Generated_Source\PSoC6/CapSense_Filter.c **** *
1060:Generated_Source\PSoC6/CapSense_Filter.c **** * \param    ptrFilterHistObj The pointer to the filter RAM object of the sensor.
1061:Generated_Source\PSoC6/CapSense_Filter.c **** * \param    ptrSensorObj     The pointer to the sensor RAM object of the sensor.
1062:Generated_Source\PSoC6/CapSense_Filter.c **** * \param    wdType           Specifies the type of a widget.
1063:Generated_Source\PSoC6/CapSense_Filter.c **** *
1064:Generated_Source\PSoC6/CapSense_Filter.c **** *******************************************************************************/
1065:Generated_Source\PSoC6/CapSense_Filter.c **** void CapSense_RunMedianInternal(CapSense_PTR_FILTER_VARIANT ptrFilterHistObj,
1066:Generated_Source\PSoC6/CapSense_Filter.c ****                                         CapSense_RAM_SNS_STRUCT *ptrSensorObj, uint32 wdType)
1067:Generated_Source\PSoC6/CapSense_Filter.c **** {
1068:Generated_Source\PSoC6/CapSense_Filter.c ****     uint32 freqChannel;
1069:Generated_Source\PSoC6/CapSense_Filter.c **** 
1070:Generated_Source\PSoC6/CapSense_Filter.c ****     #if ((CapSense_REGULAR_SENSOR_EN && CapSense_REGULAR_RC_MEDIAN_FILTER_EN) || \
1071:Generated_Source\PSoC6/CapSense_Filter.c ****          (CapSense_PROXIMITY_SENSOR_EN && CapSense_PROX_RC_MEDIAN_FILTER_EN))
1072:Generated_Source\PSoC6/CapSense_Filter.c ****         uint32 temp;
1073:Generated_Source\PSoC6/CapSense_Filter.c ****     #endif
1074:Generated_Source\PSoC6/CapSense_Filter.c **** 
1075:Generated_Source\PSoC6/CapSense_Filter.c ****     for(freqChannel = CapSense_NUM_SCAN_FREQS; freqChannel-- > 0u;)
ARM GAS  C:\Users\codyg\AppData\Local\Temp\ccRbtLKH.s 			page 30


1076:Generated_Source\PSoC6/CapSense_Filter.c ****     {
1077:Generated_Source\PSoC6/CapSense_Filter.c ****         if ((CapSense_WD_TYPE_ENUM)wdType != CapSense_WD_PROXIMITY_E)
1078:Generated_Source\PSoC6/CapSense_Filter.c ****         {
1079:Generated_Source\PSoC6/CapSense_Filter.c ****             #if (CapSense_REGULAR_SENSOR_EN && CapSense_REGULAR_RC_MEDIAN_FILTER_EN)
1080:Generated_Source\PSoC6/CapSense_Filter.c ****                 temp = CapSense_FtMedian((uint32)ptrSensorObj->raw[freqChannel],\
1081:Generated_Source\PSoC6/CapSense_Filter.c ****                                                  (uint32)ptrFilterHistObj.ptrRegular->regularChanne
1082:Generated_Source\PSoC6/CapSense_Filter.c ****                                                  (uint32)ptrFilterHistObj.ptrRegular->regularChanne
1083:Generated_Source\PSoC6/CapSense_Filter.c ****                 ptrFilterHistObj.ptrRegular->regularChannel[freqChannel].medHistory[1u] = \
1084:Generated_Source\PSoC6/CapSense_Filter.c ****                 ptrFilterHistObj.ptrRegular->regularChannel[freqChannel].medHistory[0u];
1085:Generated_Source\PSoC6/CapSense_Filter.c ****                 ptrFilterHistObj.ptrRegular->regularChannel[freqChannel].medHistory[0u] = ptrSensor
1086:Generated_Source\PSoC6/CapSense_Filter.c ****                 ptrSensorObj->raw[freqChannel] = CY_LO16(temp);
1087:Generated_Source\PSoC6/CapSense_Filter.c ****             #endif /* (CapSense_REGULAR_SENSOR_EN) */
1088:Generated_Source\PSoC6/CapSense_Filter.c ****         }
1089:Generated_Source\PSoC6/CapSense_Filter.c ****         else
1090:Generated_Source\PSoC6/CapSense_Filter.c ****         {
1091:Generated_Source\PSoC6/CapSense_Filter.c ****             #if (CapSense_PROXIMITY_SENSOR_EN && CapSense_PROX_RC_MEDIAN_FILTER_EN)
1092:Generated_Source\PSoC6/CapSense_Filter.c ****                 temp = CapSense_FtMedian((uint32)ptrSensorObj->raw[freqChannel],\
1093:Generated_Source\PSoC6/CapSense_Filter.c ****                                                  (uint32)ptrFilterHistObj.ptrProx->proxChannel[freq
1094:Generated_Source\PSoC6/CapSense_Filter.c ****                                                  (uint32)ptrFilterHistObj.ptrProx->proxChannel[freq
1095:Generated_Source\PSoC6/CapSense_Filter.c ****                 ptrFilterHistObj.ptrProx->proxChannel[freqChannel].medHistory[1u] = \
1096:Generated_Source\PSoC6/CapSense_Filter.c ****                 ptrFilterHistObj.ptrProx->proxChannel[freqChannel].medHistory[0u];
1097:Generated_Source\PSoC6/CapSense_Filter.c ****                 ptrFilterHistObj.ptrProx->proxChannel[freqChannel].medHistory[0u] = ptrSensorObj->r
1098:Generated_Source\PSoC6/CapSense_Filter.c ****                 ptrSensorObj->raw[freqChannel] = CY_LO16(temp);
1099:Generated_Source\PSoC6/CapSense_Filter.c ****             #endif /* (CapSense_PROXIMITY_SENSOR_EN) */
1100:Generated_Source\PSoC6/CapSense_Filter.c ****         }
1101:Generated_Source\PSoC6/CapSense_Filter.c ****     }
1102:Generated_Source\PSoC6/CapSense_Filter.c **** }
1103:Generated_Source\PSoC6/CapSense_Filter.c **** #endif /* (CapSense_REGULAR_RC_MEDIAN_FILTER_EN || CapSense_PROX_RC_MEDIAN_FILTER_EN) */
1104:Generated_Source\PSoC6/CapSense_Filter.c **** 
1105:Generated_Source\PSoC6/CapSense_Filter.c **** 
1106:Generated_Source\PSoC6/CapSense_Filter.c **** #if (CapSense_REGULAR_RC_AVERAGE_FILTER_EN || CapSense_PROX_RC_AVERAGE_FILTER_EN)
1107:Generated_Source\PSoC6/CapSense_Filter.c **** 
1108:Generated_Source\PSoC6/CapSense_Filter.c **** /*******************************************************************************
1109:Generated_Source\PSoC6/CapSense_Filter.c **** * Function Name: CapSense_InitializeAverage
1110:Generated_Source\PSoC6/CapSense_Filter.c **** ****************************************************************************//**
1111:Generated_Source\PSoC6/CapSense_Filter.c **** *
1112:Generated_Source\PSoC6/CapSense_Filter.c **** * \brief    Initializes the average filter history.
1113:Generated_Source\PSoC6/CapSense_Filter.c **** *
1114:Generated_Source\PSoC6/CapSense_Filter.c **** * \details  Initializes the average filter history.
1115:Generated_Source\PSoC6/CapSense_Filter.c **** *
1116:Generated_Source\PSoC6/CapSense_Filter.c **** * \param    widgetId Specifies the ID number of the widget.
1117:Generated_Source\PSoC6/CapSense_Filter.c **** * \param    sensorId Specifies the ID number of the sensor in the widget.
1118:Generated_Source\PSoC6/CapSense_Filter.c **** *
1119:Generated_Source\PSoC6/CapSense_Filter.c **** *******************************************************************************/
1120:Generated_Source\PSoC6/CapSense_Filter.c **** void CapSense_InitializeAverage(uint32 widgetId, uint32 sensorId)
1121:Generated_Source\PSoC6/CapSense_Filter.c **** {
1122:Generated_Source\PSoC6/CapSense_Filter.c ****     CapSense_FLASH_WD_STRUCT const *ptrWidget = &CapSense_dsFlash.wdgtArray[widgetId];
1123:Generated_Source\PSoC6/CapSense_Filter.c ****     CapSense_RAM_SNS_STRUCT *ptrSensor = NULL;
1124:Generated_Source\PSoC6/CapSense_Filter.c ****     CapSense_PTR_FILTER_VARIANT ptrFilterHistObj;
1125:Generated_Source\PSoC6/CapSense_Filter.c **** 
1126:Generated_Source\PSoC6/CapSense_Filter.c ****     /* Find pointer to specified sensor object */
1127:Generated_Source\PSoC6/CapSense_Filter.c ****     ptrSensor = ptrWidget->ptr2SnsRam;
1128:Generated_Source\PSoC6/CapSense_Filter.c ****     ptrSensor = &ptrSensor[sensorId];
1129:Generated_Source\PSoC6/CapSense_Filter.c **** 
1130:Generated_Source\PSoC6/CapSense_Filter.c ****     /* Find pointer to specified filter sensor object */
1131:Generated_Source\PSoC6/CapSense_Filter.c ****     ptrFilterHistObj.ptr = ptrWidget->ptr2FltrHistory;
1132:Generated_Source\PSoC6/CapSense_Filter.c **** 
ARM GAS  C:\Users\codyg\AppData\Local\Temp\ccRbtLKH.s 			page 31


1133:Generated_Source\PSoC6/CapSense_Filter.c ****     if ((CapSense_WD_TYPE_ENUM)ptrWidget->wdgtType != CapSense_WD_PROXIMITY_E)
1134:Generated_Source\PSoC6/CapSense_Filter.c ****     {
1135:Generated_Source\PSoC6/CapSense_Filter.c ****         #if (CapSense_REGULAR_SENSOR_EN)
1136:Generated_Source\PSoC6/CapSense_Filter.c ****             ptrFilterHistObj.ptrRegular = &ptrFilterHistObj.ptrRegular[sensorId];
1137:Generated_Source\PSoC6/CapSense_Filter.c ****         #endif /* (CapSense_REGULAR_SENSOR_EN) */
1138:Generated_Source\PSoC6/CapSense_Filter.c ****     }
1139:Generated_Source\PSoC6/CapSense_Filter.c ****     else
1140:Generated_Source\PSoC6/CapSense_Filter.c ****     {
1141:Generated_Source\PSoC6/CapSense_Filter.c ****         #if (CapSense_PROXIMITY_SENSOR_EN)
1142:Generated_Source\PSoC6/CapSense_Filter.c ****             ptrFilterHistObj.ptrProx = &ptrFilterHistObj.ptrProx[sensorId];
1143:Generated_Source\PSoC6/CapSense_Filter.c ****         #endif /* (CapSense_PROXIMITY_SENSOR_EN) */
1144:Generated_Source\PSoC6/CapSense_Filter.c ****     }
1145:Generated_Source\PSoC6/CapSense_Filter.c **** 
1146:Generated_Source\PSoC6/CapSense_Filter.c ****     CapSense_InitializeAverageInternal(ptrFilterHistObj, ptrSensor, (uint32)ptrWidget->wdgtType);
1147:Generated_Source\PSoC6/CapSense_Filter.c **** }
1148:Generated_Source\PSoC6/CapSense_Filter.c **** 
1149:Generated_Source\PSoC6/CapSense_Filter.c **** 
1150:Generated_Source\PSoC6/CapSense_Filter.c **** /*******************************************************************************
1151:Generated_Source\PSoC6/CapSense_Filter.c **** * Function Name: CapSense_RunAverage
1152:Generated_Source\PSoC6/CapSense_Filter.c **** ****************************************************************************//**
1153:Generated_Source\PSoC6/CapSense_Filter.c **** *
1154:Generated_Source\PSoC6/CapSense_Filter.c **** * \brief    Executes the average filter algorithm on a sensor indicated by an input
1155:Generated_Source\PSoC6/CapSense_Filter.c **** *           parameter.
1156:Generated_Source\PSoC6/CapSense_Filter.c **** *
1157:Generated_Source\PSoC6/CapSense_Filter.c **** * \details  Executes the average filter algorithm on a sensor indicated by an input
1158:Generated_Source\PSoC6/CapSense_Filter.c **** *           parameter.
1159:Generated_Source\PSoC6/CapSense_Filter.c **** *
1160:Generated_Source\PSoC6/CapSense_Filter.c **** * \param    widgetId Specifies the ID number of the widget.
1161:Generated_Source\PSoC6/CapSense_Filter.c **** * \param    sensorId Specifies the ID number of the sensor in the widget.
1162:Generated_Source\PSoC6/CapSense_Filter.c **** *
1163:Generated_Source\PSoC6/CapSense_Filter.c **** *******************************************************************************/
1164:Generated_Source\PSoC6/CapSense_Filter.c **** void CapSense_RunAverage(uint32 widgetId, uint32 sensorId)
1165:Generated_Source\PSoC6/CapSense_Filter.c **** {
1166:Generated_Source\PSoC6/CapSense_Filter.c ****     CapSense_FLASH_WD_STRUCT const *ptrWidget = &CapSense_dsFlash.wdgtArray[widgetId];
1167:Generated_Source\PSoC6/CapSense_Filter.c ****     CapSense_RAM_SNS_STRUCT *ptrSensor = NULL;
1168:Generated_Source\PSoC6/CapSense_Filter.c ****     CapSense_PTR_FILTER_VARIANT ptrFilterHistObj;
1169:Generated_Source\PSoC6/CapSense_Filter.c **** 
1170:Generated_Source\PSoC6/CapSense_Filter.c ****     /* Find pointer to specified sensor object */
1171:Generated_Source\PSoC6/CapSense_Filter.c ****     ptrSensor = ptrWidget->ptr2SnsRam;
1172:Generated_Source\PSoC6/CapSense_Filter.c ****     ptrSensor = &ptrSensor[sensorId];
1173:Generated_Source\PSoC6/CapSense_Filter.c **** 
1174:Generated_Source\PSoC6/CapSense_Filter.c ****     /* Find pointer to specified filter sensor object */
1175:Generated_Source\PSoC6/CapSense_Filter.c ****     ptrFilterHistObj.ptr = ptrWidget->ptr2FltrHistory;
1176:Generated_Source\PSoC6/CapSense_Filter.c **** 
1177:Generated_Source\PSoC6/CapSense_Filter.c ****     if ((CapSense_WD_TYPE_ENUM)ptrWidget->wdgtType != CapSense_WD_PROXIMITY_E)
1178:Generated_Source\PSoC6/CapSense_Filter.c ****     {
1179:Generated_Source\PSoC6/CapSense_Filter.c ****         #if (CapSense_REGULAR_SENSOR_EN)
1180:Generated_Source\PSoC6/CapSense_Filter.c ****             ptrFilterHistObj.ptrRegular = &ptrFilterHistObj.ptrRegular[sensorId];
1181:Generated_Source\PSoC6/CapSense_Filter.c ****         #endif /* (CapSense_REGULAR_SENSOR_EN) */
1182:Generated_Source\PSoC6/CapSense_Filter.c ****     }
1183:Generated_Source\PSoC6/CapSense_Filter.c ****     else
1184:Generated_Source\PSoC6/CapSense_Filter.c ****     {
1185:Generated_Source\PSoC6/CapSense_Filter.c ****         #if (CapSense_PROXIMITY_SENSOR_EN)
1186:Generated_Source\PSoC6/CapSense_Filter.c ****             ptrFilterHistObj.ptrProx = &ptrFilterHistObj.ptrProx[sensorId];
1187:Generated_Source\PSoC6/CapSense_Filter.c ****         #endif /* (CapSense_PROXIMITY_SENSOR_EN) */
1188:Generated_Source\PSoC6/CapSense_Filter.c ****     }
1189:Generated_Source\PSoC6/CapSense_Filter.c **** 
ARM GAS  C:\Users\codyg\AppData\Local\Temp\ccRbtLKH.s 			page 32


1190:Generated_Source\PSoC6/CapSense_Filter.c ****     CapSense_RunAverageInternal(ptrFilterHistObj, ptrSensor, (uint32)ptrWidget->wdgtType);
1191:Generated_Source\PSoC6/CapSense_Filter.c **** }
1192:Generated_Source\PSoC6/CapSense_Filter.c **** 
1193:Generated_Source\PSoC6/CapSense_Filter.c **** 
1194:Generated_Source\PSoC6/CapSense_Filter.c **** /*******************************************************************************
1195:Generated_Source\PSoC6/CapSense_Filter.c **** * Function Name: CapSense_InitializeAverageInternal
1196:Generated_Source\PSoC6/CapSense_Filter.c **** ****************************************************************************//**
1197:Generated_Source\PSoC6/CapSense_Filter.c **** *
1198:Generated_Source\PSoC6/CapSense_Filter.c **** * \brief    Initializes the average filter.
1199:Generated_Source\PSoC6/CapSense_Filter.c **** *
1200:Generated_Source\PSoC6/CapSense_Filter.c **** * \details  Initializes the average filter.
1201:Generated_Source\PSoC6/CapSense_Filter.c **** *
1202:Generated_Source\PSoC6/CapSense_Filter.c **** * \param    ptrFilterHistObj The pointer to the filter RAM object of the sensor.
1203:Generated_Source\PSoC6/CapSense_Filter.c **** * \param    ptrSensorObj     The pointer to the sensor RAM object of the sensor.
1204:Generated_Source\PSoC6/CapSense_Filter.c **** * \param    wdType           Specifies the type of a widget.
1205:Generated_Source\PSoC6/CapSense_Filter.c **** *
1206:Generated_Source\PSoC6/CapSense_Filter.c **** *******************************************************************************/
1207:Generated_Source\PSoC6/CapSense_Filter.c **** void CapSense_InitializeAverageInternal(CapSense_PTR_FILTER_VARIANT ptrFilterHistObj,\
1208:Generated_Source\PSoC6/CapSense_Filter.c ****                                                   CapSense_RAM_SNS_STRUCT *ptrSensorObj, uint32 wdT
1209:Generated_Source\PSoC6/CapSense_Filter.c **** {
 535              		.loc 1 1209 0
 536              		.cfi_startproc
 537              		@ args = 0, pretend = 0, frame = 0
 538              		@ frame_needed = 0, uses_anonymous_args = 0
 539              	.LVL69:
 540 0000 F0B5     		push	{r4, r5, r6, r7, lr}
 541              		.cfi_def_cfa_offset 20
 542              		.cfi_offset 4, -20
 543              		.cfi_offset 5, -16
 544              		.cfi_offset 6, -12
 545              		.cfi_offset 7, -8
 546              		.cfi_offset 14, -4
 547              	.LVL70:
1210:Generated_Source\PSoC6/CapSense_Filter.c ****     uint32 freqChannel;
1211:Generated_Source\PSoC6/CapSense_Filter.c **** 
1212:Generated_Source\PSoC6/CapSense_Filter.c ****     for(freqChannel = CapSense_NUM_SCAN_FREQS; freqChannel-- > 0u;)
 548              		.loc 1 1212 0
 549 0002 0123     		movs	r3, #1
 550 0004 0EE0     		b	.L34
 551              	.LVL71:
 552              	.L36:
1213:Generated_Source\PSoC6/CapSense_Filter.c ****     {
1214:Generated_Source\PSoC6/CapSense_Filter.c ****         if ((CapSense_WD_TYPE_ENUM)wdType != CapSense_WD_PROXIMITY_E)
 553              		.loc 1 1214 0
 554 0006 FF23     		movs	r3, #255
 555 0008 1340     		ands	r3, r2
 556 000a 062B     		cmp	r3, #6
 557 000c 09D1     		bne	.L35
1215:Generated_Source\PSoC6/CapSense_Filter.c ****         {
1216:Generated_Source\PSoC6/CapSense_Filter.c ****             #if (CapSense_REGULAR_SENSOR_EN && CapSense_REGULAR_RC_AVERAGE_FILTER_EN)
1217:Generated_Source\PSoC6/CapSense_Filter.c ****                 ptrFilterHistObj.ptrRegular->regularChannel[freqChannel].avgHistory[0] = ptrSensorO
1218:Generated_Source\PSoC6/CapSense_Filter.c ****                 #if (CapSense_REGULAR_AVERAGE_LEN == CapSense_AVERAGE_FILTER_LEN_4)
1219:Generated_Source\PSoC6/CapSense_Filter.c ****                     ptrFilterHistObj.ptrRegular->regularChannel[freqChannel].avgHistory[1u] = ptrSe
1220:Generated_Source\PSoC6/CapSense_Filter.c ****                     ptrFilterHistObj.ptrRegular->regularChannel[freqChannel].avgHistory[2u] = ptrSe
1221:Generated_Source\PSoC6/CapSense_Filter.c ****                 #endif /* CapSense_REGULAR_AVERAGE_LEN == CapSense_AVERAGE_FILTER_LEN_4 */
1222:Generated_Source\PSoC6/CapSense_Filter.c ****             #endif /* (CapSense_REGULAR_SENSOR_EN) */
1223:Generated_Source\PSoC6/CapSense_Filter.c ****         }
ARM GAS  C:\Users\codyg\AppData\Local\Temp\ccRbtLKH.s 			page 33


1224:Generated_Source\PSoC6/CapSense_Filter.c ****         else
1225:Generated_Source\PSoC6/CapSense_Filter.c ****         {
1226:Generated_Source\PSoC6/CapSense_Filter.c ****             #if (CapSense_PROXIMITY_SENSOR_EN && CapSense_PROX_RC_AVERAGE_FILTER_EN)
1227:Generated_Source\PSoC6/CapSense_Filter.c ****                 ptrFilterHistObj.ptrProx->proxChannel[freqChannel].avgHistory[0] = ptrSensorObj->ra
 558              		.loc 1 1227 0
 559 000e 6500     		lsls	r5, r4, #1
 560 0010 6F5A     		ldrh	r7, [r5, r1]
 561 0012 2E19     		adds	r6, r5, r4
 562 0014 B300     		lsls	r3, r6, #2
 563 0016 C318     		adds	r3, r0, r3
 564 0018 DF80     		strh	r7, [r3, #6]
1228:Generated_Source\PSoC6/CapSense_Filter.c ****                     #if (CapSense_PROX_AVERAGE_LEN == CapSense_AVERAGE_FILTER_LEN_4)
1229:Generated_Source\PSoC6/CapSense_Filter.c ****                         ptrFilterHistObj.ptrProx->proxChannel[freqChannel].avgHistory[1u] = ptrSens
 565              		.loc 1 1229 0
 566 001a 6E5A     		ldrh	r6, [r5, r1]
 567 001c 1E81     		strh	r6, [r3, #8]
1230:Generated_Source\PSoC6/CapSense_Filter.c ****                         ptrFilterHistObj.ptrProx->proxChannel[freqChannel].avgHistory[2u] = ptrSens
 568              		.loc 1 1230 0
 569 001e 6D5A     		ldrh	r5, [r5, r1]
 570 0020 5D81     		strh	r5, [r3, #10]
 571              	.L35:
1209:Generated_Source\PSoC6/CapSense_Filter.c ****     uint32 freqChannel;
 572              		.loc 1 1209 0 discriminator 1
 573 0022 2300     		movs	r3, r4
 574              	.LVL72:
 575              	.L34:
1212:Generated_Source\PSoC6/CapSense_Filter.c ****     {
 576              		.loc 1 1212 0 discriminator 1
 577 0024 5C1E     		subs	r4, r3, #1
 578              	.LVL73:
 579 0026 002B     		cmp	r3, #0
 580 0028 EDD1     		bne	.L36
1231:Generated_Source\PSoC6/CapSense_Filter.c ****                     #endif /* CapSense_REGULAR_AVERAGE_LEN == CapSense_AVERAGE_FILTER_LEN_4 */
1232:Generated_Source\PSoC6/CapSense_Filter.c ****             #endif /* (CapSense_PROXIMITY_SENSOR_EN) */
1233:Generated_Source\PSoC6/CapSense_Filter.c ****         }
1234:Generated_Source\PSoC6/CapSense_Filter.c ****     }
1235:Generated_Source\PSoC6/CapSense_Filter.c **** }
 581              		.loc 1 1235 0
 582              		@ sp needed
 583              	.LVL74:
 584 002a F0BD     		pop	{r4, r5, r6, r7, pc}
 585              		.cfi_endproc
 586              	.LFE58:
 587              		.size	CapSense_InitializeAverageInternal, .-CapSense_InitializeAverageInternal
 588              		.section	.text.CapSense_InitializeWidgetFilter,"ax",%progbits
 589              		.align	2
 590              		.global	CapSense_InitializeWidgetFilter
 591              		.code	16
 592              		.thumb_func
 593              		.type	CapSense_InitializeWidgetFilter, %function
 594              	CapSense_InitializeWidgetFilter:
 595              	.LFB47:
 636:Generated_Source\PSoC6/CapSense_Filter.c ****     uint32 sensorId;
 596              		.loc 1 636 0
 597              		.cfi_startproc
 598              		@ args = 0, pretend = 0, frame = 0
 599              		@ frame_needed = 0, uses_anonymous_args = 0
ARM GAS  C:\Users\codyg\AppData\Local\Temp\ccRbtLKH.s 			page 34


 600              	.LVL75:
 601 0000 F0B5     		push	{r4, r5, r6, r7, lr}
 602              		.cfi_def_cfa_offset 20
 603              		.cfi_offset 4, -20
 604              		.cfi_offset 5, -16
 605              		.cfi_offset 6, -12
 606              		.cfi_offset 7, -8
 607              		.cfi_offset 14, -4
 608 0002 4746     		mov	r7, r8
 609 0004 80B4     		push	{r7}
 610              		.cfi_def_cfa_offset 24
 611              		.cfi_offset 8, -24
 612 0006 8046     		mov	r8, r0
 613              	.LVL76:
 658:Generated_Source\PSoC6/CapSense_Filter.c **** 
 614              		.loc 1 658 0
 615 0008 C200     		lsls	r2, r0, #3
 616 000a 121A     		subs	r2, r2, r0
 617 000c 9300     		lsls	r3, r2, #2
 618 000e 174A     		ldr	r2, .L41
 619 0010 D318     		adds	r3, r2, r3
 620 0012 1B8B     		ldrh	r3, [r3, #24]
 621              	.LVL77:
 660:Generated_Source\PSoC6/CapSense_Filter.c ****     {
 622              		.loc 1 660 0
 623 0014 24E0     		b	.L38
 624              	.LVL78:
 625              	.L40:
 663:Generated_Source\PSoC6/CapSense_Filter.c ****         ptrSensor = &ptrSensor[sensorId];
 626              		.loc 1 663 0
 627 0016 4346     		mov	r3, r8
 628 0018 DA00     		lsls	r2, r3, #3
 629 001a D21A     		subs	r2, r2, r3
 630 001c 9300     		lsls	r3, r2, #2
 631 001e 134A     		ldr	r2, .L41
 632              	.LVL79:
 633 0020 D318     		adds	r3, r2, r3
 634              	.LVL80:
 664:Generated_Source\PSoC6/CapSense_Filter.c **** 
 635              		.loc 1 664 0
 636 0022 BA00     		lsls	r2, r7, #2
 637              	.LVL81:
 638 0024 D219     		adds	r2, r2, r7
 639 0026 5400     		lsls	r4, r2, #1
 640 0028 9A68     		ldr	r2, [r3, #8]
 641 002a 9446     		mov	ip, r2
 642 002c 6444     		add	r4, r4, ip
 643              	.LVL82:
 668:Generated_Source\PSoC6/CapSense_Filter.c ****         #endif
 644              		.loc 1 668 0
 645 002e DA68     		ldr	r2, [r3, #12]
 646 0030 1500     		movs	r5, r2
 647              	.LVL83:
 677:Generated_Source\PSoC6/CapSense_Filter.c ****         {
 648              		.loc 1 677 0
 649 0032 9E7E     		ldrb	r6, [r3, #26]
 650 0034 062E     		cmp	r6, #6
ARM GAS  C:\Users\codyg\AppData\Local\Temp\ccRbtLKH.s 			page 35


 651 0036 03D1     		bne	.L39
 690:Generated_Source\PSoC6/CapSense_Filter.c ****             #endif /* #if (0u != CapSense_PROX_RC_FILTER_EN) */
 652              		.loc 1 690 0
 653 0038 7B00     		lsls	r3, r7, #1
 654 003a DB19     		adds	r3, r3, r7
 655 003c 9D00     		lsls	r5, r3, #2
 656 003e 5519     		adds	r5, r2, r5
 657              	.L39:
 695:Generated_Source\PSoC6/CapSense_Filter.c ****         #endif /* (CapSense_REGULAR_RC_IIR_FILTER_EN || CapSense_PROX_RC_IIR_FILTER_EN) */
 658              		.loc 1 695 0
 659 0040 3200     		movs	r2, r6
 660 0042 2100     		movs	r1, r4
 661              	.LVL84:
 662 0044 2800     		movs	r0, r5
 663 0046 FFF7FEFF 		bl	CapSense_InitializeIIRInternal
 664              	.LVL85:
 699:Generated_Source\PSoC6/CapSense_Filter.c ****         #endif /* (CapSense_REGULAR_RC_MEDIAN_FILTER_EN || CapSense_PROX_RC_MEDIAN_FILTER_EN) */
 665              		.loc 1 699 0
 666 004a 3200     		movs	r2, r6
 667 004c 2100     		movs	r1, r4
 668 004e 2800     		movs	r0, r5
 669 0050 FFF7FEFF 		bl	CapSense_InitializeMedianInternal
 670              	.LVL86:
 703:Generated_Source\PSoC6/CapSense_Filter.c ****         #endif /* (CapSense_REGULAR_RC_AVERAGE_FILTER_EN || CapSense_PROX_RC_AVERAGE_FILTER_EN) */
 671              		.loc 1 703 0
 672 0054 3200     		movs	r2, r6
 673 0056 2100     		movs	r1, r4
 674 0058 2800     		movs	r0, r5
 675 005a FFF7FEFF 		bl	CapSense_InitializeAverageInternal
 676              	.LVL87:
 660:Generated_Source\PSoC6/CapSense_Filter.c ****     {
 677              		.loc 1 660 0
 678 005e 3B00     		movs	r3, r7
 679              	.LVL88:
 680              	.L38:
 660:Generated_Source\PSoC6/CapSense_Filter.c ****     {
 681              		.loc 1 660 0 is_stmt 0 discriminator 1
 682 0060 5F1E     		subs	r7, r3, #1
 683              	.LVL89:
 684 0062 002B     		cmp	r3, #0
 685 0064 D7D1     		bne	.L40
 718:Generated_Source\PSoC6/CapSense_Filter.c **** #endif /* ((CapSense_ENABLE == CapSense_RC_FILTER_EN) || \
 686              		.loc 1 718 0 is_stmt 1
 687              		@ sp needed
 688              	.LVL90:
 689              	.LVL91:
 690              	.LVL92:
 691 0066 04BC     		pop	{r2}
 692 0068 9046     		mov	r8, r2
 693 006a F0BD     		pop	{r4, r5, r6, r7, pc}
 694              	.L42:
 695              		.align	2
 696              	.L41:
 697 006c 00000000 		.word	CapSense_dsFlash
 698              		.cfi_endproc
 699              	.LFE47:
 700              		.size	CapSense_InitializeWidgetFilter, .-CapSense_InitializeWidgetFilter
ARM GAS  C:\Users\codyg\AppData\Local\Temp\ccRbtLKH.s 			page 36


 701              		.section	.text.CapSense_InitializeAllFilters,"ax",%progbits
 702              		.align	2
 703              		.global	CapSense_InitializeAllFilters
 704              		.code	16
 705              		.thumb_func
 706              		.type	CapSense_InitializeAllFilters, %function
 707              	CapSense_InitializeAllFilters:
 708              	.LFB46:
 606:Generated_Source\PSoC6/CapSense_Filter.c ****     uint32 widgetId;
 709              		.loc 1 606 0
 710              		.cfi_startproc
 711              		@ args = 0, pretend = 0, frame = 0
 712              		@ frame_needed = 0, uses_anonymous_args = 0
 713 0000 10B5     		push	{r4, lr}
 714              		.cfi_def_cfa_offset 8
 715              		.cfi_offset 4, -8
 716              		.cfi_offset 14, -4
 717              	.LVL93:
 609:Generated_Source\PSoC6/CapSense_Filter.c ****     {
 718              		.loc 1 609 0
 719 0002 0123     		movs	r3, #1
 720 0004 03E0     		b	.L44
 721              	.LVL94:
 722              	.L45:
 611:Generated_Source\PSoC6/CapSense_Filter.c ****     }
 723              		.loc 1 611 0
 724 0006 2000     		movs	r0, r4
 725 0008 FFF7FEFF 		bl	CapSense_InitializeWidgetFilter
 726              	.LVL95:
 609:Generated_Source\PSoC6/CapSense_Filter.c ****     {
 727              		.loc 1 609 0
 728 000c 2300     		movs	r3, r4
 729              	.LVL96:
 730              	.L44:
 609:Generated_Source\PSoC6/CapSense_Filter.c ****     {
 731              		.loc 1 609 0 is_stmt 0 discriminator 1
 732 000e 5C1E     		subs	r4, r3, #1
 733              	.LVL97:
 734 0010 002B     		cmp	r3, #0
 735 0012 F8D1     		bne	.L45
 613:Generated_Source\PSoC6/CapSense_Filter.c **** 
 736              		.loc 1 613 0 is_stmt 1
 737              		@ sp needed
 738              	.LVL98:
 739 0014 10BD     		pop	{r4, pc}
 740              		.cfi_endproc
 741              	.LFE46:
 742              		.size	CapSense_InitializeAllFilters, .-CapSense_InitializeAllFilters
 743 0016 C046     		.section	.text.CapSense_FtInitialize,"ax",%progbits
 744              		.align	2
 745              		.global	CapSense_FtInitialize
 746              		.code	16
 747              		.thumb_func
 748              		.type	CapSense_FtInitialize, %function
 749              	CapSense_FtInitialize:
 750              	.LFB36:
  64:Generated_Source\PSoC6/CapSense_Filter.c ****     #if ((CapSense_ENABLE == CapSense_RC_FILTER_EN) || \
ARM GAS  C:\Users\codyg\AppData\Local\Temp\ccRbtLKH.s 			page 37


 751              		.loc 1 64 0
 752              		.cfi_startproc
 753              		@ args = 0, pretend = 0, frame = 0
 754              		@ frame_needed = 0, uses_anonymous_args = 0
 755 0000 10B5     		push	{r4, lr}
 756              		.cfi_def_cfa_offset 8
 757              		.cfi_offset 4, -8
 758              		.cfi_offset 14, -4
  67:Generated_Source\PSoC6/CapSense_Filter.c ****     #endif /* ((CapSense_ENABLE == CapSense_RC_FILTER_EN) || \
 759              		.loc 1 67 0
 760 0002 FFF7FEFF 		bl	CapSense_InitializeAllFilters
 761              	.LVL99:
  70:Generated_Source\PSoC6/CapSense_Filter.c **** 
 762              		.loc 1 70 0
 763              		@ sp needed
 764 0006 10BD     		pop	{r4, pc}
 765              		.cfi_endproc
 766              	.LFE36:
 767              		.size	CapSense_FtInitialize, .-CapSense_FtInitialize
 768              		.section	.text.CapSense_InitializeAverage,"ax",%progbits
 769              		.align	2
 770              		.global	CapSense_InitializeAverage
 771              		.code	16
 772              		.thumb_func
 773              		.type	CapSense_InitializeAverage, %function
 774              	CapSense_InitializeAverage:
 775              	.LFB56:
1121:Generated_Source\PSoC6/CapSense_Filter.c ****     CapSense_FLASH_WD_STRUCT const *ptrWidget = &CapSense_dsFlash.wdgtArray[widgetId];
 776              		.loc 1 1121 0
 777              		.cfi_startproc
 778              		@ args = 0, pretend = 0, frame = 0
 779              		@ frame_needed = 0, uses_anonymous_args = 0
 780              	.LVL100:
 781 0000 F8B5     		push	{r3, r4, r5, r6, r7, lr}
 782              		.cfi_def_cfa_offset 24
 783              		.cfi_offset 3, -24
 784              		.cfi_offset 4, -20
 785              		.cfi_offset 5, -16
 786              		.cfi_offset 6, -12
 787              		.cfi_offset 7, -8
 788              		.cfi_offset 14, -4
 789              	.LVL101:
1127:Generated_Source\PSoC6/CapSense_Filter.c ****     ptrSensor = &ptrSensor[sensorId];
 790              		.loc 1 1127 0
 791 0002 0E4E     		ldr	r6, .L49
 792 0004 C300     		lsls	r3, r0, #3
 793 0006 1C1A     		subs	r4, r3, r0
 794 0008 A200     		lsls	r2, r4, #2
 795 000a B218     		adds	r2, r6, r2
 796              	.LVL102:
1128:Generated_Source\PSoC6/CapSense_Filter.c **** 
 797              		.loc 1 1128 0
 798 000c 8C00     		lsls	r4, r1, #2
 799 000e 6418     		adds	r4, r4, r1
 800 0010 6500     		lsls	r5, r4, #1
 801 0012 9468     		ldr	r4, [r2, #8]
 802 0014 A446     		mov	ip, r4
ARM GAS  C:\Users\codyg\AppData\Local\Temp\ccRbtLKH.s 			page 38


 803 0016 6544     		add	r5, r5, ip
 804              	.LVL103:
1131:Generated_Source\PSoC6/CapSense_Filter.c **** 
 805              		.loc 1 1131 0
 806 0018 D768     		ldr	r7, [r2, #12]
 807 001a 3C00     		movs	r4, r7
 808              	.LVL104:
1133:Generated_Source\PSoC6/CapSense_Filter.c ****     {
 809              		.loc 1 1133 0
 810 001c 1B1A     		subs	r3, r3, r0
 811 001e 9A00     		lsls	r2, r3, #2
 812 0020 B218     		adds	r2, r6, r2
 813 0022 927E     		ldrb	r2, [r2, #26]
 814 0024 062A     		cmp	r2, #6
 815 0026 03D1     		bne	.L48
1142:Generated_Source\PSoC6/CapSense_Filter.c ****         #endif /* (CapSense_PROXIMITY_SENSOR_EN) */
 816              		.loc 1 1142 0
 817 0028 4B00     		lsls	r3, r1, #1
 818 002a 5B18     		adds	r3, r3, r1
 819 002c 9C00     		lsls	r4, r3, #2
 820 002e 3C19     		adds	r4, r7, r4
 821              	.L48:
1146:Generated_Source\PSoC6/CapSense_Filter.c **** }
 822              		.loc 1 1146 0
 823 0030 2900     		movs	r1, r5
 824              	.LVL105:
 825 0032 2000     		movs	r0, r4
 826              	.LVL106:
 827 0034 FFF7FEFF 		bl	CapSense_InitializeAverageInternal
 828              	.LVL107:
1147:Generated_Source\PSoC6/CapSense_Filter.c **** 
 829              		.loc 1 1147 0
 830              		@ sp needed
 831              	.LVL108:
 832              	.LVL109:
 833              	.LVL110:
 834 0038 F8BD     		pop	{r3, r4, r5, r6, r7, pc}
 835              	.L50:
 836 003a C046     		.align	2
 837              	.L49:
 838 003c 00000000 		.word	CapSense_dsFlash
 839              		.cfi_endproc
 840              	.LFE56:
 841              		.size	CapSense_InitializeAverage, .-CapSense_InitializeAverage
 842              		.section	.text.CapSense_RunAverageInternal,"ax",%progbits
 843              		.align	2
 844              		.global	CapSense_RunAverageInternal
 845              		.code	16
 846              		.thumb_func
 847              		.type	CapSense_RunAverageInternal, %function
 848              	CapSense_RunAverageInternal:
 849              	.LFB59:
1236:Generated_Source\PSoC6/CapSense_Filter.c **** 
1237:Generated_Source\PSoC6/CapSense_Filter.c **** 
1238:Generated_Source\PSoC6/CapSense_Filter.c **** /*******************************************************************************
1239:Generated_Source\PSoC6/CapSense_Filter.c **** * Function Name: CapSense_RunAverageInternal
1240:Generated_Source\PSoC6/CapSense_Filter.c **** ****************************************************************************//**
ARM GAS  C:\Users\codyg\AppData\Local\Temp\ccRbtLKH.s 			page 39


1241:Generated_Source\PSoC6/CapSense_Filter.c **** *
1242:Generated_Source\PSoC6/CapSense_Filter.c **** * \brief    Runs the average filter.
1243:Generated_Source\PSoC6/CapSense_Filter.c **** *
1244:Generated_Source\PSoC6/CapSense_Filter.c **** * \details  Runs the average filter.
1245:Generated_Source\PSoC6/CapSense_Filter.c **** *
1246:Generated_Source\PSoC6/CapSense_Filter.c **** * \param    ptrFilterHistObj The pointer to the filter RAM object of the sensor.
1247:Generated_Source\PSoC6/CapSense_Filter.c **** * \param    ptrSensorObj     The pointer to the sensor RAM object of the sensor.
1248:Generated_Source\PSoC6/CapSense_Filter.c **** * \param    wdType           Specifies the type of a widget.
1249:Generated_Source\PSoC6/CapSense_Filter.c **** *
1250:Generated_Source\PSoC6/CapSense_Filter.c **** *******************************************************************************/
1251:Generated_Source\PSoC6/CapSense_Filter.c **** void CapSense_RunAverageInternal(CapSense_PTR_FILTER_VARIANT ptrFilterHistObj,\
1252:Generated_Source\PSoC6/CapSense_Filter.c ****                                            CapSense_RAM_SNS_STRUCT *ptrSensorObj, uint32 wdType)
1253:Generated_Source\PSoC6/CapSense_Filter.c **** {
 850              		.loc 1 1253 0
 851              		.cfi_startproc
 852              		@ args = 0, pretend = 0, frame = 0
 853              		@ frame_needed = 0, uses_anonymous_args = 0
 854              	.LVL111:
 855 0000 F0B5     		push	{r4, r5, r6, r7, lr}
 856              		.cfi_def_cfa_offset 20
 857              		.cfi_offset 4, -20
 858              		.cfi_offset 5, -16
 859              		.cfi_offset 6, -12
 860              		.cfi_offset 7, -8
 861              		.cfi_offset 14, -4
 862              	.LVL112:
1254:Generated_Source\PSoC6/CapSense_Filter.c ****     uint32 freqChannel;
1255:Generated_Source\PSoC6/CapSense_Filter.c ****     uint32 temp;
1256:Generated_Source\PSoC6/CapSense_Filter.c **** 
1257:Generated_Source\PSoC6/CapSense_Filter.c ****     for(freqChannel = CapSense_NUM_SCAN_FREQS; freqChannel-- > 0u;)
 863              		.loc 1 1257 0
 864 0002 0123     		movs	r3, #1
 865 0004 19E0     		b	.L52
 866              	.LVL113:
 867              	.L54:
1258:Generated_Source\PSoC6/CapSense_Filter.c ****     {
1259:Generated_Source\PSoC6/CapSense_Filter.c ****         if ((CapSense_WD_TYPE_ENUM)wdType != CapSense_WD_PROXIMITY_E)
 868              		.loc 1 1259 0
 869 0006 FF23     		movs	r3, #255
 870 0008 1340     		ands	r3, r2
 871 000a 062B     		cmp	r3, #6
 872 000c 14D1     		bne	.L53
1260:Generated_Source\PSoC6/CapSense_Filter.c ****         {
1261:Generated_Source\PSoC6/CapSense_Filter.c ****             #if (CapSense_REGULAR_SENSOR_EN && CapSense_REGULAR_RC_AVERAGE_FILTER_EN)
1262:Generated_Source\PSoC6/CapSense_Filter.c ****                 #if (CapSense_REGULAR_AVERAGE_LEN == CapSense_AVERAGE_FILTER_LEN_2)
1263:Generated_Source\PSoC6/CapSense_Filter.c ****                     temp = ((uint32)ptrSensorObj->raw[freqChannel] +
1264:Generated_Source\PSoC6/CapSense_Filter.c ****                             (uint32)ptrFilterHistObj.ptrRegular->regularChannel[freqChannel].avgHis
1265:Generated_Source\PSoC6/CapSense_Filter.c ****                     ptrFilterHistObj.ptrRegular->regularChannel[freqChannel].avgHistory[0] = ptrSen
1266:Generated_Source\PSoC6/CapSense_Filter.c ****                     ptrSensorObj->raw[freqChannel] = CY_LO16(temp);
1267:Generated_Source\PSoC6/CapSense_Filter.c ****                 #else
1268:Generated_Source\PSoC6/CapSense_Filter.c ****                     temp = ((uint32)ptrSensorObj->raw[freqChannel] +
1269:Generated_Source\PSoC6/CapSense_Filter.c ****                             (uint32)ptrFilterHistObj.ptrRegular->regularChannel[freqChannel].avgHis
1270:Generated_Source\PSoC6/CapSense_Filter.c ****                             (uint32)ptrFilterHistObj.ptrRegular->regularChannel[freqChannel].avgHis
1271:Generated_Source\PSoC6/CapSense_Filter.c ****                             (uint32)ptrFilterHistObj.ptrRegular->regularChannel[freqChannel].avgHis
1272:Generated_Source\PSoC6/CapSense_Filter.c **** 
1273:Generated_Source\PSoC6/CapSense_Filter.c ****                     ptrFilterHistObj.ptrRegular->regularChannel[freqChannel].avgHistory[2u] =
1274:Generated_Source\PSoC6/CapSense_Filter.c ****                     ptrFilterHistObj.ptrRegular->regularChannel[freqChannel].avgHistory[1u];
ARM GAS  C:\Users\codyg\AppData\Local\Temp\ccRbtLKH.s 			page 40


1275:Generated_Source\PSoC6/CapSense_Filter.c ****                     ptrFilterHistObj.ptrRegular->regularChannel[freqChannel].avgHistory[1u] =
1276:Generated_Source\PSoC6/CapSense_Filter.c ****                     ptrFilterHistObj.ptrRegular->regularChannel[freqChannel].avgHistory[0];
1277:Generated_Source\PSoC6/CapSense_Filter.c ****                     ptrFilterHistObj.ptrRegular->regularChannel[freqChannel].avgHistory[0] = ptrSen
1278:Generated_Source\PSoC6/CapSense_Filter.c ****                     ptrSensorObj->raw[freqChannel] = CY_LO16(temp);
1279:Generated_Source\PSoC6/CapSense_Filter.c ****                 #endif /* CapSense_REGULAR_AVERAGE_LEN == CapSense_AVERAGE_FILTER_LEN_4 */
1280:Generated_Source\PSoC6/CapSense_Filter.c ****             #endif /* (CapSense_REGULAR_SENSOR_EN) */
1281:Generated_Source\PSoC6/CapSense_Filter.c ****         }
1282:Generated_Source\PSoC6/CapSense_Filter.c ****         else
1283:Generated_Source\PSoC6/CapSense_Filter.c ****         {
1284:Generated_Source\PSoC6/CapSense_Filter.c ****             #if (CapSense_PROXIMITY_SENSOR_EN && CapSense_PROX_RC_AVERAGE_FILTER_EN)
1285:Generated_Source\PSoC6/CapSense_Filter.c ****                 #if (CapSense_PROX_AVERAGE_LEN == CapSense_AVERAGE_FILTER_LEN_2)
1286:Generated_Source\PSoC6/CapSense_Filter.c ****                     temp = ((uint32)ptrSensorObj->raw[freqChannel] +
1287:Generated_Source\PSoC6/CapSense_Filter.c ****                             (uint32)ptrFilterHistObj.ptrProx->proxChannel[freqChannel].avgHistory[0
1288:Generated_Source\PSoC6/CapSense_Filter.c ****                     ptrFilterHistObj.ptrProx->proxChannel[freqChannel].avgHistory[0] = ptrSensorObj
1289:Generated_Source\PSoC6/CapSense_Filter.c ****                     ptrSensorObj->raw[freqChannel] = CY_LO16(temp);
1290:Generated_Source\PSoC6/CapSense_Filter.c ****                 #else
1291:Generated_Source\PSoC6/CapSense_Filter.c ****                     temp = ((uint32)ptrSensorObj->raw[freqChannel] +
 873              		.loc 1 1291 0
 874 000e 6700     		lsls	r7, r4, #1
 875 0010 7B5A     		ldrh	r3, [r7, r1]
 876 0012 9C46     		mov	ip, r3
1292:Generated_Source\PSoC6/CapSense_Filter.c ****                             (uint32)ptrFilterHistObj.ptrProx->proxChannel[freqChannel].avgHistory[0
 877              		.loc 1 1292 0
 878 0014 3E19     		adds	r6, r7, r4
 879 0016 B300     		lsls	r3, r6, #2
 880 0018 C318     		adds	r3, r0, r3
 881 001a DD88     		ldrh	r5, [r3, #6]
1291:Generated_Source\PSoC6/CapSense_Filter.c ****                             (uint32)ptrFilterHistObj.ptrProx->proxChannel[freqChannel].avgHistory[0
 882              		.loc 1 1291 0
 883 001c 6544     		add	r5, r5, ip
1293:Generated_Source\PSoC6/CapSense_Filter.c ****                             (uint32)ptrFilterHistObj.ptrProx->proxChannel[freqChannel].avgHistory[1
 884              		.loc 1 1293 0
 885 001e 1E89     		ldrh	r6, [r3, #8]
 886 0020 B446     		mov	ip, r6
1292:Generated_Source\PSoC6/CapSense_Filter.c ****                             (uint32)ptrFilterHistObj.ptrProx->proxChannel[freqChannel].avgHistory[0
 887              		.loc 1 1292 0
 888 0022 6544     		add	r5, r5, ip
1294:Generated_Source\PSoC6/CapSense_Filter.c ****                             (uint32)ptrFilterHistObj.ptrProx->proxChannel[freqChannel].avgHistory[2
 889              		.loc 1 1294 0
 890 0024 5E89     		ldrh	r6, [r3, #10]
1293:Generated_Source\PSoC6/CapSense_Filter.c ****                             (uint32)ptrFilterHistObj.ptrProx->proxChannel[freqChannel].avgHistory[1
 891              		.loc 1 1293 0
 892 0026 AD19     		adds	r5, r5, r6
1291:Generated_Source\PSoC6/CapSense_Filter.c ****                             (uint32)ptrFilterHistObj.ptrProx->proxChannel[freqChannel].avgHistory[0
 893              		.loc 1 1291 0
 894 0028 AD08     		lsrs	r5, r5, #2
 895              	.LVL114:
1295:Generated_Source\PSoC6/CapSense_Filter.c **** 
1296:Generated_Source\PSoC6/CapSense_Filter.c ****                     ptrFilterHistObj.ptrProx->proxChannel[freqChannel].avgHistory[2u] =
 896              		.loc 1 1296 0
 897 002a 6646     		mov	r6, ip
 898 002c 5E81     		strh	r6, [r3, #10]
1297:Generated_Source\PSoC6/CapSense_Filter.c ****                     ptrFilterHistObj.ptrProx->proxChannel[freqChannel].avgHistory[1u];
1298:Generated_Source\PSoC6/CapSense_Filter.c ****                     ptrFilterHistObj.ptrProx->proxChannel[freqChannel].avgHistory[1u] =
1299:Generated_Source\PSoC6/CapSense_Filter.c ****                     ptrFilterHistObj.ptrProx->proxChannel[freqChannel].avgHistory[0];
 899              		.loc 1 1299 0
 900 002e DE88     		ldrh	r6, [r3, #6]
ARM GAS  C:\Users\codyg\AppData\Local\Temp\ccRbtLKH.s 			page 41


1298:Generated_Source\PSoC6/CapSense_Filter.c ****                     ptrFilterHistObj.ptrProx->proxChannel[freqChannel].avgHistory[0];
 901              		.loc 1 1298 0
 902 0030 1E81     		strh	r6, [r3, #8]
1300:Generated_Source\PSoC6/CapSense_Filter.c ****                     ptrFilterHistObj.ptrProx->proxChannel[freqChannel].avgHistory[0] = ptrSensorObj
 903              		.loc 1 1300 0
 904 0032 7E5A     		ldrh	r6, [r7, r1]
 905 0034 DE80     		strh	r6, [r3, #6]
1301:Generated_Source\PSoC6/CapSense_Filter.c ****                     ptrSensorObj->raw[freqChannel] = CY_LO16(temp);
 906              		.loc 1 1301 0
 907 0036 CD53     		strh	r5, [r1, r7]
 908              	.LVL115:
 909              	.L53:
1253:Generated_Source\PSoC6/CapSense_Filter.c ****     uint32 freqChannel;
 910              		.loc 1 1253 0 discriminator 1
 911 0038 2300     		movs	r3, r4
 912              	.LVL116:
 913              	.L52:
1257:Generated_Source\PSoC6/CapSense_Filter.c ****     {
 914              		.loc 1 1257 0 discriminator 1
 915 003a 5C1E     		subs	r4, r3, #1
 916              	.LVL117:
 917 003c 002B     		cmp	r3, #0
 918 003e E2D1     		bne	.L54
1302:Generated_Source\PSoC6/CapSense_Filter.c ****                 #endif /* CapSense_PROX_AVERAGE_LEN == CapSense_AVERAGE_FILTER_LEN_4 */
1303:Generated_Source\PSoC6/CapSense_Filter.c ****             #endif /* (CapSense_PROXIMITY_SENSOR_EN) */
1304:Generated_Source\PSoC6/CapSense_Filter.c ****         }
1305:Generated_Source\PSoC6/CapSense_Filter.c ****     }
1306:Generated_Source\PSoC6/CapSense_Filter.c **** }
 919              		.loc 1 1306 0
 920              		@ sp needed
 921              	.LVL118:
 922 0040 F0BD     		pop	{r4, r5, r6, r7, pc}
 923              		.cfi_endproc
 924              	.LFE59:
 925              		.size	CapSense_RunAverageInternal, .-CapSense_RunAverageInternal
 926 0042 C046     		.section	.text.CapSense_RunAverage,"ax",%progbits
 927              		.align	2
 928              		.global	CapSense_RunAverage
 929              		.code	16
 930              		.thumb_func
 931              		.type	CapSense_RunAverage, %function
 932              	CapSense_RunAverage:
 933              	.LFB57:
1165:Generated_Source\PSoC6/CapSense_Filter.c ****     CapSense_FLASH_WD_STRUCT const *ptrWidget = &CapSense_dsFlash.wdgtArray[widgetId];
 934              		.loc 1 1165 0
 935              		.cfi_startproc
 936              		@ args = 0, pretend = 0, frame = 0
 937              		@ frame_needed = 0, uses_anonymous_args = 0
 938              	.LVL119:
 939 0000 F8B5     		push	{r3, r4, r5, r6, r7, lr}
 940              		.cfi_def_cfa_offset 24
 941              		.cfi_offset 3, -24
 942              		.cfi_offset 4, -20
 943              		.cfi_offset 5, -16
 944              		.cfi_offset 6, -12
 945              		.cfi_offset 7, -8
 946              		.cfi_offset 14, -4
ARM GAS  C:\Users\codyg\AppData\Local\Temp\ccRbtLKH.s 			page 42


 947              	.LVL120:
1171:Generated_Source\PSoC6/CapSense_Filter.c ****     ptrSensor = &ptrSensor[sensorId];
 948              		.loc 1 1171 0
 949 0002 0E4E     		ldr	r6, .L57
 950 0004 C300     		lsls	r3, r0, #3
 951 0006 1C1A     		subs	r4, r3, r0
 952 0008 A200     		lsls	r2, r4, #2
 953 000a B218     		adds	r2, r6, r2
 954              	.LVL121:
1172:Generated_Source\PSoC6/CapSense_Filter.c **** 
 955              		.loc 1 1172 0
 956 000c 8C00     		lsls	r4, r1, #2
 957 000e 6418     		adds	r4, r4, r1
 958 0010 6500     		lsls	r5, r4, #1
 959 0012 9468     		ldr	r4, [r2, #8]
 960 0014 A446     		mov	ip, r4
 961 0016 6544     		add	r5, r5, ip
 962              	.LVL122:
1175:Generated_Source\PSoC6/CapSense_Filter.c **** 
 963              		.loc 1 1175 0
 964 0018 D768     		ldr	r7, [r2, #12]
 965 001a 3C00     		movs	r4, r7
 966              	.LVL123:
1177:Generated_Source\PSoC6/CapSense_Filter.c ****     {
 967              		.loc 1 1177 0
 968 001c 1B1A     		subs	r3, r3, r0
 969 001e 9A00     		lsls	r2, r3, #2
 970 0020 B218     		adds	r2, r6, r2
 971 0022 927E     		ldrb	r2, [r2, #26]
 972 0024 062A     		cmp	r2, #6
 973 0026 03D1     		bne	.L56
1186:Generated_Source\PSoC6/CapSense_Filter.c ****         #endif /* (CapSense_PROXIMITY_SENSOR_EN) */
 974              		.loc 1 1186 0
 975 0028 4B00     		lsls	r3, r1, #1
 976 002a 5B18     		adds	r3, r3, r1
 977 002c 9C00     		lsls	r4, r3, #2
 978 002e 3C19     		adds	r4, r7, r4
 979              	.L56:
1190:Generated_Source\PSoC6/CapSense_Filter.c **** }
 980              		.loc 1 1190 0
 981 0030 2900     		movs	r1, r5
 982              	.LVL124:
 983 0032 2000     		movs	r0, r4
 984              	.LVL125:
 985 0034 FFF7FEFF 		bl	CapSense_RunAverageInternal
 986              	.LVL126:
1191:Generated_Source\PSoC6/CapSense_Filter.c **** 
 987              		.loc 1 1191 0
 988              		@ sp needed
 989              	.LVL127:
 990              	.LVL128:
 991              	.LVL129:
 992 0038 F8BD     		pop	{r3, r4, r5, r6, r7, pc}
 993              	.L58:
 994 003a C046     		.align	2
 995              	.L57:
 996 003c 00000000 		.word	CapSense_dsFlash
ARM GAS  C:\Users\codyg\AppData\Local\Temp\ccRbtLKH.s 			page 43


 997              		.cfi_endproc
 998              	.LFE57:
 999              		.size	CapSense_RunAverage, .-CapSense_RunAverage
 1000              		.section	.text.CapSense_FtMedian,"ax",%progbits
 1001              		.align	2
 1002              		.global	CapSense_FtMedian
 1003              		.code	16
 1004              		.thumb_func
 1005              		.type	CapSense_FtMedian, %function
 1006              	CapSense_FtMedian:
 1007              	.LFB62:
1307:Generated_Source\PSoC6/CapSense_Filter.c **** #endif /* (CapSense_REGULAR_RC_AVERAGE_FILTER_EN || CapSense_PROX_RC_AVERAGE_FILTER_EN) */
1308:Generated_Source\PSoC6/CapSense_Filter.c **** 
1309:Generated_Source\PSoC6/CapSense_Filter.c **** #if (CapSense_ENABLE == CapSense_ALP_FILTER_EN)
1310:Generated_Source\PSoC6/CapSense_Filter.c **** /*******************************************************************************
1311:Generated_Source\PSoC6/CapSense_Filter.c **** * Function Name: CapSense_InitializeALP
1312:Generated_Source\PSoC6/CapSense_Filter.c **** ****************************************************************************//**
1313:Generated_Source\PSoC6/CapSense_Filter.c **** *
1314:Generated_Source\PSoC6/CapSense_Filter.c **** * \brief    Initializes the ALP filter history.
1315:Generated_Source\PSoC6/CapSense_Filter.c **** *
1316:Generated_Source\PSoC6/CapSense_Filter.c **** * \details  Initializes the ALP filter history.
1317:Generated_Source\PSoC6/CapSense_Filter.c **** *
1318:Generated_Source\PSoC6/CapSense_Filter.c **** * \param    widgetId Specifies the ID number of the widget.
1319:Generated_Source\PSoC6/CapSense_Filter.c **** * \param    sensorId Specifies the ID number of the sensor in the widget.
1320:Generated_Source\PSoC6/CapSense_Filter.c **** *
1321:Generated_Source\PSoC6/CapSense_Filter.c **** *******************************************************************************/
1322:Generated_Source\PSoC6/CapSense_Filter.c **** void CapSense_InitializeALP(uint32 widgetId, uint32 sensorId)
1323:Generated_Source\PSoC6/CapSense_Filter.c **** {
1324:Generated_Source\PSoC6/CapSense_Filter.c ****     CapSense_FLASH_WD_STRUCT const *ptrWidget = &CapSense_dsFlash.wdgtArray[widgetId];
1325:Generated_Source\PSoC6/CapSense_Filter.c ****     CapSense_RAM_SNS_STRUCT *ptrSensor = NULL;
1326:Generated_Source\PSoC6/CapSense_Filter.c ****     CapSense_PTR_FILTER_VARIANT ptrFilterHistObj;
1327:Generated_Source\PSoC6/CapSense_Filter.c **** 
1328:Generated_Source\PSoC6/CapSense_Filter.c ****     /* Find pointer to specified sensor object */
1329:Generated_Source\PSoC6/CapSense_Filter.c ****     ptrSensor = ptrWidget->ptr2SnsRam;
1330:Generated_Source\PSoC6/CapSense_Filter.c ****     ptrSensor = &ptrSensor[sensorId];
1331:Generated_Source\PSoC6/CapSense_Filter.c **** 
1332:Generated_Source\PSoC6/CapSense_Filter.c ****     /* Find pointer to specified filter sensor object */
1333:Generated_Source\PSoC6/CapSense_Filter.c ****     ptrFilterHistObj.ptr = ptrWidget->ptr2FltrHistory;
1334:Generated_Source\PSoC6/CapSense_Filter.c ****     ptrFilterHistObj.ptrAlp = &ptrFilterHistObj.ptrAlp[sensorId];
1335:Generated_Source\PSoC6/CapSense_Filter.c ****     CapSense_InitializeALPInternal(ptrFilterHistObj, ptrSensor, (uint32)ptrWidget->wdgtType);
1336:Generated_Source\PSoC6/CapSense_Filter.c **** }
1337:Generated_Source\PSoC6/CapSense_Filter.c **** 
1338:Generated_Source\PSoC6/CapSense_Filter.c **** 
1339:Generated_Source\PSoC6/CapSense_Filter.c **** /*******************************************************************************
1340:Generated_Source\PSoC6/CapSense_Filter.c **** * Function Name: CapSense_RunALP
1341:Generated_Source\PSoC6/CapSense_Filter.c **** ****************************************************************************//**
1342:Generated_Source\PSoC6/CapSense_Filter.c **** *
1343:Generated_Source\PSoC6/CapSense_Filter.c **** * \brief    Executes the ALP filter algorithm on a sensor indicated by an input
1344:Generated_Source\PSoC6/CapSense_Filter.c **** *           parameter.
1345:Generated_Source\PSoC6/CapSense_Filter.c **** *
1346:Generated_Source\PSoC6/CapSense_Filter.c **** * \details  Executes the ALP filter algorithm on a sensor indicated by an input
1347:Generated_Source\PSoC6/CapSense_Filter.c **** *           parameter.
1348:Generated_Source\PSoC6/CapSense_Filter.c **** *
1349:Generated_Source\PSoC6/CapSense_Filter.c **** * \param    widgetId Specifies the ID number of the widget.
1350:Generated_Source\PSoC6/CapSense_Filter.c **** * \param    sensorId Specifies the ID number of the sensor in the widget.
1351:Generated_Source\PSoC6/CapSense_Filter.c **** *
1352:Generated_Source\PSoC6/CapSense_Filter.c **** *******************************************************************************/
ARM GAS  C:\Users\codyg\AppData\Local\Temp\ccRbtLKH.s 			page 44


1353:Generated_Source\PSoC6/CapSense_Filter.c **** void CapSense_RunALP(uint32 widgetId, uint32 sensorId)
1354:Generated_Source\PSoC6/CapSense_Filter.c **** {
1355:Generated_Source\PSoC6/CapSense_Filter.c ****     CapSense_FLASH_WD_STRUCT const *ptrWidget = &CapSense_dsFlash.wdgtArray[widgetId];
1356:Generated_Source\PSoC6/CapSense_Filter.c ****     CapSense_RAM_SNS_STRUCT *ptrSensor = NULL;
1357:Generated_Source\PSoC6/CapSense_Filter.c ****     CapSense_PTR_FILTER_VARIANT ptrFilterHistObj;
1358:Generated_Source\PSoC6/CapSense_Filter.c ****     ALP_FLTR_CONFIG_STRUCT alpFilterConfig;
1359:Generated_Source\PSoC6/CapSense_Filter.c ****     ALP_FLTR_CONFIG_STRUCT *ptrAlpFilterConfig = &alpFilterConfig;
1360:Generated_Source\PSoC6/CapSense_Filter.c ****     CapSense_RAM_WD_BASE_STRUCT *ptrRamWidget = ptrWidget->ptr2WdgtRam;
1361:Generated_Source\PSoC6/CapSense_Filter.c **** 
1362:Generated_Source\PSoC6/CapSense_Filter.c ****     /* Find pointer to specified sensor object */
1363:Generated_Source\PSoC6/CapSense_Filter.c ****     ptrSensor = ptrWidget->ptr2SnsRam;
1364:Generated_Source\PSoC6/CapSense_Filter.c ****     ptrSensor = &ptrSensor[sensorId];
1365:Generated_Source\PSoC6/CapSense_Filter.c **** 
1366:Generated_Source\PSoC6/CapSense_Filter.c ****     ptrAlpFilterConfig->configParam0 = ptrRamWidget->alpOnTh;
1367:Generated_Source\PSoC6/CapSense_Filter.c ****     ptrAlpFilterConfig->configParam1 = ptrRamWidget->alpOffTh;
1368:Generated_Source\PSoC6/CapSense_Filter.c ****     ptrAlpFilterConfig->configParam2 = ptrRamWidget->fingerTh;
1369:Generated_Source\PSoC6/CapSense_Filter.c ****     ptrAlpFilterConfig->configParam3 = ptrRamWidget->noiseTh;
1370:Generated_Source\PSoC6/CapSense_Filter.c ****     ptrAlpFilterConfig->configParam4 = ptrRamWidget->hysteresis;
1371:Generated_Source\PSoC6/CapSense_Filter.c **** 
1372:Generated_Source\PSoC6/CapSense_Filter.c ****     /* Find pointer to specified filter sensor object */
1373:Generated_Source\PSoC6/CapSense_Filter.c ****     ptrFilterHistObj.ptr = ptrWidget->ptr2FltrHistory;
1374:Generated_Source\PSoC6/CapSense_Filter.c ****     ptrFilterHistObj.ptrAlp = &ptrFilterHistObj.ptrAlp[sensorId];
1375:Generated_Source\PSoC6/CapSense_Filter.c **** 
1376:Generated_Source\PSoC6/CapSense_Filter.c ****     if ((CapSense_WD_TYPE_ENUM)ptrWidget->wdgtType != CapSense_WD_PROXIMITY_E)
1377:Generated_Source\PSoC6/CapSense_Filter.c ****     {
1378:Generated_Source\PSoC6/CapSense_Filter.c ****         #if (CapSense_REGULAR_SENSOR_EN)
1379:Generated_Source\PSoC6/CapSense_Filter.c ****             ptrAlpFilterConfig->configParam5 = CapSense_REGULAR_RC_ALP_FILTER_COEFF;
1380:Generated_Source\PSoC6/CapSense_Filter.c ****         #endif /* (CapSense_REGULAR_SENSOR_EN) */
1381:Generated_Source\PSoC6/CapSense_Filter.c ****     }
1382:Generated_Source\PSoC6/CapSense_Filter.c ****     else
1383:Generated_Source\PSoC6/CapSense_Filter.c ****     {
1384:Generated_Source\PSoC6/CapSense_Filter.c ****         #if (CapSense_PROXIMITY_SENSOR_EN)
1385:Generated_Source\PSoC6/CapSense_Filter.c ****             ptrAlpFilterConfig->configParam5 = CapSense_PROX_RC_ALP_FILTER_COEFF;
1386:Generated_Source\PSoC6/CapSense_Filter.c ****         #endif /* (CapSense_PROXIMITY_SENSOR_EN) */
1387:Generated_Source\PSoC6/CapSense_Filter.c ****     }
1388:Generated_Source\PSoC6/CapSense_Filter.c ****     CapSense_RunALPInternal(ptrFilterHistObj, ptrAlpFilterConfig, ptrSensor, (uint32)ptrWidget->wdg
1389:Generated_Source\PSoC6/CapSense_Filter.c **** }
1390:Generated_Source\PSoC6/CapSense_Filter.c **** 
1391:Generated_Source\PSoC6/CapSense_Filter.c **** 
1392:Generated_Source\PSoC6/CapSense_Filter.c **** /*******************************************************************************
1393:Generated_Source\PSoC6/CapSense_Filter.c **** * Function Name: CapSense_InitializeALPInternal
1394:Generated_Source\PSoC6/CapSense_Filter.c **** ****************************************************************************//**
1395:Generated_Source\PSoC6/CapSense_Filter.c **** *
1396:Generated_Source\PSoC6/CapSense_Filter.c **** * \brief    Initializes the ALP filter.
1397:Generated_Source\PSoC6/CapSense_Filter.c **** *
1398:Generated_Source\PSoC6/CapSense_Filter.c **** * \details  Initializes the ALP filter.
1399:Generated_Source\PSoC6/CapSense_Filter.c **** *
1400:Generated_Source\PSoC6/CapSense_Filter.c **** * \param    ptrFilterHistObj The pointer to the filter RAM object of the sensor.
1401:Generated_Source\PSoC6/CapSense_Filter.c **** * \param    ptrSensorObj     The pointer to the sensor RAM object of the sensor.
1402:Generated_Source\PSoC6/CapSense_Filter.c **** * \param    wdType           Specifies the type of a widget.
1403:Generated_Source\PSoC6/CapSense_Filter.c **** *
1404:Generated_Source\PSoC6/CapSense_Filter.c **** *******************************************************************************/
1405:Generated_Source\PSoC6/CapSense_Filter.c **** void CapSense_InitializeALPInternal(CapSense_PTR_FILTER_VARIANT ptrFilterHistObj,
1406:Generated_Source\PSoC6/CapSense_Filter.c ****                                             CapSense_RAM_SNS_STRUCT *ptrSensorObj,
1407:Generated_Source\PSoC6/CapSense_Filter.c ****                                             uint32 wdType)
1408:Generated_Source\PSoC6/CapSense_Filter.c **** {
1409:Generated_Source\PSoC6/CapSense_Filter.c ****     uint32 freqChannel;
ARM GAS  C:\Users\codyg\AppData\Local\Temp\ccRbtLKH.s 			page 45


1410:Generated_Source\PSoC6/CapSense_Filter.c **** 
1411:Generated_Source\PSoC6/CapSense_Filter.c ****     for(freqChannel = CapSense_NUM_SCAN_FREQS; freqChannel-- > 0u;)
1412:Generated_Source\PSoC6/CapSense_Filter.c ****     {
1413:Generated_Source\PSoC6/CapSense_Filter.c ****         if ((CapSense_WD_TYPE_ENUM)wdType != CapSense_WD_PROXIMITY_E)
1414:Generated_Source\PSoC6/CapSense_Filter.c ****         {
1415:Generated_Source\PSoC6/CapSense_Filter.c ****             #if (CapSense_REGULAR_SENSOR_EN && CapSense_REGULAR_RC_ALP_FILTER_EN)
1416:Generated_Source\PSoC6/CapSense_Filter.c ****                 ALP_Initialize(&ptrFilterHistObj.ptrAlp->channel[freqChannel], &ptrSensorObj->raw[f
1417:Generated_Source\PSoC6/CapSense_Filter.c ****             #endif
1418:Generated_Source\PSoC6/CapSense_Filter.c ****         }
1419:Generated_Source\PSoC6/CapSense_Filter.c ****         else
1420:Generated_Source\PSoC6/CapSense_Filter.c ****         {
1421:Generated_Source\PSoC6/CapSense_Filter.c ****             #if (CapSense_PROXIMITY_SENSOR_EN && CapSense_PROX_RC_ALP_FILTER_EN)
1422:Generated_Source\PSoC6/CapSense_Filter.c ****                 ALP_Initialize(&ptrFilterHistObj.ptrAlp->channel[freqChannel], &ptrSensorObj->raw[f
1423:Generated_Source\PSoC6/CapSense_Filter.c ****             #endif
1424:Generated_Source\PSoC6/CapSense_Filter.c ****         }
1425:Generated_Source\PSoC6/CapSense_Filter.c ****     }
1426:Generated_Source\PSoC6/CapSense_Filter.c **** }
1427:Generated_Source\PSoC6/CapSense_Filter.c **** 
1428:Generated_Source\PSoC6/CapSense_Filter.c **** /*******************************************************************************
1429:Generated_Source\PSoC6/CapSense_Filter.c **** * Function Name: CapSense_ConfigRunALPInternal
1430:Generated_Source\PSoC6/CapSense_Filter.c **** ****************************************************************************//**
1431:Generated_Source\PSoC6/CapSense_Filter.c **** *
1432:Generated_Source\PSoC6/CapSense_Filter.c **** * \brief    Prepares ALP configuration structure and runs the filter.
1433:Generated_Source\PSoC6/CapSense_Filter.c **** *
1434:Generated_Source\PSoC6/CapSense_Filter.c **** * \details  Prepares ALP configuration structure and runs the filter.
1435:Generated_Source\PSoC6/CapSense_Filter.c **** *
1436:Generated_Source\PSoC6/CapSense_Filter.c **** * \param    ptrFilterHistObj The pointer to the filter RAM object of the sensor.
1437:Generated_Source\PSoC6/CapSense_Filter.c **** * \param    ptrRamWdgt       The pointer to the RAM widget object.
1438:Generated_Source\PSoC6/CapSense_Filter.c **** * \param    ptrSensorObj     The pointer to the sensor RAM object of the sensor.
1439:Generated_Source\PSoC6/CapSense_Filter.c **** * \param    wdType           Specifies the type of a widget.
1440:Generated_Source\PSoC6/CapSense_Filter.c **** *
1441:Generated_Source\PSoC6/CapSense_Filter.c **** *******************************************************************************/
1442:Generated_Source\PSoC6/CapSense_Filter.c **** void CapSense_ConfigRunALPInternal(CapSense_PTR_FILTER_VARIANT ptrFilterHistObj,
1443:Generated_Source\PSoC6/CapSense_Filter.c ****                                     CapSense_RAM_WD_BASE_STRUCT *ptrRamWdgt,
1444:Generated_Source\PSoC6/CapSense_Filter.c ****                                     CapSense_RAM_SNS_STRUCT *ptrSensorObj,
1445:Generated_Source\PSoC6/CapSense_Filter.c ****                                     uint32 wdType)
1446:Generated_Source\PSoC6/CapSense_Filter.c **** {
1447:Generated_Source\PSoC6/CapSense_Filter.c ****     ALP_FLTR_CONFIG_STRUCT alpFilterConfig;
1448:Generated_Source\PSoC6/CapSense_Filter.c **** 
1449:Generated_Source\PSoC6/CapSense_Filter.c ****     alpFilterConfig.configParam0 = ptrRamWdgt->alpOnTh;
1450:Generated_Source\PSoC6/CapSense_Filter.c ****     alpFilterConfig.configParam1 = ptrRamWdgt->alpOffTh;
1451:Generated_Source\PSoC6/CapSense_Filter.c ****     alpFilterConfig.configParam2 = ptrRamWdgt->fingerTh;
1452:Generated_Source\PSoC6/CapSense_Filter.c ****     alpFilterConfig.configParam3 = ptrRamWdgt->noiseTh;
1453:Generated_Source\PSoC6/CapSense_Filter.c ****     alpFilterConfig.configParam4 = ptrRamWdgt->hysteresis;
1454:Generated_Source\PSoC6/CapSense_Filter.c **** 
1455:Generated_Source\PSoC6/CapSense_Filter.c ****     CapSense_RunALPInternal(ptrFilterHistObj, &alpFilterConfig, ptrSensorObj, wdType);
1456:Generated_Source\PSoC6/CapSense_Filter.c **** }
1457:Generated_Source\PSoC6/CapSense_Filter.c **** 
1458:Generated_Source\PSoC6/CapSense_Filter.c **** /*******************************************************************************
1459:Generated_Source\PSoC6/CapSense_Filter.c **** * Function Name: CapSense_RunALPInternal
1460:Generated_Source\PSoC6/CapSense_Filter.c **** ****************************************************************************//**
1461:Generated_Source\PSoC6/CapSense_Filter.c **** *
1462:Generated_Source\PSoC6/CapSense_Filter.c **** * \brief    Runs the ALP filter.
1463:Generated_Source\PSoC6/CapSense_Filter.c **** *
1464:Generated_Source\PSoC6/CapSense_Filter.c **** * \details  Runs the ALP filter.
1465:Generated_Source\PSoC6/CapSense_Filter.c **** *
1466:Generated_Source\PSoC6/CapSense_Filter.c **** * \param    ptrFilterHistObj The pointer to the filter RAM object of the sensor.
ARM GAS  C:\Users\codyg\AppData\Local\Temp\ccRbtLKH.s 			page 46


1467:Generated_Source\PSoC6/CapSense_Filter.c **** * \param    ptrAlpFilterConfig The pointer to the filter configuration object of the sensor.
1468:Generated_Source\PSoC6/CapSense_Filter.c **** * \param    ptrSensorObj     The pointer to the sensor RAM object of the sensor.
1469:Generated_Source\PSoC6/CapSense_Filter.c **** * \param    wdType           Specifies the type of a widget.
1470:Generated_Source\PSoC6/CapSense_Filter.c **** *
1471:Generated_Source\PSoC6/CapSense_Filter.c **** *******************************************************************************/
1472:Generated_Source\PSoC6/CapSense_Filter.c **** void CapSense_RunALPInternal(CapSense_PTR_FILTER_VARIANT ptrFilterHistObj,
1473:Generated_Source\PSoC6/CapSense_Filter.c ****                                     ALP_FLTR_CONFIG_STRUCT *ptrAlpFilterConfig,
1474:Generated_Source\PSoC6/CapSense_Filter.c ****                                     CapSense_RAM_SNS_STRUCT *ptrSensorObj,
1475:Generated_Source\PSoC6/CapSense_Filter.c ****                                     uint32 wdType)
1476:Generated_Source\PSoC6/CapSense_Filter.c **** {
1477:Generated_Source\PSoC6/CapSense_Filter.c ****     uint32 freqChannel;
1478:Generated_Source\PSoC6/CapSense_Filter.c **** 
1479:Generated_Source\PSoC6/CapSense_Filter.c ****     for(freqChannel = CapSense_NUM_SCAN_FREQS; freqChannel-- > 0u;)
1480:Generated_Source\PSoC6/CapSense_Filter.c ****     {
1481:Generated_Source\PSoC6/CapSense_Filter.c ****         if ((CapSense_WD_TYPE_ENUM)wdType != CapSense_WD_PROXIMITY_E)
1482:Generated_Source\PSoC6/CapSense_Filter.c ****         {
1483:Generated_Source\PSoC6/CapSense_Filter.c ****             #if (CapSense_REGULAR_SENSOR_EN && CapSense_REGULAR_RC_ALP_FILTER_EN)
1484:Generated_Source\PSoC6/CapSense_Filter.c ****                 ptrAlpFilterConfig->configParam5 = CapSense_REGULAR_RC_ALP_FILTER_COEFF;
1485:Generated_Source\PSoC6/CapSense_Filter.c ****                 ALP_Run(&ptrFilterHistObj.ptrAlp->channel[freqChannel], ptrAlpFilterConfig, &ptrSen
1486:Generated_Source\PSoC6/CapSense_Filter.c ****             #endif
1487:Generated_Source\PSoC6/CapSense_Filter.c ****         }
1488:Generated_Source\PSoC6/CapSense_Filter.c ****         else
1489:Generated_Source\PSoC6/CapSense_Filter.c ****         {
1490:Generated_Source\PSoC6/CapSense_Filter.c ****             #if (CapSense_PROXIMITY_SENSOR_EN && CapSense_PROX_RC_ALP_FILTER_EN)
1491:Generated_Source\PSoC6/CapSense_Filter.c ****                 ptrAlpFilterConfig->configParam5 = CapSense_PROX_RC_ALP_FILTER_COEFF;
1492:Generated_Source\PSoC6/CapSense_Filter.c ****                 ALP_Run(&ptrFilterHistObj.ptrAlp->channel[freqChannel], ptrAlpFilterConfig, &ptrSen
1493:Generated_Source\PSoC6/CapSense_Filter.c ****             #endif
1494:Generated_Source\PSoC6/CapSense_Filter.c ****         }
1495:Generated_Source\PSoC6/CapSense_Filter.c ****     }
1496:Generated_Source\PSoC6/CapSense_Filter.c **** }
1497:Generated_Source\PSoC6/CapSense_Filter.c **** #endif /* (CapSense_ENABLE == CapSense_ALP_FILTER_EN) */
1498:Generated_Source\PSoC6/CapSense_Filter.c **** 
1499:Generated_Source\PSoC6/CapSense_Filter.c **** #if (CapSense_ENABLE == CapSense_RC_FILTER_EN)
1500:Generated_Source\PSoC6/CapSense_Filter.c **** /*******************************************************************************
1501:Generated_Source\PSoC6/CapSense_Filter.c **** * Function Name: CapSense_FtRunEnabledFilters
1502:Generated_Source\PSoC6/CapSense_Filter.c **** ****************************************************************************//**
1503:Generated_Source\PSoC6/CapSense_Filter.c **** *
1504:Generated_Source\PSoC6/CapSense_Filter.c **** * \brief    Runs all enabled filters.
1505:Generated_Source\PSoC6/CapSense_Filter.c **** *
1506:Generated_Source\PSoC6/CapSense_Filter.c **** * \details  Runs all enabled filters.
1507:Generated_Source\PSoC6/CapSense_Filter.c **** *
1508:Generated_Source\PSoC6/CapSense_Filter.c **** * \param    widgetId Specifies the ID number of a widget to update the IIR filter history.*
1509:Generated_Source\PSoC6/CapSense_Filter.c **** * \param    sensorId Specifies the ID number of a sensor in the widget to update the IIR
1510:Generated_Source\PSoC6/CapSense_Filter.c **** *           filter history.
1511:Generated_Source\PSoC6/CapSense_Filter.c **** *
1512:Generated_Source\PSoC6/CapSense_Filter.c **** *******************************************************************************/
1513:Generated_Source\PSoC6/CapSense_Filter.c **** void CapSense_FtRunEnabledFilters(uint32 widgetId, uint32 sensorId)
1514:Generated_Source\PSoC6/CapSense_Filter.c **** {
1515:Generated_Source\PSoC6/CapSense_Filter.c ****     CapSense_FLASH_WD_STRUCT const *ptrWidget = &CapSense_dsFlash.wdgtArray[widgetId];
1516:Generated_Source\PSoC6/CapSense_Filter.c ****     CapSense_RAM_SNS_STRUCT *ptrSensor = NULL;
1517:Generated_Source\PSoC6/CapSense_Filter.c ****     CapSense_PTR_FILTER_VARIANT ptrFilterHistObj;
1518:Generated_Source\PSoC6/CapSense_Filter.c **** 
1519:Generated_Source\PSoC6/CapSense_Filter.c ****     /* Find pointer to specified sensor object */
1520:Generated_Source\PSoC6/CapSense_Filter.c ****     ptrSensor = ptrWidget->ptr2SnsRam;
1521:Generated_Source\PSoC6/CapSense_Filter.c ****     ptrSensor = &ptrSensor[sensorId];
1522:Generated_Source\PSoC6/CapSense_Filter.c **** 
1523:Generated_Source\PSoC6/CapSense_Filter.c ****     /* Find pointer to specified filter sensor object */
ARM GAS  C:\Users\codyg\AppData\Local\Temp\ccRbtLKH.s 			page 47


1524:Generated_Source\PSoC6/CapSense_Filter.c ****     ptrFilterHistObj.ptr = ptrWidget->ptr2FltrHistory;
1525:Generated_Source\PSoC6/CapSense_Filter.c **** 
1526:Generated_Source\PSoC6/CapSense_Filter.c ****     if ((CapSense_WD_TYPE_ENUM)ptrWidget->wdgtType != CapSense_WD_PROXIMITY_E)
1527:Generated_Source\PSoC6/CapSense_Filter.c ****     {
1528:Generated_Source\PSoC6/CapSense_Filter.c ****         #if (0u != CapSense_REGULAR_RC_ALP_FILTER_EN)
1529:Generated_Source\PSoC6/CapSense_Filter.c ****             ptrFilterHistObj.ptr = &ptrFilterHistObj.ptrAlp[sensorId];
1530:Generated_Source\PSoC6/CapSense_Filter.c ****         #elif (0u != CapSense_REGULAR_RC_FILTER_EN)
1531:Generated_Source\PSoC6/CapSense_Filter.c ****             ptrFilterHistObj.ptr = &ptrFilterHistObj.ptrRegular[sensorId];
1532:Generated_Source\PSoC6/CapSense_Filter.c ****         #endif
1533:Generated_Source\PSoC6/CapSense_Filter.c ****     }
1534:Generated_Source\PSoC6/CapSense_Filter.c ****     else
1535:Generated_Source\PSoC6/CapSense_Filter.c ****     {
1536:Generated_Source\PSoC6/CapSense_Filter.c ****         #if (0u != CapSense_PROX_RC_ALP_FILTER_EN)
1537:Generated_Source\PSoC6/CapSense_Filter.c ****             ptrFilterHistObj.ptr = &ptrFilterHistObj.ptrAlp[sensorId];
1538:Generated_Source\PSoC6/CapSense_Filter.c ****         #elif (0u != CapSense_PROX_RC_FILTER_EN)
1539:Generated_Source\PSoC6/CapSense_Filter.c ****             ptrFilterHistObj.ptr = &ptrFilterHistObj.ptrProx[sensorId];
1540:Generated_Source\PSoC6/CapSense_Filter.c ****         #endif
1541:Generated_Source\PSoC6/CapSense_Filter.c ****     }
1542:Generated_Source\PSoC6/CapSense_Filter.c **** 
1543:Generated_Source\PSoC6/CapSense_Filter.c ****     CapSense_FtRunEnabledFiltersInternal(ptrFilterHistObj, ptrSensor, (uint32)ptrWidget->wdgtType);
1544:Generated_Source\PSoC6/CapSense_Filter.c ****     #if (CapSense_ALP_FILTER_EN)
1545:Generated_Source\PSoC6/CapSense_Filter.c ****         CapSense_ConfigRunALPInternal(ptrFilterHistObj, ptrWidget->ptr2WdgtRam, ptrSensor, (uint32)
1546:Generated_Source\PSoC6/CapSense_Filter.c ****     #endif
1547:Generated_Source\PSoC6/CapSense_Filter.c **** }
1548:Generated_Source\PSoC6/CapSense_Filter.c **** 
1549:Generated_Source\PSoC6/CapSense_Filter.c **** 
1550:Generated_Source\PSoC6/CapSense_Filter.c **** /*******************************************************************************
1551:Generated_Source\PSoC6/CapSense_Filter.c **** * Function Name: CapSense_FtRunEnabledFiltersInternal
1552:Generated_Source\PSoC6/CapSense_Filter.c **** ****************************************************************************//**
1553:Generated_Source\PSoC6/CapSense_Filter.c **** *
1554:Generated_Source\PSoC6/CapSense_Filter.c **** * \brief    Runs all enabled filters.
1555:Generated_Source\PSoC6/CapSense_Filter.c **** *
1556:Generated_Source\PSoC6/CapSense_Filter.c **** * \details  Runs all enabled filters.
1557:Generated_Source\PSoC6/CapSense_Filter.c **** *
1558:Generated_Source\PSoC6/CapSense_Filter.c **** * \param    ptrFilterHistObj The pointer to the filter RAM object of the sensor.
1559:Generated_Source\PSoC6/CapSense_Filter.c **** * \param    ptrSensorObj     The pointer to the sensor RAM object of the sensor.
1560:Generated_Source\PSoC6/CapSense_Filter.c **** * \param    wdType           Specifies the type of a widget.
1561:Generated_Source\PSoC6/CapSense_Filter.c **** *
1562:Generated_Source\PSoC6/CapSense_Filter.c **** *******************************************************************************/
1563:Generated_Source\PSoC6/CapSense_Filter.c **** void CapSense_FtRunEnabledFiltersInternal(CapSense_PTR_FILTER_VARIANT ptrFilterHistObj,
1564:Generated_Source\PSoC6/CapSense_Filter.c ****                                                   CapSense_RAM_SNS_STRUCT *ptrSensorObj, uint32 wdT
1565:Generated_Source\PSoC6/CapSense_Filter.c **** {
1566:Generated_Source\PSoC6/CapSense_Filter.c ****     #if (CapSense_REGULAR_RC_MEDIAN_FILTER_EN || CapSense_PROX_RC_MEDIAN_FILTER_EN)
1567:Generated_Source\PSoC6/CapSense_Filter.c ****         CapSense_RunMedianInternal(ptrFilterHistObj, ptrSensorObj, wdType);
1568:Generated_Source\PSoC6/CapSense_Filter.c ****     #endif /* (CapSense_REGULAR_RC_MEDIAN_FILTER_EN || CapSense_PROX_RC_MEDIAN_FILTER_EN) */
1569:Generated_Source\PSoC6/CapSense_Filter.c **** 
1570:Generated_Source\PSoC6/CapSense_Filter.c ****     #if (CapSense_REGULAR_RC_IIR_FILTER_EN || CapSense_PROX_RC_IIR_FILTER_EN)
1571:Generated_Source\PSoC6/CapSense_Filter.c ****         CapSense_RunIIRInternal(ptrFilterHistObj, ptrSensorObj, wdType);
1572:Generated_Source\PSoC6/CapSense_Filter.c ****     #endif /* (CapSense_REGULAR_RC_IIR_FILTER_EN || CapSense_PROX_RC_IIR_FILTER_EN) */
1573:Generated_Source\PSoC6/CapSense_Filter.c **** 
1574:Generated_Source\PSoC6/CapSense_Filter.c ****     #if (CapSense_REGULAR_RC_AVERAGE_FILTER_EN || CapSense_PROX_RC_AVERAGE_FILTER_EN)
1575:Generated_Source\PSoC6/CapSense_Filter.c ****         CapSense_RunAverageInternal(ptrFilterHistObj, ptrSensorObj, wdType);
1576:Generated_Source\PSoC6/CapSense_Filter.c ****     #endif /* (CapSense_REGULAR_RC_AVERAGE_FILTER_EN || CapSense_PROX_RC_AVERAGE_FILTER_EN) */
1577:Generated_Source\PSoC6/CapSense_Filter.c **** }
1578:Generated_Source\PSoC6/CapSense_Filter.c **** #endif /* (CapSense_ENABLE == CapSense_RC_FILTER_EN) */
1579:Generated_Source\PSoC6/CapSense_Filter.c **** 
1580:Generated_Source\PSoC6/CapSense_Filter.c **** 
ARM GAS  C:\Users\codyg\AppData\Local\Temp\ccRbtLKH.s 			page 48


1581:Generated_Source\PSoC6/CapSense_Filter.c **** #if (0u != (CapSense_CSD_AUTOTUNE & CapSense_CSD_SS_TH_EN))
1582:Generated_Source\PSoC6/CapSense_Filter.c **** /*******************************************************************************
1583:Generated_Source\PSoC6/CapSense_Filter.c **** * Function Name: CapSense_RunNoiseEnvelope
1584:Generated_Source\PSoC6/CapSense_Filter.c **** ****************************************************************************//**
1585:Generated_Source\PSoC6/CapSense_Filter.c **** *
1586:Generated_Source\PSoC6/CapSense_Filter.c **** * \brief    Executes the noise envelope  filter algorithm on a sensor indicated by
1587:Generated_Source\PSoC6/CapSense_Filter.c **** *           an input parameter to measure the pk-to-pk noise in the sensor raw count.
1588:Generated_Source\PSoC6/CapSense_Filter.c **** *
1589:Generated_Source\PSoC6/CapSense_Filter.c **** * \details  Executes the noise envelope  filter algorithm on a sensor indicated by
1590:Generated_Source\PSoC6/CapSense_Filter.c **** *           an input parameter to measure the pk-to-pk noise in the sensor raw count.
1591:Generated_Source\PSoC6/CapSense_Filter.c **** *
1592:Generated_Source\PSoC6/CapSense_Filter.c **** * \param    widgetId Specifies the ID number of the widget.
1593:Generated_Source\PSoC6/CapSense_Filter.c **** * \param    sensorId Specifies the ID number of the sensor in the widget.
1594:Generated_Source\PSoC6/CapSense_Filter.c **** *
1595:Generated_Source\PSoC6/CapSense_Filter.c **** *******************************************************************************/
1596:Generated_Source\PSoC6/CapSense_Filter.c **** void CapSense_RunNoiseEnvelope(uint32 widgetId, uint32 sensorId)
1597:Generated_Source\PSoC6/CapSense_Filter.c **** {
1598:Generated_Source\PSoC6/CapSense_Filter.c ****     CapSense_FLASH_WD_STRUCT const *ptrWidget = &CapSense_dsFlash.wdgtArray[widgetId];
1599:Generated_Source\PSoC6/CapSense_Filter.c ****     CapSense_RAM_WD_BASE_STRUCT *ptrWidgetRam = ptrWidget->ptr2WdgtRam;
1600:Generated_Source\PSoC6/CapSense_Filter.c ****     CapSense_RAM_SNS_STRUCT *ptrSensor = NULL;
1601:Generated_Source\PSoC6/CapSense_Filter.c ****     SMARTSENSE_CSD_NOISE_ENVELOPE_STRUCT *ptrNoiseEnvelope = NULL;
1602:Generated_Source\PSoC6/CapSense_Filter.c **** 
1603:Generated_Source\PSoC6/CapSense_Filter.c ****     /* Find pointer to specified sensor object */
1604:Generated_Source\PSoC6/CapSense_Filter.c ****     ptrSensor = ptrWidget->ptr2SnsRam;
1605:Generated_Source\PSoC6/CapSense_Filter.c ****     ptrSensor = &ptrSensor[sensorId];
1606:Generated_Source\PSoC6/CapSense_Filter.c **** 
1607:Generated_Source\PSoC6/CapSense_Filter.c ****     /* Find pointer to specified filter sensor object */
1608:Generated_Source\PSoC6/CapSense_Filter.c ****     ptrNoiseEnvelope = ptrWidget->ptr2NoiseEnvlp;
1609:Generated_Source\PSoC6/CapSense_Filter.c ****     ptrNoiseEnvelope = &ptrNoiseEnvelope[sensorId];
1610:Generated_Source\PSoC6/CapSense_Filter.c **** 
1611:Generated_Source\PSoC6/CapSense_Filter.c ****     SmartSense_RunNoiseEnvelope(ptrSensor->raw[0u], ptrWidgetRam->sigPFC, ptrNoiseEnvelope);
1612:Generated_Source\PSoC6/CapSense_Filter.c **** }
1613:Generated_Source\PSoC6/CapSense_Filter.c **** 
1614:Generated_Source\PSoC6/CapSense_Filter.c **** 
1615:Generated_Source\PSoC6/CapSense_Filter.c **** /*******************************************************************************
1616:Generated_Source\PSoC6/CapSense_Filter.c **** * Function Name: CapSense_InitializeNoiseEnvelope
1617:Generated_Source\PSoC6/CapSense_Filter.c **** ****************************************************************************//**
1618:Generated_Source\PSoC6/CapSense_Filter.c **** *
1619:Generated_Source\PSoC6/CapSense_Filter.c **** * \brief    Initializes the noise-envelope filter
1620:Generated_Source\PSoC6/CapSense_Filter.c **** *
1621:Generated_Source\PSoC6/CapSense_Filter.c **** * \details  Initializes the noise-envelope filter
1622:Generated_Source\PSoC6/CapSense_Filter.c **** *
1623:Generated_Source\PSoC6/CapSense_Filter.c **** * \param    widgetId Specifies the ID number of the widget.
1624:Generated_Source\PSoC6/CapSense_Filter.c **** * \param    sensorId Specifies the ID number of the sensor in the widget.
1625:Generated_Source\PSoC6/CapSense_Filter.c **** *
1626:Generated_Source\PSoC6/CapSense_Filter.c **** *******************************************************************************/
1627:Generated_Source\PSoC6/CapSense_Filter.c **** void CapSense_InitializeNoiseEnvelope(uint32 widgetId, uint32 sensorId)
1628:Generated_Source\PSoC6/CapSense_Filter.c **** {
1629:Generated_Source\PSoC6/CapSense_Filter.c ****     CapSense_FLASH_WD_STRUCT const *ptrWidget = &CapSense_dsFlash.wdgtArray[widgetId];
1630:Generated_Source\PSoC6/CapSense_Filter.c ****     CapSense_RAM_WD_BASE_STRUCT *ptrWidgetRam = ptrWidget->ptr2WdgtRam;
1631:Generated_Source\PSoC6/CapSense_Filter.c ****     CapSense_RAM_SNS_STRUCT *ptrSensor = NULL;
1632:Generated_Source\PSoC6/CapSense_Filter.c ****     SMARTSENSE_CSD_NOISE_ENVELOPE_STRUCT *ptrNoiseEnvelope = NULL;
1633:Generated_Source\PSoC6/CapSense_Filter.c **** 
1634:Generated_Source\PSoC6/CapSense_Filter.c ****     /* Find pointer to specified sensor object */
1635:Generated_Source\PSoC6/CapSense_Filter.c ****     ptrSensor = ptrWidget->ptr2SnsRam;
1636:Generated_Source\PSoC6/CapSense_Filter.c ****     ptrSensor = &ptrSensor[sensorId];
1637:Generated_Source\PSoC6/CapSense_Filter.c **** 
ARM GAS  C:\Users\codyg\AppData\Local\Temp\ccRbtLKH.s 			page 49


1638:Generated_Source\PSoC6/CapSense_Filter.c ****     /* Find pointer to specified filter sensor object */
1639:Generated_Source\PSoC6/CapSense_Filter.c ****     ptrNoiseEnvelope = ptrWidget->ptr2NoiseEnvlp;
1640:Generated_Source\PSoC6/CapSense_Filter.c ****     ptrNoiseEnvelope = &ptrNoiseEnvelope[sensorId];
1641:Generated_Source\PSoC6/CapSense_Filter.c **** 
1642:Generated_Source\PSoC6/CapSense_Filter.c ****     SmartSense_InitializeNoiseEnvelope(ptrSensor->raw[0u], ptrWidgetRam->sigPFC, ptrNoiseEnvelope);
1643:Generated_Source\PSoC6/CapSense_Filter.c **** }
1644:Generated_Source\PSoC6/CapSense_Filter.c **** #endif /* (0u != (CapSense_CSD_AUTOTUNE & CapSense_CSD_SS_TH_EN)) */
1645:Generated_Source\PSoC6/CapSense_Filter.c **** 
1646:Generated_Source\PSoC6/CapSense_Filter.c **** 
1647:Generated_Source\PSoC6/CapSense_Filter.c **** #if (CapSense_POS_MEDIAN_FILTER_EN || CapSense_REGULAR_RC_MEDIAN_FILTER_EN || CapSense_PROX_RC_MEDI
1648:Generated_Source\PSoC6/CapSense_Filter.c **** /*******************************************************************************
1649:Generated_Source\PSoC6/CapSense_Filter.c **** * Function Name: CapSense_FtMedian
1650:Generated_Source\PSoC6/CapSense_Filter.c **** ****************************************************************************//**
1651:Generated_Source\PSoC6/CapSense_Filter.c **** *
1652:Generated_Source\PSoC6/CapSense_Filter.c **** * \brief    Return the median value from the three passed arguments.
1653:Generated_Source\PSoC6/CapSense_Filter.c **** *
1654:Generated_Source\PSoC6/CapSense_Filter.c **** * \details  Return the median value from the three passed arguments.
1655:Generated_Source\PSoC6/CapSense_Filter.c **** *
1656:Generated_Source\PSoC6/CapSense_Filter.c **** * \param    x1 The first value to be compared.
1657:Generated_Source\PSoC6/CapSense_Filter.c **** * \param    x2 The second value to be compared.
1658:Generated_Source\PSoC6/CapSense_Filter.c **** * \param    x3 The third value to be compared.
1659:Generated_Source\PSoC6/CapSense_Filter.c **** *
1660:Generated_Source\PSoC6/CapSense_Filter.c **** * \return   Returns the median value of input arguments.
1661:Generated_Source\PSoC6/CapSense_Filter.c **** *
1662:Generated_Source\PSoC6/CapSense_Filter.c **** *******************************************************************************/
1663:Generated_Source\PSoC6/CapSense_Filter.c **** uint32 CapSense_FtMedian(uint32 x1, uint32 x2, uint32 x3)
1664:Generated_Source\PSoC6/CapSense_Filter.c **** {
 1008              		.loc 1 1664 0
 1009              		.cfi_startproc
 1010              		@ args = 0, pretend = 0, frame = 0
 1011              		@ frame_needed = 0, uses_anonymous_args = 0
 1012              		@ link register save eliminated.
 1013              	.LVL130:
1665:Generated_Source\PSoC6/CapSense_Filter.c ****     uint32 tmp;
1666:Generated_Source\PSoC6/CapSense_Filter.c **** 
1667:Generated_Source\PSoC6/CapSense_Filter.c ****     if (x1 > x2)
 1014              		.loc 1 1667 0
 1015 0000 8842     		cmp	r0, r1
 1016 0002 02D9     		bls	.L60
 1017 0004 0300     		movs	r3, r0
1668:Generated_Source\PSoC6/CapSense_Filter.c ****     {
1669:Generated_Source\PSoC6/CapSense_Filter.c ****         tmp = x2;
1670:Generated_Source\PSoC6/CapSense_Filter.c ****         x2 = x1;
1671:Generated_Source\PSoC6/CapSense_Filter.c ****         x1 = tmp;
 1018              		.loc 1 1671 0
 1019 0006 0800     		movs	r0, r1
 1020              	.LVL131:
1670:Generated_Source\PSoC6/CapSense_Filter.c ****         x1 = tmp;
 1021              		.loc 1 1670 0
 1022 0008 1900     		movs	r1, r3
 1023              	.LVL132:
 1024              	.L60:
1672:Generated_Source\PSoC6/CapSense_Filter.c ****     }
1673:Generated_Source\PSoC6/CapSense_Filter.c **** 
1674:Generated_Source\PSoC6/CapSense_Filter.c ****     if (x2 > x3)
 1025              		.loc 1 1674 0
 1026 000a 9142     		cmp	r1, r2
ARM GAS  C:\Users\codyg\AppData\Local\Temp\ccRbtLKH.s 			page 50


 1027 000c 00D9     		bls	.L61
1675:Generated_Source\PSoC6/CapSense_Filter.c ****     {
1676:Generated_Source\PSoC6/CapSense_Filter.c ****         x2 = x3;
 1028              		.loc 1 1676 0
 1029 000e 1100     		movs	r1, r2
 1030              	.LVL133:
 1031              	.L61:
1677:Generated_Source\PSoC6/CapSense_Filter.c ****     }
1678:Generated_Source\PSoC6/CapSense_Filter.c **** 
1679:Generated_Source\PSoC6/CapSense_Filter.c ****     return ((x1 > x2) ? x1 : x2);
 1032              		.loc 1 1679 0
 1033 0010 8842     		cmp	r0, r1
 1034 0012 00D2     		bcs	.L62
 1035 0014 0800     		movs	r0, r1
 1036              	.LVL134:
 1037              	.L62:
1680:Generated_Source\PSoC6/CapSense_Filter.c **** }
 1038              		.loc 1 1680 0
 1039              		@ sp needed
 1040 0016 7047     		bx	lr
 1041              		.cfi_endproc
 1042              	.LFE62:
 1043              		.size	CapSense_FtMedian, .-CapSense_FtMedian
 1044              		.section	.text.CapSense_RunMedianInternal,"ax",%progbits
 1045              		.align	2
 1046              		.global	CapSense_RunMedianInternal
 1047              		.code	16
 1048              		.thumb_func
 1049              		.type	CapSense_RunMedianInternal, %function
 1050              	CapSense_RunMedianInternal:
 1051              	.LFB55:
1067:Generated_Source\PSoC6/CapSense_Filter.c ****     uint32 freqChannel;
 1052              		.loc 1 1067 0
 1053              		.cfi_startproc
 1054              		@ args = 0, pretend = 0, frame = 8
 1055              		@ frame_needed = 0, uses_anonymous_args = 0
 1056              	.LVL135:
 1057 0000 F0B5     		push	{r4, r5, r6, r7, lr}
 1058              		.cfi_def_cfa_offset 20
 1059              		.cfi_offset 4, -20
 1060              		.cfi_offset 5, -16
 1061              		.cfi_offset 6, -12
 1062              		.cfi_offset 7, -8
 1063              		.cfi_offset 14, -4
 1064 0002 5746     		mov	r7, r10
 1065 0004 4E46     		mov	r6, r9
 1066 0006 C0B4     		push	{r6, r7}
 1067              		.cfi_def_cfa_offset 28
 1068              		.cfi_offset 9, -28
 1069              		.cfi_offset 10, -24
 1070 0008 83B0     		sub	sp, sp, #12
 1071              		.cfi_def_cfa_offset 40
 1072 000a 0190     		str	r0, [sp, #4]
 1073 000c 0C00     		movs	r4, r1
 1074 000e 1700     		movs	r7, r2
 1075              	.LVL136:
1075:Generated_Source\PSoC6/CapSense_Filter.c ****     {
ARM GAS  C:\Users\codyg\AppData\Local\Temp\ccRbtLKH.s 			page 51


 1076              		.loc 1 1075 0
 1077 0010 0123     		movs	r3, #1
 1078 0012 19E0     		b	.L66
 1079              	.LVL137:
 1080              	.L68:
1077:Generated_Source\PSoC6/CapSense_Filter.c ****         {
 1081              		.loc 1 1077 0
 1082 0014 FF23     		movs	r3, #255
 1083 0016 3B40     		ands	r3, r7
 1084 0018 062B     		cmp	r3, #6
 1085 001a 14D1     		bne	.L67
1092:Generated_Source\PSoC6/CapSense_Filter.c ****                                                  (uint32)ptrFilterHistObj.ptrProx->proxChannel[freq
 1086              		.loc 1 1092 0
 1087 001c 6B00     		lsls	r3, r5, #1
 1088 001e 9A46     		mov	r10, r3
 1089 0020 185B     		ldrh	r0, [r3, r4]
 1090              	.LVL138:
1093:Generated_Source\PSoC6/CapSense_Filter.c ****                                                  (uint32)ptrFilterHistObj.ptrProx->proxChannel[freq
 1091              		.loc 1 1093 0
 1092 0022 5B19     		adds	r3, r3, r5
 1093 0024 9E00     		lsls	r6, r3, #2
 1094 0026 019B     		ldr	r3, [sp, #4]
 1095              	.LVL139:
 1096 0028 9C46     		mov	ip, r3
 1097 002a 6644     		add	r6, r6, ip
 1098 002c 7388     		ldrh	r3, [r6, #2]
 1099              	.LVL140:
 1100 002e 9946     		mov	r9, r3
1094:Generated_Source\PSoC6/CapSense_Filter.c ****                 ptrFilterHistObj.ptrProx->proxChannel[freqChannel].medHistory[1u] = \
 1101              		.loc 1 1094 0
 1102 0030 B288     		ldrh	r2, [r6, #4]
1092:Generated_Source\PSoC6/CapSense_Filter.c ****                                                  (uint32)ptrFilterHistObj.ptrProx->proxChannel[freq
 1103              		.loc 1 1092 0
 1104 0032 1900     		movs	r1, r3
 1105 0034 FFF7FEFF 		bl	CapSense_FtMedian
 1106              	.LVL141:
1095:Generated_Source\PSoC6/CapSense_Filter.c ****                 ptrFilterHistObj.ptrProx->proxChannel[freqChannel].medHistory[0u];
 1107              		.loc 1 1095 0
 1108 0038 4B46     		mov	r3, r9
 1109 003a B380     		strh	r3, [r6, #4]
1097:Generated_Source\PSoC6/CapSense_Filter.c ****                 ptrSensorObj->raw[freqChannel] = CY_LO16(temp);
 1110              		.loc 1 1097 0
 1111 003c 5346     		mov	r3, r10
 1112 003e 1B5B     		ldrh	r3, [r3, r4]
 1113 0040 7380     		strh	r3, [r6, #2]
1098:Generated_Source\PSoC6/CapSense_Filter.c ****             #endif /* (CapSense_PROXIMITY_SENSOR_EN) */
 1114              		.loc 1 1098 0
 1115 0042 5346     		mov	r3, r10
 1116 0044 E052     		strh	r0, [r4, r3]
 1117              	.LVL142:
 1118              	.L67:
1067:Generated_Source\PSoC6/CapSense_Filter.c ****     uint32 freqChannel;
 1119              		.loc 1 1067 0 discriminator 1
 1120 0046 2B00     		movs	r3, r5
 1121              	.LVL143:
 1122              	.L66:
1075:Generated_Source\PSoC6/CapSense_Filter.c ****     {
ARM GAS  C:\Users\codyg\AppData\Local\Temp\ccRbtLKH.s 			page 52


 1123              		.loc 1 1075 0 discriminator 1
 1124 0048 5D1E     		subs	r5, r3, #1
 1125              	.LVL144:
 1126 004a 002B     		cmp	r3, #0
 1127 004c E2D1     		bne	.L68
1102:Generated_Source\PSoC6/CapSense_Filter.c **** #endif /* (CapSense_REGULAR_RC_MEDIAN_FILTER_EN || CapSense_PROX_RC_MEDIAN_FILTER_EN) */
 1128              		.loc 1 1102 0
 1129 004e 03B0     		add	sp, sp, #12
 1130              		@ sp needed
 1131              	.LVL145:
 1132              	.LVL146:
 1133              	.LVL147:
 1134 0050 0CBC     		pop	{r2, r3}
 1135 0052 9146     		mov	r9, r2
 1136 0054 9A46     		mov	r10, r3
 1137 0056 F0BD     		pop	{r4, r5, r6, r7, pc}
 1138              		.cfi_endproc
 1139              	.LFE55:
 1140              		.size	CapSense_RunMedianInternal, .-CapSense_RunMedianInternal
 1141              		.section	.text.CapSense_RunMedian,"ax",%progbits
 1142              		.align	2
 1143              		.global	CapSense_RunMedian
 1144              		.code	16
 1145              		.thumb_func
 1146              		.type	CapSense_RunMedian, %function
 1147              	CapSense_RunMedian:
 1148              	.LFB53:
 985:Generated_Source\PSoC6/CapSense_Filter.c ****     CapSense_FLASH_WD_STRUCT const *ptrWidget = &CapSense_dsFlash.wdgtArray[widgetId];
 1149              		.loc 1 985 0
 1150              		.cfi_startproc
 1151              		@ args = 0, pretend = 0, frame = 0
 1152              		@ frame_needed = 0, uses_anonymous_args = 0
 1153              	.LVL148:
 1154 0000 F8B5     		push	{r3, r4, r5, r6, r7, lr}
 1155              		.cfi_def_cfa_offset 24
 1156              		.cfi_offset 3, -24
 1157              		.cfi_offset 4, -20
 1158              		.cfi_offset 5, -16
 1159              		.cfi_offset 6, -12
 1160              		.cfi_offset 7, -8
 1161              		.cfi_offset 14, -4
 1162              	.LVL149:
 991:Generated_Source\PSoC6/CapSense_Filter.c ****     ptrSensor = &ptrSensor[sensorId];
 1163              		.loc 1 991 0
 1164 0002 0E4E     		ldr	r6, .L71
 1165 0004 C300     		lsls	r3, r0, #3
 1166 0006 1C1A     		subs	r4, r3, r0
 1167 0008 A200     		lsls	r2, r4, #2
 1168 000a B218     		adds	r2, r6, r2
 1169              	.LVL150:
 992:Generated_Source\PSoC6/CapSense_Filter.c **** 
 1170              		.loc 1 992 0
 1171 000c 8C00     		lsls	r4, r1, #2
 1172 000e 6418     		adds	r4, r4, r1
 1173 0010 6500     		lsls	r5, r4, #1
 1174 0012 9468     		ldr	r4, [r2, #8]
 1175 0014 A446     		mov	ip, r4
ARM GAS  C:\Users\codyg\AppData\Local\Temp\ccRbtLKH.s 			page 53


 1176 0016 6544     		add	r5, r5, ip
 1177              	.LVL151:
 995:Generated_Source\PSoC6/CapSense_Filter.c **** 
 1178              		.loc 1 995 0
 1179 0018 D768     		ldr	r7, [r2, #12]
 1180 001a 3C00     		movs	r4, r7
 1181              	.LVL152:
 997:Generated_Source\PSoC6/CapSense_Filter.c ****     {
 1182              		.loc 1 997 0
 1183 001c 1B1A     		subs	r3, r3, r0
 1184 001e 9A00     		lsls	r2, r3, #2
 1185 0020 B218     		adds	r2, r6, r2
 1186 0022 927E     		ldrb	r2, [r2, #26]
 1187 0024 062A     		cmp	r2, #6
 1188 0026 03D1     		bne	.L70
1006:Generated_Source\PSoC6/CapSense_Filter.c ****         #endif /* (CapSense_PROXIMITY_SENSOR_EN) */
 1189              		.loc 1 1006 0
 1190 0028 4B00     		lsls	r3, r1, #1
 1191 002a 5B18     		adds	r3, r3, r1
 1192 002c 9C00     		lsls	r4, r3, #2
 1193 002e 3C19     		adds	r4, r7, r4
 1194              	.L70:
1010:Generated_Source\PSoC6/CapSense_Filter.c **** }
 1195              		.loc 1 1010 0
 1196 0030 2900     		movs	r1, r5
 1197              	.LVL153:
 1198 0032 2000     		movs	r0, r4
 1199              	.LVL154:
 1200 0034 FFF7FEFF 		bl	CapSense_RunMedianInternal
 1201              	.LVL155:
1011:Generated_Source\PSoC6/CapSense_Filter.c **** 
 1202              		.loc 1 1011 0
 1203              		@ sp needed
 1204              	.LVL156:
 1205              	.LVL157:
 1206              	.LVL158:
 1207 0038 F8BD     		pop	{r3, r4, r5, r6, r7, pc}
 1208              	.L72:
 1209 003a C046     		.align	2
 1210              	.L71:
 1211 003c 00000000 		.word	CapSense_dsFlash
 1212              		.cfi_endproc
 1213              	.LFE53:
 1214              		.size	CapSense_RunMedian, .-CapSense_RunMedian
 1215              		.section	.text.CapSense_FtIIR1stOrder,"ax",%progbits
 1216              		.align	2
 1217              		.global	CapSense_FtIIR1stOrder
 1218              		.code	16
 1219              		.thumb_func
 1220              		.type	CapSense_FtIIR1stOrder, %function
 1221              	CapSense_FtIIR1stOrder:
 1222              	.LFB63:
1681:Generated_Source\PSoC6/CapSense_Filter.c **** #endif /*CapSense_POS_MEDIAN_FILTER_EN || CapSense_REGULAR_RC_MEDIAN_FILTER_EN || CapSense_PROX_RC_
1682:Generated_Source\PSoC6/CapSense_Filter.c **** 
1683:Generated_Source\PSoC6/CapSense_Filter.c **** 
1684:Generated_Source\PSoC6/CapSense_Filter.c **** /*******************************************************************************
1685:Generated_Source\PSoC6/CapSense_Filter.c **** * Function Name: CapSense_FtIIR1stOrder
ARM GAS  C:\Users\codyg\AppData\Local\Temp\ccRbtLKH.s 			page 54


1686:Generated_Source\PSoC6/CapSense_Filter.c **** ****************************************************************************//**
1687:Generated_Source\PSoC6/CapSense_Filter.c **** *
1688:Generated_Source\PSoC6/CapSense_Filter.c **** * \brief    Return the filtered data by the IIR 1-st order algorithm
1689:Generated_Source\PSoC6/CapSense_Filter.c **** *
1690:Generated_Source\PSoC6/CapSense_Filter.c **** * \details  Return the filtered data by the IIR 1-st order algorithm
1691:Generated_Source\PSoC6/CapSense_Filter.c **** *
1692:Generated_Source\PSoC6/CapSense_Filter.c **** * \param    input      The data to be filtered.
1693:Generated_Source\PSoC6/CapSense_Filter.c **** * \param    prevOutput The previous filtered data.
1694:Generated_Source\PSoC6/CapSense_Filter.c **** * \param    n          The IIR filter coefficient (n/256).
1695:Generated_Source\PSoC6/CapSense_Filter.c **** * \param    shift      The parameter is used to shift input data to have free LSB
1696:Generated_Source\PSoC6/CapSense_Filter.c **** *                       bits for a fraction storage of the filter output calculation.
1697:Generated_Source\PSoC6/CapSense_Filter.c **** *
1698:Generated_Source\PSoC6/CapSense_Filter.c **** * \return   Returns the filtered data.
1699:Generated_Source\PSoC6/CapSense_Filter.c **** *
1700:Generated_Source\PSoC6/CapSense_Filter.c **** *******************************************************************************/
1701:Generated_Source\PSoC6/CapSense_Filter.c **** uint32 CapSense_FtIIR1stOrder(uint32 input, uint32 prevOutput, uint32 n, uint32 shift)
1702:Generated_Source\PSoC6/CapSense_Filter.c **** {
 1223              		.loc 1 1702 0
 1224              		.cfi_startproc
 1225              		@ args = 0, pretend = 0, frame = 0
 1226              		@ frame_needed = 0, uses_anonymous_args = 0
 1227              		@ link register save eliminated.
 1228              	.LVL159:
1703:Generated_Source\PSoC6/CapSense_Filter.c ****     uint32 filteredOutput;
1704:Generated_Source\PSoC6/CapSense_Filter.c **** 
1705:Generated_Source\PSoC6/CapSense_Filter.c ****     /*
1706:Generated_Source\PSoC6/CapSense_Filter.c ****     * n - IIR filter coefficient (n/256)
1707:Generated_Source\PSoC6/CapSense_Filter.c ****     * shift - Used to shift input data to have free LSB bits
1708:Generated_Source\PSoC6/CapSense_Filter.c ****     * for fraction storage of filter output calculation
1709:Generated_Source\PSoC6/CapSense_Filter.c ****     */
1710:Generated_Source\PSoC6/CapSense_Filter.c ****     filteredOutput = ((n * (input << shift)) + ((CapSense_IIR_COEFFICIENT_K - n) * prevOutput)) >> 
 1229              		.loc 1 1710 0
 1230 0000 9840     		lsls	r0, r0, r3
 1231              	.LVL160:
 1232 0002 5043     		muls	r0, r2
 1233 0004 8023     		movs	r3, #128
 1234              	.LVL161:
 1235 0006 5B00     		lsls	r3, r3, #1
 1236 0008 9A1A     		subs	r2, r3, r2
 1237              	.LVL162:
 1238 000a 5143     		muls	r1, r2
 1239              	.LVL163:
 1240 000c 4018     		adds	r0, r0, r1
 1241 000e 000A     		lsrs	r0, r0, #8
 1242              	.LVL164:
1711:Generated_Source\PSoC6/CapSense_Filter.c **** 
1712:Generated_Source\PSoC6/CapSense_Filter.c ****     /* Shift operation of output will be done in upper level API if needed */
1713:Generated_Source\PSoC6/CapSense_Filter.c ****     return filteredOutput;
1714:Generated_Source\PSoC6/CapSense_Filter.c **** }
 1243              		.loc 1 1714 0
 1244              		@ sp needed
 1245 0010 7047     		bx	lr
 1246              		.cfi_endproc
 1247              	.LFE63:
 1248              		.size	CapSense_FtIIR1stOrder, .-CapSense_FtIIR1stOrder
 1249 0012 C046     		.section	.text.CapSense_FtUpdateBaseline,"ax",%progbits
 1250              		.align	2
ARM GAS  C:\Users\codyg\AppData\Local\Temp\ccRbtLKH.s 			page 55


 1251              		.global	CapSense_FtUpdateBaseline
 1252              		.code	16
 1253              		.thumb_func
 1254              		.type	CapSense_FtUpdateBaseline, %function
 1255              	CapSense_FtUpdateBaseline:
 1256              	.LFB40:
 259:Generated_Source\PSoC6/CapSense_Filter.c ****     uint32 sign;
 1257              		.loc 1 259 0
 1258              		.cfi_startproc
 1259              		@ args = 0, pretend = 0, frame = 8
 1260              		@ frame_needed = 0, uses_anonymous_args = 0
 1261              	.LVL165:
 1262 0000 F0B5     		push	{r4, r5, r6, r7, lr}
 1263              		.cfi_def_cfa_offset 20
 1264              		.cfi_offset 4, -20
 1265              		.cfi_offset 5, -16
 1266              		.cfi_offset 6, -12
 1267              		.cfi_offset 7, -8
 1268              		.cfi_offset 14, -4
 1269 0002 4746     		mov	r7, r8
 1270 0004 80B4     		push	{r7}
 1271              		.cfi_def_cfa_offset 24
 1272              		.cfi_offset 8, -24
 1273 0006 82B0     		sub	sp, sp, #8
 1274              		.cfi_def_cfa_offset 32
 1275 0008 0700     		movs	r7, r0
 1276 000a 0E00     		movs	r6, r1
 1277 000c 0192     		str	r2, [sp, #4]
 1278              	.LVL166:
 271:Generated_Source\PSoC6/CapSense_Filter.c ****     {
 1279              		.loc 1 271 0
 1280 000e 0123     		movs	r3, #1
 1281 0010 3EE0     		b	.L75
 1282              	.LVL167:
 1283              	.L82:
 283:Generated_Source\PSoC6/CapSense_Filter.c ****         {
 1284              		.loc 1 283 0
 1285 0012 6300     		lsls	r3, r4, #1
 1286 0014 985B     		ldrh	r0, [r3, r6]
 1287 0016 F318     		adds	r3, r6, r3
 1288 0018 5988     		ldrh	r1, [r3, #2]
 1289 001a 8842     		cmp	r0, r1
 1290 001c 05D3     		bcc	.L76
 285:Generated_Source\PSoC6/CapSense_Filter.c ****             sign = 1u;
 1291              		.loc 1 285 0
 1292 001e 431A     		subs	r3, r0, r1
 1293              	.LVL168:
 287:Generated_Source\PSoC6/CapSense_Filter.c ****         }
 1294              		.loc 1 287 0
 1295 0020 3219     		adds	r2, r6, r4
 1296 0022 0025     		movs	r5, #0
 1297 0024 1572     		strb	r5, [r2, #8]
 286:Generated_Source\PSoC6/CapSense_Filter.c ****             ptrSensor->negBslnRstCnt[freqChannel] = 0u;
 1298              		.loc 1 286 0
 1299 0026 0122     		movs	r2, #1
 1300 0028 01E0     		b	.L77
 1301              	.LVL169:
ARM GAS  C:\Users\codyg\AppData\Local\Temp\ccRbtLKH.s 			page 56


 1302              	.L76:
 291:Generated_Source\PSoC6/CapSense_Filter.c ****             sign = 0u;
 1303              		.loc 1 291 0
 1304 002a 0B1A     		subs	r3, r1, r0
 1305              	.LVL170:
 292:Generated_Source\PSoC6/CapSense_Filter.c ****         }
 1306              		.loc 1 292 0
 1307 002c 0022     		movs	r2, #0
 1308              	.LVL171:
 1309              	.L77:
 296:Generated_Source\PSoC6/CapSense_Filter.c ****         {
 1310              		.loc 1 296 0
 1311 002e 002A     		cmp	r2, #0
 1312 0030 11D1     		bne	.L78
 296:Generated_Source\PSoC6/CapSense_Filter.c ****         {
 1313              		.loc 1 296 0 is_stmt 0 discriminator 1
 1314 0032 7D79     		ldrb	r5, [r7, #5]
 1315 0034 AB42     		cmp	r3, r5
 1316 0036 0ED9     		bls	.L78
 298:Generated_Source\PSoC6/CapSense_Filter.c ****             {
 1317              		.loc 1 298 0 is_stmt 1
 1318 0038 3319     		adds	r3, r6, r4
 1319              	.LVL172:
 1320 003a 1B7A     		ldrb	r3, [r3, #8]
 1321 003c 3A7A     		ldrb	r2, [r7, #8]
 1322              	.LVL173:
 1323 003e 9342     		cmp	r3, r2
 1324 0040 05D3     		bcc	.L79
 300:Generated_Source\PSoC6/CapSense_Filter.c ****             }
 1325              		.loc 1 300 0
 1326 0042 2200     		movs	r2, r4
 1327 0044 0199     		ldr	r1, [sp, #4]
 1328 0046 3000     		movs	r0, r6
 1329 0048 FFF7FEFF 		bl	CapSense_FtInitializeBaselineChannel
 1330              	.LVL174:
 1331 004c 1FE0     		b	.L80
 1332              	.L79:
 304:Generated_Source\PSoC6/CapSense_Filter.c ****             }
 1333              		.loc 1 304 0
 1334 004e 3219     		adds	r2, r6, r4
 1335 0050 0133     		adds	r3, r3, #1
 1336 0052 1372     		strb	r3, [r2, #8]
 1337 0054 1BE0     		b	.L80
 1338              	.LVL175:
 1339              	.L78:
 311:Generated_Source\PSoC6/CapSense_Filter.c ****                     ((difference < (uint32) ptrWidgetRam->nNoiseTh) && (sign == 0u)))
 1340              		.loc 1 311 0
 1341 0056 3D79     		ldrb	r5, [r7, #4]
 1342 0058 AB42     		cmp	r3, r5
 1343 005a 04D9     		bls	.L81
 312:Generated_Source\PSoC6/CapSense_Filter.c ****                 {
 1344              		.loc 1 312 0 discriminator 1
 1345 005c 7D79     		ldrb	r5, [r7, #5]
 311:Generated_Source\PSoC6/CapSense_Filter.c ****                     ((difference < (uint32) ptrWidgetRam->nNoiseTh) && (sign == 0u)))
 1346              		.loc 1 311 0 discriminator 1
 1347 005e AB42     		cmp	r3, r5
 1348 0060 15D2     		bcs	.L80
ARM GAS  C:\Users\codyg\AppData\Local\Temp\ccRbtLKH.s 			page 57


 312:Generated_Source\PSoC6/CapSense_Filter.c ****                 {
 1349              		.loc 1 312 0
 1350 0062 002A     		cmp	r2, #0
 1351 0064 13D1     		bne	.L80
 1352              	.L81:
 318:Generated_Source\PSoC6/CapSense_Filter.c ****                 {
 1353              		.loc 1 318 0
 1354 0066 FF23     		movs	r3, #255
 1355              	.LVL176:
 1356 0068 019A     		ldr	r2, [sp, #4]
 1357              	.LVL177:
 1358 006a 1340     		ands	r3, r2
 1359 006c 062B     		cmp	r3, #6
 1360 006e 0ED1     		bne	.L80
 351:Generated_Source\PSoC6/CapSense_Filter.c ****                             history |= ptrSensor->bslnExt[freqChannel];
 1361              		.loc 1 351 0
 1362 0070 0902     		lsls	r1, r1, #8
 1363              	.LVL178:
 352:Generated_Source\PSoC6/CapSense_Filter.c ****                         #else
 1364              		.loc 1 352 0
 1365 0072 3319     		adds	r3, r6, r4
 1366 0074 9846     		mov	r8, r3
 1367 0076 1B79     		ldrb	r3, [r3, #4]
 1368 0078 1943     		orrs	r1, r3
 1369              	.LVL179:
 363:Generated_Source\PSoC6/CapSense_Filter.c ****                                         (uint32)ptrSensor->raw[freqChannel],
 1370              		.loc 1 363 0
 1371 007a 0823     		movs	r3, #8
 1372 007c 0122     		movs	r2, #1
 1373 007e FFF7FEFF 		bl	CapSense_FtIIR1stOrder
 1374              	.LVL180:
 369:Generated_Source\PSoC6/CapSense_Filter.c ****                                     ptrSensor->bslnExt[freqChannel] = CY_LO8(history);
 1375              		.loc 1 369 0
 1376 0082 020A     		lsrs	r2, r0, #8
 1377 0084 6300     		lsls	r3, r4, #1
 1378 0086 F318     		adds	r3, r6, r3
 1379 0088 5A80     		strh	r2, [r3, #2]
 370:Generated_Source\PSoC6/CapSense_Filter.c ****                         #else
 1380              		.loc 1 370 0
 1381 008a 4346     		mov	r3, r8
 1382 008c 1871     		strb	r0, [r3, #4]
 1383              	.LVL181:
 1384              	.L80:
 1385 008e 2300     		movs	r3, r4
 1386              	.LVL182:
 1387              	.L75:
 271:Generated_Source\PSoC6/CapSense_Filter.c ****     {
 1388              		.loc 1 271 0 discriminator 1
 1389 0090 5C1E     		subs	r4, r3, #1
 1390              	.LVL183:
 1391 0092 002B     		cmp	r3, #0
 1392 0094 BDD1     		bne	.L82
 398:Generated_Source\PSoC6/CapSense_Filter.c **** 
 1393              		.loc 1 398 0
 1394 0096 0020     		movs	r0, #0
 1395 0098 02B0     		add	sp, sp, #8
 1396              		@ sp needed
ARM GAS  C:\Users\codyg\AppData\Local\Temp\ccRbtLKH.s 			page 58


 1397              	.LVL184:
 1398              	.LVL185:
 1399              	.LVL186:
 1400 009a 04BC     		pop	{r2}
 1401 009c 9046     		mov	r8, r2
 1402 009e F0BD     		pop	{r4, r5, r6, r7, pc}
 1403              		.cfi_endproc
 1404              	.LFE40:
 1405              		.size	CapSense_FtUpdateBaseline, .-CapSense_FtUpdateBaseline
 1406              		.section	.text.CapSense_UpdateSensorBaseline,"ax",%progbits
 1407              		.align	2
 1408              		.global	CapSense_UpdateSensorBaseline
 1409              		.code	16
 1410              		.thumb_func
 1411              		.type	CapSense_UpdateSensorBaseline, %function
 1412              	CapSense_UpdateSensorBaseline:
 1413              	.LFB39:
 201:Generated_Source\PSoC6/CapSense_Filter.c ****     uint32 result = CY_RET_SUCCESS;
 1414              		.loc 1 201 0
 1415              		.cfi_startproc
 1416              		@ args = 0, pretend = 0, frame = 0
 1417              		@ frame_needed = 0, uses_anonymous_args = 0
 1418              	.LVL187:
 1419 0000 70B5     		push	{r4, r5, r6, lr}
 1420              		.cfi_def_cfa_offset 16
 1421              		.cfi_offset 4, -16
 1422              		.cfi_offset 5, -12
 1423              		.cfi_offset 6, -8
 1424              		.cfi_offset 14, -4
 1425              	.LVL188:
 206:Generated_Source\PSoC6/CapSense_Filter.c **** 
 1426              		.loc 1 206 0
 1427 0002 094D     		ldr	r5, .L84
 1428 0004 C300     		lsls	r3, r0, #3
 1429 0006 1C1A     		subs	r4, r3, r0
 1430 0008 A200     		lsls	r2, r4, #2
 1431 000a AA18     		adds	r2, r5, r2
 1432 000c 5468     		ldr	r4, [r2, #4]
 1433              	.LVL189:
 209:Generated_Source\PSoC6/CapSense_Filter.c ****     ptrSensor = &ptrSensor[sensorId];
 1434              		.loc 1 209 0
 1435 000e 9668     		ldr	r6, [r2, #8]
 1436              	.LVL190:
 210:Generated_Source\PSoC6/CapSense_Filter.c ****     result = CapSense_FtUpdateBaseline(ptrWidgetRam, ptrSensor, (uint32)ptrWidget->wdgtType);
 1437              		.loc 1 210 0
 1438 0010 8A00     		lsls	r2, r1, #2
 1439 0012 5218     		adds	r2, r2, r1
 1440 0014 5100     		lsls	r1, r2, #1
 1441              	.LVL191:
 1442 0016 7118     		adds	r1, r6, r1
 1443              	.LVL192:
 211:Generated_Source\PSoC6/CapSense_Filter.c **** 
 1444              		.loc 1 211 0
 1445 0018 1B1A     		subs	r3, r3, r0
 1446 001a 9A00     		lsls	r2, r3, #2
 1447 001c AA18     		adds	r2, r5, r2
 1448 001e 927E     		ldrb	r2, [r2, #26]
ARM GAS  C:\Users\codyg\AppData\Local\Temp\ccRbtLKH.s 			page 59


 1449 0020 2000     		movs	r0, r4
 1450              	.LVL193:
 1451 0022 FFF7FEFF 		bl	CapSense_FtUpdateBaseline
 1452              	.LVL194:
 222:Generated_Source\PSoC6/CapSense_Filter.c **** 
 1453              		.loc 1 222 0
 1454              		@ sp needed
 1455              	.LVL195:
 1456              	.LVL196:
 1457              	.LVL197:
 1458 0026 70BD     		pop	{r4, r5, r6, pc}
 1459              	.L85:
 1460              		.align	2
 1461              	.L84:
 1462 0028 00000000 		.word	CapSense_dsFlash
 1463              		.cfi_endproc
 1464              	.LFE39:
 1465              		.size	CapSense_UpdateSensorBaseline, .-CapSense_UpdateSensorBaseline
 1466              		.section	.text.CapSense_UpdateWidgetBaseline,"ax",%progbits
 1467              		.align	2
 1468              		.global	CapSense_UpdateWidgetBaseline
 1469              		.code	16
 1470              		.thumb_func
 1471              		.type	CapSense_UpdateWidgetBaseline, %function
 1472              	CapSense_UpdateWidgetBaseline:
 1473              	.LFB38:
 144:Generated_Source\PSoC6/CapSense_Filter.c ****     uint32 sensorId;
 1474              		.loc 1 144 0
 1475              		.cfi_startproc
 1476              		@ args = 0, pretend = 0, frame = 0
 1477              		@ frame_needed = 0, uses_anonymous_args = 0
 1478              	.LVL198:
 1479 0000 70B5     		push	{r4, r5, r6, lr}
 1480              		.cfi_def_cfa_offset 16
 1481              		.cfi_offset 4, -16
 1482              		.cfi_offset 5, -12
 1483              		.cfi_offset 6, -8
 1484              		.cfi_offset 14, -4
 1485 0002 0600     		movs	r6, r0
 1486              	.LVL199:
 152:Generated_Source\PSoC6/CapSense_Filter.c **** 
 1487              		.loc 1 152 0
 1488 0004 C200     		lsls	r2, r0, #3
 1489 0006 121A     		subs	r2, r2, r0
 1490 0008 9300     		lsls	r3, r2, #2
 1491 000a 084A     		ldr	r2, .L89
 1492 000c D318     		adds	r3, r2, r3
 1493 000e 1B8B     		ldrh	r3, [r3, #24]
 1494              	.LVL200:
 149:Generated_Source\PSoC6/CapSense_Filter.c **** 
 1495              		.loc 1 149 0
 1496 0010 0025     		movs	r5, #0
 154:Generated_Source\PSoC6/CapSense_Filter.c ****     {
 1497              		.loc 1 154 0
 1498 0012 05E0     		b	.L87
 1499              	.LVL201:
 1500              	.L88:
ARM GAS  C:\Users\codyg\AppData\Local\Temp\ccRbtLKH.s 			page 60


 156:Generated_Source\PSoC6/CapSense_Filter.c ****     }
 1501              		.loc 1 156 0
 1502 0014 2100     		movs	r1, r4
 1503 0016 3000     		movs	r0, r6
 1504 0018 FFF7FEFF 		bl	CapSense_UpdateSensorBaseline
 1505              	.LVL202:
 1506 001c 0543     		orrs	r5, r0
 1507              	.LVL203:
 154:Generated_Source\PSoC6/CapSense_Filter.c ****     {
 1508              		.loc 1 154 0
 1509 001e 2300     		movs	r3, r4
 1510              	.LVL204:
 1511              	.L87:
 154:Generated_Source\PSoC6/CapSense_Filter.c ****     {
 1512              		.loc 1 154 0 is_stmt 0 discriminator 1
 1513 0020 5C1E     		subs	r4, r3, #1
 1514              	.LVL205:
 1515 0022 002B     		cmp	r3, #0
 1516 0024 F6D1     		bne	.L88
 160:Generated_Source\PSoC6/CapSense_Filter.c **** 
 1517              		.loc 1 160 0 is_stmt 1
 1518 0026 2800     		movs	r0, r5
 1519              		@ sp needed
 1520              	.LVL206:
 1521              	.LVL207:
 1522              	.LVL208:
 1523 0028 70BD     		pop	{r4, r5, r6, pc}
 1524              	.L90:
 1525 002a C046     		.align	2
 1526              	.L89:
 1527 002c 00000000 		.word	CapSense_dsFlash
 1528              		.cfi_endproc
 1529              	.LFE38:
 1530              		.size	CapSense_UpdateWidgetBaseline, .-CapSense_UpdateWidgetBaseline
 1531              		.section	.text.CapSense_UpdateAllBaselines,"ax",%progbits
 1532              		.align	2
 1533              		.global	CapSense_UpdateAllBaselines
 1534              		.code	16
 1535              		.thumb_func
 1536              		.type	CapSense_UpdateAllBaselines, %function
 1537              	CapSense_UpdateAllBaselines:
 1538              	.LFB37:
  99:Generated_Source\PSoC6/CapSense_Filter.c ****     uint32 widgetId;
 1539              		.loc 1 99 0
 1540              		.cfi_startproc
 1541              		@ args = 0, pretend = 0, frame = 0
 1542              		@ frame_needed = 0, uses_anonymous_args = 0
 1543 0000 70B5     		push	{r4, r5, r6, lr}
 1544              		.cfi_def_cfa_offset 16
 1545              		.cfi_offset 4, -16
 1546              		.cfi_offset 5, -12
 1547              		.cfi_offset 6, -8
 1548              		.cfi_offset 14, -4
 1549              	.LVL209:
 101:Generated_Source\PSoC6/CapSense_Filter.c **** 
 1550              		.loc 1 101 0
 1551 0002 0024     		movs	r4, #0
ARM GAS  C:\Users\codyg\AppData\Local\Temp\ccRbtLKH.s 			page 61


 103:Generated_Source\PSoC6/CapSense_Filter.c ****     {
 1552              		.loc 1 103 0
 1553 0004 0123     		movs	r3, #1
 1554 0006 04E0     		b	.L92
 1555              	.LVL210:
 1556              	.L93:
 105:Generated_Source\PSoC6/CapSense_Filter.c ****     }
 1557              		.loc 1 105 0
 1558 0008 2800     		movs	r0, r5
 1559 000a FFF7FEFF 		bl	CapSense_UpdateWidgetBaseline
 1560              	.LVL211:
 1561 000e 0443     		orrs	r4, r0
 1562              	.LVL212:
 103:Generated_Source\PSoC6/CapSense_Filter.c ****     {
 1563              		.loc 1 103 0
 1564 0010 2B00     		movs	r3, r5
 1565              	.LVL213:
 1566              	.L92:
 103:Generated_Source\PSoC6/CapSense_Filter.c ****     {
 1567              		.loc 1 103 0 is_stmt 0 discriminator 1
 1568 0012 5D1E     		subs	r5, r3, #1
 1569              	.LVL214:
 1570 0014 002B     		cmp	r3, #0
 1571 0016 F7D1     		bne	.L93
 109:Generated_Source\PSoC6/CapSense_Filter.c **** 
 1572              		.loc 1 109 0 is_stmt 1
 1573 0018 2000     		movs	r0, r4
 1574              		@ sp needed
 1575              	.LVL215:
 1576              	.LVL216:
 1577 001a 70BD     		pop	{r4, r5, r6, pc}
 1578              		.cfi_endproc
 1579              	.LFE37:
 1580              		.size	CapSense_UpdateAllBaselines, .-CapSense_UpdateAllBaselines
 1581              		.section	.text.CapSense_RunIIRInternal,"ax",%progbits
 1582              		.align	2
 1583              		.global	CapSense_RunIIRInternal
 1584              		.code	16
 1585              		.thumb_func
 1586              		.type	CapSense_RunIIRInternal, %function
 1587              	CapSense_RunIIRInternal:
 1588              	.LFB51:
 869:Generated_Source\PSoC6/CapSense_Filter.c ****     uint32 freqChannel;
 1589              		.loc 1 869 0
 1590              		.cfi_startproc
 1591              		@ args = 0, pretend = 0, frame = 8
 1592              		@ frame_needed = 0, uses_anonymous_args = 0
 1593              	.LVL217:
 1594 0000 F0B5     		push	{r4, r5, r6, r7, lr}
 1595              		.cfi_def_cfa_offset 20
 1596              		.cfi_offset 4, -20
 1597              		.cfi_offset 5, -16
 1598              		.cfi_offset 6, -12
 1599              		.cfi_offset 7, -8
 1600              		.cfi_offset 14, -4
 1601 0002 83B0     		sub	sp, sp, #12
 1602              		.cfi_def_cfa_offset 32
ARM GAS  C:\Users\codyg\AppData\Local\Temp\ccRbtLKH.s 			page 62


 1603 0004 0500     		movs	r5, r0
 1604 0006 0191     		str	r1, [sp, #4]
 1605 0008 1700     		movs	r7, r2
 1606              	.LVL218:
 873:Generated_Source\PSoC6/CapSense_Filter.c ****     {
 1607              		.loc 1 873 0
 1608 000a 0123     		movs	r3, #1
 1609 000c 14E0     		b	.L95
 1610              	.LVL219:
 1611              	.L97:
 875:Generated_Source\PSoC6/CapSense_Filter.c ****         {
 1612              		.loc 1 875 0
 1613 000e FF23     		movs	r3, #255
 1614 0010 3B40     		ands	r3, r7
 1615 0012 062B     		cmp	r3, #6
 1616 0014 0FD1     		bne	.L96
 912:Generated_Source\PSoC6/CapSense_Filter.c ****                                                         (uint32)ptrFilterHistObj.ptrProx->proxChann
 1617              		.loc 1 912 0
 1618 0016 7400     		lsls	r4, r6, #1
 1619 0018 019B     		ldr	r3, [sp, #4]
 1620 001a E05A     		ldrh	r0, [r4, r3]
 1621              	.LVL220:
 913:Generated_Source\PSoC6/CapSense_Filter.c ****                                                         CapSense_PROX_IIR_RC_N,
 1622              		.loc 1 913 0
 1623 001c A219     		adds	r2, r4, r6
 1624 001e 9300     		lsls	r3, r2, #2
 1625 0020 595B     		ldrh	r1, [r3, r5]
 912:Generated_Source\PSoC6/CapSense_Filter.c ****                                                         (uint32)ptrFilterHistObj.ptrProx->proxChann
 1626              		.loc 1 912 0
 1627 0022 0023     		movs	r3, #0
 1628 0024 8022     		movs	r2, #128
 1629 0026 FFF7FEFF 		bl	CapSense_FtIIR1stOrder
 1630              	.LVL221:
 916:Generated_Source\PSoC6/CapSense_Filter.c ****                     ptrSensorObj->raw[freqChannel] = CY_LO16(temp >>CapSense_PROX_IIR_RC_SHIFT);
 1631              		.loc 1 916 0
 1632 002a 80B2     		uxth	r0, r0
 1633              	.LVL222:
 1634 002c A219     		adds	r2, r4, r6
 1635 002e 9300     		lsls	r3, r2, #2
 1636 0030 5853     		strh	r0, [r3, r5]
 917:Generated_Source\PSoC6/CapSense_Filter.c ****                 #endif /* (CapSense_PROX_IIR_RC_TYPE == CapSense_IIR_FILTER_PERFORMANCE) */
 1637              		.loc 1 917 0
 1638 0032 019B     		ldr	r3, [sp, #4]
 1639 0034 E052     		strh	r0, [r4, r3]
 1640              	.L96:
 869:Generated_Source\PSoC6/CapSense_Filter.c ****     uint32 freqChannel;
 1641              		.loc 1 869 0 discriminator 1
 1642 0036 3300     		movs	r3, r6
 1643              	.LVL223:
 1644              	.L95:
 873:Generated_Source\PSoC6/CapSense_Filter.c ****     {
 1645              		.loc 1 873 0 discriminator 1
 1646 0038 5E1E     		subs	r6, r3, #1
 1647              	.LVL224:
 1648 003a 002B     		cmp	r3, #0
 1649 003c E7D1     		bne	.L97
 922:Generated_Source\PSoC6/CapSense_Filter.c **** #endif /* #if (CapSense_REGULAR_RC_IIR_FILTER_EN || CapSense_PROX_RC_IIR_FILTER_EN) */
ARM GAS  C:\Users\codyg\AppData\Local\Temp\ccRbtLKH.s 			page 63


 1650              		.loc 1 922 0
 1651 003e 03B0     		add	sp, sp, #12
 1652              		@ sp needed
 1653              	.LVL225:
 1654              	.LVL226:
 1655 0040 F0BD     		pop	{r4, r5, r6, r7, pc}
 1656              		.cfi_endproc
 1657              	.LFE51:
 1658              		.size	CapSense_RunIIRInternal, .-CapSense_RunIIRInternal
 1659 0042 C046     		.section	.text.CapSense_RunIIR,"ax",%progbits
 1660              		.align	2
 1661              		.global	CapSense_RunIIR
 1662              		.code	16
 1663              		.thumb_func
 1664              		.type	CapSense_RunIIR, %function
 1665              	CapSense_RunIIR:
 1666              	.LFB49:
 780:Generated_Source\PSoC6/CapSense_Filter.c ****     CapSense_FLASH_WD_STRUCT const *ptrWidget = &CapSense_dsFlash.wdgtArray[widgetId];
 1667              		.loc 1 780 0
 1668              		.cfi_startproc
 1669              		@ args = 0, pretend = 0, frame = 0
 1670              		@ frame_needed = 0, uses_anonymous_args = 0
 1671              	.LVL227:
 1672 0000 F8B5     		push	{r3, r4, r5, r6, r7, lr}
 1673              		.cfi_def_cfa_offset 24
 1674              		.cfi_offset 3, -24
 1675              		.cfi_offset 4, -20
 1676              		.cfi_offset 5, -16
 1677              		.cfi_offset 6, -12
 1678              		.cfi_offset 7, -8
 1679              		.cfi_offset 14, -4
 1680              	.LVL228:
 786:Generated_Source\PSoC6/CapSense_Filter.c ****     ptrSensor = &ptrSensor[sensorId];
 1681              		.loc 1 786 0
 1682 0002 0E4E     		ldr	r6, .L100
 1683 0004 C300     		lsls	r3, r0, #3
 1684 0006 1C1A     		subs	r4, r3, r0
 1685 0008 A200     		lsls	r2, r4, #2
 1686 000a B218     		adds	r2, r6, r2
 1687              	.LVL229:
 787:Generated_Source\PSoC6/CapSense_Filter.c **** 
 1688              		.loc 1 787 0
 1689 000c 8C00     		lsls	r4, r1, #2
 1690 000e 6418     		adds	r4, r4, r1
 1691 0010 6500     		lsls	r5, r4, #1
 1692 0012 9468     		ldr	r4, [r2, #8]
 1693 0014 A446     		mov	ip, r4
 1694 0016 6544     		add	r5, r5, ip
 1695              	.LVL230:
 790:Generated_Source\PSoC6/CapSense_Filter.c **** 
 1696              		.loc 1 790 0
 1697 0018 D768     		ldr	r7, [r2, #12]
 1698 001a 3C00     		movs	r4, r7
 1699              	.LVL231:
 792:Generated_Source\PSoC6/CapSense_Filter.c ****     {
 1700              		.loc 1 792 0
 1701 001c 1B1A     		subs	r3, r3, r0
ARM GAS  C:\Users\codyg\AppData\Local\Temp\ccRbtLKH.s 			page 64


 1702 001e 9A00     		lsls	r2, r3, #2
 1703 0020 B218     		adds	r2, r6, r2
 1704 0022 927E     		ldrb	r2, [r2, #26]
 1705 0024 062A     		cmp	r2, #6
 1706 0026 03D1     		bne	.L99
 801:Generated_Source\PSoC6/CapSense_Filter.c ****         #endif /* (CapSense_PROXIMITY_SENSOR_EN) */
 1707              		.loc 1 801 0
 1708 0028 4B00     		lsls	r3, r1, #1
 1709 002a 5B18     		adds	r3, r3, r1
 1710 002c 9C00     		lsls	r4, r3, #2
 1711 002e 3C19     		adds	r4, r7, r4
 1712              	.L99:
 805:Generated_Source\PSoC6/CapSense_Filter.c **** }
 1713              		.loc 1 805 0
 1714 0030 2900     		movs	r1, r5
 1715              	.LVL232:
 1716 0032 2000     		movs	r0, r4
 1717              	.LVL233:
 1718 0034 FFF7FEFF 		bl	CapSense_RunIIRInternal
 1719              	.LVL234:
 806:Generated_Source\PSoC6/CapSense_Filter.c **** 
 1720              		.loc 1 806 0
 1721              		@ sp needed
 1722              	.LVL235:
 1723              	.LVL236:
 1724              	.LVL237:
 1725 0038 F8BD     		pop	{r3, r4, r5, r6, r7, pc}
 1726              	.L101:
 1727 003a C046     		.align	2
 1728              	.L100:
 1729 003c 00000000 		.word	CapSense_dsFlash
 1730              		.cfi_endproc
 1731              	.LFE49:
 1732              		.size	CapSense_RunIIR, .-CapSense_RunIIR
 1733              		.section	.text.CapSense_FtRunEnabledFiltersInternal,"ax",%progbits
 1734              		.align	2
 1735              		.global	CapSense_FtRunEnabledFiltersInternal
 1736              		.code	16
 1737              		.thumb_func
 1738              		.type	CapSense_FtRunEnabledFiltersInternal, %function
 1739              	CapSense_FtRunEnabledFiltersInternal:
 1740              	.LFB61:
1565:Generated_Source\PSoC6/CapSense_Filter.c ****     #if (CapSense_REGULAR_RC_MEDIAN_FILTER_EN || CapSense_PROX_RC_MEDIAN_FILTER_EN)
 1741              		.loc 1 1565 0
 1742              		.cfi_startproc
 1743              		@ args = 0, pretend = 0, frame = 0
 1744              		@ frame_needed = 0, uses_anonymous_args = 0
 1745              	.LVL238:
 1746 0000 70B5     		push	{r4, r5, r6, lr}
 1747              		.cfi_def_cfa_offset 16
 1748              		.cfi_offset 4, -16
 1749              		.cfi_offset 5, -12
 1750              		.cfi_offset 6, -8
 1751              		.cfi_offset 14, -4
 1752 0002 0400     		movs	r4, r0
 1753 0004 0D00     		movs	r5, r1
 1754 0006 1600     		movs	r6, r2
ARM GAS  C:\Users\codyg\AppData\Local\Temp\ccRbtLKH.s 			page 65


1567:Generated_Source\PSoC6/CapSense_Filter.c ****     #endif /* (CapSense_REGULAR_RC_MEDIAN_FILTER_EN || CapSense_PROX_RC_MEDIAN_FILTER_EN) */
 1755              		.loc 1 1567 0
 1756 0008 FFF7FEFF 		bl	CapSense_RunMedianInternal
 1757              	.LVL239:
1571:Generated_Source\PSoC6/CapSense_Filter.c ****     #endif /* (CapSense_REGULAR_RC_IIR_FILTER_EN || CapSense_PROX_RC_IIR_FILTER_EN) */
 1758              		.loc 1 1571 0
 1759 000c 3200     		movs	r2, r6
 1760 000e 2900     		movs	r1, r5
 1761              	.LVL240:
 1762 0010 2000     		movs	r0, r4
 1763 0012 FFF7FEFF 		bl	CapSense_RunIIRInternal
 1764              	.LVL241:
1575:Generated_Source\PSoC6/CapSense_Filter.c ****     #endif /* (CapSense_REGULAR_RC_AVERAGE_FILTER_EN || CapSense_PROX_RC_AVERAGE_FILTER_EN) */
 1765              		.loc 1 1575 0
 1766 0016 3200     		movs	r2, r6
 1767 0018 2900     		movs	r1, r5
 1768 001a 2000     		movs	r0, r4
 1769 001c FFF7FEFF 		bl	CapSense_RunAverageInternal
 1770              	.LVL242:
1577:Generated_Source\PSoC6/CapSense_Filter.c **** #endif /* (CapSense_ENABLE == CapSense_RC_FILTER_EN) */
 1771              		.loc 1 1577 0
 1772              		@ sp needed
 1773              	.LVL243:
 1774              	.LVL244:
 1775              	.LVL245:
 1776 0020 70BD     		pop	{r4, r5, r6, pc}
 1777              		.cfi_endproc
 1778              	.LFE61:
 1779              		.size	CapSense_FtRunEnabledFiltersInternal, .-CapSense_FtRunEnabledFiltersInternal
 1780 0022 C046     		.section	.text.CapSense_FtRunEnabledFilters,"ax",%progbits
 1781              		.align	2
 1782              		.global	CapSense_FtRunEnabledFilters
 1783              		.code	16
 1784              		.thumb_func
 1785              		.type	CapSense_FtRunEnabledFilters, %function
 1786              	CapSense_FtRunEnabledFilters:
 1787              	.LFB60:
1514:Generated_Source\PSoC6/CapSense_Filter.c ****     CapSense_FLASH_WD_STRUCT const *ptrWidget = &CapSense_dsFlash.wdgtArray[widgetId];
 1788              		.loc 1 1514 0
 1789              		.cfi_startproc
 1790              		@ args = 0, pretend = 0, frame = 0
 1791              		@ frame_needed = 0, uses_anonymous_args = 0
 1792              	.LVL246:
 1793 0000 F8B5     		push	{r3, r4, r5, r6, r7, lr}
 1794              		.cfi_def_cfa_offset 24
 1795              		.cfi_offset 3, -24
 1796              		.cfi_offset 4, -20
 1797              		.cfi_offset 5, -16
 1798              		.cfi_offset 6, -12
 1799              		.cfi_offset 7, -8
 1800              		.cfi_offset 14, -4
 1801              	.LVL247:
