ARM GAS  C:\Users\codyg\AppData\Local\Temp\ccCSPxxQ.s 			page 1


   1              		.syntax unified
   2              		.cpu cortex-m4
   3              		.eabi_attribute 27, 1
   4              		.fpu fpv4-sp-d16
   5              		.eabi_attribute 20, 1
   6              		.eabi_attribute 21, 1
   7              		.eabi_attribute 23, 3
   8              		.eabi_attribute 24, 1
   9              		.eabi_attribute 25, 1
  10              		.eabi_attribute 26, 1
  11              		.eabi_attribute 30, 1
  12              		.eabi_attribute 34, 1
  13              		.eabi_attribute 18, 4
  14              		.thumb
  15              		.syntax unified
  16              		.file	"display_task.c"
  17              		.text
  18              	.Ltext0:
  19              		.cfi_sections	.debug_frame
  20              		.section	.text.DelayMs,"ax",%progbits
  21              		.align	2
  22              		.thumb
  23              		.thumb_func
  24              		.type	DelayMs, %function
  25              	DelayMs:
  26              	.LFB528:
  27              		.file 1 "display_task.c"
   1:display_task.c **** /******************************************************************************
   2:display_task.c **** * File Name: display_task.c
   3:display_task.c **** *
   4:display_task.c **** * Version: 1.00
   5:display_task.c **** *
   6:display_task.c **** * Description: This file contains the task that initializes the E-INK display
   7:display_task.c **** *              and show the instructions to use this code example at startup
   8:display_task.c **** *
   9:display_task.c **** * Related Document: CE218137_BLE_Proximity_RTOS.pdf
  10:display_task.c **** *
  11:display_task.c **** * Hardware Dependency: CY8CKIT-062-BLE PSoC 6 BLE Pioneer Kit
  12:display_task.c **** *                      CY8CKIT-028-EPD E-INK Display Shield
  13:display_task.c **** *
  14:display_task.c **** *******************************************************************************
  15:display_task.c **** * Copyright (2018), Cypress Semiconductor Corporation. All rights reserved.
  16:display_task.c **** *******************************************************************************
  17:display_task.c **** * This software, including source code, documentation and related materials
  18:display_task.c **** * (“Software”), is owned by Cypress Semiconductor Corporation or one of its
  19:display_task.c **** * subsidiaries (“Cypress”) and is protected by and subject to worldwide patent
  20:display_task.c **** * protection (United States and foreign), United States copyright laws and
  21:display_task.c **** * international treaty provisions. Therefore, you may use this Software only
  22:display_task.c **** * as provided in the license agreement accompanying the software package from
  23:display_task.c **** * which you obtained this Software (“EULA”).
  24:display_task.c **** *
  25:display_task.c **** * If no EULA applies, Cypress hereby grants you a personal, nonexclusive,
  26:display_task.c **** * non-transferable license to copy, modify, and compile the Software source
  27:display_task.c **** * code solely for use in connection with Cypress’s integrated circuit products.
  28:display_task.c **** * Any reproduction, modification, translation, compilation, or representation
  29:display_task.c **** * of this Software except as specified above is prohibited without the express
  30:display_task.c **** * written permission of Cypress.
ARM GAS  C:\Users\codyg\AppData\Local\Temp\ccCSPxxQ.s 			page 2


  31:display_task.c **** *
  32:display_task.c **** * Disclaimer: THIS SOFTWARE IS PROVIDED AS-IS, WITH NO WARRANTY OF ANY KIND, 
  33:display_task.c **** * EXPRESS OR IMPLIED, INCLUDING, BUT NOT LIMITED TO, NONINFRINGEMENT, IMPLIED 
  34:display_task.c **** * WARRANTIES OF MERCHANTABILITY AND FITNESS FOR A PARTICULAR PURPOSE. Cypress 
  35:display_task.c **** * reserves the right to make changes to the Software without notice. Cypress 
  36:display_task.c **** * does not assume any liability arising out of the application or use of the 
  37:display_task.c **** * Software or any product or circuit described in the Software. Cypress does 
  38:display_task.c **** * not authorize its products for use in any products where a malfunction or 
  39:display_task.c **** * failure of the Cypress product may reasonably be expected to result in 
  40:display_task.c **** * significant property damage, injury or death (“High Risk Product”). By 
  41:display_task.c **** * including Cypress’s product in a High Risk Product, the manufacturer of such 
  42:display_task.c **** * system or application assumes all risk of such use and in doing so agrees to 
  43:display_task.c **** * indemnify Cypress against all liability.
  44:display_task.c **** *******************************************************************************/
  45:display_task.c **** /******************************************************************************
  46:display_task.c **** * This file contains the task that initialize the E-INK display and show the
  47:display_task.c **** * instructions to use this code example at startup
  48:display_task.c **** *
  49:display_task.c **** * For the details of the E-INK display and library functions, see the code 
  50:display_task.c **** * example CE218133 - PSoC 6 MCU E-INK Display with CapSense
  51:display_task.c **** *******************************************************************************/
  52:display_task.c **** 
  53:display_task.c **** /* Header file includes */
  54:display_task.c **** #include "display_task.h"
  55:display_task.c **** #include "screen_contents.h"
  56:display_task.c **** #include "cy_eink_library.h"
  57:display_task.c **** #include "temperature_eink.h"
  58:display_task.c **** #include "uart_debug.h"
  59:display_task.c **** #include "FreeRTOS.h"
  60:display_task.c **** #include "task.h"  
  61:display_task.c **** 
  62:display_task.c **** /* Origin coordinates of text (instructions) */
  63:display_task.c **** #define INSTRUCTION_TEXT_ORIGIN {0x00u, 0x02u}
  64:display_task.c **** 
  65:display_task.c **** /* Function used to register the E-INK delay call back */
  66:display_task.c **** void static DelayMs(uint32_t delayInMs)  {vTaskDelay(pdMS_TO_TICKS(delayInMs));}
  28              		.loc 1 66 0
  29              		.cfi_startproc
  30              		@ args = 0, pretend = 0, frame = 0
  31              		@ frame_needed = 0, uses_anonymous_args = 0
  32              	.LVL0:
  33 0000 08B5     		push	{r3, lr}
  34              		.cfi_def_cfa_offset 8
  35              		.cfi_offset 3, -8
  36              		.cfi_offset 14, -4
  37              		.loc 1 66 0
  38 0002 4FF47A73 		mov	r3, #1000
  39 0006 03FB00F0 		mul	r0, r3, r0
  40              	.LVL1:
  41 000a 034B     		ldr	r3, .L3
  42 000c A3FB0030 		umull	r3, r0, r3, r0
  43 0010 8009     		lsrs	r0, r0, #6
  44 0012 FFF7FEFF 		bl	vTaskDelay
  45              	.LVL2:
  46 0016 08BD     		pop	{r3, pc}
  47              	.L4:
  48              		.align	2
ARM GAS  C:\Users\codyg\AppData\Local\Temp\ccCSPxxQ.s 			page 3


  49              	.L3:
  50 0018 D34D6210 		.word	274877907
  51              		.cfi_endproc
  52              	.LFE528:
  53              		.size	DelayMs, .-DelayMs
  54              		.section	.text.Task_Display,"ax",%progbits
  55              		.align	2
  56              		.global	Task_Display
  57              		.thumb
  58              		.thumb_func
  59              		.type	Task_Display, %function
  60              	Task_Display:
  61              	.LFB529:
  67:display_task.c **** 
  68:display_task.c **** /* Frame buffer used for combining text and images into one frame */
  69:display_task.c **** cy_eink_frame_t frameBuffer[CY_EINK_FRAME_SIZE];
  70:display_task.c **** 
  71:display_task.c **** /*******************************************************************************
  72:display_task.c **** * Task Name  : Task_Display
  73:display_task.c **** ********************************************************************************
  74:display_task.c **** *
  75:display_task.c **** * Summary:
  76:display_task.c **** *  This Task combines text and logo/heading images using a frame buffer and then
  77:display_task.c **** *  writes the frame buffer to the E-INK display to show the instructions to use
  78:display_task.c **** *  this code example. After displaying the instructions, the Task suspends
  79:display_task.c **** *  itself.
  80:display_task.c **** *
  81:display_task.c **** * Task Handle: None
  82:display_task.c **** *                                                    
  83:display_task.c **** *******************************************************************************/
  84:display_task.c **** void Task_Display (void *pvParameters)
  85:display_task.c **** {  
  62              		.loc 1 85 0
  63              		.cfi_startproc
  64              		@ args = 0, pretend = 0, frame = 16
  65              		@ frame_needed = 0, uses_anonymous_args = 0
  66              	.LVL3:
  67 0000 F0B5     		push	{r4, r5, r6, r7, lr}
  68              		.cfi_def_cfa_offset 20
  69              		.cfi_offset 4, -20
  70              		.cfi_offset 5, -16
  71              		.cfi_offset 6, -12
  72              		.cfi_offset 7, -8
  73              		.cfi_offset 14, -4
  74 0002 85B0     		sub	sp, sp, #20
  75              		.cfi_def_cfa_offset 40
  76              	.LVL4:
  86:display_task.c ****     /* Flag that indicates if the E-INK display has been detected */
  87:display_task.c ****     cy_eink_api_result displayDetected = CY_EINK_FAILURE;
  88:display_task.c ****     
  89:display_task.c ****     /* Local variable that stores the value of ambient temperature */
  90:display_task.c ****     int8_t ambientTemperature;
  91:display_task.c **** 
  92:display_task.c ****     /* Remove warning for unused parameter */
  93:display_task.c ****     (void)pvParameters ;
  94:display_task.c ****     
  95:display_task.c ****     /* Initialize the components used for temperature sensing */
ARM GAS  C:\Users\codyg\AppData\Local\Temp\ccCSPxxQ.s 			page 4


  96:display_task.c ****     InitTemperature();
  77              		.loc 1 96 0
  78 0004 FFF7FEFF 		bl	InitTemperature
  79              	.LVL5:
  97:display_task.c ****     
  98:display_task.c ****     /* Read the value of ambient temperature */
  99:display_task.c ****     ambientTemperature = (int8_t)GetTemperature();
  80              		.loc 1 99 0
  81 0008 FFF7FEFF 		bl	GetTemperature
  82              	.LVL6:
  83 000c 07EE900A 		vmov	s15, r0
  84 0010 FDEEE77A 		vcvt.s32.f32	s15, s15
  85 0014 CDED017A 		vstr.32	s15, [sp, #4]	@ int
  86              	.LVL7:
 100:display_task.c ****     
 101:display_task.c ****     /* Initialize the E-INK display hardware with the ambient temperature 
 102:display_task.c ****        value and the delay function pointer */
 103:display_task.c ****     if(Cy_EINK_Start(ambientTemperature,DelayMs) == CY_EINK_SUCCESS)
  87              		.loc 1 103 0
  88 0018 1949     		ldr	r1, .L11
  89 001a 9DF90400 		ldrsb	r0, [sp, #4]
  90 001e FFF7FEFF 		bl	Cy_EINK_Start
  91              	.LVL8:
  92 0022 20B9     		cbnz	r0, .L9
 104:display_task.c ****     {
 105:display_task.c ****         Task_DebugPrintf("Success  : Display - Cy_EINK_Start API", 0u);
 106:display_task.c **** 
 107:display_task.c ****         /* Power on the display and check if the operation was successful */
 108:display_task.c ****         displayDetected = Cy_EINK_Power(CY_EINK_ON);
  93              		.loc 1 108 0
  94 0024 0120     		movs	r0, #1
  95 0026 FFF7FEFF 		bl	Cy_EINK_Power
  96              	.LVL9:
  97 002a 0646     		mov	r6, r0
  98              	.LVL10:
  99 002c 00E0     		b	.L8
 100              	.LVL11:
 101              	.L9:
  87:display_task.c ****     
 102              		.loc 1 87 0
 103 002e 0126     		movs	r6, #1
 104              	.LVL12:
 105              	.L8:
 109:display_task.c ****     }
 110:display_task.c ****     else
 111:display_task.c ****     {
 112:display_task.c ****         Task_DebugPrintf("Failure! : Display - Cy_EINK_Start API", 0u);
 113:display_task.c ****     }
 114:display_task.c **** 
 115:display_task.c ****     for(;;)
 116:display_task.c ****     {
 117:display_task.c ****         /* Do this only if the E-INK display has been detected */
 118:display_task.c ****         if(displayDetected == CY_EINK_SUCCESS)
 106              		.loc 1 118 0
 107 0030 F6B9     		cbnz	r6, .L7
 108              	.LBB2:
 119:display_task.c ****         {           
ARM GAS  C:\Users\codyg\AppData\Local\Temp\ccCSPxxQ.s 			page 5


 120:display_task.c ****             /* Coordinates of a full-image and text origin */
 121:display_task.c ****             uint8_t   imageCoordinates[]  = CY_EINK_COMPLETE_IMAGE;
 109              		.loc 1 121 0
 110 0032 144B     		ldr	r3, .L11+4
 111 0034 1868     		ldr	r0, [r3]	@ unaligned
 112 0036 0390     		str	r0, [sp, #12]	@ unaligned
 122:display_task.c ****             uint8_t   textOrigin[]        = INSTRUCTION_TEXT_ORIGIN;
 113              		.loc 1 122 0
 114 0038 0024     		movs	r4, #0
 115 003a 8DF80840 		strb	r4, [sp, #8]
 116 003e 0227     		movs	r7, #2
 117 0040 8DF80970 		strb	r7, [sp, #9]
 123:display_task.c ****             
 124:display_task.c ****             Task_DebugPrintf("Success  : Display - E-INK display power on", 0u); 
 125:display_task.c ****         
 126:display_task.c ****             /* Clear the display to white background */
 127:display_task.c ****             Cy_EINK_Clear(CY_EINK_WHITE_BACKGROUND, CY_EINK_POWER_MANUAL);
 118              		.loc 1 127 0
 119 0044 2146     		mov	r1, r4
 120 0046 0120     		movs	r0, #1
 121 0048 FFF7FEFF 		bl	Cy_EINK_Clear
 122              	.LVL13:
 128:display_task.c ****             
 129:display_task.c ****             /* Load the image that has the logo and the heading to the 
 130:display_task.c ****                frame buffer */
 131:display_task.c ****             Cy_EINK_ImageToFrameBuffer(frameBuffer, 
 123              		.loc 1 131 0
 124 004c 0E4D     		ldr	r5, .L11+8
 125 004e 03AA     		add	r2, sp, #12
 126 0050 0E49     		ldr	r1, .L11+12
 127 0052 2846     		mov	r0, r5
 128 0054 FFF7FEFF 		bl	Cy_EINK_ImageToFrameBuffer
 129              	.LVL14:
 132:display_task.c ****                                       (cy_eink_frame_t*)logoAndHeading,
 133:display_task.c ****                                        imageCoordinates);
 134:display_task.c ****             /* Load the text that stores instructions to the frame buffer */
 135:display_task.c ****             Cy_EINK_TextToFrameBuffer(frameBuffer, (char*)instructions,
 130              		.loc 1 135 0
 131 0058 02AB     		add	r3, sp, #8
 132 005a 0D4A     		ldr	r2, .L11+16
 133 005c 0D49     		ldr	r1, .L11+20
 134 005e 2846     		mov	r0, r5
 135 0060 FFF7FEFF 		bl	Cy_EINK_TextToFrameBuffer
 136              	.LVL15:
 136:display_task.c ****                                       CY_EINK_FONT_8X12BLACK, textOrigin);
 137:display_task.c ****             
 138:display_task.c ****             /* Write the frame buffer to the E-INK display */
 139:display_task.c ****             Cy_EINK_ShowFrame(CY_EINK_WHITE_FRAME, frameBuffer,
 137              		.loc 1 139 0
 138 0064 2346     		mov	r3, r4
 139 0066 3A46     		mov	r2, r7
 140 0068 2946     		mov	r1, r5
 141 006a 2046     		mov	r0, r4
 142 006c FFF7FEFF 		bl	Cy_EINK_ShowFrame
 143              	.LVL16:
 144              	.L7:
 145              	.LBE2:
ARM GAS  C:\Users\codyg\AppData\Local\Temp\ccCSPxxQ.s 			page 6


 140:display_task.c ****                               CY_EINK_FULL_2STAGE, CY_EINK_POWER_MANUAL);
 141:display_task.c ****         }
 142:display_task.c ****         else
 143:display_task.c ****         {   
 144:display_task.c ****             Task_DebugPrintf("Failure! : Display - E-INK display power on ", 0u); 
 145:display_task.c ****         }
 146:display_task.c ****         
 147:display_task.c ****         /* Turn off the E-INK power */
 148:display_task.c ****         Cy_EINK_Power(CY_EINK_OFF);
 146              		.loc 1 148 0
 147 0070 0020     		movs	r0, #0
 148 0072 FFF7FEFF 		bl	Cy_EINK_Power
 149              	.LVL17:
 149:display_task.c ****         
 150:display_task.c ****         Task_DebugPrintf("Info     : Display - Task completed and suspended", 0u);
 151:display_task.c **** 
 152:display_task.c ****         /* Suspend the task */
 153:display_task.c ****         vTaskSuspend(NULL);
 150              		.loc 1 153 0
 151 0076 0020     		movs	r0, #0
 152 0078 FFF7FEFF 		bl	vTaskSuspend
 153              	.LVL18:
 154:display_task.c ****     }
 154              		.loc 1 154 0
 155 007c D8E7     		b	.L8
 156              	.L12:
 157 007e 00BF     		.align	2
 158              	.L11:
 159 0080 00000000 		.word	DelayMs
 160 0084 00000000 		.word	.LANCHOR0
 161 0088 00000000 		.word	frameBuffer
 162 008c 00000000 		.word	logoAndHeading
 163 0090 00000000 		.word	cy_eink_font8By12_blackInWhite
 164 0094 00000000 		.word	instructions
 165              		.cfi_endproc
 166              	.LFE529:
 167              		.size	Task_Display, .-Task_Display
 168              		.comm	frameBuffer,5808,4
 169              		.section	.rodata
 170              		.align	2
 171              		.set	.LANCHOR0,. + 0
 172              	.LC0:
 173 0000 00       		.byte	0
 174 0001 21       		.byte	33
 175 0002 00       		.byte	0
 176 0003 AF       		.byte	-81
 177              		.text
 178              	.Letext0:
 179              		.file 2 "c:\\program files (x86)\\cypress\\psoc creator\\4.2\\psoc creator\\import\\gnu\\arm\\5.4.
 180              		.file 3 "c:\\program files (x86)\\cypress\\psoc creator\\4.2\\psoc creator\\import\\gnu\\arm\\5.4.
 181              		.file 4 "Generated_Source\\PSoC6\\pdl\\drivers/peripheral/syslib/cy_syslib.h"
 182              		.file 5 "Generated_Source\\PSoC6\\pdl\\drivers/peripheral/scb/cy_scb_spi.h"
 183              		.file 6 "Generated_Source\\PSoC6\\pdl\\drivers/peripheral/sar/cy_sar.h"
 184              		.file 7 "Generated_Source\\PSoC6\\pdl\\middleware/ble/cy_ble_stack.h"
 185              		.file 8 "Generated_Source\\PSoC6\\pdl\\middleware/ble/cy_ble_stack_host_main.h"
 186              		.file 9 "Generated_Source\\PSoC6\\pdl\\middleware/ble/cy_ble_gap.h"
 187              		.file 10 "Generated_Source\\PSoC6/ADC.h"
ARM GAS  C:\Users\codyg\AppData\Local\Temp\ccCSPxxQ.s 			page 7


 188              		.file 11 ".\\cy_eink_library/cy_eink_fonts.h"
 189              		.file 12 ".\\cy_eink_library/pervasive_eink_hardware_driver.h"
 190              		.file 13 ".\\cy_eink_library/cy_eink_library.h"
 191              		.file 14 "Generated_Source\\PSoC6\\pdl\\rtos/FreeRTOS/9.0.0/Source/portable/GCC/CM4F/portmacro.h"
 192              		.file 15 "Generated_Source\\PSoC6\\pdl\\cmsis/include/core_cm4.h"
 193              		.file 16 "Generated_Source\\PSoC6/CY_EINK_SPIM.h"
 194              		.file 17 "screen_contents.h"
 195              		.file 18 "Generated_Source\\PSoC6\\pdl\\rtos/FreeRTOS/9.0.0/Source/include/task.h"
 196              		.file 19 "temperature_eink.h"