ARM GAS  C:\Users\codyg\AppData\Local\Temp\ccZvC2Eo.s 			page 1


   1              		.syntax unified
   2              		.cpu cortex-m4
   3              		.eabi_attribute 27, 1
   4              		.fpu fpv4-sp-d16
   5              		.eabi_attribute 20, 1
   6              		.eabi_attribute 21, 1
   7              		.eabi_attribute 23, 3
   8              		.eabi_attribute 24, 1
   9              		.eabi_attribute 25, 1
  10              		.eabi_attribute 26, 1
  11              		.eabi_attribute 30, 1
  12              		.eabi_attribute 34, 1
  13              		.eabi_attribute 18, 4
  14              		.thumb
  15              		.syntax unified
  16              		.file	"main_cm4.c"
  17              		.text
  18              	.Ltext0:
  19              		.cfi_sections	.debug_frame
  20              		.section	.text.main,"ax",%progbits
  21              		.align	2
  22              		.global	main
  23              		.thumb
  24              		.thumb_func
  25              		.type	main, %function
  26              	main:
  27              	.LFB528:
  28              		.file 1 "main_cm4.c"
   1:main_cm4.c    **** /******************************************************************************
   2:main_cm4.c    **** * File Name: main_cm4.c
   3:main_cm4.c    **** *
   4:main_cm4.c    **** * Version: 1.00
   5:main_cm4.c    **** *
   6:main_cm4.c    **** * Description: This project demonstrates connectivity between the PSoC 6 BLE and 
   7:main_cm4.c    **** *              CySmart BLE host Emulation tool or mobile device running the CySmart
   8:main_cm4.c    **** *              mobile application, to transfer CapSense Proximity information.
   9:main_cm4.c    **** *
  10:main_cm4.c    **** * Related Document: CE218137_BLE_Proximity_RTOS.pdf
  11:main_cm4.c    **** *
  12:main_cm4.c    **** * Hardware Dependency: CY8CKIT-062-BLE PSoC 6 BLE Pioneer Kit
  13:main_cm4.c    **** *                      CY8CKIT-028-EPD E-INK Display Shield
  14:main_cm4.c    **** *
  15:main_cm4.c    **** ******************************************************************************
  16:main_cm4.c    **** * Copyright (2017), Cypress Semiconductor Corporation.
  17:main_cm4.c    **** ******************************************************************************
  18:main_cm4.c    **** * This software, including source code, documentation and related materials
  19:main_cm4.c    **** * ("Software") is owned by Cypress Semiconductor Corporation (Cypress) and is
  20:main_cm4.c    **** * protected by and subject to worldwide patent protection (United States and 
  21:main_cm4.c    **** * foreign), United States copyright laws and international treaty provisions. 
  22:main_cm4.c    **** * Cypress hereby grants to licensee a personal, non-exclusive, non-transferable
  23:main_cm4.c    **** * license to copy, use, modify, create derivative works of, and compile the 
  24:main_cm4.c    **** * Cypress source code and derivative works for the sole purpose of creating 
  25:main_cm4.c    **** * custom software in support of licensee product, such licensee product to be
  26:main_cm4.c    **** * used only in conjunction with Cypress's integrated circuit as specified in the
  27:main_cm4.c    **** * applicable agreement. Any reproduction, modification, translation, compilation,
  28:main_cm4.c    **** * or representation of this Software except as specified above is prohibited 
  29:main_cm4.c    **** * without the express written permission of Cypress.
ARM GAS  C:\Users\codyg\AppData\Local\Temp\ccZvC2Eo.s 			page 2


  30:main_cm4.c    **** * 
  31:main_cm4.c    **** * Disclaimer: THIS SOFTWARE IS PROVIDED AS-IS, WITH NO WARRANTY OF ANY KIND, 
  32:main_cm4.c    **** * EXPRESS OR IMPLIED, INCLUDING, BUT NOT LIMITED TO, NONINFRINGEMENT, IMPLIED 
  33:main_cm4.c    **** * WARRANTIES OF MERCHANTABILITY AND FITNESS FOR A PARTICULAR PURPOSE.
  34:main_cm4.c    **** * Cypress reserves the right to make changes to the Software without notice. 
  35:main_cm4.c    **** * Cypress does not assume any liability arising out of the application or use
  36:main_cm4.c    **** * of Software or any product or circuit described in the Software. Cypress does
  37:main_cm4.c    **** * not authorize its products for use as critical components in any products 
  38:main_cm4.c    **** * where a malfunction or failure may reasonably be expected to result in 
  39:main_cm4.c    **** * significant injury or death ("ACTIVE Risk Product"). By including Cypress's 
  40:main_cm4.c    **** * product in a ACTIVE Risk Product, the manufacturer of such system or application
  41:main_cm4.c    **** * assumes all risk of such use and in doing so indemnifies Cypress against all
  42:main_cm4.c    **** * liability. Use of this Software may be limited by and subject to the applicable
  43:main_cm4.c    **** * Cypress software license agreement.
  44:main_cm4.c    **** *****************************************************************************/
  45:main_cm4.c    **** /******************************************************************************
  46:main_cm4.c    **** * This project demonstrates the capabilities of the PSoC 6 BLE to communicate 
  47:main_cm4.c    **** * with a BLE Central device over a custom service, sending CapSense proximity
  48:main_cm4.c    **** * sensing inputs. This CapSense custom service allows notifications to be sent  
  49:main_cm4.c    **** * to the central device when notifications are enabled.  
  50:main_cm4.c    **** *
  51:main_cm4.c    **** * This code example uses FreeRTOS. For documentation and API references of 
  52:main_cm4.c    **** * FreeRTOS, visit : https://www.freertos.org 
  53:main_cm4.c    **** *
  54:main_cm4.c    **** *******************************************************************************/
  55:main_cm4.c    **** 
  56:main_cm4.c    **** /* Header file includes */
  57:main_cm4.c    **** #include "ble_task.h"
  58:main_cm4.c    **** #include "status_led_task.h"  
  59:main_cm4.c    **** #include "proximity_task.h"
  60:main_cm4.c    **** #include "display_task.h"
  61:main_cm4.c    **** #include "uart_debug.h"
  62:main_cm4.c    **** #include "project.h"
  63:main_cm4.c    **** #include "FreeRTOS.h"
  64:main_cm4.c    **** #include "task.h"
  65:main_cm4.c    **** #include "queue.h"
  66:main_cm4.c    **** 
  67:main_cm4.c    **** /* Priorities of user tasks in this project */
  68:main_cm4.c    **** #define TASK_BLE_PRIORITY           (20u)
  69:main_cm4.c    **** #define TASK_PROXIMITY_PRIORITY     (15u)
  70:main_cm4.c    **** #define TASK_STATUS_LED_PRIORITY    (10u)
  71:main_cm4.c    **** #define TASK_DISPLAY_PRIORITY       (5u)
  72:main_cm4.c    **** 
  73:main_cm4.c    **** /* Stack sizes of user tasks in this project */
  74:main_cm4.c    **** #define TASK_BLE_STACK_SIZE         (1024u)
  75:main_cm4.c    **** #define TASK_STATUS_LED_STACK_SIZE  (configMINIMAL_STACK_SIZE)
  76:main_cm4.c    **** #define TASK_PROXIMITY__STACK_SIZE  (configMINIMAL_STACK_SIZE)
  77:main_cm4.c    **** #define TASK_DISPLAY_STACK_SIZE     (configMINIMAL_STACK_SIZE)
  78:main_cm4.c    **** 
  79:main_cm4.c    **** /* Queue lengths of message queues used in this project */
  80:main_cm4.c    **** #define BLE_COMMAND_QUEUE_LEN       (5u)
  81:main_cm4.c    **** #define STATUS_LED_QUEUE_LEN        (5u)
  82:main_cm4.c    **** #define PROXIMITY_QUEUE_LEN         (1u)
  83:main_cm4.c    **** 
  84:main_cm4.c    **** /*******************************************************************************
  85:main_cm4.c    **** * Function Name: main
  86:main_cm4.c    **** ********************************************************************************
ARM GAS  C:\Users\codyg\AppData\Local\Temp\ccZvC2Eo.s 			page 3


  87:main_cm4.c    **** * Summary:
  88:main_cm4.c    **** *  System entrance point. This function enables interrupts and then calls the
  89:main_cm4.c    **** *  the function that sets up user tasks and then starts RTOS scheduler. 
  90:main_cm4.c    **** *
  91:main_cm4.c    **** * Parameters:
  92:main_cm4.c    **** *  void
  93:main_cm4.c    **** *
  94:main_cm4.c    **** * Return:
  95:main_cm4.c    **** *  int
  96:main_cm4.c    **** *
  97:main_cm4.c    **** *******************************************************************************/
  98:main_cm4.c    **** int main()
  99:main_cm4.c    **** {   
  29              		.loc 1 99 0
  30              		.cfi_startproc
  31              		@ Volatile: function does not return.
  32              		@ args = 0, pretend = 0, frame = 0
  33              		@ frame_needed = 0, uses_anonymous_args = 0
  34 0000 00B5     		push	{lr}
  35              		.cfi_def_cfa_offset 4
  36              		.cfi_offset 14, -4
  37 0002 83B0     		sub	sp, sp, #12
  38              		.cfi_def_cfa_offset 16
 100:main_cm4.c    ****     /* Create the queues. See the respective data-types for details of queue
 101:main_cm4.c    ****        contents */
 102:main_cm4.c    ****     bleCommandQ       = xQueueCreate(BLE_COMMAND_QUEUE_LEN,
  39              		.loc 1 102 0
  40 0004 0022     		movs	r2, #0
  41 0006 0221     		movs	r1, #2
  42 0008 0520     		movs	r0, #5
  43 000a FFF7FEFF 		bl	xQueueGenericCreate
  44              	.LVL0:
  45 000e 1E4B     		ldr	r3, .L4
  46 0010 1860     		str	r0, [r3]
 103:main_cm4.c    ****                                         sizeof(ble_command_t));
 104:main_cm4.c    ****     proximityCommandQ = xQueueCreate(PROXIMITY_QUEUE_LEN,
  47              		.loc 1 104 0
  48 0012 0022     		movs	r2, #0
  49 0014 0121     		movs	r1, #1
  50 0016 0846     		mov	r0, r1
  51 0018 FFF7FEFF 		bl	xQueueGenericCreate
  52              	.LVL1:
  53 001c 1B4B     		ldr	r3, .L4+4
  54 001e 1860     		str	r0, [r3]
 105:main_cm4.c    ****                                         sizeof(proximity_command_t));
 106:main_cm4.c    ****     statusLedDataQ    = xQueueCreate(STATUS_LED_QUEUE_LEN,
  55              		.loc 1 106 0
  56 0020 0022     		movs	r2, #0
  57 0022 0221     		movs	r1, #2
  58 0024 0520     		movs	r0, #5
  59 0026 FFF7FEFF 		bl	xQueueGenericCreate
  60              	.LVL2:
  61 002a 194B     		ldr	r3, .L4+8
  62 002c 1860     		str	r0, [r3]
 107:main_cm4.c    ****                                         sizeof(status_led_data_t));
 108:main_cm4.c    ****          
 109:main_cm4.c    ****     /* Create the user Tasks. See the respective Task definition for more
ARM GAS  C:\Users\codyg\AppData\Local\Temp\ccZvC2Eo.s 			page 4


 110:main_cm4.c    ****        details of these tasks */       
 111:main_cm4.c    ****     xTaskCreate(Task_Ble, "BLE Task", TASK_BLE_STACK_SIZE,
  63              		.loc 1 111 0
  64 002e 0024     		movs	r4, #0
  65 0030 0194     		str	r4, [sp, #4]
  66 0032 1423     		movs	r3, #20
  67 0034 0093     		str	r3, [sp]
  68 0036 2346     		mov	r3, r4
  69 0038 4FF48062 		mov	r2, #1024
  70 003c 1549     		ldr	r1, .L4+12
  71 003e 1648     		ldr	r0, .L4+16
  72 0040 FFF7FEFF 		bl	xTaskCreate
  73              	.LVL3:
 112:main_cm4.c    ****                 NULL, TASK_BLE_PRIORITY, NULL);
 113:main_cm4.c    ****     xTaskCreate(Task_Proximity, "Proximity Task", TASK_PROXIMITY__STACK_SIZE,
  74              		.loc 1 113 0
  75 0044 0194     		str	r4, [sp, #4]
  76 0046 0F23     		movs	r3, #15
  77 0048 0093     		str	r3, [sp]
  78 004a 2346     		mov	r3, r4
  79 004c 8022     		movs	r2, #128
  80 004e 1349     		ldr	r1, .L4+20
  81 0050 1348     		ldr	r0, .L4+24
  82 0052 FFF7FEFF 		bl	xTaskCreate
  83              	.LVL4:
 114:main_cm4.c    ****                 NULL, TASK_PROXIMITY_PRIORITY, NULL);
 115:main_cm4.c    ****     xTaskCreate(Task_StatusLed, "Status LED Task", TASK_STATUS_LED_STACK_SIZE,
  84              		.loc 1 115 0
  85 0056 0194     		str	r4, [sp, #4]
  86 0058 0A23     		movs	r3, #10
  87 005a 0093     		str	r3, [sp]
  88 005c 2346     		mov	r3, r4
  89 005e 8022     		movs	r2, #128
  90 0060 1049     		ldr	r1, .L4+28
  91 0062 1148     		ldr	r0, .L4+32
  92 0064 FFF7FEFF 		bl	xTaskCreate
  93              	.LVL5:
 116:main_cm4.c    ****                 NULL, TASK_STATUS_LED_PRIORITY, NULL);
 117:main_cm4.c    ****     xTaskCreate(Task_Display, "Display task", TASK_DISPLAY_STACK_SIZE,
  94              		.loc 1 117 0
  95 0068 0194     		str	r4, [sp, #4]
  96 006a 0523     		movs	r3, #5
  97 006c 0093     		str	r3, [sp]
  98 006e 2346     		mov	r3, r4
  99 0070 8022     		movs	r2, #128
 100 0072 0E49     		ldr	r1, .L4+36
 101 0074 0E48     		ldr	r0, .L4+40
 102 0076 FFF7FEFF 		bl	xTaskCreate
 103              	.LVL6:
 118:main_cm4.c    ****                 NULL, TASK_DISPLAY_PRIORITY, NULL);
 119:main_cm4.c    **** 
 120:main_cm4.c    ****     /* Initialize thread-safe debug message printing. See uart_debug.h header file
 121:main_cm4.c    ****        to enable / disable this feature */
 122:main_cm4.c    ****     DebugPrintfInit();
 123:main_cm4.c    ****     
 124:main_cm4.c    ****     /* Start the RTOS scheduler. This function should never return */
 125:main_cm4.c    ****     vTaskStartScheduler();
ARM GAS  C:\Users\codyg\AppData\Local\Temp\ccZvC2Eo.s 			page 5


 104              		.loc 1 125 0
 105 007a FFF7FEFF 		bl	vTaskStartScheduler
 106              	.LVL7:
 126:main_cm4.c    ****     
 127:main_cm4.c    ****     /* Should never get here! */ 
 128:main_cm4.c    ****     DebugPrintf("Error!   : RTOS - scheduler crashed \r\n");
 129:main_cm4.c    **** 
 130:main_cm4.c    ****    /* Halt the CPU if scheduler exits */
 131:main_cm4.c    ****     CY_ASSERT(0);
 107              		.loc 1 131 0
 108 007e 8321     		movs	r1, #131
 109 0080 0C48     		ldr	r0, .L4+44
 110 0082 FFF7FEFF 		bl	Cy_SysLib_AssertFailed
 111              	.LVL8:
 112              	.L2:
 113 0086 FEE7     		b	.L2
 114              	.L5:
 115              		.align	2
 116              	.L4:
 117 0088 00000000 		.word	bleCommandQ
 118 008c 00000000 		.word	proximityCommandQ
 119 0090 00000000 		.word	statusLedDataQ
 120 0094 00000000 		.word	.LC0
 121 0098 00000000 		.word	Task_Ble
 122 009c 0C000000 		.word	.LC1
 123 00a0 00000000 		.word	Task_Proximity
 124 00a4 1C000000 		.word	.LC2
 125 00a8 00000000 		.word	Task_StatusLed
 126 00ac 2C000000 		.word	.LC3
 127 00b0 00000000 		.word	Task_Display
 128 00b4 3C000000 		.word	.LC4
 129              		.cfi_endproc
 130              	.LFE528:
 131              		.size	main, .-main
 132              		.section	.text.vApplicationIdleHook,"ax",%progbits
 133              		.align	2
 134              		.global	vApplicationIdleHook
 135              		.thumb
 136              		.thumb_func
 137              		.type	vApplicationIdleHook, %function
 138              	vApplicationIdleHook:
 139              	.LFB529:
 132:main_cm4.c    ****     
 133:main_cm4.c    ****     for(;;)
 134:main_cm4.c    ****     {
 135:main_cm4.c    ****     }	
 136:main_cm4.c    **** }
 137:main_cm4.c    **** 
 138:main_cm4.c    **** /*******************************************************************************
 139:main_cm4.c    **** * Function Name: void vApplicationIdleHook(void)
 140:main_cm4.c    **** ********************************************************************************
 141:main_cm4.c    **** *
 142:main_cm4.c    **** * Summary:
 143:main_cm4.c    **** *  This function is called when the RTOS in idle mode
 144:main_cm4.c    **** *    
 145:main_cm4.c    **** * Parameters:
 146:main_cm4.c    **** *  None
ARM GAS  C:\Users\codyg\AppData\Local\Temp\ccZvC2Eo.s 			page 6


 147:main_cm4.c    **** *
 148:main_cm4.c    **** * Return:
 149:main_cm4.c    **** *  None
 150:main_cm4.c    **** *
 151:main_cm4.c    **** *******************************************************************************/
 152:main_cm4.c    **** void vApplicationIdleHook(void)
 153:main_cm4.c    **** {
 140              		.loc 1 153 0
 141              		.cfi_startproc
 142              		@ args = 0, pretend = 0, frame = 0
 143              		@ frame_needed = 0, uses_anonymous_args = 0
 144 0000 08B5     		push	{r3, lr}
 145              		.cfi_def_cfa_offset 8
 146              		.cfi_offset 3, -8
 147              		.cfi_offset 14, -4
 154:main_cm4.c    ****     /* Enter sleep-mode */
 155:main_cm4.c    ****     Cy_SysPm_Sleep(CY_SYSPM_WAIT_FOR_INTERRUPT);
 148              		.loc 1 155 0
 149 0002 0020     		movs	r0, #0
 150 0004 FFF7FEFF 		bl	Cy_SysPm_Sleep
 151              	.LVL9:
 152 0008 08BD     		pop	{r3, pc}
 153              		.cfi_endproc
 154              	.LFE529:
 155              		.size	vApplicationIdleHook, .-vApplicationIdleHook
 156 000a 00BF     		.section	.text.vApplicationStackOverflowHook,"ax",%progbits
 157              		.align	2
 158              		.global	vApplicationStackOverflowHook
 159              		.thumb
 160              		.thumb_func
 161              		.type	vApplicationStackOverflowHook, %function
 162              	vApplicationStackOverflowHook:
 163              	.LFB530:
 156:main_cm4.c    **** }
 157:main_cm4.c    **** 
 158:main_cm4.c    **** /*******************************************************************************
 159:main_cm4.c    **** * Function Name: void vApplicationStackOverflowHook(TaskHandle_t *pxTask, 
 160:main_cm4.c    ****                                                     signed char *pcTaskName)
 161:main_cm4.c    **** ********************************************************************************
 162:main_cm4.c    **** *
 163:main_cm4.c    **** * Summary:
 164:main_cm4.c    **** *  This function is called when a stack overflow has been detected by the RTOS
 165:main_cm4.c    **** *    
 166:main_cm4.c    **** * Parameters:
 167:main_cm4.c    **** *  TaskHandle_t  : Handle to the task
 168:main_cm4.c    **** *  signed char   : Name of the task
 169:main_cm4.c    **** *
 170:main_cm4.c    **** * Return:
 171:main_cm4.c    **** *  None
 172:main_cm4.c    **** *
 173:main_cm4.c    **** *******************************************************************************/
 174:main_cm4.c    **** void vApplicationStackOverflowHook(TaskHandle_t *pxTask, 
 175:main_cm4.c    ****                                    signed char *pcTaskName)
 176:main_cm4.c    **** {
 164              		.loc 1 176 0
 165              		.cfi_startproc
 166              		@ args = 0, pretend = 0, frame = 0
ARM GAS  C:\Users\codyg\AppData\Local\Temp\ccZvC2Eo.s 			page 7


 167              		@ frame_needed = 0, uses_anonymous_args = 0
 168              	.LVL10:
 169 0000 08B5     		push	{r3, lr}
 170              		.cfi_def_cfa_offset 8
 171              		.cfi_offset 3, -8
 172              		.cfi_offset 14, -4
 177:main_cm4.c    ****     /* Remove warning for unused parameters */
 178:main_cm4.c    ****     (void)pxTask;
 179:main_cm4.c    ****     (void)pcTaskName;
 180:main_cm4.c    ****     
 181:main_cm4.c    ****     /* Print the error message with task name if debug is enabled in 
 182:main_cm4.c    ****        uart_debug.h file */
 183:main_cm4.c    ****     DebugPrintf("Error!   : RTOS - stack overflow in %s \r\n", pcTaskName);
 184:main_cm4.c    ****     
 185:main_cm4.c    ****     /* Halt the CPU */
 186:main_cm4.c    ****     CY_ASSERT(0);
 173              		.loc 1 186 0
 174 0002 BA21     		movs	r1, #186
 175              	.LVL11:
 176 0004 0148     		ldr	r0, .L10
 177              	.LVL12:
 178 0006 FFF7FEFF 		bl	Cy_SysLib_AssertFailed
 179              	.LVL13:
 180 000a 08BD     		pop	{r3, pc}
 181              	.L11:
 182              		.align	2
 183              	.L10:
 184 000c 3C000000 		.word	.LC4
 185              		.cfi_endproc
 186              	.LFE530:
 187              		.size	vApplicationStackOverflowHook, .-vApplicationStackOverflowHook
 188              		.section	.text.vApplicationMallocFailedHook,"ax",%progbits
 189              		.align	2
 190              		.global	vApplicationMallocFailedHook
 191              		.thumb
 192              		.thumb_func
 193              		.type	vApplicationMallocFailedHook, %function
 194              	vApplicationMallocFailedHook:
 195              	.LFB531:
 187:main_cm4.c    **** }
 188:main_cm4.c    **** 
 189:main_cm4.c    **** /*******************************************************************************
 190:main_cm4.c    **** * Function Name: void vApplicationMallocFailedHook(void)
 191:main_cm4.c    **** ********************************************************************************
 192:main_cm4.c    **** *
 193:main_cm4.c    **** * Summary:
 194:main_cm4.c    **** *  This function is called when a memory allocation operation by the RTOS
 195:main_cm4.c    **** *  has failed
 196:main_cm4.c    **** *    
 197:main_cm4.c    **** * Parameters:
 198:main_cm4.c    **** *  None
 199:main_cm4.c    **** *
 200:main_cm4.c    **** * Return:
 201:main_cm4.c    **** *  None
 202:main_cm4.c    **** *
 203:main_cm4.c    **** *******************************************************************************/
 204:main_cm4.c    **** void vApplicationMallocFailedHook(void)
ARM GAS  C:\Users\codyg\AppData\Local\Temp\ccZvC2Eo.s 			page 8


 205:main_cm4.c    **** {
 196              		.loc 1 205 0
 197              		.cfi_startproc
 198              		@ args = 0, pretend = 0, frame = 0
 199              		@ frame_needed = 0, uses_anonymous_args = 0
 200 0000 08B5     		push	{r3, lr}
 201              		.cfi_def_cfa_offset 8
 202              		.cfi_offset 3, -8
 203              		.cfi_offset 14, -4
 206:main_cm4.c    ****     /* Print the error message if debug is enabled in uart_debug.h file */
 207:main_cm4.c    ****     DebugPrintf("Error!   : RTOS - Memory allocation failed \r\n");
 208:main_cm4.c    ****     
 209:main_cm4.c    ****     /* Halt the CPU */
 210:main_cm4.c    ****     CY_ASSERT(0);
 204              		.loc 1 210 0
 205 0002 D221     		movs	r1, #210
 206 0004 0148     		ldr	r0, .L14
 207 0006 FFF7FEFF 		bl	Cy_SysLib_AssertFailed
 208              	.LVL14:
 209 000a 08BD     		pop	{r3, pc}
 210              	.L15:
 211              		.align	2
 212              	.L14:
 213 000c 3C000000 		.word	.LC4
 214              		.cfi_endproc
 215              	.LFE531:
 216              		.size	vApplicationMallocFailedHook, .-vApplicationMallocFailedHook
 217              		.section	.rodata.str1.4,"aMS",%progbits,1
 218              		.align	2
 219              	.LC0:
 220 0000 424C4520 		.ascii	"BLE Task\000"
 220      5461736B 
 220      00
 221 0009 000000   		.space	3
 222              	.LC1:
 223 000c 50726F78 		.ascii	"Proximity Task\000"
 223      696D6974 
 223      79205461 
 223      736B00
 224 001b 00       		.space	1
 225              	.LC2:
 226 001c 53746174 		.ascii	"Status LED Task\000"
 226      7573204C 
 226      45442054 
 226      61736B00 
 227              	.LC3:
 228 002c 44697370 		.ascii	"Display task\000"
 228      6C617920 
 228      7461736B 
 228      00
 229 0039 000000   		.space	3
 230              	.LC4:
 231 003c 6D61696E 		.ascii	"main_cm4.c\000"
 231      5F636D34 
 231      2E6300
 232              		.text
 233              	.Letext0:
ARM GAS  C:\Users\codyg\AppData\Local\Temp\ccZvC2Eo.s 			page 9


 234              		.file 2 "c:\\program files (x86)\\cypress\\psoc creator\\4.2\\psoc creator\\import\\gnu\\arm\\5.4.
 235              		.file 3 "c:\\program files (x86)\\cypress\\psoc creator\\4.2\\psoc creator\\import\\gnu\\arm\\5.4.
 236              		.file 4 "Generated_Source\\PSoC6\\pdl\\drivers/peripheral/syslib/cy_syslib.h"
 237              		.file 5 "Generated_Source\\PSoC6\\pdl\\drivers/peripheral/scb/cy_scb_spi.h"
 238              		.file 6 "Generated_Source\\PSoC6\\pdl\\drivers/peripheral/syspm/cy_syspm.h"
 239              		.file 7 "Generated_Source\\PSoC6\\pdl\\drivers/peripheral/sar/cy_sar.h"
 240              		.file 8 "Generated_Source\\PSoC6\\pdl\\middleware/ble/cy_ble_stack_host_main.h"
 241              		.file 9 "Generated_Source\\PSoC6\\pdl\\middleware/ble/cy_ble_gap.h"
 242              		.file 10 "Generated_Source\\PSoC6/ADC.h"
 243              		.file 11 "Generated_Source\\PSoC6\\pdl\\rtos/FreeRTOS/9.0.0/Source/include/queue.h"
 244              		.file 12 "Generated_Source\\PSoC6\\pdl\\rtos/FreeRTOS/9.0.0/Source/include/task.h"
 245              		.file 13 "Generated_Source\\PSoC6\\pdl\\cmsis/include/core_cm4.h"
 246              		.file 14 "Generated_Source\\PSoC6/CY_EINK_SPIM.h"
 247              		.file 15 "ble_task.h"
 248              		.file 16 "status_led_task.h"
 249              		.file 17 "proximity_task.h"