ARM GAS  C:\Users\codyg\AppData\Local\Temp\cc6RgQsi.s 			page 1


   1              		.syntax unified
   2              		.cpu cortex-m4
   3              		.eabi_attribute 27, 1
   4              		.fpu fpv4-sp-d16
   5              		.eabi_attribute 20, 1
   6              		.eabi_attribute 21, 1
   7              		.eabi_attribute 23, 3
   8              		.eabi_attribute 24, 1
   9              		.eabi_attribute 25, 1
  10              		.eabi_attribute 26, 1
  11              		.eabi_attribute 30, 1
  12              		.eabi_attribute 34, 1
  13              		.eabi_attribute 18, 4
  14              		.thumb
  15              		.syntax unified
  16              		.file	"proximity_task.c"
  17              		.text
  18              	.Ltext0:
  19              		.cfi_sections	.debug_frame
  20              		.section	.text.ProximityTimerCallback,"ax",%progbits
  21              		.align	2
  22              		.thumb
  23              		.thumb_func
  24              		.type	ProximityTimerCallback, %function
  25              	ProximityTimerCallback:
  26              	.LFB529:
  27              		.file 1 "proximity_task.c"
   1:proximity_task.c **** /******************************************************************************
   2:proximity_task.c **** * File Name: proximity_task.c
   3:proximity_task.c **** *
   4:proximity_task.c **** * Version: 1.00
   5:proximity_task.c **** *
   6:proximity_task.c **** * Description: This file contains the task that handles proximity sensing
   7:proximity_task.c **** *
   8:proximity_task.c **** * Related Document: CE218137_BLE_Proximity_RTOS.pdf
   9:proximity_task.c **** *
  10:proximity_task.c **** * Hardware Dependency: CY8CKIT-062-BLE PSoC 6 BLE Pioneer Kit
  11:proximity_task.c **** *
  12:proximity_task.c **** ******************************************************************************
  13:proximity_task.c **** * Copyright (2017), Cypress Semiconductor Corporation.
  14:proximity_task.c **** ******************************************************************************
  15:proximity_task.c **** * This software, including source code, documentation and related materials
  16:proximity_task.c **** * ("Software") is owned by Cypress Semiconductor Corporation (Cypress) and is
  17:proximity_task.c **** * protected by and subject to worldwide patent protection (United States and 
  18:proximity_task.c **** * foreign), United States copyright laws and international treaty provisions. 
  19:proximity_task.c **** * Cypress hereby grants to licensee a personal, non-exclusive, non-transferable
  20:proximity_task.c **** * license to copy, use, modify, create derivative works of, and compile the 
  21:proximity_task.c **** * Cypress source code and derivative works for the sole purpose of creating 
  22:proximity_task.c **** * custom software in support of licensee product, such licensee product to be
  23:proximity_task.c **** * used only in conjunction with Cypress's integrated circuit as specified in the
  24:proximity_task.c **** * applicable agreement. Any reproduction, modification, translation, compilation,
  25:proximity_task.c **** * or representation of this Software except as specified above is prohibited 
  26:proximity_task.c **** * without the express written permission of Cypress.
  27:proximity_task.c **** * 
  28:proximity_task.c **** * Disclaimer: THIS SOFTWARE IS PROVIDED AS-IS, WITH NO WARRANTY OF ANY KIND, 
  29:proximity_task.c **** * EXPRESS OR IMPLIED, INCLUDING, BUT NOT LIMITED TO, NONINFRINGEMENT, IMPLIED 
  30:proximity_task.c **** * WARRANTIES OF MERCHANTABILITY AND FITNESS FOR A PARTICULAR PURPOSE.
ARM GAS  C:\Users\codyg\AppData\Local\Temp\cc6RgQsi.s 			page 2


  31:proximity_task.c **** * Cypress reserves the right to make changes to the Software without notice. 
  32:proximity_task.c **** * Cypress does not assume any liability arising out of the application or use
  33:proximity_task.c **** * of Software or any product or circuit described in the Software. Cypress does
  34:proximity_task.c **** * not authorize its products for use as critical components in any products 
  35:proximity_task.c **** * where a malfunction or failure may reasonably be expected to result in 
  36:proximity_task.c **** * significant injury or death ("ACTIVE Risk Product"). By including Cypress's 
  37:proximity_task.c **** * product in a ACTIVE Risk Product, the manufacturer of such system or application
  38:proximity_task.c **** * assumes all risk of such use and in doing so indemnifies Cypress against all
  39:proximity_task.c **** * liability. Use of this Software may be limited by and subject to the applicable
  40:proximity_task.c **** * Cypress software license agreement.
  41:proximity_task.c **** *****************************************************************************/
  42:proximity_task.c **** /*******************************************************************************
  43:proximity_task.c **** * This file contains the task that handles proximity sensing 
  44:proximity_task.c **** *******************************************************************************/
  45:proximity_task.c **** 
  46:proximity_task.c **** /* Header file includes */
  47:proximity_task.c **** #include "proximity_task.h"
  48:proximity_task.c **** #include "ble_task.h"
  49:proximity_task.c **** #include "uart_debug.h"
  50:proximity_task.c **** #include "task.h" 
  51:proximity_task.c **** #include "timers.h"
  52:proximity_task.c **** 
  53:proximity_task.c **** /* Scanning interval of 33ms is used when repeatedly scanning proximity widget 
  54:proximity_task.c ****    to get a scan rate of ~30 scans per second */
  55:proximity_task.c **** #define PROXIMITY_SCAN_INTERVAL  (pdMS_TO_TICKS(33u))
  56:proximity_task.c **** /* Idle interval is used for when no proximity data is required */
  57:proximity_task.c **** #define PROXIMITY_IDLE_INTERVAL  (portMAX_DELAY)
  58:proximity_task.c **** 
  59:proximity_task.c **** /* Queue handles used for proximity commands and data */
  60:proximity_task.c **** QueueHandle_t proximityCommandQ;
  61:proximity_task.c **** 
  62:proximity_task.c **** /* Timer handles used to control proximity scanning interval */
  63:proximity_task.c **** TimerHandle_t xTimer_Proximity;
  64:proximity_task.c **** 
  65:proximity_task.c **** /* Functions that start and control the timer */
  66:proximity_task.c **** void static ProximityTimerStart(void);
  67:proximity_task.c **** void static ProximityTimerUpdate(TickType_t period);
  68:proximity_task.c **** 
  69:proximity_task.c **** /*******************************************************************************
  70:proximity_task.c **** * Function Name: void Task_Proximity(void *pvParameters)   
  71:proximity_task.c **** ********************************************************************************
  72:proximity_task.c **** * Summary:
  73:proximity_task.c **** *  Task that reads and processes proximity data    
  74:proximity_task.c **** *
  75:proximity_task.c **** * Parameters:
  76:proximity_task.c **** *  void *pvParameters : Task parameter defined during task creation (unused)                       
  77:proximity_task.c **** *
  78:proximity_task.c **** * Return:
  79:proximity_task.c **** *  void
  80:proximity_task.c **** *
  81:proximity_task.c **** *******************************************************************************/
  82:proximity_task.c **** void Task_Proximity(void *pvParameters)    
  83:proximity_task.c **** {
  84:proximity_task.c ****     /* Variable that stores CapSense API results */
  85:proximity_task.c ****     cy_status capSenseApiResult;
  86:proximity_task.c ****     
  87:proximity_task.c ****     /* Variable that stores command values received  */
ARM GAS  C:\Users\codyg\AppData\Local\Temp\cc6RgQsi.s 			page 3


  88:proximity_task.c ****     proximity_command_t proximityCommand;
  89:proximity_task.c ****     
  90:proximity_task.c ****     /* Variable used to store the return values of RTOS APIs */
  91:proximity_task.c ****     BaseType_t rtosApiResult;
  92:proximity_task.c ****        
  93:proximity_task.c ****     /* Flags that indicate if proximity data need to be sent */
  94:proximity_task.c ****     bool    sendProximityData = false;
  95:proximity_task.c **** 
  96:proximity_task.c ****     /* Variables that store the previous and the current proximity data */
  97:proximity_task.c ****     uint8_t  currentProxData = 0u;
  98:proximity_task.c ****     uint8_t  prevProxData = UINT8_MAX;
  99:proximity_task.c ****     
 100:proximity_task.c ****     /* Flags that indicate if the proximity data has been updated */
 101:proximity_task.c ****     bool proximityDataUpdated;
 102:proximity_task.c **** 
 103:proximity_task.c ****     /* Start the timer that controls the processing interval */
 104:proximity_task.c ****     ProximityTimerStart();
 105:proximity_task.c **** 
 106:proximity_task.c ****     /* Remove warning for unused parameter */
 107:proximity_task.c ****     (void)pvParameters ;
 108:proximity_task.c **** 
 109:proximity_task.c ****     /* Start the CapSense component and initialize the baselines */
 110:proximity_task.c ****     capSenseApiResult = CapSense_Start();
 111:proximity_task.c ****     
 112:proximity_task.c ****     /* Check if the operation has been successful */
 113:proximity_task.c ****     if (capSenseApiResult== CY_RET_SUCCESS)
 114:proximity_task.c ****     {
 115:proximity_task.c ****         Task_DebugPrintf("Success  : Proximity - CapSense initialization", 0u);
 116:proximity_task.c ****     }
 117:proximity_task.c ****     else
 118:proximity_task.c ****     {
 119:proximity_task.c ****         Task_DebugPrintf("Failure! : Proximity - CapSense initialization, Error Code:"
 120:proximity_task.c ****                     , capSenseApiResult);
 121:proximity_task.c ****     }
 122:proximity_task.c ****     
 123:proximity_task.c ****     /* Repeatedly running part of the task */
 124:proximity_task.c ****     for(;;)
 125:proximity_task.c ****     {
 126:proximity_task.c ****         /* Block until a command has been received over proximityCommandQ */
 127:proximity_task.c ****         rtosApiResult = xQueueReceive(proximityCommandQ, &proximityCommand,
 128:proximity_task.c ****                         portMAX_DELAY);
 129:proximity_task.c ****          /* Command has been received from proximityCommandQ */ 
 130:proximity_task.c ****         if(rtosApiResult == pdTRUE)
 131:proximity_task.c ****         {   
 132:proximity_task.c ****             /* Take an action based on the command received */
 133:proximity_task.c ****             switch (proximityCommand)
 134:proximity_task.c ****             {
 135:proximity_task.c ****                 /* Both the slider and the button data need to be sent */
 136:proximity_task.c ****                 case SEND_PROXIMITY:
 137:proximity_task.c ****                     sendProximityData = true;
 138:proximity_task.c ****                     /* Enable periodic scan */
 139:proximity_task.c ****                     ProximityTimerUpdate(PROXIMITY_SCAN_INTERVAL);
 140:proximity_task.c ****                     break;
 141:proximity_task.c ****                  
 142:proximity_task.c ****                 /* No proximity data need to be sent */
 143:proximity_task.c ****                 case SEND_NONE:
 144:proximity_task.c ****                     sendProximityData = false;
ARM GAS  C:\Users\codyg\AppData\Local\Temp\cc6RgQsi.s 			page 4


 145:proximity_task.c ****                     /* Disable periodic scan */
 146:proximity_task.c ****                     ProximityTimerUpdate(PROXIMITY_IDLE_INTERVAL);
 147:proximity_task.c ****                     break;
 148:proximity_task.c ****                 /* Process proximity data from proximity sensor */
 149:proximity_task.c ****                 case PROXIMITY_TIMER_EXPIRED:
 150:proximity_task.c ****                     proximityDataUpdated = false;
 151:proximity_task.c ****                     
 152:proximity_task.c ****                     /* Do this only when CapSense isn't busy with an 
 153:proximity_task.c ****                        ongoing scan */
 154:proximity_task.c ****                     if (CapSense_IsBusy() == CapSense_NOT_BUSY)
 155:proximity_task.c ****                     {
 156:proximity_task.c ****                         /* Process data from the widget */
 157:proximity_task.c ****                 		CapSense_ProcessAllWidgets();
 158:proximity_task.c ****                         
 159:proximity_task.c ****                         /* Check if the signal is greater than the finger threshold */
 160:proximity_task.c ****                         if(CapSense_PROXIMITY0_SNS0_DIFF_VALUE > 
 161:proximity_task.c ****                            CapSense_PROXIMITY0_FINGER_TH_VALUE)
 162:proximity_task.c ****                         {
 163:proximity_task.c ****                             /*If proximity value is not within the range, cap the value */
 164:proximity_task.c ****                     		if((CapSense_PROXIMITY0_SNS0_DIFF_VALUE -
 165:proximity_task.c ****                                 CapSense_PROXIMITY0_FINGER_TH_VALUE) 
 166:proximity_task.c ****                                 <= UINT8_MAX)
 167:proximity_task.c ****                     		{
 168:proximity_task.c ****                                 /* Store the proximity data */
 169:proximity_task.c ****                     	         currentProxData =  (uint8_t)(CapSense_PROXIMITY0_SNS0_DIFF_VALUE - 
 170:proximity_task.c ****                                                         CapSense_PROXIMITY0_FINGER_TH_VALUE);
 171:proximity_task.c ****                     		}
 172:proximity_task.c ****                             /* Store the maximum value otherwise */
 173:proximity_task.c ****                             else
 174:proximity_task.c ****                             {
 175:proximity_task.c ****                                 currentProxData = (uint8_t)UINT8_MAX;
 176:proximity_task.c ****                             }
 177:proximity_task.c ****                         }
 178:proximity_task.c ****                         /* Clear the value if the signal is less than the finger threshold */
 179:proximity_task.c ****                         else
 180:proximity_task.c ****                         {
 181:proximity_task.c ****                            currentProxData = 0u; 
 182:proximity_task.c ****                         }
 183:proximity_task.c ****                                             
 184:proximity_task.c ****                         /* Start the next CapSense scan */
 185:proximity_task.c ****                         CapSense_ScanAllWidgets();
 186:proximity_task.c ****                     }
 187:proximity_task.c ****             
 188:proximity_task.c ****                     /* Check if slider data needs to be sent and the proximity  
 189:proximity_task.c ****                        position on the slider has changed */
 190:proximity_task.c ****                     if ((currentProxData != prevProxData)
 191:proximity_task.c ****                         && sendProximityData)
 192:proximity_task.c ****                     {
 193:proximity_task.c ****                         prevProxData = currentProxData;
 194:proximity_task.c ****                         
 195:proximity_task.c ****                         proximityDataUpdated = true;
 196:proximity_task.c ****                     }
 197:proximity_task.c ****                    
 198:proximity_task.c ****                     /* Check if there is any data to be sent, then create the  
 199:proximity_task.c ****                        data header based on the type of data that has been
 200:proximity_task.c ****                        updated */            
 201:proximity_task.c ****                     if(proximityDataUpdated)
ARM GAS  C:\Users\codyg\AppData\Local\Temp\cc6RgQsi.s 			page 5


 202:proximity_task.c ****                     {
 203:proximity_task.c ****                         ble_command_t bleCommandProximity =
 204:proximity_task.c ****                         {   
 205:proximity_task.c ****                             .command = SEND_PROXIMITY_NOTIFICATION,
 206:proximity_task.c ****                         };
 207:proximity_task.c ****                         
 208:proximity_task.c ****                         bleCommandProximity.proximityData = currentProxData;
 209:proximity_task.c ****                         
 210:proximity_task.c ****                         /* Send the processed proximity data */
 211:proximity_task.c ****                         xQueueSend(bleCommandQ, &bleCommandProximity, 0u);
 212:proximity_task.c ****                     }
 213:proximity_task.c ****                     
 214:proximity_task.c ****                     /* Periodic processing request received when no proximity data 
 215:proximity_task.c ****                        needs to be sent */
 216:proximity_task.c ****                     if(!sendProximityData)
 217:proximity_task.c ****                     {
 218:proximity_task.c ****                         Task_DebugPrintf("Error!   : Proximity - periodic process "\
 219:proximity_task.c ****                                     " request during invalid state" , 0u);  
 220:proximity_task.c ****                     }
 221:proximity_task.c ****                     break;
 222:proximity_task.c ****                         
 223:proximity_task.c ****                         
 224:proximity_task.c ****                 /* Invalid task notification value received */    
 225:proximity_task.c ****                 default:
 226:proximity_task.c ****                     Task_DebugPrintf("Error!   : Proximity - Invalid command received ."\
 227:proximity_task.c ****                                 "Error Code:", proximityCommand);
 228:proximity_task.c ****                     break;
 229:proximity_task.c ****             }
 230:proximity_task.c ****         }            
 231:proximity_task.c ****         /* Task has timed out and received no commands during an interval of 
 232:proximity_task.c ****         portMAXDELAY ticks */
 233:proximity_task.c ****         else
 234:proximity_task.c ****         {
 235:proximity_task.c ****             Task_DebugPrintf("Warning! : Proximity - Task Timed out ", 0u);   
 236:proximity_task.c ****         }
 237:proximity_task.c ****     }
 238:proximity_task.c **** }
 239:proximity_task.c **** 
 240:proximity_task.c **** /*******************************************************************************
 241:proximity_task.c **** * Function Name: void static ProximityTimerCallback(TimerHandle_t xTimer)                          
 242:proximity_task.c **** ********************************************************************************
 243:proximity_task.c **** * Summary:
 244:proximity_task.c **** *  This function is called when the proximity timer expires
 245:proximity_task.c **** *
 246:proximity_task.c **** * Parameters:
 247:proximity_task.c **** *  TimerHandle_t xTimer :  Current timer value (unused)
 248:proximity_task.c **** *
 249:proximity_task.c **** * Return:
 250:proximity_task.c **** *  void
 251:proximity_task.c **** *
 252:proximity_task.c **** *******************************************************************************/
 253:proximity_task.c **** void static ProximityTimerCallback(TimerHandle_t xTimer)
 254:proximity_task.c **** {
  28              		.loc 1 254 0
  29              		.cfi_startproc
  30              		@ args = 0, pretend = 0, frame = 8
  31              		@ frame_needed = 0, uses_anonymous_args = 0
ARM GAS  C:\Users\codyg\AppData\Local\Temp\cc6RgQsi.s 			page 6


  32              	.LVL0:
  33 0000 00B5     		push	{lr}
  34              		.cfi_def_cfa_offset 4
  35              		.cfi_offset 14, -4
  36 0002 83B0     		sub	sp, sp, #12
  37              		.cfi_def_cfa_offset 16
 255:proximity_task.c ****     /* Variable used to store the return values of RTOS APIs */
 256:proximity_task.c ****     BaseType_t rtosApiResult;
 257:proximity_task.c ****     
 258:proximity_task.c ****     /* Remove warning for unused parameter */
 259:proximity_task.c ****     (void)xTimer;
 260:proximity_task.c ****     
 261:proximity_task.c ****     /* Send command to process proximity */
 262:proximity_task.c ****     proximity_command_t proximityCommand = PROXIMITY_TIMER_EXPIRED;
  38              		.loc 1 262 0
  39 0004 02A9     		add	r1, sp, #8
  40 0006 0223     		movs	r3, #2
  41 0008 01F8013D 		strb	r3, [r1, #-1]!
 263:proximity_task.c ****     rtosApiResult = xQueueSend(proximityCommandQ, &proximityCommand,0u);
  42              		.loc 1 263 0
  43 000c 0023     		movs	r3, #0
  44 000e 1A46     		mov	r2, r3
  45 0010 0348     		ldr	r0, .L3
  46              	.LVL1:
  47 0012 0068     		ldr	r0, [r0]
  48 0014 FFF7FEFF 		bl	xQueueGenericSend
  49              	.LVL2:
 264:proximity_task.c ****     
 265:proximity_task.c ****     /* Check if the operation has been successful */
 266:proximity_task.c ****     if(rtosApiResult != pdTRUE)
 267:proximity_task.c ****     {
 268:proximity_task.c ****         Task_DebugPrintf("Failure! : Proximity  - Sending data to proximity queue", 0u);    
 269:proximity_task.c ****     }
 270:proximity_task.c **** }
  50              		.loc 1 270 0
  51 0018 03B0     		add	sp, sp, #12
  52              		.cfi_def_cfa_offset 4
  53              		@ sp needed
  54 001a 5DF804FB 		ldr	pc, [sp], #4
  55              	.L4:
  56 001e 00BF     		.align	2
  57              	.L3:
  58 0020 00000000 		.word	proximityCommandQ
  59              		.cfi_endproc
  60              	.LFE529:
  61              		.size	ProximityTimerCallback, .-ProximityTimerCallback
  62              		.section	.text.ProximityTimerStart,"ax",%progbits
  63              		.align	2
  64              		.thumb
  65              		.thumb_func
  66              		.type	ProximityTimerStart, %function
  67              	ProximityTimerStart:
  68              	.LFB530:
 271:proximity_task.c **** 
 272:proximity_task.c **** /*******************************************************************************
 273:proximity_task.c **** * Function Name: void static ProximityTimerStart(void)                  
 274:proximity_task.c **** ********************************************************************************
ARM GAS  C:\Users\codyg\AppData\Local\Temp\cc6RgQsi.s 			page 7


 275:proximity_task.c **** * Summary:
 276:proximity_task.c **** *  This function starts the timer that provides timing to periodic
 277:proximity_task.c **** *  proximity processing
 278:proximity_task.c **** *
 279:proximity_task.c **** * Parameters:
 280:proximity_task.c **** *  void
 281:proximity_task.c **** *
 282:proximity_task.c **** * Return:
 283:proximity_task.c **** *  void
 284:proximity_task.c **** *
 285:proximity_task.c **** *******************************************************************************/
 286:proximity_task.c **** void static ProximityTimerStart(void)
 287:proximity_task.c **** {
  69              		.loc 1 287 0
  70              		.cfi_startproc
  71              		@ args = 0, pretend = 0, frame = 0
  72              		@ frame_needed = 0, uses_anonymous_args = 0
  73 0000 10B5     		push	{r4, lr}
  74              		.cfi_def_cfa_offset 8
  75              		.cfi_offset 4, -8
  76              		.cfi_offset 14, -4
  77 0002 82B0     		sub	sp, sp, #8
  78              		.cfi_def_cfa_offset 16
 288:proximity_task.c ****     /* Variable used to store the return values of RTOS APIs */
 289:proximity_task.c ****     BaseType_t rtosApiResult;
 290:proximity_task.c ****     
 291:proximity_task.c ****     /* Create an RTOS timer */
 292:proximity_task.c ****     xTimer_Proximity =  xTimerCreate ("Proximity Timer", PROXIMITY_IDLE_INTERVAL, pdTRUE,  
  79              		.loc 1 292 0
  80 0004 0B4B     		ldr	r3, .L8
  81 0006 0093     		str	r3, [sp]
  82 0008 0023     		movs	r3, #0
  83 000a 0122     		movs	r2, #1
  84 000c 4FF0FF31 		mov	r1, #-1
  85 0010 0948     		ldr	r0, .L8+4
  86 0012 FFF7FEFF 		bl	xTimerCreate
  87              	.LVL3:
  88 0016 094B     		ldr	r3, .L8+8
  89 0018 1860     		str	r0, [r3]
 293:proximity_task.c ****                                   NULL, ProximityTimerCallback);
 294:proximity_task.c ****     
 295:proximity_task.c ****     /* Make sure that timer handle is valid */
 296:proximity_task.c ****     if (xTimer_Proximity != NULL)
  90              		.loc 1 296 0
  91 001a 48B1     		cbz	r0, .L5
  92 001c 0446     		mov	r4, r0
 297:proximity_task.c ****     {
 298:proximity_task.c ****         /* Start the timer */
 299:proximity_task.c ****         rtosApiResult = xTimerStart(xTimer_Proximity,0u);
  93              		.loc 1 299 0
  94 001e FFF7FEFF 		bl	xTaskGetTickCount
  95              	.LVL4:
  96 0022 0023     		movs	r3, #0
  97 0024 0093     		str	r3, [sp]
  98 0026 0246     		mov	r2, r0
  99 0028 0121     		movs	r1, #1
 100 002a 2046     		mov	r0, r4
ARM GAS  C:\Users\codyg\AppData\Local\Temp\cc6RgQsi.s 			page 8


 101 002c FFF7FEFF 		bl	xTimerGenericCommand
 102              	.LVL5:
 103              	.L5:
 300:proximity_task.c ****         
 301:proximity_task.c ****         /* Check if the operation has been successful */
 302:proximity_task.c ****         if(rtosApiResult != pdPASS)
 303:proximity_task.c ****         {
 304:proximity_task.c ****             Task_DebugPrintf("Failure! : Proximity  - Timer initialization", 0u);    
 305:proximity_task.c ****         }
 306:proximity_task.c ****     }
 307:proximity_task.c ****     else
 308:proximity_task.c ****     {
 309:proximity_task.c ****         Task_DebugPrintf("Failure! : Proximity  - Timer creation", 0u); 
 310:proximity_task.c ****     }
 311:proximity_task.c **** }
 104              		.loc 1 311 0
 105 0030 02B0     		add	sp, sp, #8
 106              		.cfi_def_cfa_offset 8
 107              		@ sp needed
 108 0032 10BD     		pop	{r4, pc}
 109              	.L9:
 110              		.align	2
 111              	.L8:
 112 0034 00000000 		.word	ProximityTimerCallback
 113 0038 00000000 		.word	.LC0
 114 003c 00000000 		.word	xTimer_Proximity
 115              		.cfi_endproc
 116              	.LFE530:
 117              		.size	ProximityTimerStart, .-ProximityTimerStart
 118              		.section	.text.ProximityTimerUpdate,"ax",%progbits
 119              		.align	2
 120              		.thumb
 121              		.thumb_func
 122              		.type	ProximityTimerUpdate, %function
 123              	ProximityTimerUpdate:
 124              	.LFB531:
 312:proximity_task.c **** 
 313:proximity_task.c **** /*******************************************************************************
 314:proximity_task.c **** * Function Name: void static ProximityTimerUpdate(TickType_t period))                 
 315:proximity_task.c **** ********************************************************************************
 316:proximity_task.c **** * Summary:
 317:proximity_task.c **** *  This function updates the timer period per the parameter
 318:proximity_task.c **** *
 319:proximity_task.c **** * Parameters:
 320:proximity_task.c **** *  TickType_t period :  Period of the timer in ticks
 321:proximity_task.c **** *
 322:proximity_task.c **** * Return:
 323:proximity_task.c **** *  void
 324:proximity_task.c **** *
 325:proximity_task.c **** *******************************************************************************/
 326:proximity_task.c **** void static ProximityTimerUpdate(TickType_t period)
 327:proximity_task.c **** {
 125              		.loc 1 327 0
 126              		.cfi_startproc
 127              		@ args = 0, pretend = 0, frame = 0
 128              		@ frame_needed = 0, uses_anonymous_args = 0
 129              	.LVL6:
ARM GAS  C:\Users\codyg\AppData\Local\Temp\cc6RgQsi.s 			page 9


 130 0000 10B5     		push	{r4, lr}
 131              		.cfi_def_cfa_offset 8
 132              		.cfi_offset 4, -8
 133              		.cfi_offset 14, -4
 134 0002 82B0     		sub	sp, sp, #8
 135              		.cfi_def_cfa_offset 16
 328:proximity_task.c ****     /* Variable used to store the return values of RTOS APIs */
 329:proximity_task.c ****     BaseType_t rtosApiResult;
 330:proximity_task.c ****     
 331:proximity_task.c ****     /* Change the timer period */
 332:proximity_task.c ****     rtosApiResult = xTimerChangePeriod(xTimer_Proximity, period, 0u);
 136              		.loc 1 332 0
 137 0004 054B     		ldr	r3, .L12
 138 0006 1C68     		ldr	r4, [r3]
 139 0008 0023     		movs	r3, #0
 140 000a 0093     		str	r3, [sp]
 141 000c 0246     		mov	r2, r0
 142 000e 0421     		movs	r1, #4
 143 0010 2046     		mov	r0, r4
 144              	.LVL7:
 145 0012 FFF7FEFF 		bl	xTimerGenericCommand
 146              	.LVL8:
 333:proximity_task.c **** 
 334:proximity_task.c ****     /* Check if the operation has been successful */
 335:proximity_task.c ****     if(rtosApiResult != pdPASS)
 336:proximity_task.c ****     {
 337:proximity_task.c ****         Task_DebugPrintf("Failure! : Proximity - Timer update ", 0u);   
 338:proximity_task.c ****     }
 339:proximity_task.c **** }
 147              		.loc 1 339 0
 148 0016 02B0     		add	sp, sp, #8
 149              		.cfi_def_cfa_offset 8
 150              		@ sp needed
 151 0018 10BD     		pop	{r4, pc}
 152              	.L13:
 153 001a 00BF     		.align	2
 154              	.L12:
 155 001c 00000000 		.word	xTimer_Proximity
 156              		.cfi_endproc
 157              	.LFE531:
 158              		.size	ProximityTimerUpdate, .-ProximityTimerUpdate
 159              		.section	.text.Task_Proximity,"ax",%progbits
 160              		.align	2
 161              		.global	Task_Proximity
 162              		.thumb
 163              		.thumb_func
 164              		.type	Task_Proximity, %function
 165              	Task_Proximity:
 166              	.LFB528:
  83:proximity_task.c ****     /* Variable that stores CapSense API results */
 167              		.loc 1 83 0
 168              		.cfi_startproc
 169              		@ args = 0, pretend = 0, frame = 8
 170              		@ frame_needed = 0, uses_anonymous_args = 0
 171              	.LVL9:
 172 0000 70B5     		push	{r4, r5, r6, lr}
 173              		.cfi_def_cfa_offset 16
ARM GAS  C:\Users\codyg\AppData\Local\Temp\cc6RgQsi.s 			page 10


 174              		.cfi_offset 4, -16
 175              		.cfi_offset 5, -12
 176              		.cfi_offset 6, -8
 177              		.cfi_offset 14, -4
 178 0002 82B0     		sub	sp, sp, #8
 179              		.cfi_def_cfa_offset 24
 180              	.LVL10:
 104:proximity_task.c **** 
 181              		.loc 1 104 0
 182 0004 FFF7FEFF 		bl	ProximityTimerStart
 183              	.LVL11:
 110:proximity_task.c ****     
 184              		.loc 1 110 0
 185 0008 FFF7FEFF 		bl	CapSense_Start
 186              	.LVL12:
  98:proximity_task.c ****     
 187              		.loc 1 98 0
 188 000c FF26     		movs	r6, #255
  97:proximity_task.c ****     uint8_t  prevProxData = UINT8_MAX;
 189              		.loc 1 97 0
 190 000e 0024     		movs	r4, #0
  94:proximity_task.c **** 
 191              		.loc 1 94 0
 192 0010 2546     		mov	r5, r4
 193              	.LVL13:
 194              	.L15:
 127:proximity_task.c ****                         portMAX_DELAY);
 195              		.loc 1 127 0
 196 0012 0023     		movs	r3, #0
 197 0014 4FF0FF32 		mov	r2, #-1
 198 0018 0DF10701 		add	r1, sp, #7
 199 001c 2348     		ldr	r0, .L29
 200 001e 0068     		ldr	r0, [r0]
 201 0020 FFF7FEFF 		bl	xQueueGenericReceive
 202              	.LVL14:
 130:proximity_task.c ****         {   
 203              		.loc 1 130 0
 204 0024 0128     		cmp	r0, #1
 205 0026 F4D1     		bne	.L15
 133:proximity_task.c ****             {
 206              		.loc 1 133 0
 207 0028 9DF80730 		ldrb	r3, [sp, #7]	@ zero_extendqisi2
 208 002c 012B     		cmp	r3, #1
 209 002e 08D0     		beq	.L17
 210 0030 13B1     		cbz	r3, .L18
 211 0032 022B     		cmp	r3, #2
 212 0034 0BD0     		beq	.L19
 213 0036 ECE7     		b	.L15
 214              	.L18:
 215              	.LVL15:
 139:proximity_task.c ****                     break;
 216              		.loc 1 139 0
 217 0038 2120     		movs	r0, #33
 218              	.LVL16:
 219 003a FFF7FEFF 		bl	ProximityTimerUpdate
 220              	.LVL17:
 137:proximity_task.c ****                     /* Enable periodic scan */
ARM GAS  C:\Users\codyg\AppData\Local\Temp\cc6RgQsi.s 			page 11


 221              		.loc 1 137 0
 222 003e 0125     		movs	r5, #1
 140:proximity_task.c ****                  
 223              		.loc 1 140 0
 224 0040 E7E7     		b	.L15
 225              	.LVL18:
 226              	.L17:
 146:proximity_task.c ****                     break;
 227              		.loc 1 146 0
 228 0042 4FF0FF30 		mov	r0, #-1
 229              	.LVL19:
 230 0046 FFF7FEFF 		bl	ProximityTimerUpdate
 231              	.LVL20:
 144:proximity_task.c ****                     /* Disable periodic scan */
 232              		.loc 1 144 0
 233 004a 0025     		movs	r5, #0
 147:proximity_task.c ****                 /* Process proximity data from proximity sensor */
 234              		.loc 1 147 0
 235 004c E1E7     		b	.L15
 236              	.LVL21:
 237              	.L19:
 154:proximity_task.c ****                     {
 238              		.loc 1 154 0
 239 004e FFF7FEFF 		bl	CapSense_IsBusy
 240              	.LVL22:
 241 0052 98B9     		cbnz	r0, .L20
 157:proximity_task.c ****                         
 242              		.loc 1 157 0
 243 0054 FFF7FEFF 		bl	CapSense_ProcessAllWidgets
 244              	.LVL23:
 160:proximity_task.c ****                            CapSense_PROXIMITY0_FINGER_TH_VALUE)
 245              		.loc 1 160 0
 246 0058 154A     		ldr	r2, .L29+4
 247 005a 138F     		ldrh	r3, [r2, #56]
 161:proximity_task.c ****                         {
 248              		.loc 1 161 0
 249 005c 128C     		ldrh	r2, [r2, #32]
 160:proximity_task.c ****                            CapSense_PROXIMITY0_FINGER_TH_VALUE)
 250              		.loc 1 160 0
 251 005e 9342     		cmp	r3, r2
 252 0060 07D9     		bls	.L24
 164:proximity_task.c ****                                 CapSense_PROXIMITY0_FINGER_TH_VALUE) 
 253              		.loc 1 164 0
 254 0062 991A     		subs	r1, r3, r2
 255 0064 FF29     		cmp	r1, #255
 256 0066 06DC     		bgt	.L25
 169:proximity_task.c ****                                                         CapSense_PROXIMITY0_FINGER_TH_VALUE);
 257              		.loc 1 169 0
 258 0068 DBB2     		uxtb	r3, r3
 259 006a D4B2     		uxtb	r4, r2
 260              	.LVL24:
 261 006c 1C1B     		subs	r4, r3, r4
 262 006e E4B2     		uxtb	r4, r4
 263              	.LVL25:
 264 0070 02E0     		b	.L21
 265              	.L24:
 181:proximity_task.c ****                         }
ARM GAS  C:\Users\codyg\AppData\Local\Temp\cc6RgQsi.s 			page 12


 266              		.loc 1 181 0
 267 0072 0024     		movs	r4, #0
 268              	.LVL26:
 269 0074 00E0     		b	.L21
 270              	.LVL27:
 271              	.L25:
 175:proximity_task.c ****                             }
 272              		.loc 1 175 0
 273 0076 FF24     		movs	r4, #255
 274              	.LVL28:
 275              	.L21:
 185:proximity_task.c ****                     }
 276              		.loc 1 185 0
 277 0078 FFF7FEFF 		bl	CapSense_ScanAllWidgets
 278              	.LVL29:
 279              	.L20:
 190:proximity_task.c ****                         && sendProximityData)
 280              		.loc 1 190 0
 281 007c B442     		cmp	r4, r6
 282 007e 02D0     		beq	.L26
 191:proximity_task.c ****                     {
 283              		.loc 1 191 0
 284 0080 1DB9     		cbnz	r5, .L27
 150:proximity_task.c ****                     
 285              		.loc 1 150 0
 286 0082 0023     		movs	r3, #0
 287 0084 03E0     		b	.L22
 288              	.L26:
 289 0086 0023     		movs	r3, #0
 290 0088 01E0     		b	.L22
 291              	.L27:
 193:proximity_task.c ****                         
 292              		.loc 1 193 0
 293 008a 2646     		mov	r6, r4
 294              	.LVL30:
 195:proximity_task.c ****                     }
 295              		.loc 1 195 0
 296 008c 0123     		movs	r3, #1
 297              	.L22:
 298              	.LVL31:
 201:proximity_task.c ****                     {
 299              		.loc 1 201 0
 300 008e 002B     		cmp	r3, #0
 301 0090 BFD0     		beq	.L15
 302              	.LBB2:
 203:proximity_task.c ****                         {   
 303              		.loc 1 203 0
 304 0092 0022     		movs	r2, #0
 305 0094 0223     		movs	r3, #2
 306              	.LVL32:
 307 0096 8DF80430 		strb	r3, [sp, #4]
 208:proximity_task.c ****                         
 308              		.loc 1 208 0
 309 009a 8DF80540 		strb	r4, [sp, #5]
 211:proximity_task.c ****                     }
 310              		.loc 1 211 0
 311 009e 1346     		mov	r3, r2
ARM GAS  C:\Users\codyg\AppData\Local\Temp\cc6RgQsi.s 			page 13


 312 00a0 01A9     		add	r1, sp, #4
 313 00a2 0448     		ldr	r0, .L29+8
 314 00a4 0068     		ldr	r0, [r0]
 315 00a6 FFF7FEFF 		bl	xQueueGenericSend
 316              	.LVL33:
 317              	.LBE2:
 221:proximity_task.c ****                         
 318              		.loc 1 221 0
 319 00aa B2E7     		b	.L15
 320              	.L30:
 321              		.align	2
 322              	.L29:
 323 00ac 00000000 		.word	proximityCommandQ
 324 00b0 00000000 		.word	CapSense_dsRam
 325 00b4 00000000 		.word	bleCommandQ
 326              		.cfi_endproc
 327              	.LFE528:
 328              		.size	Task_Proximity, .-Task_Proximity
 329              		.comm	xTimer_Proximity,4,4
 330              		.comm	proximityCommandQ,4,4
 331              		.section	.rodata.str1.4,"aMS",%progbits,1
 332              		.align	2
 333              	.LC0:
 334 0000 50726F78 		.ascii	"Proximity Timer\000"
 334      696D6974 
 334      79205469 
 334      6D657200 
 335              		.text
 336              	.Letext0:
 337              		.file 2 "c:\\program files (x86)\\cypress\\psoc creator\\4.2\\psoc creator\\import\\gnu\\arm\\5.4.
 338              		.file 3 "c:\\program files (x86)\\cypress\\psoc creator\\4.2\\psoc creator\\import\\gnu\\arm\\5.4.
 339              		.file 4 "Generated_Source\\PSoC6\\pdl\\drivers/peripheral/syslib/cy_syslib.h"
 340              		.file 5 "Generated_Source\\PSoC6\\pdl\\drivers/peripheral/scb/cy_scb_spi.h"
 341              		.file 6 "Generated_Source\\PSoC6\\pdl\\drivers/peripheral/sar/cy_sar.h"
 342              		.file 7 "Generated_Source\\PSoC6\\pdl\\middleware/ble/cy_ble_stack.h"
 343              		.file 8 "Generated_Source\\PSoC6\\pdl\\middleware/ble/cy_ble_stack_host_main.h"
 344              		.file 9 "Generated_Source\\PSoC6\\pdl\\middleware/ble/cy_ble_gap.h"
 345              		.file 10 "Generated_Source\\PSoC6/CapSense_Configuration.h"
 346              		.file 11 "Generated_Source\\PSoC6/CapSense_Structure.h"
 347              		.file 12 "Generated_Source\\PSoC6/ADC.h"
 348              		.file 13 "Generated_Source\\PSoC6\\pdl\\rtos/FreeRTOS/9.0.0/Source/portable/GCC/CM4F/portmacro.h"
 349              		.file 14 "Generated_Source\\PSoC6\\pdl\\rtos/FreeRTOS/9.0.0/Source/include/queue.h"
 350              		.file 15 "proximity_task.h"
 351              		.file 16 "ble_task.h"
 352              		.file 17 "Generated_Source\\PSoC6\\pdl\\rtos/FreeRTOS/9.0.0/Source/include/timers.h"
 353              		.file 18 "Generated_Source\\PSoC6\\pdl\\cmsis/include/core_cm4.h"
 354              		.file 19 "Generated_Source\\PSoC6/CY_EINK_SPIM.h"
 355              		.file 20 "Generated_Source\\PSoC6\\pdl\\rtos/FreeRTOS/9.0.0/Source/include/task.h"
 356              		.file 21 "Generated_Source\\PSoC6/CapSense_Control.h"
 357              		.file 22 "Generated_Source\\PSoC6/CapSense_Sensing.h"