ARM GAS  C:\Users\codyg\AppData\Local\Temp\cctpv6eZ.s 			page 1


   1              		.syntax unified
   2              		.cpu cortex-m4
   3              		.eabi_attribute 27, 1
   4              		.fpu fpv4-sp-d16
   5              		.eabi_attribute 20, 1
   6              		.eabi_attribute 21, 1
   7              		.eabi_attribute 23, 3
   8              		.eabi_attribute 24, 1
   9              		.eabi_attribute 25, 1
  10              		.eabi_attribute 26, 1
  11              		.eabi_attribute 30, 1
  12              		.eabi_attribute 34, 1
  13              		.eabi_attribute 18, 4
  14              		.thumb
  15              		.syntax unified
  16              		.file	"temperature_eink.c"
  17              		.text
  18              	.Ltext0:
  19              		.cfi_sections	.debug_frame
  20              		.section	.text.GetTemperature,"ax",%progbits
  21              		.align	2
  22              		.global	GetTemperature
  23              		.thumb
  24              		.thumb_func
  25              		.type	GetTemperature, %function
  26              	GetTemperature:
  27              	.LFB523:
  28              		.file 1 "temperature_eink.c"
   1:temperature_eink.c **** /******************************************************************************
   2:temperature_eink.c **** * File Name: temperature_eink.c
   3:temperature_eink.c **** *
   4:temperature_eink.c **** * Version: 1.00
   5:temperature_eink.c **** *
   6:temperature_eink.c **** * Description: This file contains functions that handle the initialization and
   7:temperature_eink.c **** *              the measurement of temperature for E-INK compensation
   8:temperature_eink.c **** *
   9:temperature_eink.c **** * Related Document: CE218137_BLE_Proximity_RTOS.pdf
  10:temperature_eink.c **** *
  11:temperature_eink.c **** * Hardware Dependency: CY8CKIT-062-BLE PSoC 6 BLE Pioneer Kit
  12:temperature_eink.c **** *                      CY8CKIT-028-EPD E-INK Display Shield
  13:temperature_eink.c **** *
  14:temperature_eink.c **** ********************************************************************************
  15:temperature_eink.c **** * Copyright (2018), Cypress Semiconductor Corporation. All rights reserved.
  16:temperature_eink.c **** *******************************************************************************
  17:temperature_eink.c **** * This software, including source code, documentation and related materials
  18:temperature_eink.c **** * (“Software”), is owned by Cypress Semiconductor Corporation or one of its
  19:temperature_eink.c **** * subsidiaries (“Cypress”) and is protected by and subject to worldwide patent
  20:temperature_eink.c **** * protection (United States and foreign), United States copyright laws and
  21:temperature_eink.c **** * international treaty provisions. Therefore, you may use this Software only
  22:temperature_eink.c **** * as provided in the license agreement accompanying the software package from
  23:temperature_eink.c **** * which you obtained this Software (“EULA”).
  24:temperature_eink.c **** *
  25:temperature_eink.c **** * If no EULA applies, Cypress hereby grants you a personal, nonexclusive,
  26:temperature_eink.c **** * non-transferable license to copy, modify, and compile the Software source
  27:temperature_eink.c **** * code solely for use in connection with Cypress’s integrated circuit products.
  28:temperature_eink.c **** * Any reproduction, modification, translation, compilation, or representation
  29:temperature_eink.c **** * of this Software except as specified above is prohibited without the express
ARM GAS  C:\Users\codyg\AppData\Local\Temp\cctpv6eZ.s 			page 2


  30:temperature_eink.c **** * written permission of Cypress.
  31:temperature_eink.c **** *
  32:temperature_eink.c **** * Disclaimer: THIS SOFTWARE IS PROVIDED AS-IS, WITH NO WARRANTY OF ANY KIND, 
  33:temperature_eink.c **** * EXPRESS OR IMPLIED, INCLUDING, BUT NOT LIMITED TO, NONINFRINGEMENT, IMPLIED 
  34:temperature_eink.c **** * WARRANTIES OF MERCHANTABILITY AND FITNESS FOR A PARTICULAR PURPOSE. Cypress 
  35:temperature_eink.c **** * reserves the right to make changes to the Software without notice. Cypress 
  36:temperature_eink.c **** * does not assume any liability arising out of the application or use of the 
  37:temperature_eink.c **** * Software or any product or circuit described in the Software. Cypress does 
  38:temperature_eink.c **** * not authorize its products for use in any products where a malfunction or 
  39:temperature_eink.c **** * failure of the Cypress product may reasonably be expected to result in 
  40:temperature_eink.c **** * significant property damage, injury or death (“High Risk Product”). By 
  41:temperature_eink.c **** * including Cypress’s product in a High Risk Product, the manufacturer of such 
  42:temperature_eink.c **** * system or application assumes all risk of such use and in doing so agrees to 
  43:temperature_eink.c **** * indemnify Cypress against all liability.
  44:temperature_eink.c **** *******************************************************************************/
  45:temperature_eink.c **** /******************************************************************************
  46:temperature_eink.c **** * This file contains functions that handle the initialization and measurement of 
  47:temperature_eink.c **** * temperature using a thermistor circuit
  48:temperature_eink.c **** *******************************************************************************/
  49:temperature_eink.c **** 
  50:temperature_eink.c **** /* Header file includes */
  51:temperature_eink.c **** #include "temperature_eink.h"
  52:temperature_eink.c **** #include <math.h>
  53:temperature_eink.c **** 
  54:temperature_eink.c **** /* ADC channels used to measure reference and thermistor voltages */
  55:temperature_eink.c **** #define REFERENCE_CHANNEL   (uint32_t)(0x00u)
  56:temperature_eink.c **** #define THERMISTOR_CHANNEL  (uint32_t)(0x01u)
  57:temperature_eink.c **** 
  58:temperature_eink.c **** /* Reference resistor in series with the thermistor is of 10 KOhm */
  59:temperature_eink.c **** #define R_REFERENCE         (float)(10000)
  60:temperature_eink.c **** 
  61:temperature_eink.c **** /* Beta constant of this thermistor is 3380 Kelvin. See the thermistor
  62:temperature_eink.c ****    (NCP18XH103F03RB) data sheet for more details. */
  63:temperature_eink.c **** #define B_CONSTANT          (float)(3380)
  64:temperature_eink.c **** 
  65:temperature_eink.c **** /* Resistance of the thermistor is 10K at 25 degrees C (from data sheet)
  66:temperature_eink.c ****    Therefore R0 = 10000 Ohm, and T0 = 298.15 Kelvin, which gives
  67:temperature_eink.c ****    R_INFINITY = R0 e^(-B_CONSTANT / T0) = 0.1192855 */
  68:temperature_eink.c **** #define R_INFINITY          (float)(0.1192855)
  69:temperature_eink.c **** 
  70:temperature_eink.c **** /* Zero Kelvin in degree C */
  71:temperature_eink.c **** #define ABSOLUTE_ZERO       (float)(-273.15)
  72:temperature_eink.c **** 
  73:temperature_eink.c **** /*******************************************************************************
  74:temperature_eink.c **** * Function Name: float GetTemperature(void)
  75:temperature_eink.c **** ********************************************************************************
  76:temperature_eink.c **** * Summary:
  77:temperature_eink.c **** *  This function measures temperature from a thermistor circuit using SAR ADC
  78:temperature_eink.c **** *
  79:temperature_eink.c **** * Parameters:
  80:temperature_eink.c **** *  void
  81:temperature_eink.c **** *
  82:temperature_eink.c **** * Return:
  83:temperature_eink.c **** *  float    : Temperature in degree Celsius
  84:temperature_eink.c **** *
  85:temperature_eink.c **** *******************************************************************************/
  86:temperature_eink.c **** float GetTemperature(void)
ARM GAS  C:\Users\codyg\AppData\Local\Temp\cctpv6eZ.s 			page 3


  87:temperature_eink.c **** {   
  29              		.loc 1 87 0
  30              		.cfi_startproc
  31              		@ args = 0, pretend = 0, frame = 0
  32              		@ frame_needed = 0, uses_anonymous_args = 0
  33 0000 10B5     		push	{r4, lr}
  34              		.cfi_def_cfa_offset 8
  35              		.cfi_offset 4, -8
  36              		.cfi_offset 14, -4
  37 0002 2DED028B 		vpush.64	{d8}
  38              		.cfi_def_cfa_offset 16
  39              		.cfi_offset 80, -16
  40              		.cfi_offset 81, -12
  41              	.LVL0:
  42              	.LBB24:
  43              	.LBB25:
  44              		.file 2 "Generated_Source\\PSoC6\\pdl\\drivers/peripheral/gpio/cy_gpio.h"
   1:Generated_Source\PSoC6\pdl\drivers/peripheral/gpio/cy_gpio.h **** /***************************************************************************//**
   2:Generated_Source\PSoC6\pdl\drivers/peripheral/gpio/cy_gpio.h **** * \file cy_gpio.h
   3:Generated_Source\PSoC6\pdl\drivers/peripheral/gpio/cy_gpio.h **** * \version 1.10.1
   4:Generated_Source\PSoC6\pdl\drivers/peripheral/gpio/cy_gpio.h **** *
   5:Generated_Source\PSoC6\pdl\drivers/peripheral/gpio/cy_gpio.h **** * \brief
   6:Generated_Source\PSoC6\pdl\drivers/peripheral/gpio/cy_gpio.h **** * Provides an API declaration of the GPIO driver
   7:Generated_Source\PSoC6\pdl\drivers/peripheral/gpio/cy_gpio.h **** *
   8:Generated_Source\PSoC6\pdl\drivers/peripheral/gpio/cy_gpio.h **** ********************************************************************************
   9:Generated_Source\PSoC6\pdl\drivers/peripheral/gpio/cy_gpio.h **** * \copyright
  10:Generated_Source\PSoC6\pdl\drivers/peripheral/gpio/cy_gpio.h **** * Copyright 2016-2018, Cypress Semiconductor Corporation. All rights reserved.
  11:Generated_Source\PSoC6\pdl\drivers/peripheral/gpio/cy_gpio.h **** * You may use this file only in accordance with the license, terms, conditions,
  12:Generated_Source\PSoC6\pdl\drivers/peripheral/gpio/cy_gpio.h **** * disclaimers, and limitations in the end user license agreement accompanying
  13:Generated_Source\PSoC6\pdl\drivers/peripheral/gpio/cy_gpio.h **** * the software package with which this file was provided.
  14:Generated_Source\PSoC6\pdl\drivers/peripheral/gpio/cy_gpio.h **** *******************************************************************************/
  15:Generated_Source\PSoC6\pdl\drivers/peripheral/gpio/cy_gpio.h **** 
  16:Generated_Source\PSoC6\pdl\drivers/peripheral/gpio/cy_gpio.h **** /**
  17:Generated_Source\PSoC6\pdl\drivers/peripheral/gpio/cy_gpio.h **** * \defgroup group_gpio General Purpose Input Output (GPIO)
  18:Generated_Source\PSoC6\pdl\drivers/peripheral/gpio/cy_gpio.h **** * \{
  19:Generated_Source\PSoC6\pdl\drivers/peripheral/gpio/cy_gpio.h **** * The GPIO driver provides an API to configure and access device Input/Output pins.
  20:Generated_Source\PSoC6\pdl\drivers/peripheral/gpio/cy_gpio.h **** * IO pins include all general purpose types such as GPIO, SIO, HSIO, AUXIO, and
  21:Generated_Source\PSoC6\pdl\drivers/peripheral/gpio/cy_gpio.h **** * their variants.
  22:Generated_Source\PSoC6\pdl\drivers/peripheral/gpio/cy_gpio.h **** *
  23:Generated_Source\PSoC6\pdl\drivers/peripheral/gpio/cy_gpio.h **** * Initialization can be performed either at the port level or by configuring the
  24:Generated_Source\PSoC6\pdl\drivers/peripheral/gpio/cy_gpio.h **** * individual pins. For efficient use of code space, port
  25:Generated_Source\PSoC6\pdl\drivers/peripheral/gpio/cy_gpio.h **** * configuration should be used in the field. Refer to the product device header files 
  26:Generated_Source\PSoC6\pdl\drivers/peripheral/gpio/cy_gpio.h **** * for the list of supported ports and pins.
  27:Generated_Source\PSoC6\pdl\drivers/peripheral/gpio/cy_gpio.h **** * 
  28:Generated_Source\PSoC6\pdl\drivers/peripheral/gpio/cy_gpio.h **** * - Single pin configuration is performed by using \ref Cy_GPIO_Pin_FastInit 
  29:Generated_Source\PSoC6\pdl\drivers/peripheral/gpio/cy_gpio.h **** *   (provide specific values) or \ref Cy_GPIO_Pin_Init (provide a filled
  30:Generated_Source\PSoC6\pdl\drivers/peripheral/gpio/cy_gpio.h **** *   cy_stc_gpio_pin_config_t structure).
  31:Generated_Source\PSoC6\pdl\drivers/peripheral/gpio/cy_gpio.h **** * - An entire port can be configured using \ref Cy_GPIO_Port_Init. Provide a filled 
  32:Generated_Source\PSoC6\pdl\drivers/peripheral/gpio/cy_gpio.h **** *   cy_stc_gpio_prt_config_t structure. The values in the structure are 
  33:Generated_Source\PSoC6\pdl\drivers/peripheral/gpio/cy_gpio.h **** *   bitfields representing the desired value for each pin in the port.
  34:Generated_Source\PSoC6\pdl\drivers/peripheral/gpio/cy_gpio.h **** * - Pin configuration and management is based on the port address and pin number.
  35:Generated_Source\PSoC6\pdl\drivers/peripheral/gpio/cy_gpio.h **** *   \ref Cy_GPIO_PortToAddr function can optionally be used to calculate the port
  36:Generated_Source\PSoC6\pdl\drivers/peripheral/gpio/cy_gpio.h **** *   address from the port number at run-time.
  37:Generated_Source\PSoC6\pdl\drivers/peripheral/gpio/cy_gpio.h **** *
  38:Generated_Source\PSoC6\pdl\drivers/peripheral/gpio/cy_gpio.h **** * Once the pin/port initialization is complete, each pin can be accessed by 
  39:Generated_Source\PSoC6\pdl\drivers/peripheral/gpio/cy_gpio.h **** * specifying the port (GPIO_PRT_Type) and the pin (0-7) in the provided API 
  40:Generated_Source\PSoC6\pdl\drivers/peripheral/gpio/cy_gpio.h **** * functions.
ARM GAS  C:\Users\codyg\AppData\Local\Temp\cctpv6eZ.s 			page 4


  41:Generated_Source\PSoC6\pdl\drivers/peripheral/gpio/cy_gpio.h **** *
  42:Generated_Source\PSoC6\pdl\drivers/peripheral/gpio/cy_gpio.h **** * \section group_gpio_configuration Configuration Considerations
  43:Generated_Source\PSoC6\pdl\drivers/peripheral/gpio/cy_gpio.h **** *
  44:Generated_Source\PSoC6\pdl\drivers/peripheral/gpio/cy_gpio.h **** * 1. Pin multiplexing is controlled through the High-Speed IO Matrix (HSIOM) selection.
  45:Generated_Source\PSoC6\pdl\drivers/peripheral/gpio/cy_gpio.h **** *    This allows the pin to connect to signal sources/sinks throughout the device,
  46:Generated_Source\PSoC6\pdl\drivers/peripheral/gpio/cy_gpio.h **** *    as defined by the pin HSIOM selection options (en_hsiom_sel_t).
  47:Generated_Source\PSoC6\pdl\drivers/peripheral/gpio/cy_gpio.h **** * 2. All pins are initialized to High-Z drive mode with HSIOM connected to CPU (SW
  48:Generated_Source\PSoC6\pdl\drivers/peripheral/gpio/cy_gpio.h **** *    control digital pin only) at Power-On-Reset(POR).
  49:Generated_Source\PSoC6\pdl\drivers/peripheral/gpio/cy_gpio.h **** * 3. Some API functions perform read-modify-write operations on shared port
  50:Generated_Source\PSoC6\pdl\drivers/peripheral/gpio/cy_gpio.h **** *    registers. These functions are not thread safe and care must be taken when
  51:Generated_Source\PSoC6\pdl\drivers/peripheral/gpio/cy_gpio.h **** *    called by the application.
  52:Generated_Source\PSoC6\pdl\drivers/peripheral/gpio/cy_gpio.h **** *
  53:Generated_Source\PSoC6\pdl\drivers/peripheral/gpio/cy_gpio.h **** * Multiple pins on a port can be updated using direct port register writes with an
  54:Generated_Source\PSoC6\pdl\drivers/peripheral/gpio/cy_gpio.h **** * appropriate port mask. An example is shown below, highlighting the different ways of 
  55:Generated_Source\PSoC6\pdl\drivers/peripheral/gpio/cy_gpio.h **** * configuring Port 1 pins using,
  56:Generated_Source\PSoC6\pdl\drivers/peripheral/gpio/cy_gpio.h **** * 
  57:Generated_Source\PSoC6\pdl\drivers/peripheral/gpio/cy_gpio.h **** * - Port output data register
  58:Generated_Source\PSoC6\pdl\drivers/peripheral/gpio/cy_gpio.h **** * - Port output data set register
  59:Generated_Source\PSoC6\pdl\drivers/peripheral/gpio/cy_gpio.h **** * - Port output data clear register
  60:Generated_Source\PSoC6\pdl\drivers/peripheral/gpio/cy_gpio.h **** *
  61:Generated_Source\PSoC6\pdl\drivers/peripheral/gpio/cy_gpio.h **** * \snippet gpio/gpio_v1_10_sut_01.cydsn/main_cm4.c Cy_GPIO_Snippet
  62:Generated_Source\PSoC6\pdl\drivers/peripheral/gpio/cy_gpio.h **** *
  63:Generated_Source\PSoC6\pdl\drivers/peripheral/gpio/cy_gpio.h **** * \section group_gpio_more_information More Information
  64:Generated_Source\PSoC6\pdl\drivers/peripheral/gpio/cy_gpio.h **** *
  65:Generated_Source\PSoC6\pdl\drivers/peripheral/gpio/cy_gpio.h **** * Refer to the technical reference manual (TRM) and the device datasheet.
  66:Generated_Source\PSoC6\pdl\drivers/peripheral/gpio/cy_gpio.h **** *
  67:Generated_Source\PSoC6\pdl\drivers/peripheral/gpio/cy_gpio.h **** * \section group_gpio_MISRA MISRA-C Compliance]
  68:Generated_Source\PSoC6\pdl\drivers/peripheral/gpio/cy_gpio.h **** * <table class="doxtable">
  69:Generated_Source\PSoC6\pdl\drivers/peripheral/gpio/cy_gpio.h **** *   <tr>
  70:Generated_Source\PSoC6\pdl\drivers/peripheral/gpio/cy_gpio.h **** *     <th>MISRA Rule</th>
  71:Generated_Source\PSoC6\pdl\drivers/peripheral/gpio/cy_gpio.h **** *     <th>Rule Class (Required/Advisory)</th>
  72:Generated_Source\PSoC6\pdl\drivers/peripheral/gpio/cy_gpio.h **** *     <th>Rule Description</th>
  73:Generated_Source\PSoC6\pdl\drivers/peripheral/gpio/cy_gpio.h **** *     <th>Description of Deviation(s)</th>
  74:Generated_Source\PSoC6\pdl\drivers/peripheral/gpio/cy_gpio.h **** *   </tr>
  75:Generated_Source\PSoC6\pdl\drivers/peripheral/gpio/cy_gpio.h **** *   <tr>
  76:Generated_Source\PSoC6\pdl\drivers/peripheral/gpio/cy_gpio.h **** *     <td>16.7</td>
  77:Generated_Source\PSoC6\pdl\drivers/peripheral/gpio/cy_gpio.h **** *     <td>A</td>
  78:Generated_Source\PSoC6\pdl\drivers/peripheral/gpio/cy_gpio.h **** *     <td>A pointer parameter in a function prototype should be declared as pointer 
  79:Generated_Source\PSoC6\pdl\drivers/peripheral/gpio/cy_gpio.h **** *         to const if the pointer is not used to modify the addressed object.</td>
  80:Generated_Source\PSoC6\pdl\drivers/peripheral/gpio/cy_gpio.h **** *     <td>The objects pointed to by the base addresses of the GPIO port are not always modified.
  81:Generated_Source\PSoC6\pdl\drivers/peripheral/gpio/cy_gpio.h **** *         While a const qualifier can be used in select scenarios, it brings little benefit
  82:Generated_Source\PSoC6\pdl\drivers/peripheral/gpio/cy_gpio.h **** *         in adding this to the affected functions. </td>
  83:Generated_Source\PSoC6\pdl\drivers/peripheral/gpio/cy_gpio.h **** *   </tr>
  84:Generated_Source\PSoC6\pdl\drivers/peripheral/gpio/cy_gpio.h **** * </table>
  85:Generated_Source\PSoC6\pdl\drivers/peripheral/gpio/cy_gpio.h **** *
  86:Generated_Source\PSoC6\pdl\drivers/peripheral/gpio/cy_gpio.h **** * \section group_gpio_changelog Changelog
  87:Generated_Source\PSoC6\pdl\drivers/peripheral/gpio/cy_gpio.h **** * <table class="doxtable">
  88:Generated_Source\PSoC6\pdl\drivers/peripheral/gpio/cy_gpio.h **** *   <tr><th>Version</th><th>Changes</th><th>Reason for Change</th></tr>
  89:Generated_Source\PSoC6\pdl\drivers/peripheral/gpio/cy_gpio.h **** *   <tr>
  90:Generated_Source\PSoC6\pdl\drivers/peripheral/gpio/cy_gpio.h **** *     <td>1.10.1</td>
  91:Generated_Source\PSoC6\pdl\drivers/peripheral/gpio/cy_gpio.h **** *     <td>Updated description for the functions: \ref Cy_GPIO_GetInterruptStatus, 
  92:Generated_Source\PSoC6\pdl\drivers/peripheral/gpio/cy_gpio.h **** *         \ref Cy_GPIO_GetInterruptMask, \ref Cy_GPIO_GetInterruptStatusMasked.
  93:Generated_Source\PSoC6\pdl\drivers/peripheral/gpio/cy_gpio.h **** *         Minor documentation edits.
  94:Generated_Source\PSoC6\pdl\drivers/peripheral/gpio/cy_gpio.h **** *     </td>
  95:Generated_Source\PSoC6\pdl\drivers/peripheral/gpio/cy_gpio.h **** *     <td>Documentation update and clarification</td>
  96:Generated_Source\PSoC6\pdl\drivers/peripheral/gpio/cy_gpio.h **** *   </tr>
  97:Generated_Source\PSoC6\pdl\drivers/peripheral/gpio/cy_gpio.h **** *   <tr>
ARM GAS  C:\Users\codyg\AppData\Local\Temp\cctpv6eZ.s 			page 5


  98:Generated_Source\PSoC6\pdl\drivers/peripheral/gpio/cy_gpio.h **** *     <td>1.10</td>
  99:Generated_Source\PSoC6\pdl\drivers/peripheral/gpio/cy_gpio.h **** *     <td>Added input parameter validation to the API functions</td>
 100:Generated_Source\PSoC6\pdl\drivers/peripheral/gpio/cy_gpio.h **** *     <td></td>
 101:Generated_Source\PSoC6\pdl\drivers/peripheral/gpio/cy_gpio.h **** *   </tr>
 102:Generated_Source\PSoC6\pdl\drivers/peripheral/gpio/cy_gpio.h **** *   <tr>
 103:Generated_Source\PSoC6\pdl\drivers/peripheral/gpio/cy_gpio.h **** *     <td>1.0</td>
 104:Generated_Source\PSoC6\pdl\drivers/peripheral/gpio/cy_gpio.h **** *     <td>Initial version</td>
 105:Generated_Source\PSoC6\pdl\drivers/peripheral/gpio/cy_gpio.h **** *     <td></td>
 106:Generated_Source\PSoC6\pdl\drivers/peripheral/gpio/cy_gpio.h **** *   </tr>
 107:Generated_Source\PSoC6\pdl\drivers/peripheral/gpio/cy_gpio.h **** * </table>
 108:Generated_Source\PSoC6\pdl\drivers/peripheral/gpio/cy_gpio.h **** *
 109:Generated_Source\PSoC6\pdl\drivers/peripheral/gpio/cy_gpio.h **** * \defgroup group_gpio_macros Macros
 110:Generated_Source\PSoC6\pdl\drivers/peripheral/gpio/cy_gpio.h **** * \defgroup group_gpio_functions Functions
 111:Generated_Source\PSoC6\pdl\drivers/peripheral/gpio/cy_gpio.h **** * \{
 112:Generated_Source\PSoC6\pdl\drivers/peripheral/gpio/cy_gpio.h **** *   \defgroup group_gpio_functions_init       Initialization Functions
 113:Generated_Source\PSoC6\pdl\drivers/peripheral/gpio/cy_gpio.h **** *   \defgroup group_gpio_functions_gpio       GPIO Functions
 114:Generated_Source\PSoC6\pdl\drivers/peripheral/gpio/cy_gpio.h **** *   \defgroup group_gpio_functions_sio        SIO Functions
 115:Generated_Source\PSoC6\pdl\drivers/peripheral/gpio/cy_gpio.h **** *   \defgroup group_gpio_functions_interrupt  Port Interrupt Functions
 116:Generated_Source\PSoC6\pdl\drivers/peripheral/gpio/cy_gpio.h **** * \}
 117:Generated_Source\PSoC6\pdl\drivers/peripheral/gpio/cy_gpio.h **** * \defgroup group_gpio_data_structures Data Structures
 118:Generated_Source\PSoC6\pdl\drivers/peripheral/gpio/cy_gpio.h **** * \defgroup group_gpio_enums Enumerated Types
 119:Generated_Source\PSoC6\pdl\drivers/peripheral/gpio/cy_gpio.h **** */
 120:Generated_Source\PSoC6\pdl\drivers/peripheral/gpio/cy_gpio.h **** 
 121:Generated_Source\PSoC6\pdl\drivers/peripheral/gpio/cy_gpio.h **** #if !defined(CY_GPIO_H)
 122:Generated_Source\PSoC6\pdl\drivers/peripheral/gpio/cy_gpio.h **** #define CY_GPIO_H
 123:Generated_Source\PSoC6\pdl\drivers/peripheral/gpio/cy_gpio.h **** 
 124:Generated_Source\PSoC6\pdl\drivers/peripheral/gpio/cy_gpio.h **** #include <stddef.h>
 125:Generated_Source\PSoC6\pdl\drivers/peripheral/gpio/cy_gpio.h **** #include "syslib/cy_syslib.h"
 126:Generated_Source\PSoC6\pdl\drivers/peripheral/gpio/cy_gpio.h **** #include "cy_device_headers.h"
 127:Generated_Source\PSoC6\pdl\drivers/peripheral/gpio/cy_gpio.h **** 
 128:Generated_Source\PSoC6\pdl\drivers/peripheral/gpio/cy_gpio.h **** #if defined(__cplusplus)
 129:Generated_Source\PSoC6\pdl\drivers/peripheral/gpio/cy_gpio.h **** extern "C" {
 130:Generated_Source\PSoC6\pdl\drivers/peripheral/gpio/cy_gpio.h **** #endif
 131:Generated_Source\PSoC6\pdl\drivers/peripheral/gpio/cy_gpio.h **** 
 132:Generated_Source\PSoC6\pdl\drivers/peripheral/gpio/cy_gpio.h **** /** \addtogroup group_gpio_macros
 133:Generated_Source\PSoC6\pdl\drivers/peripheral/gpio/cy_gpio.h **** * \{
 134:Generated_Source\PSoC6\pdl\drivers/peripheral/gpio/cy_gpio.h **** */
 135:Generated_Source\PSoC6\pdl\drivers/peripheral/gpio/cy_gpio.h **** 
 136:Generated_Source\PSoC6\pdl\drivers/peripheral/gpio/cy_gpio.h **** /** Driver major version */
 137:Generated_Source\PSoC6\pdl\drivers/peripheral/gpio/cy_gpio.h **** #define CY_GPIO_DRV_VERSION_MAJOR       1
 138:Generated_Source\PSoC6\pdl\drivers/peripheral/gpio/cy_gpio.h **** 
 139:Generated_Source\PSoC6\pdl\drivers/peripheral/gpio/cy_gpio.h **** /** Driver minor version */
 140:Generated_Source\PSoC6\pdl\drivers/peripheral/gpio/cy_gpio.h **** #define CY_GPIO_DRV_VERSION_MINOR       10
 141:Generated_Source\PSoC6\pdl\drivers/peripheral/gpio/cy_gpio.h **** 
 142:Generated_Source\PSoC6\pdl\drivers/peripheral/gpio/cy_gpio.h **** /** GPIO driver ID */
 143:Generated_Source\PSoC6\pdl\drivers/peripheral/gpio/cy_gpio.h **** #define CY_GPIO_ID CY_PDL_DRV_ID(0x16u)
 144:Generated_Source\PSoC6\pdl\drivers/peripheral/gpio/cy_gpio.h **** 
 145:Generated_Source\PSoC6\pdl\drivers/peripheral/gpio/cy_gpio.h **** /** \} group_gpio_macros */
 146:Generated_Source\PSoC6\pdl\drivers/peripheral/gpio/cy_gpio.h **** 
 147:Generated_Source\PSoC6\pdl\drivers/peripheral/gpio/cy_gpio.h **** 
 148:Generated_Source\PSoC6\pdl\drivers/peripheral/gpio/cy_gpio.h **** /***************************************
 149:Generated_Source\PSoC6\pdl\drivers/peripheral/gpio/cy_gpio.h **** *       Enumerations
 150:Generated_Source\PSoC6\pdl\drivers/peripheral/gpio/cy_gpio.h **** ***************************************/
 151:Generated_Source\PSoC6\pdl\drivers/peripheral/gpio/cy_gpio.h **** /**
 152:Generated_Source\PSoC6\pdl\drivers/peripheral/gpio/cy_gpio.h **** * \addtogroup group_gpio_enums
 153:Generated_Source\PSoC6\pdl\drivers/peripheral/gpio/cy_gpio.h **** * \{
 154:Generated_Source\PSoC6\pdl\drivers/peripheral/gpio/cy_gpio.h **** */
ARM GAS  C:\Users\codyg\AppData\Local\Temp\cctpv6eZ.s 			page 6


 155:Generated_Source\PSoC6\pdl\drivers/peripheral/gpio/cy_gpio.h **** 
 156:Generated_Source\PSoC6\pdl\drivers/peripheral/gpio/cy_gpio.h **** /**
 157:Generated_Source\PSoC6\pdl\drivers/peripheral/gpio/cy_gpio.h **** * GPIO Driver error codes
 158:Generated_Source\PSoC6\pdl\drivers/peripheral/gpio/cy_gpio.h **** */
 159:Generated_Source\PSoC6\pdl\drivers/peripheral/gpio/cy_gpio.h **** typedef enum 
 160:Generated_Source\PSoC6\pdl\drivers/peripheral/gpio/cy_gpio.h **** {
 161:Generated_Source\PSoC6\pdl\drivers/peripheral/gpio/cy_gpio.h ****     CY_GPIO_SUCCESS   = 0x00u,                                    /**< Returned successful */
 162:Generated_Source\PSoC6\pdl\drivers/peripheral/gpio/cy_gpio.h ****     CY_GPIO_BAD_PARAM = CY_GPIO_ID | CY_PDL_STATUS_ERROR | 0x01u, /**< Bad parameter was passed */
 163:Generated_Source\PSoC6\pdl\drivers/peripheral/gpio/cy_gpio.h **** } cy_en_gpio_status_t;
 164:Generated_Source\PSoC6\pdl\drivers/peripheral/gpio/cy_gpio.h **** 
 165:Generated_Source\PSoC6\pdl\drivers/peripheral/gpio/cy_gpio.h **** /** \} group_gpio_enums */
 166:Generated_Source\PSoC6\pdl\drivers/peripheral/gpio/cy_gpio.h **** 
 167:Generated_Source\PSoC6\pdl\drivers/peripheral/gpio/cy_gpio.h **** 
 168:Generated_Source\PSoC6\pdl\drivers/peripheral/gpio/cy_gpio.h **** /***************************************
 169:Generated_Source\PSoC6\pdl\drivers/peripheral/gpio/cy_gpio.h **** *       Configuration Structures
 170:Generated_Source\PSoC6\pdl\drivers/peripheral/gpio/cy_gpio.h **** ***************************************/
 171:Generated_Source\PSoC6\pdl\drivers/peripheral/gpio/cy_gpio.h **** 
 172:Generated_Source\PSoC6\pdl\drivers/peripheral/gpio/cy_gpio.h **** /**
 173:Generated_Source\PSoC6\pdl\drivers/peripheral/gpio/cy_gpio.h **** * \addtogroup group_gpio_data_structures
 174:Generated_Source\PSoC6\pdl\drivers/peripheral/gpio/cy_gpio.h **** * \{
 175:Generated_Source\PSoC6\pdl\drivers/peripheral/gpio/cy_gpio.h **** */
 176:Generated_Source\PSoC6\pdl\drivers/peripheral/gpio/cy_gpio.h **** 
 177:Generated_Source\PSoC6\pdl\drivers/peripheral/gpio/cy_gpio.h **** /** This structure is used to initialize a port of GPIO pins */
 178:Generated_Source\PSoC6\pdl\drivers/peripheral/gpio/cy_gpio.h **** typedef struct {
 179:Generated_Source\PSoC6\pdl\drivers/peripheral/gpio/cy_gpio.h ****     uint32_t out;           /**< Initial output data for the IO pins in the port */
 180:Generated_Source\PSoC6\pdl\drivers/peripheral/gpio/cy_gpio.h ****     uint32_t intrMask;      /**< Interrupt enable mask for the port interrupt */
 181:Generated_Source\PSoC6\pdl\drivers/peripheral/gpio/cy_gpio.h ****     uint32_t intrCfg;       /**< Port pin interrupt edge detection configuration */
 182:Generated_Source\PSoC6\pdl\drivers/peripheral/gpio/cy_gpio.h ****     uint32_t cfg;           /**< Port pin drive modes and input buffer enable configuration */
 183:Generated_Source\PSoC6\pdl\drivers/peripheral/gpio/cy_gpio.h ****     uint32_t cfgIn;         /**< Port pin input buffer configuration */
 184:Generated_Source\PSoC6\pdl\drivers/peripheral/gpio/cy_gpio.h ****     uint32_t cfgOut;        /**< Port pin output buffer configuration */
 185:Generated_Source\PSoC6\pdl\drivers/peripheral/gpio/cy_gpio.h ****     uint32_t cfgSIO;        /**< Port SIO pins configuration */
 186:Generated_Source\PSoC6\pdl\drivers/peripheral/gpio/cy_gpio.h ****     uint32_t sel0Active;    /**< HSIOM selection for port pins 0,1,2,3 */
 187:Generated_Source\PSoC6\pdl\drivers/peripheral/gpio/cy_gpio.h ****     uint32_t sel1Active;    /**< HSIOM selection for port pins 4,5,6,7 */
 188:Generated_Source\PSoC6\pdl\drivers/peripheral/gpio/cy_gpio.h **** } cy_stc_gpio_prt_config_t;
 189:Generated_Source\PSoC6\pdl\drivers/peripheral/gpio/cy_gpio.h **** 
 190:Generated_Source\PSoC6\pdl\drivers/peripheral/gpio/cy_gpio.h **** /** This structure is used to initialize a single GPIO pin */
 191:Generated_Source\PSoC6\pdl\drivers/peripheral/gpio/cy_gpio.h **** typedef struct {
 192:Generated_Source\PSoC6\pdl\drivers/peripheral/gpio/cy_gpio.h ****     uint32_t outVal;         /**< Pin output state */
 193:Generated_Source\PSoC6\pdl\drivers/peripheral/gpio/cy_gpio.h ****     uint32_t driveMode;      /**< Drive mode */
 194:Generated_Source\PSoC6\pdl\drivers/peripheral/gpio/cy_gpio.h ****     en_hsiom_sel_t hsiom;   /**< HSIOM selection */
 195:Generated_Source\PSoC6\pdl\drivers/peripheral/gpio/cy_gpio.h ****     uint32_t intEdge;        /**< Interrupt Edge type */
 196:Generated_Source\PSoC6\pdl\drivers/peripheral/gpio/cy_gpio.h ****     uint32_t intMask;        /**< Interrupt enable mask */
 197:Generated_Source\PSoC6\pdl\drivers/peripheral/gpio/cy_gpio.h ****     uint32_t vtrip;          /**< Input buffer voltage trip type */
 198:Generated_Source\PSoC6\pdl\drivers/peripheral/gpio/cy_gpio.h ****     uint32_t slewRate;       /**< Output buffer slew rate */
 199:Generated_Source\PSoC6\pdl\drivers/peripheral/gpio/cy_gpio.h ****     uint32_t driveSel;       /**< Drive strength */
 200:Generated_Source\PSoC6\pdl\drivers/peripheral/gpio/cy_gpio.h ****     uint32_t vregEn;         /**< SIO pair output buffer mode */
 201:Generated_Source\PSoC6\pdl\drivers/peripheral/gpio/cy_gpio.h ****     uint32_t ibufMode;       /**< SIO pair input buffer mode */
 202:Generated_Source\PSoC6\pdl\drivers/peripheral/gpio/cy_gpio.h ****     uint32_t vtripSel;       /**< SIO pair input buffer trip point */
 203:Generated_Source\PSoC6\pdl\drivers/peripheral/gpio/cy_gpio.h ****     uint32_t vrefSel;        /**< SIO pair reference voltage for input buffer trip point */
 204:Generated_Source\PSoC6\pdl\drivers/peripheral/gpio/cy_gpio.h ****     uint32_t vohSel;         /**< SIO pair regulated voltage output level */
 205:Generated_Source\PSoC6\pdl\drivers/peripheral/gpio/cy_gpio.h **** } cy_stc_gpio_pin_config_t;
 206:Generated_Source\PSoC6\pdl\drivers/peripheral/gpio/cy_gpio.h **** 
 207:Generated_Source\PSoC6\pdl\drivers/peripheral/gpio/cy_gpio.h **** /** \} group_gpio_data_structures */
 208:Generated_Source\PSoC6\pdl\drivers/peripheral/gpio/cy_gpio.h **** 
 209:Generated_Source\PSoC6\pdl\drivers/peripheral/gpio/cy_gpio.h **** /***************************************
 210:Generated_Source\PSoC6\pdl\drivers/peripheral/gpio/cy_gpio.h **** *        Constants
 211:Generated_Source\PSoC6\pdl\drivers/peripheral/gpio/cy_gpio.h **** ***************************************/
ARM GAS  C:\Users\codyg\AppData\Local\Temp\cctpv6eZ.s 			page 7


 212:Generated_Source\PSoC6\pdl\drivers/peripheral/gpio/cy_gpio.h **** 
 213:Generated_Source\PSoC6\pdl\drivers/peripheral/gpio/cy_gpio.h **** /** \cond INTERNAL */
 214:Generated_Source\PSoC6\pdl\drivers/peripheral/gpio/cy_gpio.h **** 
 215:Generated_Source\PSoC6\pdl\drivers/peripheral/gpio/cy_gpio.h **** /* General Constants */
 216:Generated_Source\PSoC6\pdl\drivers/peripheral/gpio/cy_gpio.h **** #define CY_GPIO_PRT_HALF                       (4UL)      /**< Half-way point of a GPIO port */
 217:Generated_Source\PSoC6\pdl\drivers/peripheral/gpio/cy_gpio.h **** #define CY_GPIO_PRT_DEINIT                     (0UL)      /**< De-init value for port registers */
 218:Generated_Source\PSoC6\pdl\drivers/peripheral/gpio/cy_gpio.h **** 
 219:Generated_Source\PSoC6\pdl\drivers/peripheral/gpio/cy_gpio.h **** /* GPIO Masks */
 220:Generated_Source\PSoC6\pdl\drivers/peripheral/gpio/cy_gpio.h **** #define CY_GPIO_HSIOM_MASK                     (0x1FUL)   /**< HSIOM selection mask */
 221:Generated_Source\PSoC6\pdl\drivers/peripheral/gpio/cy_gpio.h **** #define CY_GPIO_OUT_MASK                       (0x01UL)   /**< Single pin mask for OUT register */
 222:Generated_Source\PSoC6\pdl\drivers/peripheral/gpio/cy_gpio.h **** #define CY_GPIO_IN_MASK                        (0x01UL)   /**< Single pin mask for IN register */
 223:Generated_Source\PSoC6\pdl\drivers/peripheral/gpio/cy_gpio.h **** #define CY_GPIO_CFG_DM_MASK                    (0x0FUL)   /**< Single pin mask for drive mode in CF
 224:Generated_Source\PSoC6\pdl\drivers/peripheral/gpio/cy_gpio.h **** #define CY_GPIO_CFG_IN_VTRIP_SEL_MASK          (0x01UL)   /**< Single pin mask for VTRIP selection 
 225:Generated_Source\PSoC6\pdl\drivers/peripheral/gpio/cy_gpio.h **** #define CY_GPIO_CFG_OUT_SLOW_MASK              (0x01UL)   /**< Single pin mask for slew rate in CFG
 226:Generated_Source\PSoC6\pdl\drivers/peripheral/gpio/cy_gpio.h **** #define CY_GPIO_CFG_OUT_DRIVE_SEL_MASK         (0x03UL)   /**< Single pin mask for drive strength i
 227:Generated_Source\PSoC6\pdl\drivers/peripheral/gpio/cy_gpio.h **** #define CY_GPIO_INTR_STATUS_MASK               (0x01UL)   /**< Single pin mask for interrupt status
 228:Generated_Source\PSoC6\pdl\drivers/peripheral/gpio/cy_gpio.h **** #define CY_GPIO_INTR_EN_MASK                   (0x01UL)   /**< Single pin mask for interrupt status
 229:Generated_Source\PSoC6\pdl\drivers/peripheral/gpio/cy_gpio.h **** #define CY_GPIO_INTR_MASKED_MASK               (0x01UL)   /**< Single pin mask for masked interrupt
 230:Generated_Source\PSoC6\pdl\drivers/peripheral/gpio/cy_gpio.h **** #define CY_GPIO_INTR_SET_MASK                  (0x01UL)   /**< Single pin mask for setting the inte
 231:Generated_Source\PSoC6\pdl\drivers/peripheral/gpio/cy_gpio.h **** #define CY_GPIO_INTR_EDGE_MASK                 (0x03UL)   /**< Single pin mask for interrupt edge t
 232:Generated_Source\PSoC6\pdl\drivers/peripheral/gpio/cy_gpio.h **** #define CY_GPIO_INTR_FLT_EDGE_MASK             (0x07UL)   /**< Single pin mask for setting filtered
 233:Generated_Source\PSoC6\pdl\drivers/peripheral/gpio/cy_gpio.h **** 
 234:Generated_Source\PSoC6\pdl\drivers/peripheral/gpio/cy_gpio.h **** /* SIO Masks */
 235:Generated_Source\PSoC6\pdl\drivers/peripheral/gpio/cy_gpio.h **** #define CY_GPIO_VREG_EN_MASK                   (0x01UL)   /**< Single SIO pin mask for voltage regu
 236:Generated_Source\PSoC6\pdl\drivers/peripheral/gpio/cy_gpio.h **** #define CY_GPIO_IBUF_MASK                      (0x01UL)   /**< Single SIO pin mask for input buffer
 237:Generated_Source\PSoC6\pdl\drivers/peripheral/gpio/cy_gpio.h **** #define CY_GPIO_IBUF_SHIFT                     (0x01UL)   /**< Single SIO pin shift for input buffe
 238:Generated_Source\PSoC6\pdl\drivers/peripheral/gpio/cy_gpio.h **** #define CY_GPIO_VTRIP_SEL_MASK                 (0x01UL)   /**< Single SIO pin mask for the input bu
 239:Generated_Source\PSoC6\pdl\drivers/peripheral/gpio/cy_gpio.h **** #define CY_GPIO_VTRIP_SEL_SHIFT                (0x02UL)   /**< Single SIO pin shift for the input b
 240:Generated_Source\PSoC6\pdl\drivers/peripheral/gpio/cy_gpio.h **** #define CY_GPIO_VREF_SEL_MASK                  (0x03UL)   /**< Single SIO pin mask for voltage refe
 241:Generated_Source\PSoC6\pdl\drivers/peripheral/gpio/cy_gpio.h **** #define CY_GPIO_VREF_SEL_SHIFT                 (0x03UL)   /**< Single SIO pin shift for voltage ref
 242:Generated_Source\PSoC6\pdl\drivers/peripheral/gpio/cy_gpio.h **** #define CY_GPIO_VOH_SEL_MASK                   (0x07UL)   /**< Single SIO pin mask for VOH */
 243:Generated_Source\PSoC6\pdl\drivers/peripheral/gpio/cy_gpio.h **** #define CY_GPIO_VOH_SEL_SHIFT                  (0x05UL)   /**< Single SIO pin shift for VOH */
 244:Generated_Source\PSoC6\pdl\drivers/peripheral/gpio/cy_gpio.h **** 
 245:Generated_Source\PSoC6\pdl\drivers/peripheral/gpio/cy_gpio.h **** /* Special mask for SIO pin pair setting */
 246:Generated_Source\PSoC6\pdl\drivers/peripheral/gpio/cy_gpio.h **** #define CY_GPIO_SIO_ODD_PIN_MASK               (0x00FEUL) /**< SIO pin pair selection mask */
 247:Generated_Source\PSoC6\pdl\drivers/peripheral/gpio/cy_gpio.h **** #define CY_GPIO_SIO_PIN_MASK                   (0x00FFUL) /**< SIO pin pair mask */
 248:Generated_Source\PSoC6\pdl\drivers/peripheral/gpio/cy_gpio.h **** 
 249:Generated_Source\PSoC6\pdl\drivers/peripheral/gpio/cy_gpio.h **** /* Offsets */
 250:Generated_Source\PSoC6\pdl\drivers/peripheral/gpio/cy_gpio.h **** #define CY_GPIO_HSIOM_OFFSET                   (3UL)      /**< Offset for HSIOM */
 251:Generated_Source\PSoC6\pdl\drivers/peripheral/gpio/cy_gpio.h **** #define CY_GPIO_DRIVE_MODE_OFFSET              (2UL)      /**< Offset for Drive mode */
 252:Generated_Source\PSoC6\pdl\drivers/peripheral/gpio/cy_gpio.h **** #define CY_GPIO_INBUF_OFFSET                   (3UL)      /**< Offset for input buffer */
 253:Generated_Source\PSoC6\pdl\drivers/peripheral/gpio/cy_gpio.h **** #define CY_GPIO_CFG_OUT_DRIVE_OFFSET           (16UL)     /**< Offset for drive strength */
 254:Generated_Source\PSoC6\pdl\drivers/peripheral/gpio/cy_gpio.h **** #define CY_GPIO_INTR_CFG_OFFSET                (1UL)      /**< Offset for interrupt config */
 255:Generated_Source\PSoC6\pdl\drivers/peripheral/gpio/cy_gpio.h **** #define CY_GPIO_INTR_FILT_OFFSET               (18UL)     /**< Offset for filtered interrupt config
 256:Generated_Source\PSoC6\pdl\drivers/peripheral/gpio/cy_gpio.h **** #define CY_GPIO_CFG_SIO_OFFSET                 (2UL)      /**< Offset for SIO config */
 257:Generated_Source\PSoC6\pdl\drivers/peripheral/gpio/cy_gpio.h **** 
 258:Generated_Source\PSoC6\pdl\drivers/peripheral/gpio/cy_gpio.h **** /* Parameter validation constants */
 259:Generated_Source\PSoC6\pdl\drivers/peripheral/gpio/cy_gpio.h **** #define CY_GPIO_PINS_MAX                       (8UL)      /**< Number of pins in the port */
 260:Generated_Source\PSoC6\pdl\drivers/peripheral/gpio/cy_gpio.h **** #define CY_GPIO_PRT_PINS_MASK                  (0x0000000FFUL)
 261:Generated_Source\PSoC6\pdl\drivers/peripheral/gpio/cy_gpio.h **** #define CY_GPIO_PRT_INTR_CFG_EDGE_SEL_MASK     (GPIO_PRT_INTR_CFG_EDGE0_SEL_Msk | \
 262:Generated_Source\PSoC6\pdl\drivers/peripheral/gpio/cy_gpio.h ****                                                 GPIO_PRT_INTR_CFG_EDGE1_SEL_Msk | \
 263:Generated_Source\PSoC6\pdl\drivers/peripheral/gpio/cy_gpio.h ****                                                 GPIO_PRT_INTR_CFG_EDGE2_SEL_Msk | \
 264:Generated_Source\PSoC6\pdl\drivers/peripheral/gpio/cy_gpio.h ****                                                 GPIO_PRT_INTR_CFG_EDGE3_SEL_Msk | \
 265:Generated_Source\PSoC6\pdl\drivers/peripheral/gpio/cy_gpio.h ****                                                 GPIO_PRT_INTR_CFG_EDGE4_SEL_Msk | \
 266:Generated_Source\PSoC6\pdl\drivers/peripheral/gpio/cy_gpio.h ****                                                 GPIO_PRT_INTR_CFG_EDGE5_SEL_Msk | \
 267:Generated_Source\PSoC6\pdl\drivers/peripheral/gpio/cy_gpio.h ****                                                 GPIO_PRT_INTR_CFG_EDGE6_SEL_Msk | \
 268:Generated_Source\PSoC6\pdl\drivers/peripheral/gpio/cy_gpio.h ****                                                 GPIO_PRT_INTR_CFG_EDGE7_SEL_Msk)            
ARM GAS  C:\Users\codyg\AppData\Local\Temp\cctpv6eZ.s 			page 8


 269:Generated_Source\PSoC6\pdl\drivers/peripheral/gpio/cy_gpio.h **** #define CY_GPIO_PRT_INTR_CFG_RANGE_MASK        (CY_GPIO_PRT_INTR_CFG_EDGE_SEL_MASK | \
 270:Generated_Source\PSoC6\pdl\drivers/peripheral/gpio/cy_gpio.h ****                                                 GPIO_PRT_INTR_CFG_FLT_EDGE_SEL_Msk | \
 271:Generated_Source\PSoC6\pdl\drivers/peripheral/gpio/cy_gpio.h ****                                                 GPIO_PRT_INTR_CFG_FLT_SEL_Msk)
 272:Generated_Source\PSoC6\pdl\drivers/peripheral/gpio/cy_gpio.h **** #define CY_GPIO_PRT_INT_MASK_MASK              (0x0000001FFUL)
 273:Generated_Source\PSoC6\pdl\drivers/peripheral/gpio/cy_gpio.h **** #define CY_GPIO_PRT_SEL_ACTIVE_MASK            (0x1FFFFFFFUL)
 274:Generated_Source\PSoC6\pdl\drivers/peripheral/gpio/cy_gpio.h **** 
 275:Generated_Source\PSoC6\pdl\drivers/peripheral/gpio/cy_gpio.h **** /* Parameter validation macros */
 276:Generated_Source\PSoC6\pdl\drivers/peripheral/gpio/cy_gpio.h **** #define CY_GPIO_IS_PIN_VALID(pinNum)           (CY_GPIO_PINS_MAX > (pinNum))
 277:Generated_Source\PSoC6\pdl\drivers/peripheral/gpio/cy_gpio.h **** #define CY_GPIO_IS_FILTER_PIN_VALID(pinNum)    (CY_GPIO_PINS_MAX >= (pinNum))
 278:Generated_Source\PSoC6\pdl\drivers/peripheral/gpio/cy_gpio.h **** #define CY_GPIO_IS_VALUE_VALID(outVal)         (1UL >= (outVal))
 279:Generated_Source\PSoC6\pdl\drivers/peripheral/gpio/cy_gpio.h **** #define CY_GPIO_IS_DM_VALID(driveMode)         (0U == ((driveMode) & (uint32_t)~CY_GPIO_CFG_DM_MASK
 280:Generated_Source\PSoC6\pdl\drivers/peripheral/gpio/cy_gpio.h **** 
 281:Generated_Source\PSoC6\pdl\drivers/peripheral/gpio/cy_gpio.h **** #define CY_GPIO_IS_HSIOM_VALID(hsiom)          (0U == ((hsiom) & (uint32_t)~CY_GPIO_HSIOM_MASK))
 282:Generated_Source\PSoC6\pdl\drivers/peripheral/gpio/cy_gpio.h **** 
 283:Generated_Source\PSoC6\pdl\drivers/peripheral/gpio/cy_gpio.h **** #define CY_GPIO_IS_INT_EDGE_VALID(intEdge)     ((CY_GPIO_INTR_DISABLE  == (intEdge)) || \
 284:Generated_Source\PSoC6\pdl\drivers/peripheral/gpio/cy_gpio.h ****                                                 (CY_GPIO_INTR_RISING   == (intEdge)) || \
 285:Generated_Source\PSoC6\pdl\drivers/peripheral/gpio/cy_gpio.h ****                                                 (CY_GPIO_INTR_FALLING  == (intEdge)) || \
 286:Generated_Source\PSoC6\pdl\drivers/peripheral/gpio/cy_gpio.h ****                                                 (CY_GPIO_INTR_BOTH     == (intEdge)))
 287:Generated_Source\PSoC6\pdl\drivers/peripheral/gpio/cy_gpio.h **** 
 288:Generated_Source\PSoC6\pdl\drivers/peripheral/gpio/cy_gpio.h **** #define CY_GPIO_IS_DRIVE_SEL_VALID(driveSel)   ((CY_GPIO_DRIVE_FULL    == (driveSel)) || \
 289:Generated_Source\PSoC6\pdl\drivers/peripheral/gpio/cy_gpio.h ****                                                 (CY_GPIO_DRIVE_1_2     == (driveSel)) || \
 290:Generated_Source\PSoC6\pdl\drivers/peripheral/gpio/cy_gpio.h ****                                                 (CY_GPIO_DRIVE_1_4     == (driveSel)) || \
 291:Generated_Source\PSoC6\pdl\drivers/peripheral/gpio/cy_gpio.h ****                                                 (CY_GPIO_DRIVE_1_8     == (driveSel)))
 292:Generated_Source\PSoC6\pdl\drivers/peripheral/gpio/cy_gpio.h **** 
 293:Generated_Source\PSoC6\pdl\drivers/peripheral/gpio/cy_gpio.h **** #define CY_GPIO_IS_VREF_SEL_VALID(vrefSel)     ((CY_SIO_VREF_PINREF    == (vrefSel)) || \
 294:Generated_Source\PSoC6\pdl\drivers/peripheral/gpio/cy_gpio.h ****                                                 (CY_SIO_VREF_1_2V      == (vrefSel)) || \
 295:Generated_Source\PSoC6\pdl\drivers/peripheral/gpio/cy_gpio.h ****                                                 (CY_SIO_VREF_AMUX_A    == (vrefSel)) || \
 296:Generated_Source\PSoC6\pdl\drivers/peripheral/gpio/cy_gpio.h ****                                                 (CY_SIO_VREF_AMUX_B    == (vrefSel)))
 297:Generated_Source\PSoC6\pdl\drivers/peripheral/gpio/cy_gpio.h **** 
 298:Generated_Source\PSoC6\pdl\drivers/peripheral/gpio/cy_gpio.h **** #define CY_GPIO_IS_VOH_SEL_VALID(vrefSel)      ((CY_SIO_VOH_1_00       == (vrefSel)) || \
 299:Generated_Source\PSoC6\pdl\drivers/peripheral/gpio/cy_gpio.h ****                                                 (CY_SIO_VOH_1_25       == (vrefSel)) || \
 300:Generated_Source\PSoC6\pdl\drivers/peripheral/gpio/cy_gpio.h ****                                                 (CY_SIO_VOH_1_49       == (vrefSel)) || \
 301:Generated_Source\PSoC6\pdl\drivers/peripheral/gpio/cy_gpio.h ****                                                 (CY_SIO_VOH_1_67       == (vrefSel)) || \
 302:Generated_Source\PSoC6\pdl\drivers/peripheral/gpio/cy_gpio.h ****                                                 (CY_SIO_VOH_2_08       == (vrefSel)) || \
 303:Generated_Source\PSoC6\pdl\drivers/peripheral/gpio/cy_gpio.h ****                                                 (CY_SIO_VOH_2_50       == (vrefSel)) || \
 304:Generated_Source\PSoC6\pdl\drivers/peripheral/gpio/cy_gpio.h ****                                                 (CY_SIO_VOH_2_78       == (vrefSel)) || \
 305:Generated_Source\PSoC6\pdl\drivers/peripheral/gpio/cy_gpio.h ****                                                 (CY_SIO_VOH_4_16       == (vrefSel)))
 306:Generated_Source\PSoC6\pdl\drivers/peripheral/gpio/cy_gpio.h ****                    
 307:Generated_Source\PSoC6\pdl\drivers/peripheral/gpio/cy_gpio.h **** #define CY_GPIO_IS_PIN_BIT_VALID(pinBit)       (0U == ((pinBit) & (uint32_t)~CY_GPIO_PRT_PINS_MASK)
 308:Generated_Source\PSoC6\pdl\drivers/peripheral/gpio/cy_gpio.h **** #define CY_GPIO_IS_INTR_CFG_VALID(intrCfg)     (0U == ((intrCfg) & (uint32_t)~CY_GPIO_PRT_INTR_CFG_
 309:Generated_Source\PSoC6\pdl\drivers/peripheral/gpio/cy_gpio.h **** #define CY_GPIO_IS_INTR_MASK_VALID(intrMask)   (0U == ((intrMask) & (uint32_t)~CY_GPIO_PRT_INT_MASK
 310:Generated_Source\PSoC6\pdl\drivers/peripheral/gpio/cy_gpio.h **** #define CY_GPIO_IS_SEL_ACT_VALID(selActive)    (0U == ((selActive) & (uint32_t)~CY_GPIO_PRT_SEL_ACT
 311:Generated_Source\PSoC6\pdl\drivers/peripheral/gpio/cy_gpio.h **** 
 312:Generated_Source\PSoC6\pdl\drivers/peripheral/gpio/cy_gpio.h **** /** \endcond */
 313:Generated_Source\PSoC6\pdl\drivers/peripheral/gpio/cy_gpio.h **** 
 314:Generated_Source\PSoC6\pdl\drivers/peripheral/gpio/cy_gpio.h **** 
 315:Generated_Source\PSoC6\pdl\drivers/peripheral/gpio/cy_gpio.h **** /***************************************
 316:Generated_Source\PSoC6\pdl\drivers/peripheral/gpio/cy_gpio.h **** *        Function Constants
 317:Generated_Source\PSoC6\pdl\drivers/peripheral/gpio/cy_gpio.h **** ***************************************/
 318:Generated_Source\PSoC6\pdl\drivers/peripheral/gpio/cy_gpio.h **** 
 319:Generated_Source\PSoC6\pdl\drivers/peripheral/gpio/cy_gpio.h **** /**
 320:Generated_Source\PSoC6\pdl\drivers/peripheral/gpio/cy_gpio.h **** * \addtogroup group_gpio_macros
 321:Generated_Source\PSoC6\pdl\drivers/peripheral/gpio/cy_gpio.h **** * \{
 322:Generated_Source\PSoC6\pdl\drivers/peripheral/gpio/cy_gpio.h **** */
 323:Generated_Source\PSoC6\pdl\drivers/peripheral/gpio/cy_gpio.h **** 
 324:Generated_Source\PSoC6\pdl\drivers/peripheral/gpio/cy_gpio.h **** /**
 325:Generated_Source\PSoC6\pdl\drivers/peripheral/gpio/cy_gpio.h **** * \defgroup group_gpio_driveModes Pin drive mode
ARM GAS  C:\Users\codyg\AppData\Local\Temp\cctpv6eZ.s 			page 9


 326:Generated_Source\PSoC6\pdl\drivers/peripheral/gpio/cy_gpio.h **** * \{
 327:Generated_Source\PSoC6\pdl\drivers/peripheral/gpio/cy_gpio.h **** * Constants to be used for setting the drive mode of the pin.
 328:Generated_Source\PSoC6\pdl\drivers/peripheral/gpio/cy_gpio.h **** */
 329:Generated_Source\PSoC6\pdl\drivers/peripheral/gpio/cy_gpio.h **** #define CY_GPIO_DM_ANALOG                      (0x00UL) /**< \brief Analog High-Z. Input buffer off
 330:Generated_Source\PSoC6\pdl\drivers/peripheral/gpio/cy_gpio.h **** #define CY_GPIO_DM_PULLUP_IN_OFF               (0x02UL) /**< \brief Resistive Pull-Up. Input buffer
 331:Generated_Source\PSoC6\pdl\drivers/peripheral/gpio/cy_gpio.h **** #define CY_GPIO_DM_PULLDOWN_IN_OFF             (0x03UL) /**< \brief Resistive Pull-Down. Input buff
 332:Generated_Source\PSoC6\pdl\drivers/peripheral/gpio/cy_gpio.h **** #define CY_GPIO_DM_OD_DRIVESLOW_IN_OFF         (0x04UL) /**< \brief Open Drain, Drives Low. Input b
 333:Generated_Source\PSoC6\pdl\drivers/peripheral/gpio/cy_gpio.h **** #define CY_GPIO_DM_OD_DRIVESHIGH_IN_OFF        (0x05UL) /**< \brief Open Drain, Drives High. Input 
 334:Generated_Source\PSoC6\pdl\drivers/peripheral/gpio/cy_gpio.h **** #define CY_GPIO_DM_STRONG_IN_OFF               (0x06UL) /**< \brief Strong Drive. Input buffer off 
 335:Generated_Source\PSoC6\pdl\drivers/peripheral/gpio/cy_gpio.h **** #define CY_GPIO_DM_PULLUP_DOWN_IN_OFF          (0x07UL) /**< \brief Resistive Pull-Up/Down. Input b
 336:Generated_Source\PSoC6\pdl\drivers/peripheral/gpio/cy_gpio.h **** #define CY_GPIO_DM_HIGHZ                       (0x08UL) /**< \brief Digital High-Z. Input buffer on
 337:Generated_Source\PSoC6\pdl\drivers/peripheral/gpio/cy_gpio.h **** #define CY_GPIO_DM_PULLUP                      (0x0AUL) /**< \brief Resistive Pull-Up. Input buffer
 338:Generated_Source\PSoC6\pdl\drivers/peripheral/gpio/cy_gpio.h **** #define CY_GPIO_DM_PULLDOWN                    (0x0BUL) /**< \brief Resistive Pull-Down. Input buff
 339:Generated_Source\PSoC6\pdl\drivers/peripheral/gpio/cy_gpio.h **** #define CY_GPIO_DM_OD_DRIVESLOW                (0x0CUL) /**< \brief Open Drain, Drives Low. Input b
 340:Generated_Source\PSoC6\pdl\drivers/peripheral/gpio/cy_gpio.h **** #define CY_GPIO_DM_OD_DRIVESHIGH               (0x0DUL) /**< \brief Open Drain, Drives High. Input 
 341:Generated_Source\PSoC6\pdl\drivers/peripheral/gpio/cy_gpio.h **** #define CY_GPIO_DM_STRONG                      (0x0EUL) /**< \brief Strong Drive. Input buffer on *
 342:Generated_Source\PSoC6\pdl\drivers/peripheral/gpio/cy_gpio.h **** #define CY_GPIO_DM_PULLUP_DOWN                 (0x0FUL) /**< \brief Resistive Pull-Up/Down. Input b
 343:Generated_Source\PSoC6\pdl\drivers/peripheral/gpio/cy_gpio.h **** /** \} */
 344:Generated_Source\PSoC6\pdl\drivers/peripheral/gpio/cy_gpio.h **** 
 345:Generated_Source\PSoC6\pdl\drivers/peripheral/gpio/cy_gpio.h **** /**
 346:Generated_Source\PSoC6\pdl\drivers/peripheral/gpio/cy_gpio.h **** * \defgroup group_gpio_vtrip Voltage trip mode
 347:Generated_Source\PSoC6\pdl\drivers/peripheral/gpio/cy_gpio.h **** * \{
 348:Generated_Source\PSoC6\pdl\drivers/peripheral/gpio/cy_gpio.h **** * Constants to be used for setting the voltage trip type on the pin.
 349:Generated_Source\PSoC6\pdl\drivers/peripheral/gpio/cy_gpio.h **** */
 350:Generated_Source\PSoC6\pdl\drivers/peripheral/gpio/cy_gpio.h **** #define CY_GPIO_VTRIP_CMOS                     (0x00UL) /**< \brief Input buffer compatible with CM
 351:Generated_Source\PSoC6\pdl\drivers/peripheral/gpio/cy_gpio.h **** #define CY_GPIO_VTRIP_TTL                      (0x01UL) /**< \brief Input buffer compatible with TT
 352:Generated_Source\PSoC6\pdl\drivers/peripheral/gpio/cy_gpio.h **** /** \} */
 353:Generated_Source\PSoC6\pdl\drivers/peripheral/gpio/cy_gpio.h **** 
 354:Generated_Source\PSoC6\pdl\drivers/peripheral/gpio/cy_gpio.h **** /**
 355:Generated_Source\PSoC6\pdl\drivers/peripheral/gpio/cy_gpio.h **** * \defgroup group_gpio_slewRate Slew Rate Mode
 356:Generated_Source\PSoC6\pdl\drivers/peripheral/gpio/cy_gpio.h **** * \{
 357:Generated_Source\PSoC6\pdl\drivers/peripheral/gpio/cy_gpio.h **** * Constants to be used for setting the slew rate of the pin.
 358:Generated_Source\PSoC6\pdl\drivers/peripheral/gpio/cy_gpio.h **** */
 359:Generated_Source\PSoC6\pdl\drivers/peripheral/gpio/cy_gpio.h **** #define CY_GPIO_SLEW_FAST                      (0x00UL) /**< \brief Fast slew rate */
 360:Generated_Source\PSoC6\pdl\drivers/peripheral/gpio/cy_gpio.h **** #define CY_GPIO_SLEW_SLOW                      (0x01UL) /**< \brief Slow slew rate */
 361:Generated_Source\PSoC6\pdl\drivers/peripheral/gpio/cy_gpio.h **** /** \} */
 362:Generated_Source\PSoC6\pdl\drivers/peripheral/gpio/cy_gpio.h **** 
 363:Generated_Source\PSoC6\pdl\drivers/peripheral/gpio/cy_gpio.h **** /**
 364:Generated_Source\PSoC6\pdl\drivers/peripheral/gpio/cy_gpio.h **** * \defgroup group_gpio_driveStrength Pin drive strength
 365:Generated_Source\PSoC6\pdl\drivers/peripheral/gpio/cy_gpio.h **** * \{
 366:Generated_Source\PSoC6\pdl\drivers/peripheral/gpio/cy_gpio.h **** * Constants to be used for setting the drive strength of the pin.
 367:Generated_Source\PSoC6\pdl\drivers/peripheral/gpio/cy_gpio.h **** */
 368:Generated_Source\PSoC6\pdl\drivers/peripheral/gpio/cy_gpio.h **** #define CY_GPIO_DRIVE_FULL                     (0x00UL) /**< \brief Full drive strength: Max drive 
 369:Generated_Source\PSoC6\pdl\drivers/peripheral/gpio/cy_gpio.h **** #define CY_GPIO_DRIVE_1_2                      (0x01UL) /**< \brief 1/2 drive strength: 1/2 drive c
 370:Generated_Source\PSoC6\pdl\drivers/peripheral/gpio/cy_gpio.h **** #define CY_GPIO_DRIVE_1_4                      (0x02UL) /**< \brief 1/4 drive strength: 1/4 drive c
 371:Generated_Source\PSoC6\pdl\drivers/peripheral/gpio/cy_gpio.h **** #define CY_GPIO_DRIVE_1_8                      (0x03UL) /**< \brief 1/8 drive strength: 1/8 drive c
 372:Generated_Source\PSoC6\pdl\drivers/peripheral/gpio/cy_gpio.h **** /** \} */
 373:Generated_Source\PSoC6\pdl\drivers/peripheral/gpio/cy_gpio.h **** 
 374:Generated_Source\PSoC6\pdl\drivers/peripheral/gpio/cy_gpio.h **** /**
 375:Generated_Source\PSoC6\pdl\drivers/peripheral/gpio/cy_gpio.h **** * \defgroup group_gpio_interruptTrigger Interrupt trigger type
 376:Generated_Source\PSoC6\pdl\drivers/peripheral/gpio/cy_gpio.h **** * \{
 377:Generated_Source\PSoC6\pdl\drivers/peripheral/gpio/cy_gpio.h **** * Constants to be used for setting the interrupt trigger type on the pin.
 378:Generated_Source\PSoC6\pdl\drivers/peripheral/gpio/cy_gpio.h **** */
 379:Generated_Source\PSoC6\pdl\drivers/peripheral/gpio/cy_gpio.h **** #define CY_GPIO_INTR_DISABLE                   (0x00UL) /**< \brief Disable the pin interrupt gener
 380:Generated_Source\PSoC6\pdl\drivers/peripheral/gpio/cy_gpio.h **** #define CY_GPIO_INTR_RISING                    (0x01UL) /**< \brief Rising-Edge interrupt */
 381:Generated_Source\PSoC6\pdl\drivers/peripheral/gpio/cy_gpio.h **** #define CY_GPIO_INTR_FALLING                   (0x02UL) /**< \brief Falling-Edge interrupt */
 382:Generated_Source\PSoC6\pdl\drivers/peripheral/gpio/cy_gpio.h **** #define CY_GPIO_INTR_BOTH                      (0x03UL) /**< \brief Both-Edge interrupt */
ARM GAS  C:\Users\codyg\AppData\Local\Temp\cctpv6eZ.s 			page 10


 383:Generated_Source\PSoC6\pdl\drivers/peripheral/gpio/cy_gpio.h **** /** \} */
 384:Generated_Source\PSoC6\pdl\drivers/peripheral/gpio/cy_gpio.h **** 
 385:Generated_Source\PSoC6\pdl\drivers/peripheral/gpio/cy_gpio.h **** /**
 386:Generated_Source\PSoC6\pdl\drivers/peripheral/gpio/cy_gpio.h **** * \defgroup group_gpio_sioVreg SIO output buffer mode
 387:Generated_Source\PSoC6\pdl\drivers/peripheral/gpio/cy_gpio.h **** * \{
 388:Generated_Source\PSoC6\pdl\drivers/peripheral/gpio/cy_gpio.h **** * Constants to be used for setting the SIO output buffer mode on the pin.
 389:Generated_Source\PSoC6\pdl\drivers/peripheral/gpio/cy_gpio.h **** */
 390:Generated_Source\PSoC6\pdl\drivers/peripheral/gpio/cy_gpio.h **** #define CY_SIO_VREG_UNREGULATED                (0x00UL) /**< \brief Unregulated output buffer */
 391:Generated_Source\PSoC6\pdl\drivers/peripheral/gpio/cy_gpio.h **** #define CY_SIO_VREG_REGULATED                  (0x01UL) /**< \brief Regulated output buffer */
 392:Generated_Source\PSoC6\pdl\drivers/peripheral/gpio/cy_gpio.h **** /** \} */
 393:Generated_Source\PSoC6\pdl\drivers/peripheral/gpio/cy_gpio.h **** 
 394:Generated_Source\PSoC6\pdl\drivers/peripheral/gpio/cy_gpio.h **** /**
 395:Generated_Source\PSoC6\pdl\drivers/peripheral/gpio/cy_gpio.h **** * \defgroup group_gpio_sioIbuf SIO input buffer mode
 396:Generated_Source\PSoC6\pdl\drivers/peripheral/gpio/cy_gpio.h **** * \{
 397:Generated_Source\PSoC6\pdl\drivers/peripheral/gpio/cy_gpio.h **** * Constants to be used for setting the SIO input buffer mode on the pin.
 398:Generated_Source\PSoC6\pdl\drivers/peripheral/gpio/cy_gpio.h **** */
 399:Generated_Source\PSoC6\pdl\drivers/peripheral/gpio/cy_gpio.h **** #define CY_SIO_IBUF_SINGLEENDED                (0x00UL) /**< \brief Single ended input buffer */
 400:Generated_Source\PSoC6\pdl\drivers/peripheral/gpio/cy_gpio.h **** #define CY_SIO_IBUF_DIFFERENTIAL               (0x01UL) /**< \brief Differential input buffer */
 401:Generated_Source\PSoC6\pdl\drivers/peripheral/gpio/cy_gpio.h **** /** \} */
 402:Generated_Source\PSoC6\pdl\drivers/peripheral/gpio/cy_gpio.h **** 
 403:Generated_Source\PSoC6\pdl\drivers/peripheral/gpio/cy_gpio.h **** /**
 404:Generated_Source\PSoC6\pdl\drivers/peripheral/gpio/cy_gpio.h **** * \defgroup group_gpio_sioVtrip SIO input buffer trip-point
 405:Generated_Source\PSoC6\pdl\drivers/peripheral/gpio/cy_gpio.h **** * \{
 406:Generated_Source\PSoC6\pdl\drivers/peripheral/gpio/cy_gpio.h **** * Constants to be used for setting the SIO input buffer trip-point of the pin.
 407:Generated_Source\PSoC6\pdl\drivers/peripheral/gpio/cy_gpio.h **** */
 408:Generated_Source\PSoC6\pdl\drivers/peripheral/gpio/cy_gpio.h **** #define CY_SIO_VTRIP_CMOS                      (0x00UL) /**< \brief CMOS input buffer (single-ended
 409:Generated_Source\PSoC6\pdl\drivers/peripheral/gpio/cy_gpio.h **** #define CY_SIO_VTRIP_TTL                       (0x01UL) /**< \brief TTL input buffer (single-ended)
 410:Generated_Source\PSoC6\pdl\drivers/peripheral/gpio/cy_gpio.h **** #define CY_SIO_VTRIP_0_5VDDIO_0_5VOH           (0x00UL) /**< \brief 0.5xVddio or 0.5xVoh (different
 411:Generated_Source\PSoC6\pdl\drivers/peripheral/gpio/cy_gpio.h **** #define CY_SIO_VTRIP_0_4VDDIO_1_0VREF          (0x01UL) /**< \brief 0.4xVddio or 0.4xVoh (different
 412:Generated_Source\PSoC6\pdl\drivers/peripheral/gpio/cy_gpio.h **** /** \} */
 413:Generated_Source\PSoC6\pdl\drivers/peripheral/gpio/cy_gpio.h **** 
 414:Generated_Source\PSoC6\pdl\drivers/peripheral/gpio/cy_gpio.h **** /**
 415:Generated_Source\PSoC6\pdl\drivers/peripheral/gpio/cy_gpio.h **** * \defgroup group_gpio_sioVref SIO reference voltage for input buffer trip-point
 416:Generated_Source\PSoC6\pdl\drivers/peripheral/gpio/cy_gpio.h **** * \{
 417:Generated_Source\PSoC6\pdl\drivers/peripheral/gpio/cy_gpio.h **** * Constants to be used for setting the reference voltage of SIO input buffer trip-point.
 418:Generated_Source\PSoC6\pdl\drivers/peripheral/gpio/cy_gpio.h **** */
 419:Generated_Source\PSoC6\pdl\drivers/peripheral/gpio/cy_gpio.h **** #define CY_SIO_VREF_PINREF                     (0x00UL) /**< \brief Vref from analog pin */
 420:Generated_Source\PSoC6\pdl\drivers/peripheral/gpio/cy_gpio.h **** #define CY_SIO_VREF_1_2V                       (0x01UL) /**< \brief Vref from internal 1.2V referen
 421:Generated_Source\PSoC6\pdl\drivers/peripheral/gpio/cy_gpio.h **** #define CY_SIO_VREF_AMUX_A                     (0x02UL) /**< \brief Vref from AMUXBUS_A */
 422:Generated_Source\PSoC6\pdl\drivers/peripheral/gpio/cy_gpio.h **** #define CY_SIO_VREF_AMUX_B                     (0x03UL) /**< \brief Vref from AMUXBUS_B */
 423:Generated_Source\PSoC6\pdl\drivers/peripheral/gpio/cy_gpio.h **** /** \} */
 424:Generated_Source\PSoC6\pdl\drivers/peripheral/gpio/cy_gpio.h **** 
 425:Generated_Source\PSoC6\pdl\drivers/peripheral/gpio/cy_gpio.h **** /**
 426:Generated_Source\PSoC6\pdl\drivers/peripheral/gpio/cy_gpio.h **** * \defgroup group_gpio_sioVoh Regulated output voltage level (Voh) and input buffer trip-point of a
 427:Generated_Source\PSoC6\pdl\drivers/peripheral/gpio/cy_gpio.h **** * \{
 428:Generated_Source\PSoC6\pdl\drivers/peripheral/gpio/cy_gpio.h **** * Constants to be used for setting the Voh and input buffer trip-point of an SIO pair
 429:Generated_Source\PSoC6\pdl\drivers/peripheral/gpio/cy_gpio.h **** */
 430:Generated_Source\PSoC6\pdl\drivers/peripheral/gpio/cy_gpio.h **** #define CY_SIO_VOH_1_00                        (0x00UL) /**< \brief Voh = 1 x Reference */
 431:Generated_Source\PSoC6\pdl\drivers/peripheral/gpio/cy_gpio.h **** #define CY_SIO_VOH_1_25                        (0x01UL) /**< \brief Voh = 1.25 x Reference */
 432:Generated_Source\PSoC6\pdl\drivers/peripheral/gpio/cy_gpio.h **** #define CY_SIO_VOH_1_49                        (0x02UL) /**< \brief Voh = 1.49 x Reference */
 433:Generated_Source\PSoC6\pdl\drivers/peripheral/gpio/cy_gpio.h **** #define CY_SIO_VOH_1_67                        (0x03UL) /**< \brief Voh = 1.67 x Reference */
 434:Generated_Source\PSoC6\pdl\drivers/peripheral/gpio/cy_gpio.h **** #define CY_SIO_VOH_2_08                        (0x04UL) /**< \brief Voh = 2.08 x Reference */
 435:Generated_Source\PSoC6\pdl\drivers/peripheral/gpio/cy_gpio.h **** #define CY_SIO_VOH_2_50                        (0x05UL) /**< \brief Voh = 2.50 x Reference */
 436:Generated_Source\PSoC6\pdl\drivers/peripheral/gpio/cy_gpio.h **** #define CY_SIO_VOH_2_78                        (0x06UL) /**< \brief Voh = 2.78 x Reference */
 437:Generated_Source\PSoC6\pdl\drivers/peripheral/gpio/cy_gpio.h **** #define CY_SIO_VOH_4_16                        (0x07UL) /**< \brief Voh = 4.16 x Reference */
 438:Generated_Source\PSoC6\pdl\drivers/peripheral/gpio/cy_gpio.h **** /** \} */
 439:Generated_Source\PSoC6\pdl\drivers/peripheral/gpio/cy_gpio.h **** 
ARM GAS  C:\Users\codyg\AppData\Local\Temp\cctpv6eZ.s 			page 11


 440:Generated_Source\PSoC6\pdl\drivers/peripheral/gpio/cy_gpio.h **** /** \} group_gpio_macros */
 441:Generated_Source\PSoC6\pdl\drivers/peripheral/gpio/cy_gpio.h **** 
 442:Generated_Source\PSoC6\pdl\drivers/peripheral/gpio/cy_gpio.h **** /***************************************
 443:Generated_Source\PSoC6\pdl\drivers/peripheral/gpio/cy_gpio.h **** *        Function Prototypes
 444:Generated_Source\PSoC6\pdl\drivers/peripheral/gpio/cy_gpio.h **** ***************************************/
 445:Generated_Source\PSoC6\pdl\drivers/peripheral/gpio/cy_gpio.h **** 
 446:Generated_Source\PSoC6\pdl\drivers/peripheral/gpio/cy_gpio.h **** /**
 447:Generated_Source\PSoC6\pdl\drivers/peripheral/gpio/cy_gpio.h **** * \addtogroup group_gpio_functions
 448:Generated_Source\PSoC6\pdl\drivers/peripheral/gpio/cy_gpio.h **** * \{
 449:Generated_Source\PSoC6\pdl\drivers/peripheral/gpio/cy_gpio.h **** */
 450:Generated_Source\PSoC6\pdl\drivers/peripheral/gpio/cy_gpio.h **** 
 451:Generated_Source\PSoC6\pdl\drivers/peripheral/gpio/cy_gpio.h **** /**
 452:Generated_Source\PSoC6\pdl\drivers/peripheral/gpio/cy_gpio.h **** * \addtogroup group_gpio_functions_init
 453:Generated_Source\PSoC6\pdl\drivers/peripheral/gpio/cy_gpio.h **** * \{
 454:Generated_Source\PSoC6\pdl\drivers/peripheral/gpio/cy_gpio.h **** */
 455:Generated_Source\PSoC6\pdl\drivers/peripheral/gpio/cy_gpio.h **** 
 456:Generated_Source\PSoC6\pdl\drivers/peripheral/gpio/cy_gpio.h **** cy_en_gpio_status_t Cy_GPIO_Pin_Init(GPIO_PRT_Type* base, uint32_t pinNum, const cy_stc_gpio_pin_co
 457:Generated_Source\PSoC6\pdl\drivers/peripheral/gpio/cy_gpio.h **** cy_en_gpio_status_t Cy_GPIO_Port_Init(GPIO_PRT_Type* base, const cy_stc_gpio_prt_config_t *config);
 458:Generated_Source\PSoC6\pdl\drivers/peripheral/gpio/cy_gpio.h **** void Cy_GPIO_Pin_FastInit(GPIO_PRT_Type* base, uint32_t pinNum, uint32_t driveMode, uint32_t outVal
 459:Generated_Source\PSoC6\pdl\drivers/peripheral/gpio/cy_gpio.h **** void Cy_GPIO_Port_Deinit(GPIO_PRT_Type* base);
 460:Generated_Source\PSoC6\pdl\drivers/peripheral/gpio/cy_gpio.h **** __STATIC_INLINE void Cy_GPIO_SetHSIOM(GPIO_PRT_Type* base, uint32_t pinNum, en_hsiom_sel_t value);
 461:Generated_Source\PSoC6\pdl\drivers/peripheral/gpio/cy_gpio.h **** __STATIC_INLINE en_hsiom_sel_t Cy_GPIO_GetHSIOM(GPIO_PRT_Type* base, uint32_t pinNum);
 462:Generated_Source\PSoC6\pdl\drivers/peripheral/gpio/cy_gpio.h **** __STATIC_INLINE GPIO_PRT_Type* Cy_GPIO_PortToAddr(uint32_t portNum);
 463:Generated_Source\PSoC6\pdl\drivers/peripheral/gpio/cy_gpio.h **** 
 464:Generated_Source\PSoC6\pdl\drivers/peripheral/gpio/cy_gpio.h **** /** \} group_gpio_functions_init */
 465:Generated_Source\PSoC6\pdl\drivers/peripheral/gpio/cy_gpio.h **** 
 466:Generated_Source\PSoC6\pdl\drivers/peripheral/gpio/cy_gpio.h **** /**
 467:Generated_Source\PSoC6\pdl\drivers/peripheral/gpio/cy_gpio.h **** * \addtogroup group_gpio_functions_gpio
 468:Generated_Source\PSoC6\pdl\drivers/peripheral/gpio/cy_gpio.h **** * \{
 469:Generated_Source\PSoC6\pdl\drivers/peripheral/gpio/cy_gpio.h **** */
 470:Generated_Source\PSoC6\pdl\drivers/peripheral/gpio/cy_gpio.h **** 
 471:Generated_Source\PSoC6\pdl\drivers/peripheral/gpio/cy_gpio.h **** __STATIC_INLINE uint32_t Cy_GPIO_Read(GPIO_PRT_Type* base, uint32_t pinNum);
 472:Generated_Source\PSoC6\pdl\drivers/peripheral/gpio/cy_gpio.h **** __STATIC_INLINE void Cy_GPIO_Write(GPIO_PRT_Type* base, uint32_t pinNum, uint32_t value);
 473:Generated_Source\PSoC6\pdl\drivers/peripheral/gpio/cy_gpio.h **** __STATIC_INLINE uint32_t Cy_GPIO_ReadOut(GPIO_PRT_Type* base, uint32_t pinNum);
 474:Generated_Source\PSoC6\pdl\drivers/peripheral/gpio/cy_gpio.h **** __STATIC_INLINE void Cy_GPIO_Set(GPIO_PRT_Type* base, uint32_t pinNum);
 475:Generated_Source\PSoC6\pdl\drivers/peripheral/gpio/cy_gpio.h **** __STATIC_INLINE void Cy_GPIO_Clr(GPIO_PRT_Type* base, uint32_t pinNum);
 476:Generated_Source\PSoC6\pdl\drivers/peripheral/gpio/cy_gpio.h **** __STATIC_INLINE void Cy_GPIO_Inv(GPIO_PRT_Type* base, uint32_t pinNum);
 477:Generated_Source\PSoC6\pdl\drivers/peripheral/gpio/cy_gpio.h **** __STATIC_INLINE void Cy_GPIO_SetDrivemode(GPIO_PRT_Type* base, uint32_t pinNum, uint32_t value);
 478:Generated_Source\PSoC6\pdl\drivers/peripheral/gpio/cy_gpio.h **** __STATIC_INLINE uint32_t Cy_GPIO_GetDrivemode(GPIO_PRT_Type* base, uint32_t pinNum);
 479:Generated_Source\PSoC6\pdl\drivers/peripheral/gpio/cy_gpio.h **** __STATIC_INLINE void Cy_GPIO_SetVtrip(GPIO_PRT_Type* base, uint32_t pinNum, uint32_t value);
 480:Generated_Source\PSoC6\pdl\drivers/peripheral/gpio/cy_gpio.h **** __STATIC_INLINE uint32_t Cy_GPIO_GetVtrip(GPIO_PRT_Type* base, uint32_t pinNum);
 481:Generated_Source\PSoC6\pdl\drivers/peripheral/gpio/cy_gpio.h **** __STATIC_INLINE void Cy_GPIO_SetSlewRate(GPIO_PRT_Type* base, uint32_t pinNum, uint32_t value);
 482:Generated_Source\PSoC6\pdl\drivers/peripheral/gpio/cy_gpio.h **** __STATIC_INLINE uint32_t Cy_GPIO_GetSlewRate(GPIO_PRT_Type* base, uint32_t pinNum);
 483:Generated_Source\PSoC6\pdl\drivers/peripheral/gpio/cy_gpio.h **** __STATIC_INLINE void Cy_GPIO_SetDriveSel(GPIO_PRT_Type* base, uint32_t pinNum, uint32_t value);
 484:Generated_Source\PSoC6\pdl\drivers/peripheral/gpio/cy_gpio.h **** __STATIC_INLINE uint32_t Cy_GPIO_GetDriveSel(GPIO_PRT_Type* base, uint32_t pinNum);
 485:Generated_Source\PSoC6\pdl\drivers/peripheral/gpio/cy_gpio.h **** 
 486:Generated_Source\PSoC6\pdl\drivers/peripheral/gpio/cy_gpio.h **** /** \} group_gpio_functions_gpio */
 487:Generated_Source\PSoC6\pdl\drivers/peripheral/gpio/cy_gpio.h **** 
 488:Generated_Source\PSoC6\pdl\drivers/peripheral/gpio/cy_gpio.h **** /**
 489:Generated_Source\PSoC6\pdl\drivers/peripheral/gpio/cy_gpio.h **** * \addtogroup group_gpio_functions_sio
 490:Generated_Source\PSoC6\pdl\drivers/peripheral/gpio/cy_gpio.h **** * \{
 491:Generated_Source\PSoC6\pdl\drivers/peripheral/gpio/cy_gpio.h **** */
 492:Generated_Source\PSoC6\pdl\drivers/peripheral/gpio/cy_gpio.h **** 
 493:Generated_Source\PSoC6\pdl\drivers/peripheral/gpio/cy_gpio.h **** __STATIC_INLINE void Cy_GPIO_SetVregEn(GPIO_PRT_Type* base, uint32_t pinNum, uint32_t value);
 494:Generated_Source\PSoC6\pdl\drivers/peripheral/gpio/cy_gpio.h **** __STATIC_INLINE uint32_t Cy_GPIO_GetVregEn(GPIO_PRT_Type* base, uint32_t pinNum);
 495:Generated_Source\PSoC6\pdl\drivers/peripheral/gpio/cy_gpio.h **** __STATIC_INLINE void Cy_GPIO_SetIbufMode(GPIO_PRT_Type* base, uint32_t pinNum, uint32_t value);
 496:Generated_Source\PSoC6\pdl\drivers/peripheral/gpio/cy_gpio.h **** __STATIC_INLINE uint32_t Cy_GPIO_GetIbufMode(GPIO_PRT_Type* base, uint32_t pinNum);
ARM GAS  C:\Users\codyg\AppData\Local\Temp\cctpv6eZ.s 			page 12


 497:Generated_Source\PSoC6\pdl\drivers/peripheral/gpio/cy_gpio.h **** __STATIC_INLINE void Cy_GPIO_SetVtripSel(GPIO_PRT_Type* base, uint32_t pinNum, uint32_t value);
 498:Generated_Source\PSoC6\pdl\drivers/peripheral/gpio/cy_gpio.h **** __STATIC_INLINE uint32_t Cy_GPIO_GetVtripSel(GPIO_PRT_Type* base, uint32_t pinNum);
 499:Generated_Source\PSoC6\pdl\drivers/peripheral/gpio/cy_gpio.h **** __STATIC_INLINE void Cy_GPIO_SetVrefSel(GPIO_PRT_Type* base, uint32_t pinNum, uint32_t value);
 500:Generated_Source\PSoC6\pdl\drivers/peripheral/gpio/cy_gpio.h **** __STATIC_INLINE uint32_t Cy_GPIO_GetVrefSel(GPIO_PRT_Type* base, uint32_t pinNum);
 501:Generated_Source\PSoC6\pdl\drivers/peripheral/gpio/cy_gpio.h **** __STATIC_INLINE void Cy_GPIO_SetVohSel(GPIO_PRT_Type* base, uint32_t pinNum, uint32_t value);
 502:Generated_Source\PSoC6\pdl\drivers/peripheral/gpio/cy_gpio.h **** __STATIC_INLINE uint32_t Cy_GPIO_GetVohSel(GPIO_PRT_Type* base, uint32_t pinNum);
 503:Generated_Source\PSoC6\pdl\drivers/peripheral/gpio/cy_gpio.h **** 
 504:Generated_Source\PSoC6\pdl\drivers/peripheral/gpio/cy_gpio.h **** /** \} group_gpio_functions_sio */
 505:Generated_Source\PSoC6\pdl\drivers/peripheral/gpio/cy_gpio.h **** 
 506:Generated_Source\PSoC6\pdl\drivers/peripheral/gpio/cy_gpio.h **** /**
 507:Generated_Source\PSoC6\pdl\drivers/peripheral/gpio/cy_gpio.h **** * \addtogroup group_gpio_functions_interrupt
 508:Generated_Source\PSoC6\pdl\drivers/peripheral/gpio/cy_gpio.h **** * \{
 509:Generated_Source\PSoC6\pdl\drivers/peripheral/gpio/cy_gpio.h **** */
 510:Generated_Source\PSoC6\pdl\drivers/peripheral/gpio/cy_gpio.h **** 
 511:Generated_Source\PSoC6\pdl\drivers/peripheral/gpio/cy_gpio.h **** __STATIC_INLINE uint32_t Cy_GPIO_GetInterruptStatus(GPIO_PRT_Type* base, uint32_t pinNum);
 512:Generated_Source\PSoC6\pdl\drivers/peripheral/gpio/cy_gpio.h **** __STATIC_INLINE void Cy_GPIO_ClearInterrupt(GPIO_PRT_Type* base, uint32_t pinNum);
 513:Generated_Source\PSoC6\pdl\drivers/peripheral/gpio/cy_gpio.h **** __STATIC_INLINE void Cy_GPIO_SetInterruptMask(GPIO_PRT_Type* base, uint32_t pinNum, uint32_t value)
 514:Generated_Source\PSoC6\pdl\drivers/peripheral/gpio/cy_gpio.h **** __STATIC_INLINE uint32_t Cy_GPIO_GetInterruptMask(GPIO_PRT_Type* base, uint32_t pinNum);
 515:Generated_Source\PSoC6\pdl\drivers/peripheral/gpio/cy_gpio.h **** __STATIC_INLINE uint32_t Cy_GPIO_GetInterruptStatusMasked(GPIO_PRT_Type* base, uint32_t pinNum);
 516:Generated_Source\PSoC6\pdl\drivers/peripheral/gpio/cy_gpio.h **** __STATIC_INLINE void Cy_GPIO_SetSwInterrupt(GPIO_PRT_Type* base, uint32_t pinNum);
 517:Generated_Source\PSoC6\pdl\drivers/peripheral/gpio/cy_gpio.h **** __STATIC_INLINE void Cy_GPIO_SetInterruptEdge(GPIO_PRT_Type* base, uint32_t pinNum, uint32_t value)
 518:Generated_Source\PSoC6\pdl\drivers/peripheral/gpio/cy_gpio.h **** __STATIC_INLINE uint32_t Cy_GPIO_GetInterruptEdge(GPIO_PRT_Type* base, uint32_t pinNum);
 519:Generated_Source\PSoC6\pdl\drivers/peripheral/gpio/cy_gpio.h **** __STATIC_INLINE void Cy_GPIO_SetFilter(GPIO_PRT_Type* base, uint32_t value);
 520:Generated_Source\PSoC6\pdl\drivers/peripheral/gpio/cy_gpio.h **** __STATIC_INLINE uint32_t Cy_GPIO_GetFilter(GPIO_PRT_Type* base);
 521:Generated_Source\PSoC6\pdl\drivers/peripheral/gpio/cy_gpio.h **** 
 522:Generated_Source\PSoC6\pdl\drivers/peripheral/gpio/cy_gpio.h **** #if (IOSS_GPIO_GPIO_PORT_NR_0_31 != 0) || defined (CY_DOXYGEN)
 523:Generated_Source\PSoC6\pdl\drivers/peripheral/gpio/cy_gpio.h **** __STATIC_INLINE uint32_t Cy_GPIO_GetInterruptCause0(void);
 524:Generated_Source\PSoC6\pdl\drivers/peripheral/gpio/cy_gpio.h **** #endif /* (IOSS_GPIO_GPIO_PORT_NR_0_31 != 0) */
 525:Generated_Source\PSoC6\pdl\drivers/peripheral/gpio/cy_gpio.h **** 
 526:Generated_Source\PSoC6\pdl\drivers/peripheral/gpio/cy_gpio.h **** #if (IOSS_GPIO_GPIO_PORT_NR_32_63 != 0) || defined (CY_DOXYGEN)
 527:Generated_Source\PSoC6\pdl\drivers/peripheral/gpio/cy_gpio.h **** __STATIC_INLINE uint32_t Cy_GPIO_GetInterruptCause1(void);
 528:Generated_Source\PSoC6\pdl\drivers/peripheral/gpio/cy_gpio.h **** #endif /* (IOSS_GPIO_GPIO_PORT_NR_32_63 != 0) */
 529:Generated_Source\PSoC6\pdl\drivers/peripheral/gpio/cy_gpio.h **** 
 530:Generated_Source\PSoC6\pdl\drivers/peripheral/gpio/cy_gpio.h **** #if (IOSS_GPIO_GPIO_PORT_NR_64_95 != 0) || defined (CY_DOXYGEN)
 531:Generated_Source\PSoC6\pdl\drivers/peripheral/gpio/cy_gpio.h **** __STATIC_INLINE uint32_t Cy_GPIO_GetInterruptCause2(void);
 532:Generated_Source\PSoC6\pdl\drivers/peripheral/gpio/cy_gpio.h **** #endif /* (IOSS_GPIO_GPIO_PORT_NR_64_95 != 0) */
 533:Generated_Source\PSoC6\pdl\drivers/peripheral/gpio/cy_gpio.h **** 
 534:Generated_Source\PSoC6\pdl\drivers/peripheral/gpio/cy_gpio.h **** #if (IOSS_GPIO_GPIO_PORT_NR_96_127 != 0) || defined (CY_DOXYGEN)
 535:Generated_Source\PSoC6\pdl\drivers/peripheral/gpio/cy_gpio.h **** __STATIC_INLINE uint32_t Cy_GPIO_GetInterruptCause3(void);
 536:Generated_Source\PSoC6\pdl\drivers/peripheral/gpio/cy_gpio.h **** #endif /* (IOSS_GPIO_GPIO_PORT_NR_96_127 != 0) */
 537:Generated_Source\PSoC6\pdl\drivers/peripheral/gpio/cy_gpio.h **** 
 538:Generated_Source\PSoC6\pdl\drivers/peripheral/gpio/cy_gpio.h **** /** \} group_gpio_functions_interrupt */
 539:Generated_Source\PSoC6\pdl\drivers/peripheral/gpio/cy_gpio.h **** 
 540:Generated_Source\PSoC6\pdl\drivers/peripheral/gpio/cy_gpio.h **** 
 541:Generated_Source\PSoC6\pdl\drivers/peripheral/gpio/cy_gpio.h **** /**
 542:Generated_Source\PSoC6\pdl\drivers/peripheral/gpio/cy_gpio.h **** * \addtogroup group_gpio_functions_init
 543:Generated_Source\PSoC6\pdl\drivers/peripheral/gpio/cy_gpio.h **** * \{
 544:Generated_Source\PSoC6\pdl\drivers/peripheral/gpio/cy_gpio.h **** */
 545:Generated_Source\PSoC6\pdl\drivers/peripheral/gpio/cy_gpio.h **** 
 546:Generated_Source\PSoC6\pdl\drivers/peripheral/gpio/cy_gpio.h **** /*******************************************************************************
 547:Generated_Source\PSoC6\pdl\drivers/peripheral/gpio/cy_gpio.h **** * Function Name: Cy_GPIO_SetHSIOM
 548:Generated_Source\PSoC6\pdl\drivers/peripheral/gpio/cy_gpio.h **** ****************************************************************************//**
 549:Generated_Source\PSoC6\pdl\drivers/peripheral/gpio/cy_gpio.h **** *
 550:Generated_Source\PSoC6\pdl\drivers/peripheral/gpio/cy_gpio.h **** * \brief Configures the HSIOM connection to the pin.
 551:Generated_Source\PSoC6\pdl\drivers/peripheral/gpio/cy_gpio.h **** *
 552:Generated_Source\PSoC6\pdl\drivers/peripheral/gpio/cy_gpio.h **** * Connects the specified High-Speed Input Output Multiplexer (HSIOM) selection
 553:Generated_Source\PSoC6\pdl\drivers/peripheral/gpio/cy_gpio.h **** * to the pin.
ARM GAS  C:\Users\codyg\AppData\Local\Temp\cctpv6eZ.s 			page 13


 554:Generated_Source\PSoC6\pdl\drivers/peripheral/gpio/cy_gpio.h **** *
 555:Generated_Source\PSoC6\pdl\drivers/peripheral/gpio/cy_gpio.h **** * \param base
 556:Generated_Source\PSoC6\pdl\drivers/peripheral/gpio/cy_gpio.h **** * Pointer to the pin's port register base address
 557:Generated_Source\PSoC6\pdl\drivers/peripheral/gpio/cy_gpio.h **** *
 558:Generated_Source\PSoC6\pdl\drivers/peripheral/gpio/cy_gpio.h **** * \param pinNum
 559:Generated_Source\PSoC6\pdl\drivers/peripheral/gpio/cy_gpio.h **** * Position of the pin bit-field within the port register
 560:Generated_Source\PSoC6\pdl\drivers/peripheral/gpio/cy_gpio.h **** *
 561:Generated_Source\PSoC6\pdl\drivers/peripheral/gpio/cy_gpio.h **** * \param value
 562:Generated_Source\PSoC6\pdl\drivers/peripheral/gpio/cy_gpio.h **** * HSIOM input selection
 563:Generated_Source\PSoC6\pdl\drivers/peripheral/gpio/cy_gpio.h **** *
 564:Generated_Source\PSoC6\pdl\drivers/peripheral/gpio/cy_gpio.h **** * \return
 565:Generated_Source\PSoC6\pdl\drivers/peripheral/gpio/cy_gpio.h **** * void
 566:Generated_Source\PSoC6\pdl\drivers/peripheral/gpio/cy_gpio.h **** *
 567:Generated_Source\PSoC6\pdl\drivers/peripheral/gpio/cy_gpio.h **** * \note 
 568:Generated_Source\PSoC6\pdl\drivers/peripheral/gpio/cy_gpio.h **** * This function modifies a port register in a read-modify-write operation. It is
 569:Generated_Source\PSoC6\pdl\drivers/peripheral/gpio/cy_gpio.h **** * not thread safe as the resource is shared among multiple pins on a port.
 570:Generated_Source\PSoC6\pdl\drivers/peripheral/gpio/cy_gpio.h **** *
 571:Generated_Source\PSoC6\pdl\drivers/peripheral/gpio/cy_gpio.h **** * \funcusage
 572:Generated_Source\PSoC6\pdl\drivers/peripheral/gpio/cy_gpio.h **** * \snippet gpio/gpio_v1_10_sut_01.cydsn/main_cm4.c snippet_Cy_GPIO_SetHSIOM
 573:Generated_Source\PSoC6\pdl\drivers/peripheral/gpio/cy_gpio.h **** *
 574:Generated_Source\PSoC6\pdl\drivers/peripheral/gpio/cy_gpio.h **** *******************************************************************************/
 575:Generated_Source\PSoC6\pdl\drivers/peripheral/gpio/cy_gpio.h **** __STATIC_INLINE void Cy_GPIO_SetHSIOM(GPIO_PRT_Type* base, uint32_t pinNum, en_hsiom_sel_t value)
 576:Generated_Source\PSoC6\pdl\drivers/peripheral/gpio/cy_gpio.h **** {
 577:Generated_Source\PSoC6\pdl\drivers/peripheral/gpio/cy_gpio.h ****     uint32_t portNum;
 578:Generated_Source\PSoC6\pdl\drivers/peripheral/gpio/cy_gpio.h ****     uint32_t tempReg;
 579:Generated_Source\PSoC6\pdl\drivers/peripheral/gpio/cy_gpio.h ****     HSIOM_PRT_Type* portAddrHSIOM;
 580:Generated_Source\PSoC6\pdl\drivers/peripheral/gpio/cy_gpio.h **** 
 581:Generated_Source\PSoC6\pdl\drivers/peripheral/gpio/cy_gpio.h ****     CY_ASSERT_L2(CY_GPIO_IS_PIN_VALID(pinNum));
 582:Generated_Source\PSoC6\pdl\drivers/peripheral/gpio/cy_gpio.h ****     CY_ASSERT_L2(CY_GPIO_IS_HSIOM_VALID(value));
 583:Generated_Source\PSoC6\pdl\drivers/peripheral/gpio/cy_gpio.h **** 
 584:Generated_Source\PSoC6\pdl\drivers/peripheral/gpio/cy_gpio.h ****     portNum = ((uint32_t)(base) - GPIO_BASE) / GPIO_PRT_SECTION_SIZE;
 585:Generated_Source\PSoC6\pdl\drivers/peripheral/gpio/cy_gpio.h ****     portAddrHSIOM = (HSIOM_PRT_Type*)(HSIOM_BASE + (HSIOM_PRT_SECTION_SIZE * portNum));
 586:Generated_Source\PSoC6\pdl\drivers/peripheral/gpio/cy_gpio.h **** 
 587:Generated_Source\PSoC6\pdl\drivers/peripheral/gpio/cy_gpio.h ****     if(pinNum < CY_GPIO_PRT_HALF)
 588:Generated_Source\PSoC6\pdl\drivers/peripheral/gpio/cy_gpio.h ****     {
 589:Generated_Source\PSoC6\pdl\drivers/peripheral/gpio/cy_gpio.h ****         tempReg = portAddrHSIOM->PORT_SEL0 & ~(CY_GPIO_HSIOM_MASK << (pinNum << CY_GPIO_HSIOM_OFFSE
 590:Generated_Source\PSoC6\pdl\drivers/peripheral/gpio/cy_gpio.h ****         portAddrHSIOM->PORT_SEL0 = tempReg | ((value & CY_GPIO_HSIOM_MASK) << (pinNum << CY_GPIO_HS
 591:Generated_Source\PSoC6\pdl\drivers/peripheral/gpio/cy_gpio.h ****     }
 592:Generated_Source\PSoC6\pdl\drivers/peripheral/gpio/cy_gpio.h ****     else
 593:Generated_Source\PSoC6\pdl\drivers/peripheral/gpio/cy_gpio.h ****     {
 594:Generated_Source\PSoC6\pdl\drivers/peripheral/gpio/cy_gpio.h ****         pinNum -= CY_GPIO_PRT_HALF;
 595:Generated_Source\PSoC6\pdl\drivers/peripheral/gpio/cy_gpio.h ****         tempReg = portAddrHSIOM->PORT_SEL1 & ~(CY_GPIO_HSIOM_MASK << (pinNum << CY_GPIO_HSIOM_OFFSE
 596:Generated_Source\PSoC6\pdl\drivers/peripheral/gpio/cy_gpio.h ****         portAddrHSIOM->PORT_SEL1 = tempReg | ((value & CY_GPIO_HSIOM_MASK) << (pinNum << CY_GPIO_HS
 597:Generated_Source\PSoC6\pdl\drivers/peripheral/gpio/cy_gpio.h ****     }
 598:Generated_Source\PSoC6\pdl\drivers/peripheral/gpio/cy_gpio.h **** }
 599:Generated_Source\PSoC6\pdl\drivers/peripheral/gpio/cy_gpio.h **** 
 600:Generated_Source\PSoC6\pdl\drivers/peripheral/gpio/cy_gpio.h **** 
 601:Generated_Source\PSoC6\pdl\drivers/peripheral/gpio/cy_gpio.h **** /*******************************************************************************
 602:Generated_Source\PSoC6\pdl\drivers/peripheral/gpio/cy_gpio.h **** * Function Name: Cy_GPIO_GetHSIOM
 603:Generated_Source\PSoC6\pdl\drivers/peripheral/gpio/cy_gpio.h **** ****************************************************************************//**
 604:Generated_Source\PSoC6\pdl\drivers/peripheral/gpio/cy_gpio.h **** *
 605:Generated_Source\PSoC6\pdl\drivers/peripheral/gpio/cy_gpio.h **** * \brief Returns the current HSIOM multiplexer connection to the pin.
 606:Generated_Source\PSoC6\pdl\drivers/peripheral/gpio/cy_gpio.h **** *
 607:Generated_Source\PSoC6\pdl\drivers/peripheral/gpio/cy_gpio.h **** * \param base
 608:Generated_Source\PSoC6\pdl\drivers/peripheral/gpio/cy_gpio.h **** * Pointer to the pin's port register base address
 609:Generated_Source\PSoC6\pdl\drivers/peripheral/gpio/cy_gpio.h **** *
 610:Generated_Source\PSoC6\pdl\drivers/peripheral/gpio/cy_gpio.h **** * \param pinNum
ARM GAS  C:\Users\codyg\AppData\Local\Temp\cctpv6eZ.s 			page 14


 611:Generated_Source\PSoC6\pdl\drivers/peripheral/gpio/cy_gpio.h **** * Position of the pin bit-field within the port register
 612:Generated_Source\PSoC6\pdl\drivers/peripheral/gpio/cy_gpio.h **** *
 613:Generated_Source\PSoC6\pdl\drivers/peripheral/gpio/cy_gpio.h **** * \return
 614:Generated_Source\PSoC6\pdl\drivers/peripheral/gpio/cy_gpio.h **** * HSIOM input selection
 615:Generated_Source\PSoC6\pdl\drivers/peripheral/gpio/cy_gpio.h **** *
 616:Generated_Source\PSoC6\pdl\drivers/peripheral/gpio/cy_gpio.h **** * \funcusage
 617:Generated_Source\PSoC6\pdl\drivers/peripheral/gpio/cy_gpio.h **** * \snippet gpio/gpio_v1_10_sut_01.cydsn/main_cm4.c snippet_Cy_GPIO_SetHSIOM
 618:Generated_Source\PSoC6\pdl\drivers/peripheral/gpio/cy_gpio.h **** *
 619:Generated_Source\PSoC6\pdl\drivers/peripheral/gpio/cy_gpio.h **** *******************************************************************************/
 620:Generated_Source\PSoC6\pdl\drivers/peripheral/gpio/cy_gpio.h **** __STATIC_INLINE en_hsiom_sel_t Cy_GPIO_GetHSIOM(GPIO_PRT_Type* base, uint32_t pinNum)
 621:Generated_Source\PSoC6\pdl\drivers/peripheral/gpio/cy_gpio.h **** {
 622:Generated_Source\PSoC6\pdl\drivers/peripheral/gpio/cy_gpio.h ****     uint32_t returnValue;
 623:Generated_Source\PSoC6\pdl\drivers/peripheral/gpio/cy_gpio.h ****     uint32_t portNum;
 624:Generated_Source\PSoC6\pdl\drivers/peripheral/gpio/cy_gpio.h ****     HSIOM_PRT_Type* portAddrHSIOM;
 625:Generated_Source\PSoC6\pdl\drivers/peripheral/gpio/cy_gpio.h ****     
 626:Generated_Source\PSoC6\pdl\drivers/peripheral/gpio/cy_gpio.h ****     CY_ASSERT_L2(CY_GPIO_IS_PIN_VALID(pinNum));
 627:Generated_Source\PSoC6\pdl\drivers/peripheral/gpio/cy_gpio.h **** 
 628:Generated_Source\PSoC6\pdl\drivers/peripheral/gpio/cy_gpio.h ****     portNum = ((uint32_t)(base) - GPIO_BASE) / GPIO_PRT_SECTION_SIZE;
 629:Generated_Source\PSoC6\pdl\drivers/peripheral/gpio/cy_gpio.h ****     portAddrHSIOM = (HSIOM_PRT_Type*)(HSIOM_BASE + (HSIOM_PRT_SECTION_SIZE * portNum));
 630:Generated_Source\PSoC6\pdl\drivers/peripheral/gpio/cy_gpio.h **** 
 631:Generated_Source\PSoC6\pdl\drivers/peripheral/gpio/cy_gpio.h ****     if(pinNum < CY_GPIO_PRT_HALF)
 632:Generated_Source\PSoC6\pdl\drivers/peripheral/gpio/cy_gpio.h ****     {
 633:Generated_Source\PSoC6\pdl\drivers/peripheral/gpio/cy_gpio.h ****         returnValue = (portAddrHSIOM->PORT_SEL0 >> (pinNum << CY_GPIO_HSIOM_OFFSET)) & CY_GPIO_HSIO
 634:Generated_Source\PSoC6\pdl\drivers/peripheral/gpio/cy_gpio.h ****     }
 635:Generated_Source\PSoC6\pdl\drivers/peripheral/gpio/cy_gpio.h ****     else
 636:Generated_Source\PSoC6\pdl\drivers/peripheral/gpio/cy_gpio.h ****     {
 637:Generated_Source\PSoC6\pdl\drivers/peripheral/gpio/cy_gpio.h ****         pinNum -= CY_GPIO_PRT_HALF;
 638:Generated_Source\PSoC6\pdl\drivers/peripheral/gpio/cy_gpio.h ****         returnValue = (portAddrHSIOM->PORT_SEL1 >> (pinNum << CY_GPIO_HSIOM_OFFSET)) & CY_GPIO_HSIO
 639:Generated_Source\PSoC6\pdl\drivers/peripheral/gpio/cy_gpio.h ****     }
 640:Generated_Source\PSoC6\pdl\drivers/peripheral/gpio/cy_gpio.h **** 
 641:Generated_Source\PSoC6\pdl\drivers/peripheral/gpio/cy_gpio.h ****     return (en_hsiom_sel_t)returnValue;
 642:Generated_Source\PSoC6\pdl\drivers/peripheral/gpio/cy_gpio.h **** }
 643:Generated_Source\PSoC6\pdl\drivers/peripheral/gpio/cy_gpio.h **** 
 644:Generated_Source\PSoC6\pdl\drivers/peripheral/gpio/cy_gpio.h **** 
 645:Generated_Source\PSoC6\pdl\drivers/peripheral/gpio/cy_gpio.h **** /*******************************************************************************
 646:Generated_Source\PSoC6\pdl\drivers/peripheral/gpio/cy_gpio.h **** * Function Name: Cy_GPIO_PortToAddr
 647:Generated_Source\PSoC6\pdl\drivers/peripheral/gpio/cy_gpio.h **** ****************************************************************************//**
 648:Generated_Source\PSoC6\pdl\drivers/peripheral/gpio/cy_gpio.h **** *
 649:Generated_Source\PSoC6\pdl\drivers/peripheral/gpio/cy_gpio.h **** * \brief Retrieves the port address based on the given port number.
 650:Generated_Source\PSoC6\pdl\drivers/peripheral/gpio/cy_gpio.h **** *
 651:Generated_Source\PSoC6\pdl\drivers/peripheral/gpio/cy_gpio.h **** * This is a helper function to calculate the port base address when given a port
 652:Generated_Source\PSoC6\pdl\drivers/peripheral/gpio/cy_gpio.h **** * number. It is to be used when pin access needs to be calculated at runtime.
 653:Generated_Source\PSoC6\pdl\drivers/peripheral/gpio/cy_gpio.h **** *
 654:Generated_Source\PSoC6\pdl\drivers/peripheral/gpio/cy_gpio.h **** * \param portNum
 655:Generated_Source\PSoC6\pdl\drivers/peripheral/gpio/cy_gpio.h **** * Port number
 656:Generated_Source\PSoC6\pdl\drivers/peripheral/gpio/cy_gpio.h **** *
 657:Generated_Source\PSoC6\pdl\drivers/peripheral/gpio/cy_gpio.h **** * \return
 658:Generated_Source\PSoC6\pdl\drivers/peripheral/gpio/cy_gpio.h **** * Base address of the port register structure
 659:Generated_Source\PSoC6\pdl\drivers/peripheral/gpio/cy_gpio.h **** *
 660:Generated_Source\PSoC6\pdl\drivers/peripheral/gpio/cy_gpio.h **** * \funcusage
 661:Generated_Source\PSoC6\pdl\drivers/peripheral/gpio/cy_gpio.h **** * \snippet gpio/gpio_v1_10_sut_01.cydsn/main_cm4.c snippet_Cy_GPIO_PortToAddr
 662:Generated_Source\PSoC6\pdl\drivers/peripheral/gpio/cy_gpio.h **** *
 663:Generated_Source\PSoC6\pdl\drivers/peripheral/gpio/cy_gpio.h **** *******************************************************************************/
 664:Generated_Source\PSoC6\pdl\drivers/peripheral/gpio/cy_gpio.h **** __STATIC_INLINE GPIO_PRT_Type* Cy_GPIO_PortToAddr(uint32_t portNum)
 665:Generated_Source\PSoC6\pdl\drivers/peripheral/gpio/cy_gpio.h **** {
 666:Generated_Source\PSoC6\pdl\drivers/peripheral/gpio/cy_gpio.h ****     GPIO_PRT_Type* base;
 667:Generated_Source\PSoC6\pdl\drivers/peripheral/gpio/cy_gpio.h ****     
ARM GAS  C:\Users\codyg\AppData\Local\Temp\cctpv6eZ.s 			page 15


 668:Generated_Source\PSoC6\pdl\drivers/peripheral/gpio/cy_gpio.h ****     if(portNum < (uint32_t)IOSS_GPIO_GPIO_PORT_NR)
 669:Generated_Source\PSoC6\pdl\drivers/peripheral/gpio/cy_gpio.h ****     {
 670:Generated_Source\PSoC6\pdl\drivers/peripheral/gpio/cy_gpio.h ****          base = (GPIO_PRT_Type *)(GPIO_BASE + (GPIO_PRT_SECTION_SIZE * portNum));
 671:Generated_Source\PSoC6\pdl\drivers/peripheral/gpio/cy_gpio.h ****     }
 672:Generated_Source\PSoC6\pdl\drivers/peripheral/gpio/cy_gpio.h ****     else
 673:Generated_Source\PSoC6\pdl\drivers/peripheral/gpio/cy_gpio.h ****     {
 674:Generated_Source\PSoC6\pdl\drivers/peripheral/gpio/cy_gpio.h ****         /* Error: Return default base address */
 675:Generated_Source\PSoC6\pdl\drivers/peripheral/gpio/cy_gpio.h ****         base = (GPIO_PRT_Type *)(GPIO_BASE);
 676:Generated_Source\PSoC6\pdl\drivers/peripheral/gpio/cy_gpio.h ****     }
 677:Generated_Source\PSoC6\pdl\drivers/peripheral/gpio/cy_gpio.h **** 
 678:Generated_Source\PSoC6\pdl\drivers/peripheral/gpio/cy_gpio.h ****     return (base);
 679:Generated_Source\PSoC6\pdl\drivers/peripheral/gpio/cy_gpio.h **** }
 680:Generated_Source\PSoC6\pdl\drivers/peripheral/gpio/cy_gpio.h **** 
 681:Generated_Source\PSoC6\pdl\drivers/peripheral/gpio/cy_gpio.h **** /** \} group_gpio_functions_init */
 682:Generated_Source\PSoC6\pdl\drivers/peripheral/gpio/cy_gpio.h **** 
 683:Generated_Source\PSoC6\pdl\drivers/peripheral/gpio/cy_gpio.h **** /**
 684:Generated_Source\PSoC6\pdl\drivers/peripheral/gpio/cy_gpio.h **** * \addtogroup group_gpio_functions_gpio
 685:Generated_Source\PSoC6\pdl\drivers/peripheral/gpio/cy_gpio.h **** * \{
 686:Generated_Source\PSoC6\pdl\drivers/peripheral/gpio/cy_gpio.h **** */
 687:Generated_Source\PSoC6\pdl\drivers/peripheral/gpio/cy_gpio.h **** 
 688:Generated_Source\PSoC6\pdl\drivers/peripheral/gpio/cy_gpio.h **** /*******************************************************************************
 689:Generated_Source\PSoC6\pdl\drivers/peripheral/gpio/cy_gpio.h **** * Function Name: Cy_GPIO_Read
 690:Generated_Source\PSoC6\pdl\drivers/peripheral/gpio/cy_gpio.h **** ****************************************************************************//**
 691:Generated_Source\PSoC6\pdl\drivers/peripheral/gpio/cy_gpio.h **** *
 692:Generated_Source\PSoC6\pdl\drivers/peripheral/gpio/cy_gpio.h **** * \brief Reads the current logic level on the input buffer of the pin.
 693:Generated_Source\PSoC6\pdl\drivers/peripheral/gpio/cy_gpio.h **** *
 694:Generated_Source\PSoC6\pdl\drivers/peripheral/gpio/cy_gpio.h **** * \param base
 695:Generated_Source\PSoC6\pdl\drivers/peripheral/gpio/cy_gpio.h **** * Pointer to the pin's port register base address
 696:Generated_Source\PSoC6\pdl\drivers/peripheral/gpio/cy_gpio.h **** *
 697:Generated_Source\PSoC6\pdl\drivers/peripheral/gpio/cy_gpio.h **** * \param pinNum
 698:Generated_Source\PSoC6\pdl\drivers/peripheral/gpio/cy_gpio.h **** * Position of the pin bit-field within the port register.
 699:Generated_Source\PSoC6\pdl\drivers/peripheral/gpio/cy_gpio.h **** * Bit position 8 is the routed pin through the port glitch filter.
 700:Generated_Source\PSoC6\pdl\drivers/peripheral/gpio/cy_gpio.h **** *
 701:Generated_Source\PSoC6\pdl\drivers/peripheral/gpio/cy_gpio.h **** * \return
 702:Generated_Source\PSoC6\pdl\drivers/peripheral/gpio/cy_gpio.h **** * Logic level present on the pin
 703:Generated_Source\PSoC6\pdl\drivers/peripheral/gpio/cy_gpio.h **** *
 704:Generated_Source\PSoC6\pdl\drivers/peripheral/gpio/cy_gpio.h **** * \funcusage
 705:Generated_Source\PSoC6\pdl\drivers/peripheral/gpio/cy_gpio.h **** * \snippet gpio/gpio_v1_10_sut_01.cydsn/main_cm4.c snippet_Cy_GPIO_Read
 706:Generated_Source\PSoC6\pdl\drivers/peripheral/gpio/cy_gpio.h **** *
 707:Generated_Source\PSoC6\pdl\drivers/peripheral/gpio/cy_gpio.h **** *******************************************************************************/
 708:Generated_Source\PSoC6\pdl\drivers/peripheral/gpio/cy_gpio.h **** __STATIC_INLINE uint32_t Cy_GPIO_Read(GPIO_PRT_Type* base, uint32_t pinNum)
 709:Generated_Source\PSoC6\pdl\drivers/peripheral/gpio/cy_gpio.h **** {
 710:Generated_Source\PSoC6\pdl\drivers/peripheral/gpio/cy_gpio.h ****     CY_ASSERT_L2(CY_GPIO_IS_FILTER_PIN_VALID(pinNum));
 711:Generated_Source\PSoC6\pdl\drivers/peripheral/gpio/cy_gpio.h ****     
 712:Generated_Source\PSoC6\pdl\drivers/peripheral/gpio/cy_gpio.h ****     return (base->IN >> (pinNum)) & CY_GPIO_IN_MASK;
 713:Generated_Source\PSoC6\pdl\drivers/peripheral/gpio/cy_gpio.h **** }
 714:Generated_Source\PSoC6\pdl\drivers/peripheral/gpio/cy_gpio.h **** 
 715:Generated_Source\PSoC6\pdl\drivers/peripheral/gpio/cy_gpio.h **** 
 716:Generated_Source\PSoC6\pdl\drivers/peripheral/gpio/cy_gpio.h **** /*******************************************************************************
 717:Generated_Source\PSoC6\pdl\drivers/peripheral/gpio/cy_gpio.h **** * Function Name: Cy_GPIO_Write
 718:Generated_Source\PSoC6\pdl\drivers/peripheral/gpio/cy_gpio.h **** ****************************************************************************//**
 719:Generated_Source\PSoC6\pdl\drivers/peripheral/gpio/cy_gpio.h **** *
 720:Generated_Source\PSoC6\pdl\drivers/peripheral/gpio/cy_gpio.h **** * \brief Write a logic 0 or logic 1 state to the output driver.
 721:Generated_Source\PSoC6\pdl\drivers/peripheral/gpio/cy_gpio.h **** *
 722:Generated_Source\PSoC6\pdl\drivers/peripheral/gpio/cy_gpio.h **** * This function should be used only for software driven pins. It does not have
 723:Generated_Source\PSoC6\pdl\drivers/peripheral/gpio/cy_gpio.h **** * any effect on peripheral driven pins.
 724:Generated_Source\PSoC6\pdl\drivers/peripheral/gpio/cy_gpio.h **** *
ARM GAS  C:\Users\codyg\AppData\Local\Temp\cctpv6eZ.s 			page 16


 725:Generated_Source\PSoC6\pdl\drivers/peripheral/gpio/cy_gpio.h **** * \param base
 726:Generated_Source\PSoC6\pdl\drivers/peripheral/gpio/cy_gpio.h **** * Pointer to the pin's port register base address
 727:Generated_Source\PSoC6\pdl\drivers/peripheral/gpio/cy_gpio.h **** *
 728:Generated_Source\PSoC6\pdl\drivers/peripheral/gpio/cy_gpio.h **** * \param pinNum
 729:Generated_Source\PSoC6\pdl\drivers/peripheral/gpio/cy_gpio.h **** * Position of the pin bit-field within the port register
 730:Generated_Source\PSoC6\pdl\drivers/peripheral/gpio/cy_gpio.h **** *
 731:Generated_Source\PSoC6\pdl\drivers/peripheral/gpio/cy_gpio.h **** * \param value
 732:Generated_Source\PSoC6\pdl\drivers/peripheral/gpio/cy_gpio.h **** * Logic level to drive out on the pin
 733:Generated_Source\PSoC6\pdl\drivers/peripheral/gpio/cy_gpio.h **** *
 734:Generated_Source\PSoC6\pdl\drivers/peripheral/gpio/cy_gpio.h **** * \return
 735:Generated_Source\PSoC6\pdl\drivers/peripheral/gpio/cy_gpio.h **** * void
 736:Generated_Source\PSoC6\pdl\drivers/peripheral/gpio/cy_gpio.h **** *
 737:Generated_Source\PSoC6\pdl\drivers/peripheral/gpio/cy_gpio.h **** * \funcusage
 738:Generated_Source\PSoC6\pdl\drivers/peripheral/gpio/cy_gpio.h **** * \snippet gpio/gpio_v1_10_sut_01.cydsn/main_cm4.c snippet_Cy_GPIO_Write
 739:Generated_Source\PSoC6\pdl\drivers/peripheral/gpio/cy_gpio.h **** *
 740:Generated_Source\PSoC6\pdl\drivers/peripheral/gpio/cy_gpio.h **** *******************************************************************************/
 741:Generated_Source\PSoC6\pdl\drivers/peripheral/gpio/cy_gpio.h **** __STATIC_INLINE void Cy_GPIO_Write(GPIO_PRT_Type* base, uint32_t pinNum, uint32_t value)
 742:Generated_Source\PSoC6\pdl\drivers/peripheral/gpio/cy_gpio.h **** {
 743:Generated_Source\PSoC6\pdl\drivers/peripheral/gpio/cy_gpio.h ****     CY_ASSERT_L2(CY_GPIO_IS_PIN_VALID(pinNum));
 744:Generated_Source\PSoC6\pdl\drivers/peripheral/gpio/cy_gpio.h ****     CY_ASSERT_L2(CY_GPIO_IS_VALUE_VALID(value));
 745:Generated_Source\PSoC6\pdl\drivers/peripheral/gpio/cy_gpio.h **** 
 746:Generated_Source\PSoC6\pdl\drivers/peripheral/gpio/cy_gpio.h ****     /* Thread-safe: Directly access the pin registers instead of base->OUT */
 747:Generated_Source\PSoC6\pdl\drivers/peripheral/gpio/cy_gpio.h ****     if(0UL == value)
 748:Generated_Source\PSoC6\pdl\drivers/peripheral/gpio/cy_gpio.h ****     {
 749:Generated_Source\PSoC6\pdl\drivers/peripheral/gpio/cy_gpio.h ****         base->OUT_CLR = CY_GPIO_OUT_MASK << pinNum;
 750:Generated_Source\PSoC6\pdl\drivers/peripheral/gpio/cy_gpio.h ****     }
 751:Generated_Source\PSoC6\pdl\drivers/peripheral/gpio/cy_gpio.h ****     else
 752:Generated_Source\PSoC6\pdl\drivers/peripheral/gpio/cy_gpio.h ****     {
 753:Generated_Source\PSoC6\pdl\drivers/peripheral/gpio/cy_gpio.h ****         base->OUT_SET = CY_GPIO_OUT_MASK << pinNum;
 754:Generated_Source\PSoC6\pdl\drivers/peripheral/gpio/cy_gpio.h ****     }
 755:Generated_Source\PSoC6\pdl\drivers/peripheral/gpio/cy_gpio.h **** }
 756:Generated_Source\PSoC6\pdl\drivers/peripheral/gpio/cy_gpio.h **** 
 757:Generated_Source\PSoC6\pdl\drivers/peripheral/gpio/cy_gpio.h **** 
 758:Generated_Source\PSoC6\pdl\drivers/peripheral/gpio/cy_gpio.h **** /*******************************************************************************
 759:Generated_Source\PSoC6\pdl\drivers/peripheral/gpio/cy_gpio.h **** * Function Name: Cy_GPIO_ReadOut
 760:Generated_Source\PSoC6\pdl\drivers/peripheral/gpio/cy_gpio.h **** ****************************************************************************//**
 761:Generated_Source\PSoC6\pdl\drivers/peripheral/gpio/cy_gpio.h **** *
 762:Generated_Source\PSoC6\pdl\drivers/peripheral/gpio/cy_gpio.h **** * \brief Reads the current logic level on the pin output driver.
 763:Generated_Source\PSoC6\pdl\drivers/peripheral/gpio/cy_gpio.h **** *
 764:Generated_Source\PSoC6\pdl\drivers/peripheral/gpio/cy_gpio.h **** * \param base
 765:Generated_Source\PSoC6\pdl\drivers/peripheral/gpio/cy_gpio.h **** * Pointer to the pin's port register base address
 766:Generated_Source\PSoC6\pdl\drivers/peripheral/gpio/cy_gpio.h **** *
 767:Generated_Source\PSoC6\pdl\drivers/peripheral/gpio/cy_gpio.h **** * \param pinNum
 768:Generated_Source\PSoC6\pdl\drivers/peripheral/gpio/cy_gpio.h **** * Position of the pin bit-field within the port register
 769:Generated_Source\PSoC6\pdl\drivers/peripheral/gpio/cy_gpio.h **** *
 770:Generated_Source\PSoC6\pdl\drivers/peripheral/gpio/cy_gpio.h **** * \return
 771:Generated_Source\PSoC6\pdl\drivers/peripheral/gpio/cy_gpio.h **** * Logic level on the pin output driver
 772:Generated_Source\PSoC6\pdl\drivers/peripheral/gpio/cy_gpio.h **** *
 773:Generated_Source\PSoC6\pdl\drivers/peripheral/gpio/cy_gpio.h **** * \funcusage
 774:Generated_Source\PSoC6\pdl\drivers/peripheral/gpio/cy_gpio.h **** * \snippet gpio/gpio_v1_10_sut_01.cydsn/main_cm4.c snippet_Cy_GPIO_ReadOut
 775:Generated_Source\PSoC6\pdl\drivers/peripheral/gpio/cy_gpio.h **** *
 776:Generated_Source\PSoC6\pdl\drivers/peripheral/gpio/cy_gpio.h **** *******************************************************************************/
 777:Generated_Source\PSoC6\pdl\drivers/peripheral/gpio/cy_gpio.h **** __STATIC_INLINE uint32_t Cy_GPIO_ReadOut(GPIO_PRT_Type* base, uint32_t pinNum)
 778:Generated_Source\PSoC6\pdl\drivers/peripheral/gpio/cy_gpio.h **** {
 779:Generated_Source\PSoC6\pdl\drivers/peripheral/gpio/cy_gpio.h ****     CY_ASSERT_L2(CY_GPIO_IS_PIN_VALID(pinNum));
 780:Generated_Source\PSoC6\pdl\drivers/peripheral/gpio/cy_gpio.h **** 
 781:Generated_Source\PSoC6\pdl\drivers/peripheral/gpio/cy_gpio.h ****     return (base->OUT >> pinNum) & CY_GPIO_OUT_MASK;
ARM GAS  C:\Users\codyg\AppData\Local\Temp\cctpv6eZ.s 			page 17


 782:Generated_Source\PSoC6\pdl\drivers/peripheral/gpio/cy_gpio.h **** }
 783:Generated_Source\PSoC6\pdl\drivers/peripheral/gpio/cy_gpio.h **** 
 784:Generated_Source\PSoC6\pdl\drivers/peripheral/gpio/cy_gpio.h **** 
 785:Generated_Source\PSoC6\pdl\drivers/peripheral/gpio/cy_gpio.h **** /*******************************************************************************
 786:Generated_Source\PSoC6\pdl\drivers/peripheral/gpio/cy_gpio.h **** * Function Name: Cy_GPIO_Set
 787:Generated_Source\PSoC6\pdl\drivers/peripheral/gpio/cy_gpio.h **** ****************************************************************************//**
 788:Generated_Source\PSoC6\pdl\drivers/peripheral/gpio/cy_gpio.h **** *
 789:Generated_Source\PSoC6\pdl\drivers/peripheral/gpio/cy_gpio.h **** * \brief Set a pin output to logic state high.
 790:Generated_Source\PSoC6\pdl\drivers/peripheral/gpio/cy_gpio.h **** *
 791:Generated_Source\PSoC6\pdl\drivers/peripheral/gpio/cy_gpio.h **** * This function should be used only for software driven pins. It does not have
 792:Generated_Source\PSoC6\pdl\drivers/peripheral/gpio/cy_gpio.h **** * any effect on peripheral driven pins.
 793:Generated_Source\PSoC6\pdl\drivers/peripheral/gpio/cy_gpio.h **** *
 794:Generated_Source\PSoC6\pdl\drivers/peripheral/gpio/cy_gpio.h **** * \param base
 795:Generated_Source\PSoC6\pdl\drivers/peripheral/gpio/cy_gpio.h **** * Pointer to the pin's port register base address
 796:Generated_Source\PSoC6\pdl\drivers/peripheral/gpio/cy_gpio.h **** *
 797:Generated_Source\PSoC6\pdl\drivers/peripheral/gpio/cy_gpio.h **** * \param pinNum
 798:Generated_Source\PSoC6\pdl\drivers/peripheral/gpio/cy_gpio.h **** * Position of the pin bit-field within the port register
 799:Generated_Source\PSoC6\pdl\drivers/peripheral/gpio/cy_gpio.h **** *
 800:Generated_Source\PSoC6\pdl\drivers/peripheral/gpio/cy_gpio.h **** * \return
 801:Generated_Source\PSoC6\pdl\drivers/peripheral/gpio/cy_gpio.h **** * void
 802:Generated_Source\PSoC6\pdl\drivers/peripheral/gpio/cy_gpio.h **** *
 803:Generated_Source\PSoC6\pdl\drivers/peripheral/gpio/cy_gpio.h **** * \funcusage
 804:Generated_Source\PSoC6\pdl\drivers/peripheral/gpio/cy_gpio.h **** * \snippet gpio/gpio_v1_10_sut_01.cydsn/main_cm4.c snippet_Cy_GPIO_Set
 805:Generated_Source\PSoC6\pdl\drivers/peripheral/gpio/cy_gpio.h **** *
 806:Generated_Source\PSoC6\pdl\drivers/peripheral/gpio/cy_gpio.h **** *******************************************************************************/
 807:Generated_Source\PSoC6\pdl\drivers/peripheral/gpio/cy_gpio.h **** __STATIC_INLINE void Cy_GPIO_Set(GPIO_PRT_Type* base, uint32_t pinNum)
 808:Generated_Source\PSoC6\pdl\drivers/peripheral/gpio/cy_gpio.h **** {
 809:Generated_Source\PSoC6\pdl\drivers/peripheral/gpio/cy_gpio.h ****     CY_ASSERT_L2(CY_GPIO_IS_PIN_VALID(pinNum));
 810:Generated_Source\PSoC6\pdl\drivers/peripheral/gpio/cy_gpio.h ****     
 811:Generated_Source\PSoC6\pdl\drivers/peripheral/gpio/cy_gpio.h ****     base->OUT_SET = CY_GPIO_OUT_MASK << pinNum;
  45              		.loc 2 811 0
  46 0006 0124     		movs	r4, #1
  47 0008 2D4B     		ldr	r3, .L5
  48 000a 9C60     		str	r4, [r3, #8]
  49              	.LVL1:
  50              	.LBE25:
  51              	.LBE24:
  52              	.LBB26:
  53              	.LBB27:
  54              		.file 3 "Generated_Source\\PSoC6/ADC.h"
   1:Generated_Source\PSoC6/ADC.h **** /***************************************************************************//**
   2:Generated_Source\PSoC6/ADC.h **** * \file     ADC.h
   3:Generated_Source\PSoC6/ADC.h **** * \version  2.10
   4:Generated_Source\PSoC6/ADC.h **** *
   5:Generated_Source\PSoC6/ADC.h **** * \brief
   6:Generated_Source\PSoC6/ADC.h **** * Provides the source code to the API for the ADC Component.
   7:Generated_Source\PSoC6/ADC.h **** *
   8:Generated_Source\PSoC6/ADC.h **** ********************************************************************************
   9:Generated_Source\PSoC6/ADC.h **** * \copyright
  10:Generated_Source\PSoC6/ADC.h **** * (c) 2017, Cypress Semiconductor Corporation. All rights reserved.
  11:Generated_Source\PSoC6/ADC.h **** * This software, including source code, documentation and related
  12:Generated_Source\PSoC6/ADC.h **** * materials ("Software"), is owned by Cypress Semiconductor
  13:Generated_Source\PSoC6/ADC.h **** * Corporation ("Cypress") and is protected by and subject to worldwide
  14:Generated_Source\PSoC6/ADC.h **** * patent protection (United States and foreign), United States copyright
  15:Generated_Source\PSoC6/ADC.h **** * laws and international treaty provisions. Therefore, you may use this
  16:Generated_Source\PSoC6/ADC.h **** * Software only as provided in the license agreement accompanying the
  17:Generated_Source\PSoC6/ADC.h **** * software package from which you obtained this Software ("EULA").
ARM GAS  C:\Users\codyg\AppData\Local\Temp\cctpv6eZ.s 			page 18


  18:Generated_Source\PSoC6/ADC.h **** * If no EULA applies, Cypress hereby grants you a personal, nonexclusive,
  19:Generated_Source\PSoC6/ADC.h **** * non-transferable license to copy, modify, and compile the
  20:Generated_Source\PSoC6/ADC.h **** * Software source code solely for use in connection with Cypress's
  21:Generated_Source\PSoC6/ADC.h **** * integrated circuit products. Any reproduction, modification, translation,
  22:Generated_Source\PSoC6/ADC.h **** * compilation, or representation of this Software except as specified
  23:Generated_Source\PSoC6/ADC.h **** * above is prohibited without the express written permission of Cypress.
  24:Generated_Source\PSoC6/ADC.h **** * Disclaimer: THIS SOFTWARE IS PROVIDED AS-IS, WITH NO
  25:Generated_Source\PSoC6/ADC.h **** * WARRANTY OF ANY KIND, EXPRESS OR IMPLIED, INCLUDING,
  26:Generated_Source\PSoC6/ADC.h **** * BUT NOT LIMITED TO, NONINFRINGEMENT, IMPLIED
  27:Generated_Source\PSoC6/ADC.h **** * WARRANTIES OF MERCHANTABILITY AND FITNESS FOR A
  28:Generated_Source\PSoC6/ADC.h **** * PARTICULAR PURPOSE. Cypress reserves the right to make
  29:Generated_Source\PSoC6/ADC.h **** * changes to the Software without notice. Cypress does not assume any
  30:Generated_Source\PSoC6/ADC.h **** * liability arising out of the application or use of the Software or any
  31:Generated_Source\PSoC6/ADC.h **** * product or circuit described in the Software. Cypress does not
  32:Generated_Source\PSoC6/ADC.h **** * authorize its products for use in any products where a malfunction or
  33:Generated_Source\PSoC6/ADC.h **** * failure of the Cypress product may reasonably be expected to result in
  34:Generated_Source\PSoC6/ADC.h **** * significant property damage, injury or death ("High Risk Product"). By
  35:Generated_Source\PSoC6/ADC.h **** * including Cypress's product in a High Risk Product, the manufacturer
  36:Generated_Source\PSoC6/ADC.h **** * of such system or application assumes all risk of such use and in doing
  37:Generated_Source\PSoC6/ADC.h **** * so agrees to indemnify Cypress against all liability.
  38:Generated_Source\PSoC6/ADC.h **** *******************************************************************************/
  39:Generated_Source\PSoC6/ADC.h **** #if !defined(CY_ADC_H)
  40:Generated_Source\PSoC6/ADC.h **** #define CY_ADC_H
  41:Generated_Source\PSoC6/ADC.h **** 
  42:Generated_Source\PSoC6/ADC.h **** #include <cy_device_headers.h>
  43:Generated_Source\PSoC6/ADC.h **** #include <sar/cy_sar.h>
  44:Generated_Source\PSoC6/ADC.h **** 
  45:Generated_Source\PSoC6/ADC.h **** #define ADC_VREF_ROUTED                  ((0) == 1u)
  46:Generated_Source\PSoC6/ADC.h **** #if (ADC_VREF_ROUTED)
  47:Generated_Source\PSoC6/ADC.h **** #include "ADC_vrefAMux.h"
  48:Generated_Source\PSoC6/ADC.h **** #endif
  49:Generated_Source\PSoC6/ADC.h **** 
  50:Generated_Source\PSoC6/ADC.h **** #define ADC_CLOCK_INTERNAL               ((1) == 1u)
  51:Generated_Source\PSoC6/ADC.h **** #if (ADC_CLOCK_INTERNAL)
  52:Generated_Source\PSoC6/ADC.h **** #include "ADC_intSarClock.h"
  53:Generated_Source\PSoC6/ADC.h **** #endif /* ADC_CLOCK_INTERNAL */
  54:Generated_Source\PSoC6/ADC.h **** 
  55:Generated_Source\PSoC6/ADC.h **** /**
  56:Generated_Source\PSoC6/ADC.h **** * \addtogroup group_structures
  57:Generated_Source\PSoC6/ADC.h **** *
  58:Generated_Source\PSoC6/ADC.h **** */
  59:Generated_Source\PSoC6/ADC.h **** typedef struct
  60:Generated_Source\PSoC6/ADC.h **** {
  61:Generated_Source\PSoC6/ADC.h ****     uint32_t channelBase;                   /* Start of channels for the configuration */
  62:Generated_Source\PSoC6/ADC.h ****     uint32_t numChannels;                   /* Number of channels in the configuration */
  63:Generated_Source\PSoC6/ADC.h ****     const cy_stc_sar_config_t *hwConfigStc; /* PDL structure */
  64:Generated_Source\PSoC6/ADC.h ****     uint32_t miscConfig;                    /* Miscellaneous configuration bits broken down as foll
  65:Generated_Source\PSoC6/ADC.h ****                                             [0] - Freerunning: Set if the sample mode is freerunnin
  66:Generated_Source\PSoC6/ADC.h ****                                             [2] - Mux Switch 0: Set when VSSA is used for the neg i
  67:Generated_Source\PSoC6/ADC.h ****                                             */
  68:Generated_Source\PSoC6/ADC.h **** #if (ADC_CLOCK_INTERNAL)
  69:Generated_Source\PSoC6/ADC.h ****     uint32_t clkDivider;                    /* Clock divider */
  70:Generated_Source\PSoC6/ADC.h **** #endif /* ADC_CLOCK_INTERNAL */
  71:Generated_Source\PSoC6/ADC.h **** 
  72:Generated_Source\PSoC6/ADC.h **** } ADC_CONFIG_STRUCT;
  73:Generated_Source\PSoC6/ADC.h **** /** @} structures */
  74:Generated_Source\PSoC6/ADC.h **** 
ARM GAS  C:\Users\codyg\AppData\Local\Temp\cctpv6eZ.s 			page 19


  75:Generated_Source\PSoC6/ADC.h **** /*******************************************************************************
  76:Generated_Source\PSoC6/ADC.h **** * Function Prototypes
  77:Generated_Source\PSoC6/ADC.h **** *******************************************************************************/
  78:Generated_Source\PSoC6/ADC.h **** void ADC_SelectConfig(uint32_t config, uint32_t restart);
  79:Generated_Source\PSoC6/ADC.h **** void ADC_InitConfig(const ADC_CONFIG_STRUCT *config);
  80:Generated_Source\PSoC6/ADC.h **** void ADC_Init(void);
  81:Generated_Source\PSoC6/ADC.h **** __STATIC_INLINE void ADC_Enable(void);
  82:Generated_Source\PSoC6/ADC.h **** 
  83:Generated_Source\PSoC6/ADC.h **** /**
  84:Generated_Source\PSoC6/ADC.h **** * \addtogroup group_general
  85:Generated_Source\PSoC6/ADC.h **** * @{
  86:Generated_Source\PSoC6/ADC.h **** */
  87:Generated_Source\PSoC6/ADC.h **** void ADC_Start(void);
  88:Generated_Source\PSoC6/ADC.h **** void ADC_StartEx(cy_israddress userIsr);
  89:Generated_Source\PSoC6/ADC.h **** __STATIC_INLINE void ADC_Stop(void);
  90:Generated_Source\PSoC6/ADC.h **** void ADC_StartConvert(void);
  91:Generated_Source\PSoC6/ADC.h **** __STATIC_INLINE void ADC_StopConvert(void);
  92:Generated_Source\PSoC6/ADC.h **** void ADC_SetConvertMode(cy_en_sar_start_convert_sel_t mode);
  93:Generated_Source\PSoC6/ADC.h **** void ADC_SetEosMask(uint32_t mask);
  94:Generated_Source\PSoC6/ADC.h **** uint32_t ADC_IsEndConversion(cy_en_sar_return_mode_t retMode);
  95:Generated_Source\PSoC6/ADC.h **** __STATIC_INLINE int16_t ADC_GetResult16(uint32_t chan);
  96:Generated_Source\PSoC6/ADC.h **** __STATIC_INLINE int32_t ADC_GetResult32(uint32_t chan);
  97:Generated_Source\PSoC6/ADC.h **** __STATIC_INLINE void ADC_SetLowLimit(uint32_t lowLimit);
  98:Generated_Source\PSoC6/ADC.h **** __STATIC_INLINE void ADC_SetHighLimit(uint32_t highLimit);
  99:Generated_Source\PSoC6/ADC.h **** __STATIC_INLINE void ADC_SetLimitMask(uint32_t limitMask);
 100:Generated_Source\PSoC6/ADC.h **** __STATIC_INLINE void ADC_SetSatMask(uint32_t satMask);
 101:Generated_Source\PSoC6/ADC.h **** __STATIC_INLINE cy_en_sar_status_t ADC_SetOffset(uint32_t chan, int16_t offset);
 102:Generated_Source\PSoC6/ADC.h **** __STATIC_INLINE cy_en_sar_status_t ADC_SetGain(uint32_t chan, int32_t adcGain);
 103:Generated_Source\PSoC6/ADC.h **** __STATIC_INLINE float32_t ADC_CountsTo_Volts(uint32_t chan, int16_t adcCounts);
 104:Generated_Source\PSoC6/ADC.h **** __STATIC_INLINE int16_t ADC_CountsTo_mVolts(uint32_t chan, int16_t adcCounts);
 105:Generated_Source\PSoC6/ADC.h **** __STATIC_INLINE int32_t ADC_CountsTo_uVolts(uint32_t chan, int16_t adcCounts);
 106:Generated_Source\PSoC6/ADC.h **** 
 107:Generated_Source\PSoC6/ADC.h **** /** @} general */
 108:Generated_Source\PSoC6/ADC.h **** 
 109:Generated_Source\PSoC6/ADC.h **** void ADC_SetChanMask(uint32_t enableMask);
 110:Generated_Source\PSoC6/ADC.h **** 
 111:Generated_Source\PSoC6/ADC.h **** /**
 112:Generated_Source\PSoC6/ADC.h **** * \addtogroup group_power
 113:Generated_Source\PSoC6/ADC.h **** * @{
 114:Generated_Source\PSoC6/ADC.h **** */
 115:Generated_Source\PSoC6/ADC.h **** __STATIC_INLINE void ADC_Sleep(void);
 116:Generated_Source\PSoC6/ADC.h **** __STATIC_INLINE void ADC_Wakeup(void);
 117:Generated_Source\PSoC6/ADC.h **** 
 118:Generated_Source\PSoC6/ADC.h **** /** @} power */
 119:Generated_Source\PSoC6/ADC.h **** 
 120:Generated_Source\PSoC6/ADC.h **** /**
 121:Generated_Source\PSoC6/ADC.h **** * \addtogroup group_interrupt
 122:Generated_Source\PSoC6/ADC.h **** * @{
 123:Generated_Source\PSoC6/ADC.h **** */
 124:Generated_Source\PSoC6/ADC.h **** void ADC_ISR(void);
 125:Generated_Source\PSoC6/ADC.h **** void ADC_IRQ_Enable(void);
 126:Generated_Source\PSoC6/ADC.h **** void ADC_IRQ_Disable(void);
 127:Generated_Source\PSoC6/ADC.h **** 
 128:Generated_Source\PSoC6/ADC.h **** /** @} interrupt */
 129:Generated_Source\PSoC6/ADC.h **** 
 130:Generated_Source\PSoC6/ADC.h **** /*******************************************************************************
 131:Generated_Source\PSoC6/ADC.h ****                                   Parameters
ARM GAS  C:\Users\codyg\AppData\Local\Temp\cctpv6eZ.s 			page 20


 132:Generated_Source\PSoC6/ADC.h **** The parameters that are set in the customizer are redefined as constants here.
 133:Generated_Source\PSoC6/ADC.h **** *******************************************************************************/
 134:Generated_Source\PSoC6/ADC.h **** 
 135:Generated_Source\PSoC6/ADC.h **** /*  Sample Mode setting constants */
 136:Generated_Source\PSoC6/ADC.h **** #define ADC_TOTAL_CONFIGS                (1ul)
 137:Generated_Source\PSoC6/ADC.h **** 
 138:Generated_Source\PSoC6/ADC.h **** /* ************************************************************************** */
 139:Generated_Source\PSoC6/ADC.h **** /* Begin configuration 0 customizer defines                                   */
 140:Generated_Source\PSoC6/ADC.h **** /* ************************************************************************** */
 141:Generated_Source\PSoC6/ADC.h **** 
 142:Generated_Source\PSoC6/ADC.h **** #define ADC_CFG0_SAMPLE_RATE             (200)
 143:Generated_Source\PSoC6/ADC.h **** #define ADC_CFG0_CHANNEL_BASE            (0u)
 144:Generated_Source\PSoC6/ADC.h **** #define ADC_CFG0_CHANNEL_COUNT           (2u)
 145:Generated_Source\PSoC6/ADC.h **** #define ADC_CFG0_VREF_SEL_MASK           (0x70u)
 146:Generated_Source\PSoC6/ADC.h **** #define ADC_CFG0_NOMINAL_CLOCK_FREQ      (12000000u)
 147:Generated_Source\PSoC6/ADC.h **** #define ADC_CFG0_CHANNEL_EN              (0x3u)
 148:Generated_Source\PSoC6/ADC.h **** 
 149:Generated_Source\PSoC6/ADC.h **** /* Sample Control Register */
 150:Generated_Source\PSoC6/ADC.h **** #define ADC_CFG0_SINGLE_ENDED_FORMAT     (0uL)
 151:Generated_Source\PSoC6/ADC.h **** #define ADC_CFG0_DIFFERENTIAL_FORMAT     (1uL)
 152:Generated_Source\PSoC6/ADC.h **** #define ADC_CFG0_SAMPLES_AVERAGED        (7uL)
 153:Generated_Source\PSoC6/ADC.h **** #define ADC_CFG0_RANGE_INTR_MASK         (0x0u)
 154:Generated_Source\PSoC6/ADC.h **** #define ADC_CFG0_SATURATE_INTR_MASK      (0x0u)
 155:Generated_Source\PSoC6/ADC.h **** #define ADC_CFG0_VNEG_INPUT_SEL          (7)
 156:Generated_Source\PSoC6/ADC.h **** #define ADC_CFG0_SINGLE_PRESENT          (0)
 157:Generated_Source\PSoC6/ADC.h **** #define ADC_CFG0_VREF_MV_VALUE           (3300)
 158:Generated_Source\PSoC6/ADC.h **** #define ADC_CFG0_APERTURE_TIME0          (3uL)
 159:Generated_Source\PSoC6/ADC.h **** #define ADC_CFG0_APERTURE_TIME1          (2uL)
 160:Generated_Source\PSoC6/ADC.h **** #define ADC_CFG0_APERTURE_TIME2          (2uL)
 161:Generated_Source\PSoC6/ADC.h **** #define ADC_CFG0_APERTURE_TIME3          (2uL)
 162:Generated_Source\PSoC6/ADC.h **** #define ADC_CFG0_FREERUNNING             (0u)
 163:Generated_Source\PSoC6/ADC.h **** #define ADC_CFG0_AVGERAGING_MODE         (1uL)
 164:Generated_Source\PSoC6/ADC.h **** #define ADC_CFG0_LOW_LIMIT               (512u)
 165:Generated_Source\PSoC6/ADC.h **** #define ADC_CFG0_HIGH_LIMIT              (3584u)
 166:Generated_Source\PSoC6/ADC.h **** #define ADC_CFG0_RANGE_COND              (0uL)
 167:Generated_Source\PSoC6/ADC.h **** #define ADC_CFG0_USE_SOC                 (0uL)
 168:Generated_Source\PSoC6/ADC.h **** #define ADC_CFG0_VREF_PWR                (2uL)
 169:Generated_Source\PSoC6/ADC.h **** #define ADC_CFG0_COMP_PWR                (3uL)
 170:Generated_Source\PSoC6/ADC.h **** #define ADC_CFG0_COMP_DLY                (3uL)
 171:Generated_Source\PSoC6/ADC.h **** 
 172:Generated_Source\PSoC6/ADC.h **** /* Clock parameters*/
 173:Generated_Source\PSoC6/ADC.h **** #if (ADC_CLOCK_INTERNAL)
 174:Generated_Source\PSoC6/ADC.h ****     #define ADC_CFG0_CLOCKDIVIDER        (((CYDEV_CLK_PERICLK__HZ) / (ADC_CFG0_NOMINAL_CLOCK_FREQ))
 175:Generated_Source\PSoC6/ADC.h **** #endif /* (ADC_CLOCK_INTERNAL) */
 176:Generated_Source\PSoC6/ADC.h **** 
 177:Generated_Source\PSoC6/ADC.h **** /* ************************************************************************** */
 178:Generated_Source\PSoC6/ADC.h **** /* End configuration 0 customizer defines                                     */
 179:Generated_Source\PSoC6/ADC.h **** /* ************************************************************************** */
 180:Generated_Source\PSoC6/ADC.h **** 
 181:Generated_Source\PSoC6/ADC.h **** /* ************************************************************************** */
 182:Generated_Source\PSoC6/ADC.h **** /* Begin configuration 1 customizer defines                                   */
 183:Generated_Source\PSoC6/ADC.h **** /* ************************************************************************** */
 184:Generated_Source\PSoC6/ADC.h **** 
 185:Generated_Source\PSoC6/ADC.h **** #if(ADC_TOTAL_CONFIGS > 1)
 186:Generated_Source\PSoC6/ADC.h ****     #define ADC_CFG1_SAMPLE_RATE             ()
 187:Generated_Source\PSoC6/ADC.h ****     #define ADC_CFG1_CHANNEL_BASE            (u)
 188:Generated_Source\PSoC6/ADC.h ****     #define ADC_CFG1_CHANNEL_COUNT           (u)
ARM GAS  C:\Users\codyg\AppData\Local\Temp\cctpv6eZ.s 			page 21


 189:Generated_Source\PSoC6/ADC.h ****     #define ADC_CFG1_VREF_SEL_MASK           (u)
 190:Generated_Source\PSoC6/ADC.h ****     #define ADC_CFG1_NOMINAL_CLOCK_FREQ      (u)
 191:Generated_Source\PSoC6/ADC.h ****     #define ADC_CFG1_CHANNEL_EN              (u)
 192:Generated_Source\PSoC6/ADC.h **** 
 193:Generated_Source\PSoC6/ADC.h ****     /* Sample Control Register */
 194:Generated_Source\PSoC6/ADC.h ****     #define ADC_CFG1_SINGLE_ENDED_FORMAT     (uL)
 195:Generated_Source\PSoC6/ADC.h ****     #define ADC_CFG1_DIFFERENTIAL_FORMAT     (uL)
 196:Generated_Source\PSoC6/ADC.h ****     #define ADC_CFG1_SAMPLES_AVERAGED        (uL)
 197:Generated_Source\PSoC6/ADC.h ****     #define ADC_CFG1_RANGE_INTR_MASK         (u)
 198:Generated_Source\PSoC6/ADC.h ****     #define ADC_CFG1_SATURATE_INTR_MASK      (u)
 199:Generated_Source\PSoC6/ADC.h ****     #define ADC_CFG1_VNEG_INPUT_SEL          ()
 200:Generated_Source\PSoC6/ADC.h ****     #define ADC_CFG1_SINGLE_PRESENT          ()
 201:Generated_Source\PSoC6/ADC.h ****     #define ADC_CFG1_VREF_MV_VALUE           ()
 202:Generated_Source\PSoC6/ADC.h ****     #define ADC_CFG1_APERTURE_TIME0          (uL)
 203:Generated_Source\PSoC6/ADC.h ****     #define ADC_CFG1_APERTURE_TIME1          (uL)
 204:Generated_Source\PSoC6/ADC.h ****     #define ADC_CFG1_APERTURE_TIME2          (uL)
 205:Generated_Source\PSoC6/ADC.h ****     #define ADC_CFG1_APERTURE_TIME3          (uL)
 206:Generated_Source\PSoC6/ADC.h ****     #define ADC_CFG1_FREERUNNING             (u)
 207:Generated_Source\PSoC6/ADC.h ****     #define ADC_CFG1_AVGERAGING_MODE         (uL)
 208:Generated_Source\PSoC6/ADC.h ****     #define ADC_CFG1_LOW_LIMIT               (u)
 209:Generated_Source\PSoC6/ADC.h ****     #define ADC_CFG1_HIGH_LIMIT              (u)
 210:Generated_Source\PSoC6/ADC.h ****     #define ADC_CFG1_RANGE_COND              (uL)
 211:Generated_Source\PSoC6/ADC.h ****     #define ADC_CFG1_USE_SOC                 (0uL)
 212:Generated_Source\PSoC6/ADC.h ****     #define ADC_CFG1_VREF_PWR                (uL)
 213:Generated_Source\PSoC6/ADC.h ****     #define ADC_CFG1_COMP_PWR                (uL)
 214:Generated_Source\PSoC6/ADC.h ****     #define ADC_CFG1_COMP_DLY                (uL)
 215:Generated_Source\PSoC6/ADC.h **** 
 216:Generated_Source\PSoC6/ADC.h ****     /* Clock parameters*/
 217:Generated_Source\PSoC6/ADC.h ****     #if (ADC_CLOCK_INTERNAL)
 218:Generated_Source\PSoC6/ADC.h ****         #define ADC_CFG1_CLOCKDIVIDER        (((CYDEV_CLK_PERICLK__HZ) / (ADC_CFG1_NOMINAL_CLOCK_FR
 219:Generated_Source\PSoC6/ADC.h ****     #endif /* (ADC_CLOCK_INTERNAL) */
 220:Generated_Source\PSoC6/ADC.h **** #endif /* #if(ADC_TOTAL_CONFIGS > 1) */
 221:Generated_Source\PSoC6/ADC.h **** 
 222:Generated_Source\PSoC6/ADC.h **** /* ************************************************************************** */
 223:Generated_Source\PSoC6/ADC.h **** /* End configuration 1 customizer defines                                     */
 224:Generated_Source\PSoC6/ADC.h **** /* ************************************************************************** */
 225:Generated_Source\PSoC6/ADC.h **** 
 226:Generated_Source\PSoC6/ADC.h **** /* ************************************************************************** */
 227:Generated_Source\PSoC6/ADC.h **** /* Begin configuration 2 customizer defines                                         */
 228:Generated_Source\PSoC6/ADC.h **** /* ************************************************************************** */
 229:Generated_Source\PSoC6/ADC.h **** 
 230:Generated_Source\PSoC6/ADC.h **** #if(ADC_TOTAL_CONFIGS > 2)
 231:Generated_Source\PSoC6/ADC.h ****     #define ADC_CFG2_SAMPLE_RATE             ()
 232:Generated_Source\PSoC6/ADC.h ****     #define ADC_CFG2_CHANNEL_BASE            (u)
 233:Generated_Source\PSoC6/ADC.h ****     #define ADC_CFG2_CHANNEL_COUNT           (u)
 234:Generated_Source\PSoC6/ADC.h ****     #define ADC_CFG2_VREF_SEL_MASK           (u)
 235:Generated_Source\PSoC6/ADC.h ****     #define ADC_CFG2_NOMINAL_CLOCK_FREQ      (u)
 236:Generated_Source\PSoC6/ADC.h ****     #define ADC_CFG2_CHANNEL_EN              (u)
 237:Generated_Source\PSoC6/ADC.h **** 
 238:Generated_Source\PSoC6/ADC.h ****     /* Sample Control Register */
 239:Generated_Source\PSoC6/ADC.h ****     #define ADC_CFG2_SINGLE_ENDED_FORMAT     (uL)
 240:Generated_Source\PSoC6/ADC.h ****     #define ADC_CFG2_DIFFERENTIAL_FORMAT     (uL)
 241:Generated_Source\PSoC6/ADC.h ****     #define ADC_CFG2_SAMPLES_AVERAGED        (uL)
 242:Generated_Source\PSoC6/ADC.h ****     #define ADC_CFG2_RANGE_INTR_MASK         (u)
 243:Generated_Source\PSoC6/ADC.h ****     #define ADC_CFG2_SATURATE_INTR_MASK      (u)
 244:Generated_Source\PSoC6/ADC.h ****     #define ADC_CFG2_VNEG_INPUT_SEL          ()
 245:Generated_Source\PSoC6/ADC.h ****     #define ADC_CFG2_SINGLE_PRESENT          ()
ARM GAS  C:\Users\codyg\AppData\Local\Temp\cctpv6eZ.s 			page 22


 246:Generated_Source\PSoC6/ADC.h ****     #define ADC_CFG2_VREF_MV_VALUE           ()
 247:Generated_Source\PSoC6/ADC.h ****     #define ADC_CFG2_APERTURE_TIME0          (uL)
 248:Generated_Source\PSoC6/ADC.h ****     #define ADC_CFG2_APERTURE_TIME1          (uL)
 249:Generated_Source\PSoC6/ADC.h ****     #define ADC_CFG2_APERTURE_TIME2          (uL)
 250:Generated_Source\PSoC6/ADC.h ****     #define ADC_CFG2_APERTURE_TIME3          (uL)
 251:Generated_Source\PSoC6/ADC.h ****     #define ADC_CFG2_FREERUNNING             (u)
 252:Generated_Source\PSoC6/ADC.h ****     #define ADC_CFG2_AVGERAGING_MODE         (uL)
 253:Generated_Source\PSoC6/ADC.h ****     #define ADC_CFG2_LOW_LIMIT               (u)
 254:Generated_Source\PSoC6/ADC.h ****     #define ADC_CFG2_HIGH_LIMIT              (u)
 255:Generated_Source\PSoC6/ADC.h ****     #define ADC_CFG2_RANGE_COND              (uL)
 256:Generated_Source\PSoC6/ADC.h ****     #define ADC_CFG2_USE_SOC                 (0uL)
 257:Generated_Source\PSoC6/ADC.h ****     #define ADC_CFG2_VREF_PWR                (uL)
 258:Generated_Source\PSoC6/ADC.h ****     #define ADC_CFG2_COMP_PWR                (uL)
 259:Generated_Source\PSoC6/ADC.h ****     #define ADC_CFG2_COMP_DLY                (uL)
 260:Generated_Source\PSoC6/ADC.h **** 
 261:Generated_Source\PSoC6/ADC.h ****     /* Clock parameters*/
 262:Generated_Source\PSoC6/ADC.h ****     #if (ADC_CLOCK_INTERNAL)
 263:Generated_Source\PSoC6/ADC.h ****         #define ADC_CFG2_CLOCKDIVIDER        (((CYDEV_CLK_PERICLK__HZ) / (ADC_CFG2_NOMINAL_CLOCK_FR
 264:Generated_Source\PSoC6/ADC.h ****     #endif /* (ADC_CLOCK_INTERNAL) */
 265:Generated_Source\PSoC6/ADC.h **** #endif /* (ADC_TOTAL_CONFIGS > 2) */
 266:Generated_Source\PSoC6/ADC.h **** 
 267:Generated_Source\PSoC6/ADC.h **** 
 268:Generated_Source\PSoC6/ADC.h **** /* ************************************************************************** */
 269:Generated_Source\PSoC6/ADC.h **** /* End configuration 2 customizer defines                                     */
 270:Generated_Source\PSoC6/ADC.h **** /* ************************************************************************** */
 271:Generated_Source\PSoC6/ADC.h **** 
 272:Generated_Source\PSoC6/ADC.h **** /* ************************************************************************** */
 273:Generated_Source\PSoC6/ADC.h **** /* Begin configuration 3 customizer defines                                   */
 274:Generated_Source\PSoC6/ADC.h **** /* ************************************************************************** */
 275:Generated_Source\PSoC6/ADC.h **** #if(ADC_TOTAL_CONFIGS > 3)
 276:Generated_Source\PSoC6/ADC.h ****     #define ADC_CFG3_SAMPLE_RATE             ()
 277:Generated_Source\PSoC6/ADC.h ****     #define ADC_CFG3_CHANNEL_BASE            (u)
 278:Generated_Source\PSoC6/ADC.h ****     #define ADC_CFG3_CHANNEL_COUNT           (u)
 279:Generated_Source\PSoC6/ADC.h ****     #define ADC_CFG3_VREF_SEL_MASK           (u)
 280:Generated_Source\PSoC6/ADC.h ****     #define ADC_CFG3_NOMINAL_CLOCK_FREQ      (u)
 281:Generated_Source\PSoC6/ADC.h ****     #define ADC_CFG3_CHANNEL_EN              (u)
 282:Generated_Source\PSoC6/ADC.h **** 
 283:Generated_Source\PSoC6/ADC.h ****     /* Sample Control Register */
 284:Generated_Source\PSoC6/ADC.h ****     #define ADC_CFG3_SINGLE_ENDED_FORMAT     (uL)
 285:Generated_Source\PSoC6/ADC.h ****     #define ADC_CFG3_DIFFERENTIAL_FORMAT     (uL)
 286:Generated_Source\PSoC6/ADC.h ****     #define ADC_CFG3_SAMPLES_AVERAGED        (uL)
 287:Generated_Source\PSoC6/ADC.h ****     #define ADC_CFG3_RANGE_INTR_MASK         (u)
 288:Generated_Source\PSoC6/ADC.h ****     #define ADC_CFG3_SATURATE_INTR_MASK      (u)
 289:Generated_Source\PSoC6/ADC.h ****     #define ADC_CFG3_VNEG_INPUT_SEL          ()
 290:Generated_Source\PSoC6/ADC.h ****     #define ADC_CFG3_SINGLE_PRESENT          ()
 291:Generated_Source\PSoC6/ADC.h ****     #define ADC_CFG3_VREF_MV_VALUE           ()
 292:Generated_Source\PSoC6/ADC.h ****     #define ADC_CFG3_APERTURE_TIME0          (uL)
 293:Generated_Source\PSoC6/ADC.h ****     #define ADC_CFG3_APERTURE_TIME1          (uL)
 294:Generated_Source\PSoC6/ADC.h ****     #define ADC_CFG3_APERTURE_TIME2          (uL)
 295:Generated_Source\PSoC6/ADC.h ****     #define ADC_CFG3_APERTURE_TIME3          (uL)
 296:Generated_Source\PSoC6/ADC.h ****     #define ADC_CFG3_FREERUNNING             (u)
 297:Generated_Source\PSoC6/ADC.h ****     #define ADC_CFG3_AVGERAGING_MODE         (uL)
 298:Generated_Source\PSoC6/ADC.h ****     #define ADC_CFG3_LOW_LIMIT               (u)
 299:Generated_Source\PSoC6/ADC.h ****     #define ADC_CFG3_HIGH_LIMIT              (u)
 300:Generated_Source\PSoC6/ADC.h ****     #define ADC_CFG3_RANGE_COND              (uL)
 301:Generated_Source\PSoC6/ADC.h ****     #define ADC_CFG3_USE_SOC                 (0uL)
 302:Generated_Source\PSoC6/ADC.h ****     #define ADC_CFG3_VREF_PWR                (uL)
ARM GAS  C:\Users\codyg\AppData\Local\Temp\cctpv6eZ.s 			page 23


 303:Generated_Source\PSoC6/ADC.h ****     #define ADC_CFG3_COMP_PWR                (uL)
 304:Generated_Source\PSoC6/ADC.h ****     #define ADC_CFG3_COMP_DLY                (uL)
 305:Generated_Source\PSoC6/ADC.h **** 
 306:Generated_Source\PSoC6/ADC.h ****     /* Clock parameters*/
 307:Generated_Source\PSoC6/ADC.h ****     #if (ADC_CLOCK_INTERNAL)
 308:Generated_Source\PSoC6/ADC.h ****         #define ADC_CFG3_CLOCKDIVIDER        (((CYDEV_CLK_PERICLK__HZ) / (ADC_CFG3_NOMINAL_CLOCK_FR
 309:Generated_Source\PSoC6/ADC.h ****     #endif /* (ADC_CLOCK_INTERNAL) */
 310:Generated_Source\PSoC6/ADC.h **** #endif /* (ADC_TOTAL_CONFIGS > 3) */
 311:Generated_Source\PSoC6/ADC.h **** 
 312:Generated_Source\PSoC6/ADC.h **** /* ************************************************************************** */
 313:Generated_Source\PSoC6/ADC.h **** /* End configuration 3 customizer defines                                     */
 314:Generated_Source\PSoC6/ADC.h **** /* ************************************************************************** */
 315:Generated_Source\PSoC6/ADC.h **** 
 316:Generated_Source\PSoC6/ADC.h **** #define ADC_DEFAULT_SAMPLE_MODE_SEL      (0u)
 317:Generated_Source\PSoC6/ADC.h **** #define ADC_FREERUNNING                  (1u)
 318:Generated_Source\PSoC6/ADC.h **** #define ADC_HARDWARESOC                  (1u)
 319:Generated_Source\PSoC6/ADC.h **** #define ADC_NEG_SEL_VSSA_KELVIN          (0x0uL)
 320:Generated_Source\PSoC6/ADC.h **** #define ADC_NEG_SEL_VREF                 (0x7uL)
 321:Generated_Source\PSoC6/ADC.h **** #define ADC_PWR_CTRL_VREF_NORMAL_PWR     (0x0uL)
 322:Generated_Source\PSoC6/ADC.h **** 
 323:Generated_Source\PSoC6/ADC.h **** /** ADC_TOTAL_CHANNELS_NUM
 324:Generated_Source\PSoC6/ADC.h **** * This constant represents the number of input channels available for scanning.
 325:Generated_Source\PSoC6/ADC.h **** */
 326:Generated_Source\PSoC6/ADC.h **** #define ADC_TOTAL_CHANNELS_NUM           (2u)
 327:Generated_Source\PSoC6/ADC.h **** 
 328:Generated_Source\PSoC6/ADC.h **** /*******************************************************************************
 329:Generated_Source\PSoC6/ADC.h **** *    Variables with External Linkage
 330:Generated_Source\PSoC6/ADC.h **** *******************************************************************************/
 331:Generated_Source\PSoC6/ADC.h **** /**
 332:Generated_Source\PSoC6/ADC.h **** * \addtogroup group_globals
 333:Generated_Source\PSoC6/ADC.h **** * Globals are noted in the descriptions of the functions that use globals.
 334:Generated_Source\PSoC6/ADC.h **** * They are marked with (R), (W), or (RW) noting whether the variable is read,
 335:Generated_Source\PSoC6/ADC.h **** * write, or read/write.
 336:Generated_Source\PSoC6/ADC.h **** * @{
 337:Generated_Source\PSoC6/ADC.h **** */
 338:Generated_Source\PSoC6/ADC.h **** 
 339:Generated_Source\PSoC6/ADC.h **** /** ADC_initVar
 340:Generated_Source\PSoC6/ADC.h **** * The ADC_initVar variable is used to indicate
 341:Generated_Source\PSoC6/ADC.h **** * initial configuration of this component. The variable is initialized to zero and
 342:Generated_Source\PSoC6/ADC.h **** * set to 1 the first time ADC_Start() is called. This allows for
 343:Generated_Source\PSoC6/ADC.h **** * component initialization without reinitialization in all subsequent calls to the
 344:Generated_Source\PSoC6/ADC.h **** * ADC_Start() routine.
 345:Generated_Source\PSoC6/ADC.h **** *
 346:Generated_Source\PSoC6/ADC.h **** * If reinitialization of the component is required, then the ADC_Init() function
 347:Generated_Source\PSoC6/ADC.h **** * can be called before the ADC_Start() or ADC_Enable()
 348:Generated_Source\PSoC6/ADC.h **** * functions.
 349:Generated_Source\PSoC6/ADC.h **** */
 350:Generated_Source\PSoC6/ADC.h **** extern uint8_t ADC_initVar;
 351:Generated_Source\PSoC6/ADC.h **** extern uint8_t ADC_selected;
 352:Generated_Source\PSoC6/ADC.h **** extern uint32_t ADC_currentConfig;
 353:Generated_Source\PSoC6/ADC.h **** 
 354:Generated_Source\PSoC6/ADC.h **** #define ADC_INIT_VAR_INIT_FLAG     (0x01u)
 355:Generated_Source\PSoC6/ADC.h **** 
 356:Generated_Source\PSoC6/ADC.h **** extern const ADC_CONFIG_STRUCT ADC_allConfigs[ADC_TOTAL_CONFIGS];
 357:Generated_Source\PSoC6/ADC.h **** 
 358:Generated_Source\PSoC6/ADC.h **** /* SysPm callback structure for deep sleep entry and exit.
 359:Generated_Source\PSoC6/ADC.h ****  * Call the Cy_SysPm_RegisterCallback function with this
ARM GAS  C:\Users\codyg\AppData\Local\Temp\cctpv6eZ.s 			page 24


 360:Generated_Source\PSoC6/ADC.h ****  * structure before calling Cy_SysPm_DeepSleep.
 361:Generated_Source\PSoC6/ADC.h **** */
 362:Generated_Source\PSoC6/ADC.h **** extern cy_stc_syspm_callback_t ADC_DeepSleepCallbackStruct;
 363:Generated_Source\PSoC6/ADC.h **** 
 364:Generated_Source\PSoC6/ADC.h **** /** @} globals */
 365:Generated_Source\PSoC6/ADC.h **** 
 366:Generated_Source\PSoC6/ADC.h **** /* ************************************************************************** */
 367:Generated_Source\PSoC6/ADC.h **** /* *******************Global MUX_SWITCH0 Definitions ************************ */
 368:Generated_Source\PSoC6/ADC.h **** /* ************************************************************************** */
 369:Generated_Source\PSoC6/ADC.h **** #if(ADC_CFG0_VNEG_INPUT_SEL == ADC_NEG_SEL_VSSA_KELVIN)
 370:Generated_Source\PSoC6/ADC.h ****     /* Do not connect VSSA to VMINUS when one channel in differential mode used */
 371:Generated_Source\PSoC6/ADC.h ****     #if((ADC_TOTAL_CHANNELS_NUM == 1u) && (ADC_CFG0_SINGLE_PRESENT == 0u))
 372:Generated_Source\PSoC6/ADC.h ****         #define ADC_MUX_SWITCH0_INIT      0u
 373:Generated_Source\PSoC6/ADC.h ****     #else    /* multiple channels or one single ended channel */
 374:Generated_Source\PSoC6/ADC.h ****         #define ADC_MUX_SWITCH0_INIT      1u
 375:Generated_Source\PSoC6/ADC.h ****     #endif /* ((ADC_TOTAL_CHANNELS_NUM == 1u) && (ADC_CFG0_SINGLE_PRESENT == 0u)) */
 376:Generated_Source\PSoC6/ADC.h **** #else
 377:Generated_Source\PSoC6/ADC.h ****     #define ADC_MUX_SWITCH0_INIT          0u
 378:Generated_Source\PSoC6/ADC.h **** #endif /* ADC_CFG0_VNEG_INPUT_SEL == ADC_NEG_SEL_VSSA_KELVIN */
 379:Generated_Source\PSoC6/ADC.h **** 
 380:Generated_Source\PSoC6/ADC.h **** /* ************************************************************************** */
 381:Generated_Source\PSoC6/ADC.h **** /* Begin configuration 0 calculated defines                                   */
 382:Generated_Source\PSoC6/ADC.h **** /* ************************************************************************** */
 383:Generated_Source\PSoC6/ADC.h **** #define ADC_CFG0_SAMPLE_TIME01_INIT \
 384:Generated_Source\PSoC6/ADC.h ****         ((ADC_CFG0_APERTURE_TIME0 \
 385:Generated_Source\PSoC6/ADC.h ****         << SAR_SAMPLE_TIME01_SAMPLE_TIME0_Pos) \
 386:Generated_Source\PSoC6/ADC.h ****         | (ADC_CFG0_APERTURE_TIME1 \
 387:Generated_Source\PSoC6/ADC.h ****         << SAR_SAMPLE_TIME01_SAMPLE_TIME1_Pos))
 388:Generated_Source\PSoC6/ADC.h **** 
 389:Generated_Source\PSoC6/ADC.h **** #define ADC_CFG0_SAMPLE_TIME23_INIT \
 390:Generated_Source\PSoC6/ADC.h ****         ((ADC_CFG0_APERTURE_TIME2 \
 391:Generated_Source\PSoC6/ADC.h ****         << SAR_SAMPLE_TIME23_SAMPLE_TIME2_Pos) \
 392:Generated_Source\PSoC6/ADC.h ****         | (ADC_CFG0_APERTURE_TIME3 \
 393:Generated_Source\PSoC6/ADC.h ****         << SAR_SAMPLE_TIME23_SAMPLE_TIME3_Pos))
 394:Generated_Source\PSoC6/ADC.h **** 
 395:Generated_Source\PSoC6/ADC.h **** /* Enable soc pin if used */
 396:Generated_Source\PSoC6/ADC.h **** #define ADC_CFG0_DSI_TRIGGER_EN_INIT \
 397:Generated_Source\PSoC6/ADC.h ****         (ADC_CFG0_USE_SOC \
 398:Generated_Source\PSoC6/ADC.h ****         << SAR_SAMPLE_CTRL_DSI_TRIGGER_EN_Pos)
 399:Generated_Source\PSoC6/ADC.h **** 
 400:Generated_Source\PSoC6/ADC.h **** /* Set soc operation to edge or level based on sample mode */
 401:Generated_Source\PSoC6/ADC.h **** #if(ADC_CFG0_FREERUNNING == ADC_FREERUNNING)
 402:Generated_Source\PSoC6/ADC.h ****     #define ADC_CFG0_DSI_TRIGGER_LEVEL_INIT    (SAR_SAMPLE_CTRL_DSI_TRIGGER_LEVEL_Msk)
 403:Generated_Source\PSoC6/ADC.h **** #else /* Edge trigger */
 404:Generated_Source\PSoC6/ADC.h ****     #define ADC_CFG0_DSI_TRIGGER_LEVEL_INIT    (0u)
 405:Generated_Source\PSoC6/ADC.h **** #endif /* End ADC_CFG0_FREERUNNING == ADC_FREERUNNING */
 406:Generated_Source\PSoC6/ADC.h **** 
 407:Generated_Source\PSoC6/ADC.h **** /* Set SE_NEG_INPUT */
 408:Generated_Source\PSoC6/ADC.h **** #if(ADC_CFG0_VNEG_INPUT_SEL == ADC_NEG_SEL_VSSA_KELVIN)
 409:Generated_Source\PSoC6/ADC.h ****     #define ADC_CFG0_SE_NEG_INPUT_INIT \
 410:Generated_Source\PSoC6/ADC.h ****             ((uint32)(ADC_NEG_SEL_VSSA_KELVIN \
 411:Generated_Source\PSoC6/ADC.h ****             << SAR_CTRL_NEG_SEL_Pos ))
 412:Generated_Source\PSoC6/ADC.h **** #elif(ADC_CFG0_VNEG_INPUT_SEL == ADC_NEG_SEL_VREF)
 413:Generated_Source\PSoC6/ADC.h **** 
 414:Generated_Source\PSoC6/ADC.h ****     /* Do not connect VNEG to VREF when one channel in differential mode used */
 415:Generated_Source\PSoC6/ADC.h ****     /* Only needed for config 0 since 2+ configs == 2+ channels */
 416:Generated_Source\PSoC6/ADC.h ****     #if((ADC_CFG0_CHANNEL_COUNT == 1u) && (ADC_CFG0_SINGLE_PRESENT == 0u))
ARM GAS  C:\Users\codyg\AppData\Local\Temp\cctpv6eZ.s 			page 25


 417:Generated_Source\PSoC6/ADC.h ****         #define ADC_CFG0_SE_NEG_INPUT_INIT     0u
 418:Generated_Source\PSoC6/ADC.h ****     #else    /* multiple channels or one single channel */
 419:Generated_Source\PSoC6/ADC.h ****         #define ADC_CFG0_SE_NEG_INPUT_INIT     (ADC_NEG_SEL_VREF \
 420:Generated_Source\PSoC6/ADC.h ****                                                             << SAR_CTRL_NEG_SEL_Pos )
 421:Generated_Source\PSoC6/ADC.h ****     #endif /* (ADC_CFG0_CHANNEL_COUNT == 1u) && (ADC_CFG0_CHANNELS_MODE != 0u) */
 422:Generated_Source\PSoC6/ADC.h **** #elif (ADC_CFG0_SINGLE_PRESENT != 0u)
 423:Generated_Source\PSoC6/ADC.h ****     #define ADC_CFG0_SE_NEG_INPUT_INIT         ADC_CFG0_NEG_OTHER
 424:Generated_Source\PSoC6/ADC.h **** #else
 425:Generated_Source\PSoC6/ADC.h ****     #define ADC_CFG0_SE_NEG_INPUT_INIT         0u
 426:Generated_Source\PSoC6/ADC.h **** #endif /* ADC_CFG0_VNEG_INPUT_SEL == ADC_NEG_SEL_VSSA_KELVIN */
 427:Generated_Source\PSoC6/ADC.h **** 
 428:Generated_Source\PSoC6/ADC.h **** #if(ADC_TOTAL_CHANNELS_NUM > 1u)
 429:Generated_Source\PSoC6/ADC.h ****     #define ADC_CFG0_NEG_OTHER                 (uint16)((uint16)ADC_SARMUX__VNEG0 << SAR_CTRL_NEG_S
 430:Generated_Source\PSoC6/ADC.h ****     #define ADC_CFG0_SWITCH_CONF_INIT          0u
 431:Generated_Source\PSoC6/ADC.h **** #else /* Disable SAR sequencer from enabling routing switches in single channel mode */
 432:Generated_Source\PSoC6/ADC.h ****     #define ADC_CFG0_SWITCH_CONF_INIT          SAR_CTRL_SWITCH_DISABLE_Msk
 433:Generated_Source\PSoC6/ADC.h ****     #define ADC_CFG0_NEG_OTHER                 0u
 434:Generated_Source\PSoC6/ADC.h **** #endif /* ADC_CFG0_CHANNEL_COUNT > 1u */
 435:Generated_Source\PSoC6/ADC.h **** 
 436:Generated_Source\PSoC6/ADC.h **** /* If the SAR is configured for multiple channels, always set SAR_HW_CTRL_NEGVREF to 1 */
 437:Generated_Source\PSoC6/ADC.h **** #if(ADC_TOTAL_CHANNELS_NUM == 1u)
 438:Generated_Source\PSoC6/ADC.h ****     #define ADC_CFG0_HW_CTRL_NEGVREF_INIT      0u
 439:Generated_Source\PSoC6/ADC.h **** #else
 440:Generated_Source\PSoC6/ADC.h ****     #define ADC_CFG0_HW_CTRL_NEGVREF_INIT      SAR_CTRL_SAR_HW_CTRL_NEGVREF_Msk
 441:Generated_Source\PSoC6/ADC.h **** #endif /* ADC_CFG0_CHANNEL_COUNT == 1u */
 442:Generated_Source\PSoC6/ADC.h **** 
 443:Generated_Source\PSoC6/ADC.h **** #define ADC_CFG0_POWER_INIT  (ADC_PWR_CTRL_VREF_NORMAL_PWR)
 444:Generated_Source\PSoC6/ADC.h **** 
 445:Generated_Source\PSoC6/ADC.h **** /* SAMPLE_CTRL initial values */
 446:Generated_Source\PSoC6/ADC.h **** #define ADC_CFG0_SE_RESULT_FORMAT_INIT \
 447:Generated_Source\PSoC6/ADC.h ****         (ADC_CFG0_SINGLE_ENDED_FORMAT \
 448:Generated_Source\PSoC6/ADC.h ****         << SAR_SAMPLE_CTRL_SINGLE_ENDED_SIGNED_Pos)
 449:Generated_Source\PSoC6/ADC.h **** 
 450:Generated_Source\PSoC6/ADC.h **** #define ADC_CFG0_DIFF_RESULT_FORMAT_INIT \
 451:Generated_Source\PSoC6/ADC.h ****         (ADC_CFG0_DIFFERENTIAL_FORMAT \
 452:Generated_Source\PSoC6/ADC.h ****         << SAR_SAMPLE_CTRL_DIFFERENTIAL_SIGNED_Pos)
 453:Generated_Source\PSoC6/ADC.h **** 
 454:Generated_Source\PSoC6/ADC.h **** #define ADC_CFG0_AVG_SAMPLES_NUM_INIT \
 455:Generated_Source\PSoC6/ADC.h ****         (ADC_CFG0_SAMPLES_AVERAGED \
 456:Generated_Source\PSoC6/ADC.h ****         << SAR_SAMPLE_CTRL_AVG_CNT_Pos)
 457:Generated_Source\PSoC6/ADC.h **** 
 458:Generated_Source\PSoC6/ADC.h **** /* Combination of Average Mode and Average Shift */
 459:Generated_Source\PSoC6/ADC.h **** #define ADC_CFG0_AVG_MODE_INIT \
 460:Generated_Source\PSoC6/ADC.h ****         (ADC_CFG0_AVGERAGING_MODE \
 461:Generated_Source\PSoC6/ADC.h ****         << SAR_SAMPLE_CTRL_AVG_SHIFT_Pos)
 462:Generated_Source\PSoC6/ADC.h **** 
 463:Generated_Source\PSoC6/ADC.h **** #define ADC_CFG0_TRIGGER_OUT_INIT      (0u)
 464:Generated_Source\PSoC6/ADC.h **** #define ADC_CFG0_UAB_SCAN_MODE_INIT    (0u)
 465:Generated_Source\PSoC6/ADC.h **** 
 466:Generated_Source\PSoC6/ADC.h **** #define ADC_CFG0_VREF_POWER_INIT  \
 467:Generated_Source\PSoC6/ADC.h ****         (ADC_CFG0_VREF_PWR \
 468:Generated_Source\PSoC6/ADC.h ****         << SAR_CTRL_PWR_CTRL_VREF_Pos)
 469:Generated_Source\PSoC6/ADC.h **** 
 470:Generated_Source\PSoC6/ADC.h **** #define ADC_CFG0_COMP_PWR_INIT  \
 471:Generated_Source\PSoC6/ADC.h ****         (ADC_CFG0_COMP_PWR \
 472:Generated_Source\PSoC6/ADC.h ****         << SAR_CTRL_COMP_PWR_Pos)
 473:Generated_Source\PSoC6/ADC.h **** 
ARM GAS  C:\Users\codyg\AppData\Local\Temp\cctpv6eZ.s 			page 26


 474:Generated_Source\PSoC6/ADC.h **** #define ADC_CFG0_COMP_DLY_INIT  \
 475:Generated_Source\PSoC6/ADC.h ****         (ADC_CFG0_COMP_DLY \
 476:Generated_Source\PSoC6/ADC.h ****         << SAR_CTRL_COMP_DLY_Pos)
 477:Generated_Source\PSoC6/ADC.h **** 
 478:Generated_Source\PSoC6/ADC.h **** #define ADC_CFG0_CTRL_INIT  \
 479:Generated_Source\PSoC6/ADC.h ****         (ADC_CFG0_VREF_POWER_INIT \
 480:Generated_Source\PSoC6/ADC.h ****         | ADC_CFG0_VREF_SEL_MASK \
 481:Generated_Source\PSoC6/ADC.h ****         | ADC_CFG0_SE_NEG_INPUT_INIT \
 482:Generated_Source\PSoC6/ADC.h ****         | ADC_CFG0_HW_CTRL_NEGVREF_INIT \
 483:Generated_Source\PSoC6/ADC.h ****         | ADC_CFG0_COMP_DLY_INIT \
 484:Generated_Source\PSoC6/ADC.h ****         | SAR_CTRL_REFBUF_EN_Msk \
 485:Generated_Source\PSoC6/ADC.h ****         | ADC_CFG0_COMP_PWR_INIT \
 486:Generated_Source\PSoC6/ADC.h ****         | SAR_CTRL_DSI_SYNC_CONFIG_Msk  \
 487:Generated_Source\PSoC6/ADC.h ****         | ADC_CFG0_SWITCH_CONF_INIT )
 488:Generated_Source\PSoC6/ADC.h **** 
 489:Generated_Source\PSoC6/ADC.h **** #define ADC_CFG0_SAMPLE_CTRL_INIT \
 490:Generated_Source\PSoC6/ADC.h ****         (ADC_CFG0_SE_RESULT_FORMAT_INIT \
 491:Generated_Source\PSoC6/ADC.h ****         | ADC_CFG0_DIFF_RESULT_FORMAT_INIT \
 492:Generated_Source\PSoC6/ADC.h ****         | ADC_CFG0_AVG_SAMPLES_NUM_INIT \
 493:Generated_Source\PSoC6/ADC.h ****         | ADC_CFG0_AVG_MODE_INIT \
 494:Generated_Source\PSoC6/ADC.h ****         | ADC_CFG0_DSI_TRIGGER_LEVEL_INIT \
 495:Generated_Source\PSoC6/ADC.h ****         | ADC_CFG0_DSI_TRIGGER_EN_INIT \
 496:Generated_Source\PSoC6/ADC.h ****         | ADC_CFG0_UAB_SCAN_MODE_INIT \
 497:Generated_Source\PSoC6/ADC.h ****         | SAR_SAMPLE_CTRL_VALID_IGNORE_Msk \
 498:Generated_Source\PSoC6/ADC.h ****         | ADC_CFG0_TRIGGER_OUT_INIT \
 499:Generated_Source\PSoC6/ADC.h ****         | SAR_SAMPLE_CTRL_EOS_DSI_OUT_EN_Msk \
 500:Generated_Source\PSoC6/ADC.h **** )
 501:Generated_Source\PSoC6/ADC.h **** 
 502:Generated_Source\PSoC6/ADC.h **** #define ADC_CFG0_RANGE_THRES_INIT \
 503:Generated_Source\PSoC6/ADC.h ****         (ADC_CFG0_LOW_LIMIT \
 504:Generated_Source\PSoC6/ADC.h ****         | (uint32)((uint32)ADC_CFG0_HIGH_LIMIT \
 505:Generated_Source\PSoC6/ADC.h ****         << SAR_RANGE_THRES_RANGE_HIGH_Pos))
 506:Generated_Source\PSoC6/ADC.h **** 
 507:Generated_Source\PSoC6/ADC.h **** #define ADC_CFG0_RANGE_COND_INIT   (cy_en_sar_range_detect_condition_t)ADC_CFG0_RANGE_COND
 508:Generated_Source\PSoC6/ADC.h **** 
 509:Generated_Source\PSoC6/ADC.h **** /* Misc Config
 510:Generated_Source\PSoC6/ADC.h ****     [0] - Freerunning: Set if the sample mode is freerunning
 511:Generated_Source\PSoC6/ADC.h **** */
 512:Generated_Source\PSoC6/ADC.h **** #define ADC_CFG0_MISC_CONFIG_INIT \
 513:Generated_Source\PSoC6/ADC.h ****         (ADC_CFG0_FREERUNNING)
 514:Generated_Source\PSoC6/ADC.h **** 
 515:Generated_Source\PSoC6/ADC.h **** /* ************************************************************************** */
 516:Generated_Source\PSoC6/ADC.h **** /* End configuration 0 calculated defines                                     */
 517:Generated_Source\PSoC6/ADC.h **** /* ************************************************************************** */
 518:Generated_Source\PSoC6/ADC.h **** 
 519:Generated_Source\PSoC6/ADC.h **** /* ************************************************************************** */
 520:Generated_Source\PSoC6/ADC.h **** /* Begin configuration 1 calculated defines                                   */
 521:Generated_Source\PSoC6/ADC.h **** /* ************************************************************************** */
 522:Generated_Source\PSoC6/ADC.h **** #if(ADC_TOTAL_CONFIGS > 1)
 523:Generated_Source\PSoC6/ADC.h ****     #define ADC_CFG1_SAMPLE_TIME01_INIT \
 524:Generated_Source\PSoC6/ADC.h ****             ((ADC_CFG1_APERTURE_TIME0 \
 525:Generated_Source\PSoC6/ADC.h ****             << SAR_SAMPLE_TIME01_SAMPLE_TIME0_Pos) \
 526:Generated_Source\PSoC6/ADC.h ****             | (ADC_CFG1_APERTURE_TIME1 \
 527:Generated_Source\PSoC6/ADC.h ****             << SAR_SAMPLE_TIME01_SAMPLE_TIME1_Pos))
 528:Generated_Source\PSoC6/ADC.h **** 
 529:Generated_Source\PSoC6/ADC.h ****     #define ADC_CFG1_SAMPLE_TIME23_INIT \
 530:Generated_Source\PSoC6/ADC.h ****             ((ADC_CFG1_APERTURE_TIME2 \
ARM GAS  C:\Users\codyg\AppData\Local\Temp\cctpv6eZ.s 			page 27


 531:Generated_Source\PSoC6/ADC.h ****             << SAR_SAMPLE_TIME23_SAMPLE_TIME2_Pos) \
 532:Generated_Source\PSoC6/ADC.h ****             | (ADC_CFG1_APERTURE_TIME3 \
 533:Generated_Source\PSoC6/ADC.h ****             << SAR_SAMPLE_TIME23_SAMPLE_TIME3_Pos))
 534:Generated_Source\PSoC6/ADC.h **** 
 535:Generated_Source\PSoC6/ADC.h ****     /* Enable soc pin if used */
 536:Generated_Source\PSoC6/ADC.h ****     #define ADC_CFG1_DSI_TRIGGER_EN_INIT \
 537:Generated_Source\PSoC6/ADC.h ****             (ADC_CFG1_USE_SOC \
 538:Generated_Source\PSoC6/ADC.h ****             << SAR_SAMPLE_CTRL_DSI_TRIGGER_EN_Pos)
 539:Generated_Source\PSoC6/ADC.h **** 
 540:Generated_Source\PSoC6/ADC.h ****     /* Set soc operation to edge or level based on sample mode */
 541:Generated_Source\PSoC6/ADC.h ****     #if(ADC_CFG1_FREERUNNING == ADC_FREERUNNING)
 542:Generated_Source\PSoC6/ADC.h ****         #define ADC_CFG1_DSI_TRIGGER_LEVEL_INIT    (SAR_SAMPLE_CTRL_DSI_TRIGGER_LEVEL_Msk)
 543:Generated_Source\PSoC6/ADC.h ****     #else /* Edge trigger */
 544:Generated_Source\PSoC6/ADC.h ****         #define ADC_CFG1_DSI_TRIGGER_LEVEL_INIT    (0u)
 545:Generated_Source\PSoC6/ADC.h ****     #endif /* End ADC_CFG1_FREERUNNING == ADC_FREERUNNING */
 546:Generated_Source\PSoC6/ADC.h **** 
 547:Generated_Source\PSoC6/ADC.h ****     /* Set SE_NEG_INPUT */
 548:Generated_Source\PSoC6/ADC.h ****     #if(ADC_CFG1_VNEG_INPUT_SEL == ADC_NEG_SEL_VSSA_KELVIN)
 549:Generated_Source\PSoC6/ADC.h ****         #define ADC_CFG1_SE_NEG_INPUT_INIT \
 550:Generated_Source\PSoC6/ADC.h ****             ((uint32)(ADC_NEG_SEL_VSSA_KELVIN \
 551:Generated_Source\PSoC6/ADC.h ****             << SAR_CTRL_NEG_SEL_Pos ))
 552:Generated_Source\PSoC6/ADC.h ****     #elif(ADC_CFG1_VNEG_INPUT_SEL == ADC_NEG_SEL_VREF)
 553:Generated_Source\PSoC6/ADC.h ****         #define ADC_CFG1_SE_NEG_INPUT_INIT     (ADC_NEG_SEL_VREF \
 554:Generated_Source\PSoC6/ADC.h ****                                                             << SAR_CTRL_NEG_SEL_Pos )
 555:Generated_Source\PSoC6/ADC.h ****     #elif (ADC_CFG1_SINGLE_PRESENT != 0u)
 556:Generated_Source\PSoC6/ADC.h ****         #define ADC_CFG1_SE_NEG_INPUT_INIT         ADC_CFG1_NEG_OTHER
 557:Generated_Source\PSoC6/ADC.h ****     #else
 558:Generated_Source\PSoC6/ADC.h ****         #define ADC_CFG1_SE_NEG_INPUT_INIT         0u
 559:Generated_Source\PSoC6/ADC.h ****     #endif /* ADC_CFG1_VNEG_INPUT_SEL == ADC_NEG_SEL_VSSA_KELVIN */
 560:Generated_Source\PSoC6/ADC.h **** 
 561:Generated_Source\PSoC6/ADC.h ****     #define ADC_CFG1_NEG_OTHER                 (uint16)((uint16)ADC_SARMUX__VNEG1 << SAR_CTRL_NEG_S
 562:Generated_Source\PSoC6/ADC.h ****     #define ADC_CFG1_SWITCH_CONF_INIT          0u
 563:Generated_Source\PSoC6/ADC.h **** 
 564:Generated_Source\PSoC6/ADC.h ****     /* If the SAR is configured for multiple channels, always set SAR_HW_CTRL_NEGVREF to 1 */
 565:Generated_Source\PSoC6/ADC.h ****     #define ADC_CFG1_HW_CTRL_NEGVREF_INIT      SAR_CTRL_SAR_HW_CTRL_NEGVREF_Msk
 566:Generated_Source\PSoC6/ADC.h **** 
 567:Generated_Source\PSoC6/ADC.h ****     #define ADC_CFG1_POWER_INIT  (ADC_PWR_CTRL_VREF_NORMAL_PWR)
 568:Generated_Source\PSoC6/ADC.h **** 
 569:Generated_Source\PSoC6/ADC.h ****     /* SAMPLE_CTRL initial values */
 570:Generated_Source\PSoC6/ADC.h ****     #define ADC_CFG1_SE_RESULT_FORMAT_INIT \
 571:Generated_Source\PSoC6/ADC.h ****             (ADC_CFG1_SINGLE_ENDED_FORMAT \
 572:Generated_Source\PSoC6/ADC.h ****             << SAR_SAMPLE_CTRL_SINGLE_ENDED_SIGNED_Pos)
 573:Generated_Source\PSoC6/ADC.h **** 
 574:Generated_Source\PSoC6/ADC.h ****     #define ADC_CFG1_DIFF_RESULT_FORMAT_INIT \
 575:Generated_Source\PSoC6/ADC.h ****             (ADC_CFG1_DIFFERENTIAL_FORMAT \
 576:Generated_Source\PSoC6/ADC.h ****             << SAR_SAMPLE_CTRL_DIFFERENTIAL_SIGNED_Pos)
 577:Generated_Source\PSoC6/ADC.h **** 
 578:Generated_Source\PSoC6/ADC.h ****     #define ADC_CFG1_AVG_SAMPLES_NUM_INIT \
 579:Generated_Source\PSoC6/ADC.h ****             (ADC_CFG1_SAMPLES_AVERAGED \
 580:Generated_Source\PSoC6/ADC.h ****             << SAR_SAMPLE_CTRL_AVG_CNT_Pos)
 581:Generated_Source\PSoC6/ADC.h **** 
 582:Generated_Source\PSoC6/ADC.h ****     /* Combination of Average Mode and Average Shift */
 583:Generated_Source\PSoC6/ADC.h ****     #define ADC_CFG1_AVG_MODE_INIT \
 584:Generated_Source\PSoC6/ADC.h ****             (ADC_CFG1_AVGERAGING_MODE \
 585:Generated_Source\PSoC6/ADC.h ****             << SAR_SAMPLE_CTRL_AVG_SHIFT_Pos)
 586:Generated_Source\PSoC6/ADC.h **** 
 587:Generated_Source\PSoC6/ADC.h ****     #define ADC_CFG1_TRIGGER_OUT_INIT      (0u)
ARM GAS  C:\Users\codyg\AppData\Local\Temp\cctpv6eZ.s 			page 28


 588:Generated_Source\PSoC6/ADC.h ****     #define ADC_CFG1_UAB_SCAN_MODE_INIT    (0u)
 589:Generated_Source\PSoC6/ADC.h **** 
 590:Generated_Source\PSoC6/ADC.h ****     #define ADC_CFG1_VREF_POWER_INIT  \
 591:Generated_Source\PSoC6/ADC.h ****             (ADC_CFG1_VREF_PWR \
 592:Generated_Source\PSoC6/ADC.h ****             << SAR_CTRL_PWR_CTRL_VREF_Pos)
 593:Generated_Source\PSoC6/ADC.h **** 
 594:Generated_Source\PSoC6/ADC.h ****     #define ADC_CFG1_COMP_PWR_INIT  \
 595:Generated_Source\PSoC6/ADC.h ****             (ADC_CFG1_COMP_PWR \
 596:Generated_Source\PSoC6/ADC.h ****             << SAR_CTRL_COMP_PWR_Pos)
 597:Generated_Source\PSoC6/ADC.h **** 
 598:Generated_Source\PSoC6/ADC.h ****     #define ADC_CFG1_COMP_DLY_INIT  \
 599:Generated_Source\PSoC6/ADC.h ****             (ADC_CFG1_COMP_DLY \
 600:Generated_Source\PSoC6/ADC.h ****             << SAR_CTRL_COMP_DLY_Pos)
 601:Generated_Source\PSoC6/ADC.h **** 
 602:Generated_Source\PSoC6/ADC.h ****     #define ADC_CFG1_CTRL_INIT  \
 603:Generated_Source\PSoC6/ADC.h ****             (ADC_CFG1_VREF_POWER_INIT \
 604:Generated_Source\PSoC6/ADC.h ****             | ADC_CFG1_VREF_SEL_MASK \
 605:Generated_Source\PSoC6/ADC.h ****             | ADC_CFG1_SE_NEG_INPUT_INIT \
 606:Generated_Source\PSoC6/ADC.h ****             | ADC_CFG1_HW_CTRL_NEGVREF_INIT \
 607:Generated_Source\PSoC6/ADC.h ****             | ADC_CFG1_COMP_DLY_INIT \
 608:Generated_Source\PSoC6/ADC.h ****             | SAR_CTRL_REFBUF_EN_Msk \
 609:Generated_Source\PSoC6/ADC.h ****             | ADC_CFG1_COMP_PWR_INIT \
 610:Generated_Source\PSoC6/ADC.h ****             | SAR_CTRL_DSI_SYNC_CONFIG_Msk  \
 611:Generated_Source\PSoC6/ADC.h ****             | ADC_CFG1_SWITCH_CONF_INIT )
 612:Generated_Source\PSoC6/ADC.h **** 
 613:Generated_Source\PSoC6/ADC.h ****     #define ADC_CFG1_SAMPLE_CTRL_INIT \
 614:Generated_Source\PSoC6/ADC.h ****             (ADC_CFG1_SE_RESULT_FORMAT_INIT \
 615:Generated_Source\PSoC6/ADC.h ****             | ADC_CFG1_DIFF_RESULT_FORMAT_INIT \
 616:Generated_Source\PSoC6/ADC.h ****             | ADC_CFG1_AVG_SAMPLES_NUM_INIT \
 617:Generated_Source\PSoC6/ADC.h ****             | ADC_CFG1_AVG_MODE_INIT \
 618:Generated_Source\PSoC6/ADC.h ****             | ADC_CFG1_DSI_TRIGGER_LEVEL_INIT \
 619:Generated_Source\PSoC6/ADC.h ****             | ADC_CFG1_DSI_TRIGGER_EN_INIT \
 620:Generated_Source\PSoC6/ADC.h ****             | ADC_CFG1_UAB_SCAN_MODE_INIT \
 621:Generated_Source\PSoC6/ADC.h ****             | SAR_SAMPLE_CTRL_VALID_IGNORE_Msk \
 622:Generated_Source\PSoC6/ADC.h ****             | ADC_CFG1_TRIGGER_OUT_INIT \
 623:Generated_Source\PSoC6/ADC.h ****             | SAR_SAMPLE_CTRL_EOS_DSI_OUT_EN_Msk \
 624:Generated_Source\PSoC6/ADC.h ****     )
 625:Generated_Source\PSoC6/ADC.h **** 
 626:Generated_Source\PSoC6/ADC.h ****     #define ADC_CFG1_RANGE_THRES_INIT \
 627:Generated_Source\PSoC6/ADC.h ****             (ADC_CFG1_LOW_LIMIT \
 628:Generated_Source\PSoC6/ADC.h ****             | (uint32)((uint32)ADC_CFG1_HIGH_LIMIT \
 629:Generated_Source\PSoC6/ADC.h ****             << SAR_RANGE_THRES_RANGE_HIGH_Pos))
 630:Generated_Source\PSoC6/ADC.h **** 
 631:Generated_Source\PSoC6/ADC.h ****     #define ADC_CFG1_RANGE_COND_INIT   (cy_en_sar_range_detect_condition_t)ADC_CFG1_RANGE_COND
 632:Generated_Source\PSoC6/ADC.h **** 
 633:Generated_Source\PSoC6/ADC.h ****     /* Misc Config
 634:Generated_Source\PSoC6/ADC.h ****         [0] - Freerunning: Set if the sample mode is freerunning
 635:Generated_Source\PSoC6/ADC.h ****     */
 636:Generated_Source\PSoC6/ADC.h ****     #define ADC_CFG1_MISC_CONFIG_INIT \
 637:Generated_Source\PSoC6/ADC.h ****             (ADC_CFG1_FREERUNNING)
 638:Generated_Source\PSoC6/ADC.h **** #endif /* ADC_TOTAL_CONFIGS > 1 */
 639:Generated_Source\PSoC6/ADC.h **** 
 640:Generated_Source\PSoC6/ADC.h **** /* ************************************************************************** */
 641:Generated_Source\PSoC6/ADC.h **** /* End configuration 1 calculated defines                                     */
 642:Generated_Source\PSoC6/ADC.h **** /* ************************************************************************** */
 643:Generated_Source\PSoC6/ADC.h **** 
 644:Generated_Source\PSoC6/ADC.h **** /* ************************************************************************** */
ARM GAS  C:\Users\codyg\AppData\Local\Temp\cctpv6eZ.s 			page 29


 645:Generated_Source\PSoC6/ADC.h **** /* Begin configuration 2 calculated defines                                   */
 646:Generated_Source\PSoC6/ADC.h **** /* ************************************************************************** */
 647:Generated_Source\PSoC6/ADC.h **** #if(ADC_TOTAL_CONFIGS > 2)
 648:Generated_Source\PSoC6/ADC.h ****     #define ADC_CFG2_SAMPLE_TIME01_INIT \
 649:Generated_Source\PSoC6/ADC.h ****             ((ADC_CFG2_APERTURE_TIME0 \
 650:Generated_Source\PSoC6/ADC.h ****             << SAR_SAMPLE_TIME01_SAMPLE_TIME0_Pos) \
 651:Generated_Source\PSoC6/ADC.h ****             | (ADC_CFG2_APERTURE_TIME1 \
 652:Generated_Source\PSoC6/ADC.h ****             << SAR_SAMPLE_TIME01_SAMPLE_TIME1_Pos))
 653:Generated_Source\PSoC6/ADC.h **** 
 654:Generated_Source\PSoC6/ADC.h ****     #define ADC_CFG2_SAMPLE_TIME23_INIT \
 655:Generated_Source\PSoC6/ADC.h ****             ((ADC_CFG2_APERTURE_TIME2 \
 656:Generated_Source\PSoC6/ADC.h ****             << SAR_SAMPLE_TIME23_SAMPLE_TIME2_Pos) \
 657:Generated_Source\PSoC6/ADC.h ****             | (ADC_CFG2_APERTURE_TIME3 \
 658:Generated_Source\PSoC6/ADC.h ****             << SAR_SAMPLE_TIME23_SAMPLE_TIME3_Pos))
 659:Generated_Source\PSoC6/ADC.h **** 
 660:Generated_Source\PSoC6/ADC.h ****     /* Enable soc pin if used */
 661:Generated_Source\PSoC6/ADC.h ****     #define ADC_CFG2_DSI_TRIGGER_EN_INIT \
 662:Generated_Source\PSoC6/ADC.h ****             (ADC_CFG2_USE_SOC \
 663:Generated_Source\PSoC6/ADC.h ****             << SAR_SAMPLE_CTRL_DSI_TRIGGER_EN_Pos)
 664:Generated_Source\PSoC6/ADC.h **** 
 665:Generated_Source\PSoC6/ADC.h ****     /* Set soc operation to edge or level based on sample mode */
 666:Generated_Source\PSoC6/ADC.h ****     #if(ADC_CFG2_FREERUNNING == ADC_FREERUNNING)
 667:Generated_Source\PSoC6/ADC.h ****         #define ADC_CFG2_DSI_TRIGGER_LEVEL_INIT    (SAR_SAMPLE_CTRL_DSI_TRIGGER_LEVEL_Msk)
 668:Generated_Source\PSoC6/ADC.h ****     #else /* Edge trigger */
 669:Generated_Source\PSoC6/ADC.h ****         #define ADC_CFG2_DSI_TRIGGER_LEVEL_INIT    (0u)
 670:Generated_Source\PSoC6/ADC.h ****     #endif /* End ADC_CFG2_FREERUNNING == ADC_FREERUNNING */
 671:Generated_Source\PSoC6/ADC.h **** 
 672:Generated_Source\PSoC6/ADC.h ****     /* Set SE_NEG_INPUT */
 673:Generated_Source\PSoC6/ADC.h ****     #if(ADC_CFG2_VNEG_INPUT_SEL == ADC_NEG_SEL_VSSA_KELVIN)
 674:Generated_Source\PSoC6/ADC.h ****         #define ADC_CFG2_SE_NEG_INPUT_INIT \
 675:Generated_Source\PSoC6/ADC.h ****             ((uint32)(ADC_NEG_SEL_VSSA_KELVIN \
 676:Generated_Source\PSoC6/ADC.h ****             << SAR_CTRL_NEG_SEL_Pos ))
 677:Generated_Source\PSoC6/ADC.h ****     #elif(ADC_CFG2_VNEG_INPUT_SEL == ADC_NEG_SEL_VREF)
 678:Generated_Source\PSoC6/ADC.h ****         #define ADC_CFG2_SE_NEG_INPUT_INIT     (ADC_NEG_SEL_VREF \
 679:Generated_Source\PSoC6/ADC.h ****                                                                 << SAR_CTRL_NEG_SEL_Pos )
 680:Generated_Source\PSoC6/ADC.h ****     #elif (ADC_CFG2_SINGLE_PRESENT != 0u)
 681:Generated_Source\PSoC6/ADC.h ****         #define ADC_CFG2_SE_NEG_INPUT_INIT         ADC_CFG2_NEG_OTHER
 682:Generated_Source\PSoC6/ADC.h ****     #else
 683:Generated_Source\PSoC6/ADC.h ****         #define ADC_CFG2_SE_NEG_INPUT_INIT         0u
 684:Generated_Source\PSoC6/ADC.h ****     #endif /* ADC_CFG2_VNEG_INPUT_SEL == ADC_NEG_SEL_VSSA_KELVIN */
 685:Generated_Source\PSoC6/ADC.h **** 
 686:Generated_Source\PSoC6/ADC.h ****    #define ADC_CFG2_NEG_OTHER                 (uint16)((uint16)ADC_SARMUX__VNEG2 << SAR_CTRL_NEG_SE
 687:Generated_Source\PSoC6/ADC.h **** 
 688:Generated_Source\PSoC6/ADC.h ****     #define ADC_CFG2_SWITCH_CONF_INIT          0u
 689:Generated_Source\PSoC6/ADC.h **** 
 690:Generated_Source\PSoC6/ADC.h ****     /* If the SAR is configured for multiple channels, always set SAR_HW_CTRL_NEGVREF to 1 */
 691:Generated_Source\PSoC6/ADC.h ****     #define ADC_CFG2_HW_CTRL_NEGVREF_INIT      SAR_CTRL_SAR_HW_CTRL_NEGVREF_Msk
 692:Generated_Source\PSoC6/ADC.h **** 
 693:Generated_Source\PSoC6/ADC.h ****     #define ADC_CFG2_POWER_INIT  (ADC_PWR_CTRL_VREF_NORMAL_PWR)
 694:Generated_Source\PSoC6/ADC.h **** 
 695:Generated_Source\PSoC6/ADC.h ****     /* SAMPLE_CTRL initial values */
 696:Generated_Source\PSoC6/ADC.h ****     #define ADC_CFG2_SE_RESULT_FORMAT_INIT \
 697:Generated_Source\PSoC6/ADC.h ****             (ADC_CFG2_SINGLE_ENDED_FORMAT \
 698:Generated_Source\PSoC6/ADC.h ****             << SAR_SAMPLE_CTRL_SINGLE_ENDED_SIGNED_Pos)
 699:Generated_Source\PSoC6/ADC.h **** 
 700:Generated_Source\PSoC6/ADC.h ****     #define ADC_CFG2_DIFF_RESULT_FORMAT_INIT \
 701:Generated_Source\PSoC6/ADC.h ****             (ADC_CFG2_DIFFERENTIAL_FORMAT \
ARM GAS  C:\Users\codyg\AppData\Local\Temp\cctpv6eZ.s 			page 30


 702:Generated_Source\PSoC6/ADC.h ****             << SAR_SAMPLE_CTRL_DIFFERENTIAL_SIGNED_Pos)
 703:Generated_Source\PSoC6/ADC.h **** 
 704:Generated_Source\PSoC6/ADC.h ****     #define ADC_CFG2_AVG_SAMPLES_NUM_INIT \
 705:Generated_Source\PSoC6/ADC.h ****             (ADC_CFG2_SAMPLES_AVERAGED \
 706:Generated_Source\PSoC6/ADC.h ****             << SAR_SAMPLE_CTRL_AVG_CNT_Pos)
 707:Generated_Source\PSoC6/ADC.h **** 
 708:Generated_Source\PSoC6/ADC.h ****     /* Combination of Average Mode and Average Shift */
 709:Generated_Source\PSoC6/ADC.h ****     #define ADC_CFG2_AVG_MODE_INIT \
 710:Generated_Source\PSoC6/ADC.h ****             (ADC_CFG2_AVGERAGING_MODE \
 711:Generated_Source\PSoC6/ADC.h ****             << SAR_SAMPLE_CTRL_AVG_SHIFT_Pos)
 712:Generated_Source\PSoC6/ADC.h **** 
 713:Generated_Source\PSoC6/ADC.h ****     #define ADC_CFG2_TRIGGER_OUT_INIT      (0u)
 714:Generated_Source\PSoC6/ADC.h ****     #define ADC_CFG2_UAB_SCAN_MODE_INIT    (0u)
 715:Generated_Source\PSoC6/ADC.h **** 
 716:Generated_Source\PSoC6/ADC.h **** 
 717:Generated_Source\PSoC6/ADC.h ****     #define ADC_CFG2_VREF_POWER_INIT  \
 718:Generated_Source\PSoC6/ADC.h ****             (ADC_CFG2_VREF_PWR \
 719:Generated_Source\PSoC6/ADC.h ****             << SAR_CTRL_PWR_CTRL_VREF_Pos)
 720:Generated_Source\PSoC6/ADC.h **** 
 721:Generated_Source\PSoC6/ADC.h ****     #define ADC_CFG2_COMP_PWR_INIT  \
 722:Generated_Source\PSoC6/ADC.h ****             (ADC_CFG2_COMP_PWR \
 723:Generated_Source\PSoC6/ADC.h ****             << SAR_CTRL_COMP_PWR_Pos)
 724:Generated_Source\PSoC6/ADC.h **** 
 725:Generated_Source\PSoC6/ADC.h ****     #define ADC_CFG2_COMP_DLY_INIT  \
 726:Generated_Source\PSoC6/ADC.h ****             (ADC_CFG2_COMP_DLY \
 727:Generated_Source\PSoC6/ADC.h ****             << SAR_CTRL_COMP_DLY_Pos)
 728:Generated_Source\PSoC6/ADC.h **** 
 729:Generated_Source\PSoC6/ADC.h ****     #define ADC_CFG2_CTRL_INIT  \
 730:Generated_Source\PSoC6/ADC.h ****             (ADC_CFG2_VREF_POWER_INIT \
 731:Generated_Source\PSoC6/ADC.h ****             | ADC_CFG2_VREF_SEL_MASK \
 732:Generated_Source\PSoC6/ADC.h ****             | ADC_CFG2_SE_NEG_INPUT_INIT \
 733:Generated_Source\PSoC6/ADC.h ****             | ADC_CFG2_HW_CTRL_NEGVREF_INIT \
 734:Generated_Source\PSoC6/ADC.h ****             | ADC_CFG2_COMP_DLY_INIT \
 735:Generated_Source\PSoC6/ADC.h ****             | SAR_CTRL_REFBUF_EN_Msk \
 736:Generated_Source\PSoC6/ADC.h ****             | ADC_CFG2_COMP_PWR_INIT \
 737:Generated_Source\PSoC6/ADC.h ****             | SAR_CTRL_DSI_SYNC_CONFIG_Msk  \
 738:Generated_Source\PSoC6/ADC.h ****             | ADC_CFG2_SWITCH_CONF_INIT )
 739:Generated_Source\PSoC6/ADC.h **** 
 740:Generated_Source\PSoC6/ADC.h **** 
 741:Generated_Source\PSoC6/ADC.h ****     #define ADC_CFG2_SAMPLE_CTRL_INIT \
 742:Generated_Source\PSoC6/ADC.h ****             (ADC_CFG2_SE_RESULT_FORMAT_INIT \
 743:Generated_Source\PSoC6/ADC.h ****             | ADC_CFG2_DIFF_RESULT_FORMAT_INIT \
 744:Generated_Source\PSoC6/ADC.h ****             | ADC_CFG2_AVG_SAMPLES_NUM_INIT \
 745:Generated_Source\PSoC6/ADC.h ****             | ADC_CFG2_AVG_MODE_INIT \
 746:Generated_Source\PSoC6/ADC.h ****             | ADC_CFG2_DSI_TRIGGER_LEVEL_INIT \
 747:Generated_Source\PSoC6/ADC.h ****             | ADC_CFG2_DSI_TRIGGER_EN_INIT \
 748:Generated_Source\PSoC6/ADC.h ****             | ADC_CFG2_UAB_SCAN_MODE_INIT \
 749:Generated_Source\PSoC6/ADC.h ****             | SAR_SAMPLE_CTRL_VALID_IGNORE_Msk \
 750:Generated_Source\PSoC6/ADC.h ****             | ADC_CFG2_TRIGGER_OUT_INIT \
 751:Generated_Source\PSoC6/ADC.h ****             | SAR_SAMPLE_CTRL_EOS_DSI_OUT_EN_Msk \
 752:Generated_Source\PSoC6/ADC.h ****     )
 753:Generated_Source\PSoC6/ADC.h **** 
 754:Generated_Source\PSoC6/ADC.h ****     #define ADC_CFG2_RANGE_THRES_INIT \
 755:Generated_Source\PSoC6/ADC.h ****             (ADC_CFG2_LOW_LIMIT \
 756:Generated_Source\PSoC6/ADC.h ****             | (uint32)((uint32)ADC_CFG2_HIGH_LIMIT \
 757:Generated_Source\PSoC6/ADC.h ****             << SAR_RANGE_THRES_RANGE_HIGH_Pos))
 758:Generated_Source\PSoC6/ADC.h **** 
ARM GAS  C:\Users\codyg\AppData\Local\Temp\cctpv6eZ.s 			page 31


 759:Generated_Source\PSoC6/ADC.h ****     #define ADC_CFG2_RANGE_COND_INIT   (cy_en_sar_range_detect_condition_t)ADC_CFG2_RANGE_COND
 760:Generated_Source\PSoC6/ADC.h **** 
 761:Generated_Source\PSoC6/ADC.h ****     /* Misc Config
 762:Generated_Source\PSoC6/ADC.h ****         [0] - Freerunning: Set if the sample mode is freerunning
 763:Generated_Source\PSoC6/ADC.h ****     */
 764:Generated_Source\PSoC6/ADC.h ****     #define ADC_CFG2_MISC_CONFIG_INIT \
 765:Generated_Source\PSoC6/ADC.h ****             (ADC_CFG2_FREERUNNING)
 766:Generated_Source\PSoC6/ADC.h **** #endif /* ADC_TOTAL_CONFIGS > 2 */
 767:Generated_Source\PSoC6/ADC.h **** 
 768:Generated_Source\PSoC6/ADC.h **** /* ************************************************************************** */
 769:Generated_Source\PSoC6/ADC.h **** /* End configuration 2 calculated defines                                     */
 770:Generated_Source\PSoC6/ADC.h **** /* ************************************************************************** */
 771:Generated_Source\PSoC6/ADC.h **** 
 772:Generated_Source\PSoC6/ADC.h **** /* ************************************************************************** */
 773:Generated_Source\PSoC6/ADC.h **** /* Begin configuration 3 calculated defines                                   */
 774:Generated_Source\PSoC6/ADC.h **** /* ************************************************************************** */
 775:Generated_Source\PSoC6/ADC.h **** #if(ADC_TOTAL_CONFIGS > 3)
 776:Generated_Source\PSoC6/ADC.h ****     #define ADC_CFG3_SAMPLE_TIME01_INIT \
 777:Generated_Source\PSoC6/ADC.h ****             ((ADC_CFG3_APERTURE_TIME0 \
 778:Generated_Source\PSoC6/ADC.h ****             << SAR_SAMPLE_TIME01_SAMPLE_TIME0_Pos) \
 779:Generated_Source\PSoC6/ADC.h ****             | (ADC_CFG3_APERTURE_TIME1 \
 780:Generated_Source\PSoC6/ADC.h ****             << SAR_SAMPLE_TIME01_SAMPLE_TIME1_Pos))
 781:Generated_Source\PSoC6/ADC.h **** 
 782:Generated_Source\PSoC6/ADC.h ****     #define ADC_CFG3_SAMPLE_TIME23_INIT \
 783:Generated_Source\PSoC6/ADC.h ****             ((ADC_CFG3_APERTURE_TIME2 \
 784:Generated_Source\PSoC6/ADC.h ****             << SAR_SAMPLE_TIME23_SAMPLE_TIME2_Pos) \
 785:Generated_Source\PSoC6/ADC.h ****             | (ADC_CFG3_APERTURE_TIME3 \
 786:Generated_Source\PSoC6/ADC.h ****             << SAR_SAMPLE_TIME23_SAMPLE_TIME3_Pos))
 787:Generated_Source\PSoC6/ADC.h **** 
 788:Generated_Source\PSoC6/ADC.h ****     /* Enable soc pin if used */
 789:Generated_Source\PSoC6/ADC.h ****     #define ADC_CFG3_DSI_TRIGGER_EN_INIT \
 790:Generated_Source\PSoC6/ADC.h ****             (ADC_CFG3_USE_SOC \
 791:Generated_Source\PSoC6/ADC.h ****              << SAR_SAMPLE_CTRL_DSI_TRIGGER_EN_Pos)
 792:Generated_Source\PSoC6/ADC.h **** 
 793:Generated_Source\PSoC6/ADC.h ****     /* Set soc operation to edge or level based on sample mode */
 794:Generated_Source\PSoC6/ADC.h ****     #if(ADC_CFG3_FREERUNNING == ADC_FREERUNNING)
 795:Generated_Source\PSoC6/ADC.h ****         #define ADC_CFG3_DSI_TRIGGER_LEVEL_INIT    (SAR_SAMPLE_CTRL_DSI_TRIGGER_LEVEL_Msk)
 796:Generated_Source\PSoC6/ADC.h ****     #else /* Edge trigger */
 797:Generated_Source\PSoC6/ADC.h ****         #define ADC_CFG3_DSI_TRIGGER_LEVEL_INIT    (0u)
 798:Generated_Source\PSoC6/ADC.h ****     #endif /* End ADC_CFG3_FREERUNNING == ADC_FREERUNNING */
 799:Generated_Source\PSoC6/ADC.h **** 
 800:Generated_Source\PSoC6/ADC.h ****     /* Set SE_NEG_INPUT  */
 801:Generated_Source\PSoC6/ADC.h ****     #if(ADC_CFG3_VNEG_INPUT_SEL == ADC_NEG_SEL_VSSA_KELVIN)
 802:Generated_Source\PSoC6/ADC.h ****         #define ADC_CFG3_SE_NEG_INPUT_INIT \
 803:Generated_Source\PSoC6/ADC.h ****             ((uint32)(ADC_NEG_SEL_VSSA_KELVIN \
 804:Generated_Source\PSoC6/ADC.h ****             << SAR_CTRL_NEG_SEL_Pos ))
 805:Generated_Source\PSoC6/ADC.h ****     #elif(ADC_CFG3_VNEG_INPUT_SEL == ADC_NEG_SEL_VREF)
 806:Generated_Source\PSoC6/ADC.h ****         #define ADC_CFG3_SE_NEG_INPUT_INIT     (ADC_NEG_SEL_VREF \
 807:Generated_Source\PSoC6/ADC.h ****                                                                 << SAR_CTRL_NEG_SEL_Pos )
 808:Generated_Source\PSoC6/ADC.h ****     #elif (ADC_CFG3_SINGLE_PRESENT != 0u)
 809:Generated_Source\PSoC6/ADC.h ****         #define ADC_CFG3_SE_NEG_INPUT_INIT         ADC_CFG3_NEG_OTHER
 810:Generated_Source\PSoC6/ADC.h ****     #else
 811:Generated_Source\PSoC6/ADC.h ****         #define ADC_CFG3_SE_NEG_INPUT_INIT         0u
 812:Generated_Source\PSoC6/ADC.h ****     #endif /* ADC_CFG3_VNEG_INPUT_SEL == ADC_NEG_SEL_VSSA_KELVIN */
 813:Generated_Source\PSoC6/ADC.h **** 
 814:Generated_Source\PSoC6/ADC.h ****     #define ADC_CFG3_NEG_OTHER                 (uint16)((uint16)ADC_SARMUX__VNEG3 << SAR_CTRL_NEG_S
 815:Generated_Source\PSoC6/ADC.h **** 
ARM GAS  C:\Users\codyg\AppData\Local\Temp\cctpv6eZ.s 			page 32


 816:Generated_Source\PSoC6/ADC.h ****     #define ADC_CFG3_SWITCH_CONF_INIT          0u
 817:Generated_Source\PSoC6/ADC.h **** 
 818:Generated_Source\PSoC6/ADC.h ****     /* If the SAR is configured for multiple channels, always set SAR_HW_CTRL_NEGVREF to 1 */
 819:Generated_Source\PSoC6/ADC.h ****     #define ADC_CFG3_HW_CTRL_NEGVREF_INIT      SAR_CTRL_SAR_HW_CTRL_NEGVREF_Msk
 820:Generated_Source\PSoC6/ADC.h **** 
 821:Generated_Source\PSoC6/ADC.h ****     #define ADC_CFG3_POWER_INIT  (ADC_PWR_CTRL_VREF_NORMAL_PWR)
 822:Generated_Source\PSoC6/ADC.h **** 
 823:Generated_Source\PSoC6/ADC.h ****     /* SAMPLE_CTRL initial values */
 824:Generated_Source\PSoC6/ADC.h ****     #define ADC_CFG3_SE_RESULT_FORMAT_INIT \
 825:Generated_Source\PSoC6/ADC.h ****             (ADC_CFG3_SINGLE_ENDED_FORMAT \
 826:Generated_Source\PSoC6/ADC.h ****             << SAR_SAMPLE_CTRL_SINGLE_ENDED_SIGNED_Pos)
 827:Generated_Source\PSoC6/ADC.h **** 
 828:Generated_Source\PSoC6/ADC.h ****     #define ADC_CFG3_DIFF_RESULT_FORMAT_INIT \
 829:Generated_Source\PSoC6/ADC.h ****             (ADC_CFG3_DIFFERENTIAL_FORMAT \
 830:Generated_Source\PSoC6/ADC.h ****             << SAR_SAMPLE_CTRL_DIFFERENTIAL_SIGNED_Pos)
 831:Generated_Source\PSoC6/ADC.h **** 
 832:Generated_Source\PSoC6/ADC.h ****     #define ADC_CFG3_AVG_SAMPLES_NUM_INIT \
 833:Generated_Source\PSoC6/ADC.h ****             (ADC_CFG3_SAMPLES_AVERAGED \
 834:Generated_Source\PSoC6/ADC.h ****             << SAR_SAMPLE_CTRL_AVG_CNT_Pos)
 835:Generated_Source\PSoC6/ADC.h **** 
 836:Generated_Source\PSoC6/ADC.h ****     /* Combination of Average Mode and Average Shift */
 837:Generated_Source\PSoC6/ADC.h ****     #define ADC_CFG3_AVG_MODE_INIT \
 838:Generated_Source\PSoC6/ADC.h ****             (ADC_CFG3_AVGERAGING_MODE \
 839:Generated_Source\PSoC6/ADC.h ****             << SAR_SAMPLE_CTRL_AVG_SHIFT_Pos)
 840:Generated_Source\PSoC6/ADC.h **** 
 841:Generated_Source\PSoC6/ADC.h ****     #define ADC_CFG3_TRIGGER_OUT_INIT      (0u)
 842:Generated_Source\PSoC6/ADC.h ****     #define ADC_CFG3_UAB_SCAN_MODE_INIT    (0u)
 843:Generated_Source\PSoC6/ADC.h **** 
 844:Generated_Source\PSoC6/ADC.h ****     #define ADC_CFG3_VREF_POWER_INIT  \
 845:Generated_Source\PSoC6/ADC.h ****             (ADC_CFG3_VREF_PWR \
 846:Generated_Source\PSoC6/ADC.h ****             << SAR_CTRL_PWR_CTRL_VREF_Pos)
 847:Generated_Source\PSoC6/ADC.h **** 
 848:Generated_Source\PSoC6/ADC.h ****     #define ADC_CFG3_COMP_PWR_INIT  \
 849:Generated_Source\PSoC6/ADC.h ****             (ADC_CFG3_COMP_PWR \
 850:Generated_Source\PSoC6/ADC.h ****             << SAR_CTRL_COMP_PWR_Pos)
 851:Generated_Source\PSoC6/ADC.h **** 
 852:Generated_Source\PSoC6/ADC.h ****     #define ADC_CFG3_COMP_DLY_INIT  \
 853:Generated_Source\PSoC6/ADC.h ****             (ADC_CFG3_COMP_DLY \
 854:Generated_Source\PSoC6/ADC.h ****             << SAR_CTRL_COMP_DLY_Pos)
 855:Generated_Source\PSoC6/ADC.h **** 
 856:Generated_Source\PSoC6/ADC.h ****     #define ADC_CFG3_CTRL_INIT  \
 857:Generated_Source\PSoC6/ADC.h ****             (ADC_CFG3_VREF_POWER_INIT \
 858:Generated_Source\PSoC6/ADC.h ****             | ADC_CFG3_VREF_SEL_MASK \
 859:Generated_Source\PSoC6/ADC.h ****             | ADC_CFG3_SE_NEG_INPUT_INIT \
 860:Generated_Source\PSoC6/ADC.h ****             | ADC_CFG3_HW_CTRL_NEGVREF_INIT \
 861:Generated_Source\PSoC6/ADC.h ****             | ADC_CFG3_COMP_DLY_INIT \
 862:Generated_Source\PSoC6/ADC.h ****             | SAR_CTRL_REFBUF_EN_Msk \
 863:Generated_Source\PSoC6/ADC.h ****             | ADC_CFG3_COMP_PWR_INIT \
 864:Generated_Source\PSoC6/ADC.h ****             | SAR_CTRL_DSI_SYNC_CONFIG_Msk  \
 865:Generated_Source\PSoC6/ADC.h ****             | ADC_CFG3_SWITCH_CONF_INIT )
 866:Generated_Source\PSoC6/ADC.h **** 
 867:Generated_Source\PSoC6/ADC.h **** 
 868:Generated_Source\PSoC6/ADC.h ****     #define ADC_CFG3_SAMPLE_CTRL_INIT \
 869:Generated_Source\PSoC6/ADC.h ****             (ADC_CFG3_SE_RESULT_FORMAT_INIT \
 870:Generated_Source\PSoC6/ADC.h ****             | ADC_CFG3_DIFF_RESULT_FORMAT_INIT \
 871:Generated_Source\PSoC6/ADC.h ****             | ADC_CFG3_AVG_SAMPLES_NUM_INIT \
 872:Generated_Source\PSoC6/ADC.h ****             | ADC_CFG3_AVG_MODE_INIT \
ARM GAS  C:\Users\codyg\AppData\Local\Temp\cctpv6eZ.s 			page 33


 873:Generated_Source\PSoC6/ADC.h ****             | ADC_CFG3_DSI_TRIGGER_LEVEL_INIT \
 874:Generated_Source\PSoC6/ADC.h ****             | ADC_CFG3_DSI_TRIGGER_EN_INIT \
 875:Generated_Source\PSoC6/ADC.h ****             | ADC_CFG3_UAB_SCAN_MODE_INIT \
 876:Generated_Source\PSoC6/ADC.h ****             | SAR_SAMPLE_CTRL_VALID_IGNORE_Msk \
 877:Generated_Source\PSoC6/ADC.h ****             | ADC_CFG3_TRIGGER_OUT_INIT \
 878:Generated_Source\PSoC6/ADC.h ****             | SAR_SAMPLE_CTRL_EOS_DSI_OUT_EN_Msk \
 879:Generated_Source\PSoC6/ADC.h ****     )
 880:Generated_Source\PSoC6/ADC.h **** 
 881:Generated_Source\PSoC6/ADC.h ****     #define ADC_CFG3_RANGE_THRES_INIT \
 882:Generated_Source\PSoC6/ADC.h ****             (ADC_CFG3_LOW_LIMIT \
 883:Generated_Source\PSoC6/ADC.h ****             | (uint32)((uint32)ADC_CFG3_HIGH_LIMIT \
 884:Generated_Source\PSoC6/ADC.h ****             << SAR_RANGE_THRES_RANGE_HIGH_Pos))
 885:Generated_Source\PSoC6/ADC.h **** 
 886:Generated_Source\PSoC6/ADC.h ****     #define ADC_CFG3_RANGE_COND_INIT   (cy_en_sar_range_detect_condition_t)ADC_CFG3_RANGE_COND
 887:Generated_Source\PSoC6/ADC.h **** 
 888:Generated_Source\PSoC6/ADC.h ****     /* Misc Config
 889:Generated_Source\PSoC6/ADC.h ****         [0] - Freerunning: Set if the sample mode is freerunning
 890:Generated_Source\PSoC6/ADC.h ****     */
 891:Generated_Source\PSoC6/ADC.h ****     #define ADC_CFG3_MISC_CONFIG_INIT \
 892:Generated_Source\PSoC6/ADC.h ****             (ADC_CFG3_FREERUNNING )
 893:Generated_Source\PSoC6/ADC.h **** 
 894:Generated_Source\PSoC6/ADC.h **** #endif /* ADC_TOTAL_CONFIGS > 3 */
 895:Generated_Source\PSoC6/ADC.h **** 
 896:Generated_Source\PSoC6/ADC.h **** /* ************************************************************************** */
 897:Generated_Source\PSoC6/ADC.h **** /* End configuration 3 calculated defines                                     */
 898:Generated_Source\PSoC6/ADC.h **** /* ************************************************************************** */
 899:Generated_Source\PSoC6/ADC.h **** 
 900:Generated_Source\PSoC6/ADC.h **** /******************************************************************************
 901:Generated_Source\PSoC6/ADC.h **** * Function Name: ADC_Enable
 902:Generated_Source\PSoC6/ADC.h **** ****************************************************************************//*
 903:Generated_Source\PSoC6/ADC.h **** *
 904:Generated_Source\PSoC6/ADC.h **** * \brief Enables the component.
 905:Generated_Source\PSoC6/ADC.h **** *
 906:Generated_Source\PSoC6/ADC.h **** * \param None
 907:Generated_Source\PSoC6/ADC.h **** *
 908:Generated_Source\PSoC6/ADC.h **** * \return None
 909:Generated_Source\PSoC6/ADC.h **** *
 910:Generated_Source\PSoC6/ADC.h **** * \sideeffect
 911:Generated_Source\PSoC6/ADC.h **** *  None
 912:Generated_Source\PSoC6/ADC.h **** *
 913:Generated_Source\PSoC6/ADC.h **** *******************************************************************************/
 914:Generated_Source\PSoC6/ADC.h **** __STATIC_INLINE void ADC_Enable(void)
 915:Generated_Source\PSoC6/ADC.h **** {
 916:Generated_Source\PSoC6/ADC.h ****     Cy_SAR_Enable(ADC_SAR__HW);
 917:Generated_Source\PSoC6/ADC.h **** }
 918:Generated_Source\PSoC6/ADC.h **** 
 919:Generated_Source\PSoC6/ADC.h **** /*******************************************************************************
 920:Generated_Source\PSoC6/ADC.h **** * Function Name: ADC_Stop
 921:Generated_Source\PSoC6/ADC.h **** ****************************************************************************//**
 922:Generated_Source\PSoC6/ADC.h **** *
 923:Generated_Source\PSoC6/ADC.h **** * \brief This function stops ADC conversions and puts the ADC into its lowest
 924:Generated_Source\PSoC6/ADC.h **** * power mode.
 925:Generated_Source\PSoC6/ADC.h **** *
 926:Generated_Source\PSoC6/ADC.h **** * \param None
 927:Generated_Source\PSoC6/ADC.h **** *
 928:Generated_Source\PSoC6/ADC.h **** * \return None
 929:Generated_Source\PSoC6/ADC.h **** *
ARM GAS  C:\Users\codyg\AppData\Local\Temp\cctpv6eZ.s 			page 34


 930:Generated_Source\PSoC6/ADC.h **** * \sideeffect
 931:Generated_Source\PSoC6/ADC.h **** * Do not use the ADC_Stop() API to halt conversions. Instead use the
 932:Generated_Source\PSoC6/ADC.h **** * ADC_StopConvert() API. If you use the ADC_Stop() API
 933:Generated_Source\PSoC6/ADC.h **** * to halt conversions then later use the ADC_Start() and
 934:Generated_Source\PSoC6/ADC.h **** * ADC_StartConvert() APIs to resume conversions, the first channel
 935:Generated_Source\PSoC6/ADC.h **** * of the scan may be corrupt. The ADC_StopConvert() API will enable
 936:Generated_Source\PSoC6/ADC.h **** * the ADC to complete the current scan of channels. After the
 937:Generated_Source\PSoC6/ADC.h **** * channel scan is complete, the ADC will stop all conversions, which
 938:Generated_Source\PSoC6/ADC.h **** * can be detected by the use of an ISR or the ADC_IsEndConversion()
 939:Generated_Source\PSoC6/ADC.h **** * function.
 940:Generated_Source\PSoC6/ADC.h **** *
 941:Generated_Source\PSoC6/ADC.h **** *******************************************************************************/
 942:Generated_Source\PSoC6/ADC.h **** __STATIC_INLINE void ADC_Stop(void)
 943:Generated_Source\PSoC6/ADC.h **** {
 944:Generated_Source\PSoC6/ADC.h ****     Cy_SAR_Disable(ADC_SAR__HW);
 945:Generated_Source\PSoC6/ADC.h **** }
 946:Generated_Source\PSoC6/ADC.h **** 
 947:Generated_Source\PSoC6/ADC.h **** /*******************************************************************************
 948:Generated_Source\PSoC6/ADC.h **** * Function Name: ADC_StopConvert
 949:Generated_Source\PSoC6/ADC.h **** ****************************************************************************//**
 950:Generated_Source\PSoC6/ADC.h **** *
 951:Generated_Source\PSoC6/ADC.h **** * \brief Forces the ADC to stop conversions. If a conversion is
 952:Generated_Source\PSoC6/ADC.h **** * currently executing, that conversion will complete, but no further conversions
 953:Generated_Source\PSoC6/ADC.h **** * will occur.
 954:Generated_Source\PSoC6/ADC.h **** *
 955:Generated_Source\PSoC6/ADC.h **** * \param None
 956:Generated_Source\PSoC6/ADC.h **** *
 957:Generated_Source\PSoC6/ADC.h **** * \return None
 958:Generated_Source\PSoC6/ADC.h **** *
 959:Generated_Source\PSoC6/ADC.h **** * \sideeffect None
 960:Generated_Source\PSoC6/ADC.h **** *
 961:Generated_Source\PSoC6/ADC.h **** *******************************************************************************/
 962:Generated_Source\PSoC6/ADC.h **** __STATIC_INLINE void ADC_StopConvert(void)
 963:Generated_Source\PSoC6/ADC.h **** {
 964:Generated_Source\PSoC6/ADC.h ****     Cy_SAR_StopConvert(ADC_SAR__HW);
 965:Generated_Source\PSoC6/ADC.h **** }
 966:Generated_Source\PSoC6/ADC.h **** 
 967:Generated_Source\PSoC6/ADC.h **** /*******************************************************************************
 968:Generated_Source\PSoC6/ADC.h **** * Function Name: ADC_GetResult16
 969:Generated_Source\PSoC6/ADC.h **** ****************************************************************************//**
 970:Generated_Source\PSoC6/ADC.h **** *
 971:Generated_Source\PSoC6/ADC.h **** * \brief Gets the data available in the channel result data register
 972:Generated_Source\PSoC6/ADC.h **** *
 973:Generated_Source\PSoC6/ADC.h **** * \param chan The ADC channel to read the result from. The first
 974:Generated_Source\PSoC6/ADC.h **** * channel is 0.
 975:Generated_Source\PSoC6/ADC.h **** *
 976:Generated_Source\PSoC6/ADC.h **** * \return Returns converted data as a signed 16-bit integer.
 977:Generated_Source\PSoC6/ADC.h **** *
 978:Generated_Source\PSoC6/ADC.h **** * \sideeffect None
 979:Generated_Source\PSoC6/ADC.h **** *
 980:Generated_Source\PSoC6/ADC.h **** *******************************************************************************/
 981:Generated_Source\PSoC6/ADC.h **** __STATIC_INLINE int16_t ADC_GetResult16(uint32_t chan)
 982:Generated_Source\PSoC6/ADC.h **** {
 983:Generated_Source\PSoC6/ADC.h ****     /* Halt CPU in debug mode if channel is out of valid range */
 984:Generated_Source\PSoC6/ADC.h ****     CY_ASSERT(chan < ADC_allConfigs[ADC_currentConfig].numChannels);
 985:Generated_Source\PSoC6/ADC.h **** 
 986:Generated_Source\PSoC6/ADC.h ****     return Cy_SAR_GetResult16(ADC_SAR__HW, chan);
ARM GAS  C:\Users\codyg\AppData\Local\Temp\cctpv6eZ.s 			page 35


 987:Generated_Source\PSoC6/ADC.h **** }
 988:Generated_Source\PSoC6/ADC.h **** 
 989:Generated_Source\PSoC6/ADC.h **** /*******************************************************************************
 990:Generated_Source\PSoC6/ADC.h **** * Function Name: ADC_GetResult32
 991:Generated_Source\PSoC6/ADC.h **** ****************************************************************************//**
 992:Generated_Source\PSoC6/ADC.h **** *
 993:Generated_Source\PSoC6/ADC.h **** * \brief Gets the data available in the channel result data register.
 994:Generated_Source\PSoC6/ADC.h **** *
 995:Generated_Source\PSoC6/ADC.h **** * \param chan The ADC channel to read the result from. The first
 996:Generated_Source\PSoC6/ADC.h **** * channel is 0.
 997:Generated_Source\PSoC6/ADC.h **** *
 998:Generated_Source\PSoC6/ADC.h **** * \return Returns converted data as a signed 32-bit integer.
 999:Generated_Source\PSoC6/ADC.h **** *
1000:Generated_Source\PSoC6/ADC.h **** * \sideeffect None
1001:Generated_Source\PSoC6/ADC.h **** *
1002:Generated_Source\PSoC6/ADC.h **** *******************************************************************************/
1003:Generated_Source\PSoC6/ADC.h **** __STATIC_INLINE int32_t ADC_GetResult32(uint32_t chan)
1004:Generated_Source\PSoC6/ADC.h **** {
1005:Generated_Source\PSoC6/ADC.h ****     int32_t finalResult;
1006:Generated_Source\PSoC6/ADC.h **** 
1007:Generated_Source\PSoC6/ADC.h ****     /* Halt CPU in debug mode if channel is out of valid range */
1008:Generated_Source\PSoC6/ADC.h ****     CY_ASSERT(chan < ADC_allConfigs[ADC_currentConfig].numChannels);
1009:Generated_Source\PSoC6/ADC.h **** 
1010:Generated_Source\PSoC6/ADC.h ****     finalResult = Cy_SAR_GetResult32(ADC_SAR__HW, chan);
1011:Generated_Source\PSoC6/ADC.h **** 
1012:Generated_Source\PSoC6/ADC.h ****     return finalResult;
1013:Generated_Source\PSoC6/ADC.h **** }
1014:Generated_Source\PSoC6/ADC.h **** 
1015:Generated_Source\PSoC6/ADC.h **** /*******************************************************************************
1016:Generated_Source\PSoC6/ADC.h **** * Function Name: ADC_SetLowLimit
1017:Generated_Source\PSoC6/ADC.h **** ****************************************************************************//**
1018:Generated_Source\PSoC6/ADC.h **** *
1019:Generated_Source\PSoC6/ADC.h **** * \brief Sets the low limit parameter for a limit condition.
1020:Generated_Source\PSoC6/ADC.h **** *
1021:Generated_Source\PSoC6/ADC.h **** * \param lowLimit The low limit for a limit condition.
1022:Generated_Source\PSoC6/ADC.h **** *
1023:Generated_Source\PSoC6/ADC.h **** * \return None
1024:Generated_Source\PSoC6/ADC.h **** *
1025:Generated_Source\PSoC6/ADC.h **** * \sideeffect None
1026:Generated_Source\PSoC6/ADC.h **** *
1027:Generated_Source\PSoC6/ADC.h **** *******************************************************************************/
1028:Generated_Source\PSoC6/ADC.h **** __STATIC_INLINE void ADC_SetLowLimit(uint32_t lowLimit)
1029:Generated_Source\PSoC6/ADC.h **** {
1030:Generated_Source\PSoC6/ADC.h ****     Cy_SAR_SetLowLimit(ADC_SAR__HW, lowLimit);
1031:Generated_Source\PSoC6/ADC.h **** }
1032:Generated_Source\PSoC6/ADC.h **** 
1033:Generated_Source\PSoC6/ADC.h **** /*******************************************************************************
1034:Generated_Source\PSoC6/ADC.h **** * Function Name: ADC_SetHighLimit
1035:Generated_Source\PSoC6/ADC.h **** ****************************************************************************//**
1036:Generated_Source\PSoC6/ADC.h **** *
1037:Generated_Source\PSoC6/ADC.h **** * \brief Sets the high limit parameter for a limit condition.
1038:Generated_Source\PSoC6/ADC.h **** *
1039:Generated_Source\PSoC6/ADC.h **** * \param highLimit The high limit for a limit condition.
1040:Generated_Source\PSoC6/ADC.h **** *
1041:Generated_Source\PSoC6/ADC.h **** * \return None
1042:Generated_Source\PSoC6/ADC.h **** *
1043:Generated_Source\PSoC6/ADC.h **** * \sideeffect None
ARM GAS  C:\Users\codyg\AppData\Local\Temp\cctpv6eZ.s 			page 36


1044:Generated_Source\PSoC6/ADC.h **** *
1045:Generated_Source\PSoC6/ADC.h **** *******************************************************************************/
1046:Generated_Source\PSoC6/ADC.h **** __STATIC_INLINE void ADC_SetHighLimit(uint32_t highLimit)
1047:Generated_Source\PSoC6/ADC.h **** {
1048:Generated_Source\PSoC6/ADC.h ****     Cy_SAR_SetHighLimit(ADC_SAR__HW, highLimit);
1049:Generated_Source\PSoC6/ADC.h **** }
1050:Generated_Source\PSoC6/ADC.h **** 
1051:Generated_Source\PSoC6/ADC.h **** /*******************************************************************************
1052:Generated_Source\PSoC6/ADC.h **** * Function Name: ADC_SetLimitMask
1053:Generated_Source\PSoC6/ADC.h **** ****************************************************************************//**
1054:Generated_Source\PSoC6/ADC.h **** *
1055:Generated_Source\PSoC6/ADC.h **** * \brief Sets the channel limit condition mask.
1056:Generated_Source\PSoC6/ADC.h **** *
1057:Generated_Source\PSoC6/ADC.h **** *
1058:Generated_Source\PSoC6/ADC.h **** * \param limitMask
1059:Generated_Source\PSoC6/ADC.h **** * Sets which channels can cause a limit condition interrupt.
1060:Generated_Source\PSoC6/ADC.h **** * Bit N of the mask enables the limit condition interrupt for channel N.
1061:Generated_Source\PSoC6/ADC.h **** * The limitMask cannot be larger than the number of channels.
1062:Generated_Source\PSoC6/ADC.h **** * If a channel is not enabled, it cannot cause any interrupts.
1063:Generated_Source\PSoC6/ADC.h **** *
1064:Generated_Source\PSoC6/ADC.h **** * \return None
1065:Generated_Source\PSoC6/ADC.h **** *
1066:Generated_Source\PSoC6/ADC.h **** * \sideeffect None
1067:Generated_Source\PSoC6/ADC.h **** *
1068:Generated_Source\PSoC6/ADC.h **** *******************************************************************************/
1069:Generated_Source\PSoC6/ADC.h **** __STATIC_INLINE void ADC_SetLimitMask(uint32_t limitMask)
1070:Generated_Source\PSoC6/ADC.h **** {
1071:Generated_Source\PSoC6/ADC.h ****     Cy_SAR_SetRangeInterruptMask(ADC_SAR__HW, limitMask);
1072:Generated_Source\PSoC6/ADC.h **** }
1073:Generated_Source\PSoC6/ADC.h **** 
1074:Generated_Source\PSoC6/ADC.h **** /*******************************************************************************
1075:Generated_Source\PSoC6/ADC.h **** * Function Name: ADC_SetSatMask
1076:Generated_Source\PSoC6/ADC.h **** ****************************************************************************//**
1077:Generated_Source\PSoC6/ADC.h **** *
1078:Generated_Source\PSoC6/ADC.h **** * \brief Sets the channel saturation event mask.
1079:Generated_Source\PSoC6/ADC.h **** *
1080:Generated_Source\PSoC6/ADC.h **** * \param satMask
1081:Generated_Source\PSoC6/ADC.h **** * Sets which channels can cause a saturation event interrupt.
1082:Generated_Source\PSoC6/ADC.h **** * Bit N of the mask enables the saturation event interrupt for channel N.
1083:Generated_Source\PSoC6/ADC.h **** * The satMask cannot be larger than the number of channels.
1084:Generated_Source\PSoC6/ADC.h **** * If a channel is not enabled, it cannot cause any interrupts.
1085:Generated_Source\PSoC6/ADC.h **** *
1086:Generated_Source\PSoC6/ADC.h **** * \return None
1087:Generated_Source\PSoC6/ADC.h **** *
1088:Generated_Source\PSoC6/ADC.h **** * \sideeffect None
1089:Generated_Source\PSoC6/ADC.h **** *
1090:Generated_Source\PSoC6/ADC.h **** *******************************************************************************/
1091:Generated_Source\PSoC6/ADC.h **** __STATIC_INLINE void ADC_SetSatMask(uint32_t satMask)
1092:Generated_Source\PSoC6/ADC.h **** {
1093:Generated_Source\PSoC6/ADC.h ****     Cy_SAR_SetSatInterruptMask(ADC_SAR__HW, satMask);
1094:Generated_Source\PSoC6/ADC.h **** }
1095:Generated_Source\PSoC6/ADC.h **** 
1096:Generated_Source\PSoC6/ADC.h **** /*******************************************************************************
1097:Generated_Source\PSoC6/ADC.h **** * Function Name: ADC_SetOffset
1098:Generated_Source\PSoC6/ADC.h **** ****************************************************************************//**
1099:Generated_Source\PSoC6/ADC.h **** *
1100:Generated_Source\PSoC6/ADC.h **** * \brief Sets the ADC offset that is used by the functions ADC_CountsTo_uVolts,
ARM GAS  C:\Users\codyg\AppData\Local\Temp\cctpv6eZ.s 			page 37


1101:Generated_Source\PSoC6/ADC.h **** * ADC_CountsTo_mVolts, and ADC_CountsTo_Volts.
1102:Generated_Source\PSoC6/ADC.h **** *
1103:Generated_Source\PSoC6/ADC.h **** * Offset is applied to counts before unit scaling and gain.  All CountsTo_[mV, uV, V]olts()
1104:Generated_Source\PSoC6/ADC.h **** * functions use the following equation:
1105:Generated_Source\PSoC6/ADC.h **** *     V = (Counts/AvgDivider - Offset)*TEN_VOLT/Gain
1106:Generated_Source\PSoC6/ADC.h **** * See CountsTo_Volts() for more about this formula.
1107:Generated_Source\PSoC6/ADC.h **** *
1108:Generated_Source\PSoC6/ADC.h **** * To set channel 0's offset based on known V_offset_mV, use:
1109:Generated_Source\PSoC6/ADC.h **** *     ADC_SetOffset(0uL, -1 * V_offset_mV * (1uL << (Resolution - 1)) / V_ref_mV);
1110:Generated_Source\PSoC6/ADC.h **** *
1111:Generated_Source\PSoC6/ADC.h **** * \param chan ADC channel number.
1112:Generated_Source\PSoC6/ADC.h **** *
1113:Generated_Source\PSoC6/ADC.h **** * \param offset This value is a measured value when the inputs are shorted or
1114:Generated_Source\PSoC6/ADC.h **** * connected to the same input voltage.
1115:Generated_Source\PSoC6/ADC.h **** *
1116:Generated_Source\PSoC6/ADC.h **** * \return cy_en_sar_status_t
1117:Generated_Source\PSoC6/ADC.h **** * - CY_SAR_BAD_PARAM: channel number is equal to or greater than CY_SAR_MAX_NUM_CHANNELS
1118:Generated_Source\PSoC6/ADC.h **** * - CY_SAR_SUCCESS: offset was set successfully
1119:Generated_Source\PSoC6/ADC.h **** *
1120:Generated_Source\PSoC6/ADC.h **** * \sideeffect None
1121:Generated_Source\PSoC6/ADC.h **** *
1122:Generated_Source\PSoC6/ADC.h **** *******************************************************************************/
1123:Generated_Source\PSoC6/ADC.h **** __STATIC_INLINE cy_en_sar_status_t ADC_SetOffset(uint32_t chan, int16_t offset)
1124:Generated_Source\PSoC6/ADC.h **** {
1125:Generated_Source\PSoC6/ADC.h ****     /* Halt CPU in debug mode if channel is out of valid range */
1126:Generated_Source\PSoC6/ADC.h ****     CY_ASSERT(chan < ADC_allConfigs[ADC_currentConfig].numChannels);
1127:Generated_Source\PSoC6/ADC.h **** 
1128:Generated_Source\PSoC6/ADC.h ****     return Cy_SAR_SetOffset(chan, offset);
1129:Generated_Source\PSoC6/ADC.h **** }
1130:Generated_Source\PSoC6/ADC.h **** 
1131:Generated_Source\PSoC6/ADC.h **** /*******************************************************************************
1132:Generated_Source\PSoC6/ADC.h **** * Function Name: ADC_SetGain
1133:Generated_Source\PSoC6/ADC.h **** ****************************************************************************//**
1134:Generated_Source\PSoC6/ADC.h **** *
1135:Generated_Source\PSoC6/ADC.h **** * \brief Sets the ADC gain in counts per 10 volt for the voltage
1136:Generated_Source\PSoC6/ADC.h **** * conversion functions. This value is set by default by the reference and
1137:Generated_Source\PSoC6/ADC.h **** * input range settings. Gain is applied after offset and unit scaling.  All
1138:Generated_Source\PSoC6/ADC.h **** * CountsTo_[mV, uV, V]olts() functions use the following equation:
1139:Generated_Source\PSoC6/ADC.h **** *     V = (Counts/AvgDivider - Offset)*TEN_VOLT/Gain
1140:Generated_Source\PSoC6/ADC.h **** * See CountsTo_Volts() for more about this formula.
1141:Generated_Source\PSoC6/ADC.h **** *
1142:Generated_Source\PSoC6/ADC.h **** * To set channel 0's gain based on known V_ref_mV, use:
1143:Generated_Source\PSoC6/ADC.h **** *     ADC_SetGain(0uL, 10000 * (1uL << (Resolution - 1)) / V_ref_mV);
1144:Generated_Source\PSoC6/ADC.h **** *
1145:Generated_Source\PSoC6/ADC.h **** * \param chan ADC channel number.
1146:Generated_Source\PSoC6/ADC.h **** *
1147:Generated_Source\PSoC6/ADC.h **** * \param adcGain ADC gain in counts per 10 volt.
1148:Generated_Source\PSoC6/ADC.h **** *
1149:Generated_Source\PSoC6/ADC.h **** * \return cy_en_sar_status_t
1150:Generated_Source\PSoC6/ADC.h **** * - CY_SAR_BAD_PARAM: channel number is equal to or greater than CY_SAR_MAX_NUM_CHANNELS
1151:Generated_Source\PSoC6/ADC.h **** * - CY_SAR_SUCCESS: gain was set successfully
1152:Generated_Source\PSoC6/ADC.h **** *
1153:Generated_Source\PSoC6/ADC.h **** * \sideeffect None
1154:Generated_Source\PSoC6/ADC.h **** *
1155:Generated_Source\PSoC6/ADC.h **** *******************************************************************************/
1156:Generated_Source\PSoC6/ADC.h **** __STATIC_INLINE cy_en_sar_status_t ADC_SetGain(uint32_t chan, int32_t adcGain)
1157:Generated_Source\PSoC6/ADC.h **** {
ARM GAS  C:\Users\codyg\AppData\Local\Temp\cctpv6eZ.s 			page 38


1158:Generated_Source\PSoC6/ADC.h ****     /* Halt CPU in debug mode if channel is out of valid range */
1159:Generated_Source\PSoC6/ADC.h ****     CY_ASSERT(chan < ADC_allConfigs[ADC_currentConfig].numChannels);
1160:Generated_Source\PSoC6/ADC.h **** 
1161:Generated_Source\PSoC6/ADC.h ****     return Cy_SAR_SetGain(chan, adcGain);
1162:Generated_Source\PSoC6/ADC.h **** }
1163:Generated_Source\PSoC6/ADC.h **** 
1164:Generated_Source\PSoC6/ADC.h **** /*******************************************************************************
1165:Generated_Source\PSoC6/ADC.h **** * Function Name: ADC_CountsTo_Volts
1166:Generated_Source\PSoC6/ADC.h **** ****************************************************************************//**
1167:Generated_Source\PSoC6/ADC.h **** *
1168:Generated_Source\PSoC6/ADC.h **** * \brief Converts the ADC output to Volts as a float32. For example, if the ADC
1169:Generated_Source\PSoC6/ADC.h **** * measured 0.534 volts, the return value would be 0.534.
1170:Generated_Source\PSoC6/ADC.h **** * The calculation of voltage depends on the contents of Cy_SAR_offset[],
1171:Generated_Source\PSoC6/ADC.h **** * Cy_SAR_countsPer10Volt[], and other parameters.  The equation used is:
1172:Generated_Source\PSoC6/ADC.h **** *
1173:Generated_Source\PSoC6/ADC.h **** *     V = (Counts/AvgDivider - Offset)*TEN_VOLT/Gain
1174:Generated_Source\PSoC6/ADC.h **** * -Counts = Raw Counts from SAR register
1175:Generated_Source\PSoC6/ADC.h **** * -AvgDivider = divider based on averaging mode
1176:Generated_Source\PSoC6/ADC.h **** *     -Sequential, Sum: AvgDivider = number averaged
1177:Generated_Source\PSoC6/ADC.h **** *         Note: The divider should be a maximum of 16. If using more averages,
1178:Generated_Source\PSoC6/ADC.h **** *         pre-scale Counts by (number averaged / 16)
1179:Generated_Source\PSoC6/ADC.h **** *     -Interleaved, Sum: AvgDivider = number averaged
1180:Generated_Source\PSoC6/ADC.h **** *     -Sequential, Fixed: AvgDivider = 1
1181:Generated_Source\PSoC6/ADC.h **** * -Offset = Cy_SAR_offset[]
1182:Generated_Source\PSoC6/ADC.h **** * -TEN_VOLT = 10V constant and unit scalar.
1183:Generated_Source\PSoC6/ADC.h **** * -Gain = Cy_SAR_countsPer10Volt[]
1184:Generated_Source\PSoC6/ADC.h **** *
1185:Generated_Source\PSoC6/ADC.h **** * When the Vref is based on Vdda, the value used for Vdda is set for the project
1186:Generated_Source\PSoC6/ADC.h **** * in the System tab of the DWR.
1187:Generated_Source\PSoC6/ADC.h **** *
1188:Generated_Source\PSoC6/ADC.h **** * \param chan ADC channel number.
1189:Generated_Source\PSoC6/ADC.h **** *
1190:Generated_Source\PSoC6/ADC.h **** * \param adcCounts Result from the ADC conversion.
1191:Generated_Source\PSoC6/ADC.h **** *
1192:Generated_Source\PSoC6/ADC.h **** * \return Result in Volts.
1193:Generated_Source\PSoC6/ADC.h **** *
1194:Generated_Source\PSoC6/ADC.h **** * \sideeffect None
1195:Generated_Source\PSoC6/ADC.h **** *
1196:Generated_Source\PSoC6/ADC.h **** *******************************************************************************/
1197:Generated_Source\PSoC6/ADC.h **** __STATIC_INLINE float32_t ADC_CountsTo_Volts(uint32_t chan, int16_t adcCounts)
1198:Generated_Source\PSoC6/ADC.h **** {
1199:Generated_Source\PSoC6/ADC.h ****     /* Halt CPU in debug mode if channel is out of valid range */
1200:Generated_Source\PSoC6/ADC.h ****     CY_ASSERT(chan < ADC_allConfigs[ADC_currentConfig].numChannels);
1201:Generated_Source\PSoC6/ADC.h **** 
1202:Generated_Source\PSoC6/ADC.h ****     return Cy_SAR_CountsTo_Volts(ADC_SAR__HW, chan, adcCounts);
1203:Generated_Source\PSoC6/ADC.h **** }
1204:Generated_Source\PSoC6/ADC.h **** 
1205:Generated_Source\PSoC6/ADC.h **** /*******************************************************************************
1206:Generated_Source\PSoC6/ADC.h **** * Function Name: ADC_CountsTo_mVolts
1207:Generated_Source\PSoC6/ADC.h **** ****************************************************************************//**
1208:Generated_Source\PSoC6/ADC.h **** *
1209:Generated_Source\PSoC6/ADC.h **** * \brief Converts the ADC output to millivolts as an int16. For example, if the ADC
1210:Generated_Source\PSoC6/ADC.h **** * measured 0.534 volts, the return value would be 534.
1211:Generated_Source\PSoC6/ADC.h **** * The calculation of voltage depends on the contents of Cy_SAR_offset[],
1212:Generated_Source\PSoC6/ADC.h **** * Cy_SAR_countsPer10Volt[], and other parameters.  The equation used is:
1213:Generated_Source\PSoC6/ADC.h **** *
1214:Generated_Source\PSoC6/ADC.h **** *     V = (Counts/AvgDivider - Offset)*TEN_VOLT/Gain
ARM GAS  C:\Users\codyg\AppData\Local\Temp\cctpv6eZ.s 			page 39


1215:Generated_Source\PSoC6/ADC.h **** * -Counts = Raw Counts from SAR register
1216:Generated_Source\PSoC6/ADC.h **** * -AvgDivider = divider based on averaging mode
1217:Generated_Source\PSoC6/ADC.h **** *     -Sequential, Sum: AvgDivider = number averaged
1218:Generated_Source\PSoC6/ADC.h **** *         Note: The divider should be a maximum of 16. If using more averages,
1219:Generated_Source\PSoC6/ADC.h **** *         pre-scale Counts by (number averaged / 16)
1220:Generated_Source\PSoC6/ADC.h **** *     -Interleaved, Sum: AvgDivider = number averaged
1221:Generated_Source\PSoC6/ADC.h **** *     -Sequential, Fixed: AvgDivider = 1
1222:Generated_Source\PSoC6/ADC.h **** * -Offset = Cy_SAR_offset[]
1223:Generated_Source\PSoC6/ADC.h **** * -TEN_VOLT = 10V constant and unit scalar.
1224:Generated_Source\PSoC6/ADC.h **** * -Gain = Cy_SAR_countsPer10Volt[]
1225:Generated_Source\PSoC6/ADC.h **** *
1226:Generated_Source\PSoC6/ADC.h **** * When the Vref is based on Vdda, the value used for Vdda is set for the project
1227:Generated_Source\PSoC6/ADC.h **** * in the System tab of the DWR.
1228:Generated_Source\PSoC6/ADC.h **** *
1229:Generated_Source\PSoC6/ADC.h **** * \param chan ADC channel number.
1230:Generated_Source\PSoC6/ADC.h **** *
1231:Generated_Source\PSoC6/ADC.h **** * \param adcCounts Result from the ADC conversion.
1232:Generated_Source\PSoC6/ADC.h **** *
1233:Generated_Source\PSoC6/ADC.h **** * \return Result in mV.
1234:Generated_Source\PSoC6/ADC.h **** *
1235:Generated_Source\PSoC6/ADC.h **** * \sideeffect None.
1236:Generated_Source\PSoC6/ADC.h **** *
1237:Generated_Source\PSoC6/ADC.h **** *******************************************************************************/
1238:Generated_Source\PSoC6/ADC.h **** __STATIC_INLINE int16_t ADC_CountsTo_mVolts(uint32_t chan, int16_t adcCounts)
1239:Generated_Source\PSoC6/ADC.h **** {
1240:Generated_Source\PSoC6/ADC.h ****     /* Halt CPU in debug mode if channel is out of valid range */
1241:Generated_Source\PSoC6/ADC.h ****     CY_ASSERT(chan < ADC_allConfigs[ADC_currentConfig].numChannels);
1242:Generated_Source\PSoC6/ADC.h **** 
1243:Generated_Source\PSoC6/ADC.h ****     return Cy_SAR_CountsTo_mVolts(ADC_SAR__HW, chan, adcCounts);
1244:Generated_Source\PSoC6/ADC.h **** }
1245:Generated_Source\PSoC6/ADC.h **** 
1246:Generated_Source\PSoC6/ADC.h **** /*******************************************************************************
1247:Generated_Source\PSoC6/ADC.h **** * Function Name: ADC_CountsTo_uVolts
1248:Generated_Source\PSoC6/ADC.h **** ****************************************************************************//**
1249:Generated_Source\PSoC6/ADC.h **** *
1250:Generated_Source\PSoC6/ADC.h **** * \brief Converts the ADC output to microvolts as an int32. For example, if the ADC
1251:Generated_Source\PSoC6/ADC.h **** * measured 0.534 volts, the return value would be 534000.
1252:Generated_Source\PSoC6/ADC.h **** * The calculation of voltage depends on the contents of Cy_SAR_offset[],
1253:Generated_Source\PSoC6/ADC.h **** * Cy_SAR_countsPer10Volt[], and other parameters.  The equation used is:
1254:Generated_Source\PSoC6/ADC.h **** *
1255:Generated_Source\PSoC6/ADC.h **** *     V = (Counts/AvgDivider - Offset)*TEN_VOLT/Gain
1256:Generated_Source\PSoC6/ADC.h **** * -Counts = Raw Counts from SAR register
1257:Generated_Source\PSoC6/ADC.h **** * -AvgDivider = divider based on averaging mode
1258:Generated_Source\PSoC6/ADC.h **** *     -Sequential, Sum: AvgDivider = number averaged
1259:Generated_Source\PSoC6/ADC.h **** *         Note: The divider should be a maximum of 16. If using more averages,
1260:Generated_Source\PSoC6/ADC.h **** *         pre-scale Counts by (number averaged / 16)
1261:Generated_Source\PSoC6/ADC.h **** *     -Interleaved, Sum: AvgDivider = number averaged
1262:Generated_Source\PSoC6/ADC.h **** *     -Sequential, Fixed: AvgDivider = 1
1263:Generated_Source\PSoC6/ADC.h **** * -Offset = Cy_SAR_offset[]
1264:Generated_Source\PSoC6/ADC.h **** * -TEN_VOLT = 10V constant and unit scalar.
1265:Generated_Source\PSoC6/ADC.h **** * -Gain = Cy_SAR_countsPer10Volt[]
1266:Generated_Source\PSoC6/ADC.h **** *
1267:Generated_Source\PSoC6/ADC.h **** * When the Vref is based on Vdda, the value used for Vdda is set for the project
1268:Generated_Source\PSoC6/ADC.h **** * in the System tab of the DWR.
1269:Generated_Source\PSoC6/ADC.h **** *
1270:Generated_Source\PSoC6/ADC.h **** * \param chan ADC channel number.
1271:Generated_Source\PSoC6/ADC.h **** *
ARM GAS  C:\Users\codyg\AppData\Local\Temp\cctpv6eZ.s 			page 40


1272:Generated_Source\PSoC6/ADC.h **** * \param adcCounts Result from the ADC conversion.
1273:Generated_Source\PSoC6/ADC.h **** *
1274:Generated_Source\PSoC6/ADC.h **** * \return Result in microvolts.
1275:Generated_Source\PSoC6/ADC.h **** *
1276:Generated_Source\PSoC6/ADC.h **** * \sideeffect None
1277:Generated_Source\PSoC6/ADC.h **** *
1278:Generated_Source\PSoC6/ADC.h **** *******************************************************************************/
1279:Generated_Source\PSoC6/ADC.h **** __STATIC_INLINE int32_t ADC_CountsTo_uVolts(uint32_t chan, int16_t adcCounts)
1280:Generated_Source\PSoC6/ADC.h **** {
1281:Generated_Source\PSoC6/ADC.h ****     /* Halt CPU in debug mode if channel is out of valid range */
1282:Generated_Source\PSoC6/ADC.h ****     CY_ASSERT(chan < ADC_allConfigs[ADC_currentConfig].numChannels);
1283:Generated_Source\PSoC6/ADC.h **** 
1284:Generated_Source\PSoC6/ADC.h ****     return Cy_SAR_CountsTo_uVolts(ADC_SAR__HW, chan, adcCounts);
1285:Generated_Source\PSoC6/ADC.h **** }
1286:Generated_Source\PSoC6/ADC.h **** 
1287:Generated_Source\PSoC6/ADC.h **** /*******************************************************************************
1288:Generated_Source\PSoC6/ADC.h **** * Function Name: ADC_Sleep
1289:Generated_Source\PSoC6/ADC.h **** ****************************************************************************//**
1290:Generated_Source\PSoC6/ADC.h **** *
1291:Generated_Source\PSoC6/ADC.h **** * \brief This is the preferred routine to prepare the component for sleep. The
1292:Generated_Source\PSoC6/ADC.h **** * ADC_Sleep() routine saves the current component state. Then it
1293:Generated_Source\PSoC6/ADC.h **** * calls the ADC_Stop() function.
1294:Generated_Source\PSoC6/ADC.h **** *
1295:Generated_Source\PSoC6/ADC.h **** * Calling this routine directly is not needed.
1296:Generated_Source\PSoC6/ADC.h **** * The ADC_DeepSleepCallbackStruct will ensure this routine
1297:Generated_Source\PSoC6/ADC.h **** * is called before the device enters Deep Sleep mode.
1298:Generated_Source\PSoC6/ADC.h **** *
1299:Generated_Source\PSoC6/ADC.h **** * \param None
1300:Generated_Source\PSoC6/ADC.h **** *
1301:Generated_Source\PSoC6/ADC.h **** * \return None
1302:Generated_Source\PSoC6/ADC.h **** *
1303:Generated_Source\PSoC6/ADC.h **** * \sideeffect If this function is called twice in the enable state of the
1304:Generated_Source\PSoC6/ADC.h **** * component, the disabled state of the component will be stored. So
1305:Generated_Source\PSoC6/ADC.h **** * ADC_Enable() and ADC_StartConvert() must be called
1306:Generated_Source\PSoC6/ADC.h **** * after ADC_Wakeup() in this case.
1307:Generated_Source\PSoC6/ADC.h **** *
1308:Generated_Source\PSoC6/ADC.h **** * \globalvars
1309:Generated_Source\PSoC6/ADC.h **** *  \ref ADC_backup (W)
1310:Generated_Source\PSoC6/ADC.h **** *
1311:Generated_Source\PSoC6/ADC.h **** * \globalvars
1312:Generated_Source\PSoC6/ADC.h **** *  \ref ADC_backup
1313:Generated_Source\PSoC6/ADC.h **** *
1314:Generated_Source\PSoC6/ADC.h **** *******************************************************************************/
1315:Generated_Source\PSoC6/ADC.h **** __STATIC_INLINE void ADC_Sleep(void)
1316:Generated_Source\PSoC6/ADC.h **** {
1317:Generated_Source\PSoC6/ADC.h ****     Cy_SAR_Sleep(ADC_SAR__HW);
1318:Generated_Source\PSoC6/ADC.h **** }
1319:Generated_Source\PSoC6/ADC.h **** 
1320:Generated_Source\PSoC6/ADC.h **** 
1321:Generated_Source\PSoC6/ADC.h **** /*******************************************************************************
1322:Generated_Source\PSoC6/ADC.h **** * Function Name: ADC_Wakeup
1323:Generated_Source\PSoC6/ADC.h **** ****************************************************************************//**
1324:Generated_Source\PSoC6/ADC.h **** *
1325:Generated_Source\PSoC6/ADC.h **** * \brief This is the preferred routine to restore the component to the state when
1326:Generated_Source\PSoC6/ADC.h **** * ADC_Sleep() was called.
1327:Generated_Source\PSoC6/ADC.h **** * If the component was enabled before the ADC_Sleep()
1328:Generated_Source\PSoC6/ADC.h **** * function was called, the ADC_Wakeup() function also re-enables the
ARM GAS  C:\Users\codyg\AppData\Local\Temp\cctpv6eZ.s 			page 41


1329:Generated_Source\PSoC6/ADC.h **** * component.
1330:Generated_Source\PSoC6/ADC.h **** *
1331:Generated_Source\PSoC6/ADC.h **** * Calling this routine directly is not needed.
1332:Generated_Source\PSoC6/ADC.h **** * The ADC_DeepSleepCallbackStruct will ensure this routine
1333:Generated_Source\PSoC6/ADC.h **** * is called after the device wakes up from Deep Sleep mode.
1334:Generated_Source\PSoC6/ADC.h **** *
1335:Generated_Source\PSoC6/ADC.h **** * \param None
1336:Generated_Source\PSoC6/ADC.h **** *
1337:Generated_Source\PSoC6/ADC.h **** * \return None
1338:Generated_Source\PSoC6/ADC.h **** *
1339:Generated_Source\PSoC6/ADC.h **** * \sideeffect
1340:Generated_Source\PSoC6/ADC.h **** * Calling this function without previously calling ADC_Sleep() may lead to
1341:Generated_Source\PSoC6/ADC.h **** * unpredictable results.
1342:Generated_Source\PSoC6/ADC.h **** *
1343:Generated_Source\PSoC6/ADC.h **** * \globalvars
1344:Generated_Source\PSoC6/ADC.h **** *  \ref ADC_backup (R)
1345:Generated_Source\PSoC6/ADC.h **** *
1346:Generated_Source\PSoC6/ADC.h **** * \globalvars
1347:Generated_Source\PSoC6/ADC.h **** *  \ref ADC_backup
1348:Generated_Source\PSoC6/ADC.h **** *
1349:Generated_Source\PSoC6/ADC.h **** *******************************************************************************/
1350:Generated_Source\PSoC6/ADC.h **** __STATIC_INLINE void ADC_Wakeup(void)
1351:Generated_Source\PSoC6/ADC.h **** {
1352:Generated_Source\PSoC6/ADC.h ****     Cy_SAR_Wakeup(ADC_SAR__HW);
  55              		.loc 3 1352 0
  56 000c 2D48     		ldr	r0, .L5+4
  57 000e FFF7FEFF 		bl	Cy_SAR_Wakeup
  58              	.LVL2:
  59              	.LBE27:
  60              	.LBE26:
  88:temperature_eink.c ****     /* Variables used to store ADC counts, thermistor resistance and
  89:temperature_eink.c ****        the temperature */
  90:temperature_eink.c ****     int16_t countThermistor, countReference;
  91:temperature_eink.c ****     float rThermistor, temperature;
  92:temperature_eink.c ****     
  93:temperature_eink.c ****     /* Set the GPIO that drives the thermistor circuit */
  94:temperature_eink.c ****     Cy_GPIO_Set(THER_VDD_0_PORT,THER_VDD_0_NUM);
  95:temperature_eink.c ****     
  96:temperature_eink.c ****     /* Wake up the ADC and start conversion */
  97:temperature_eink.c ****     ADC_Wakeup();
  98:temperature_eink.c ****     ADC_StartConvert();
  61              		.loc 1 98 0
  62 0012 FFF7FEFF 		bl	ADC_StartConvert
  63              	.LVL3:
  99:temperature_eink.c ****     ADC_IsEndConversion(CY_SAR_WAIT_FOR_RESULT);
  64              		.loc 1 99 0
  65 0016 2046     		mov	r0, r4
  66 0018 FFF7FEFF 		bl	ADC_IsEndConversion
  67              	.LVL4:
  68              	.LBB28:
  69              	.LBB29:
 984:Generated_Source\PSoC6/ADC.h **** 
  70              		.loc 3 984 0
  71 001c 2A4B     		ldr	r3, .L5+8
  72 001e 1B68     		ldr	r3, [r3]
  73 0020 03EB8303 		add	r3, r3, r3, lsl #2
  74 0024 9A00     		lsls	r2, r3, #2
ARM GAS  C:\Users\codyg\AppData\Local\Temp\cctpv6eZ.s 			page 42


  75 0026 294B     		ldr	r3, .L5+12
  76 0028 1A44     		add	r2, r2, r3
  77 002a 5368     		ldr	r3, [r2, #4]
  78 002c 23B9     		cbnz	r3, .L2
  79 002e 4FF47671 		mov	r1, #984
  80 0032 2748     		ldr	r0, .L5+16
  81 0034 FFF7FEFF 		bl	Cy_SysLib_AssertFailed
  82              	.LVL5:
  83              	.L2:
 986:Generated_Source\PSoC6/ADC.h **** }
  84              		.loc 3 986 0
  85 0038 0021     		movs	r1, #0
  86 003a 2248     		ldr	r0, .L5+4
  87 003c FFF7FEFF 		bl	Cy_SAR_GetResult16
  88              	.LVL6:
  89 0040 08EE900A 		vmov	s17, r0	@ int
  90              	.LVL7:
  91              	.LBE29:
  92              	.LBE28:
  93              	.LBB30:
  94              	.LBB31:
 984:Generated_Source\PSoC6/ADC.h **** 
  95              		.loc 3 984 0
  96 0044 204B     		ldr	r3, .L5+8
  97 0046 1B68     		ldr	r3, [r3]
  98 0048 03EB8303 		add	r3, r3, r3, lsl #2
  99 004c 9A00     		lsls	r2, r3, #2
 100 004e 1F4B     		ldr	r3, .L5+12
 101 0050 1A44     		add	r2, r2, r3
 102 0052 5368     		ldr	r3, [r2, #4]
 103 0054 012B     		cmp	r3, #1
 104 0056 04D8     		bhi	.L3
 105 0058 4FF47671 		mov	r1, #984
 106 005c 1C48     		ldr	r0, .L5+16
 107 005e FFF7FEFF 		bl	Cy_SysLib_AssertFailed
 108              	.LVL8:
 109              	.L3:
 986:Generated_Source\PSoC6/ADC.h **** }
 110              		.loc 3 986 0
 111 0062 184C     		ldr	r4, .L5+4
 112 0064 0121     		movs	r1, #1
 113 0066 2046     		mov	r0, r4
 114 0068 FFF7FEFF 		bl	Cy_SAR_GetResult16
 115              	.LVL9:
 116 006c 08EE100A 		vmov	s16, r0	@ int
 117              	.LVL10:
 118              	.LBE31:
 119              	.LBE30:
 120              	.LBB32:
 121              	.LBB33:
1317:Generated_Source\PSoC6/ADC.h **** }
 122              		.loc 3 1317 0
 123 0070 2046     		mov	r0, r4
 124 0072 FFF7FEFF 		bl	Cy_SAR_Sleep
 125              	.LVL11:
 126              	.LBE33:
 127              	.LBE32:
ARM GAS  C:\Users\codyg\AppData\Local\Temp\cctpv6eZ.s 			page 43


 128              	.LBB34:
 129              	.LBB35:
 812:Generated_Source\PSoC6\pdl\drivers/peripheral/gpio/cy_gpio.h **** }
 813:Generated_Source\PSoC6\pdl\drivers/peripheral/gpio/cy_gpio.h **** 
 814:Generated_Source\PSoC6\pdl\drivers/peripheral/gpio/cy_gpio.h **** 
 815:Generated_Source\PSoC6\pdl\drivers/peripheral/gpio/cy_gpio.h **** /*******************************************************************************
 816:Generated_Source\PSoC6\pdl\drivers/peripheral/gpio/cy_gpio.h **** * Function Name: Cy_GPIO_Clr
 817:Generated_Source\PSoC6\pdl\drivers/peripheral/gpio/cy_gpio.h **** ****************************************************************************//**
 818:Generated_Source\PSoC6\pdl\drivers/peripheral/gpio/cy_gpio.h **** *
 819:Generated_Source\PSoC6\pdl\drivers/peripheral/gpio/cy_gpio.h **** * \brief Set a pin output to logic state Low.
 820:Generated_Source\PSoC6\pdl\drivers/peripheral/gpio/cy_gpio.h **** *
 821:Generated_Source\PSoC6\pdl\drivers/peripheral/gpio/cy_gpio.h **** * This function should be used only for software driven pins. It does not have
 822:Generated_Source\PSoC6\pdl\drivers/peripheral/gpio/cy_gpio.h **** * any effect on peripheral driven pins.
 823:Generated_Source\PSoC6\pdl\drivers/peripheral/gpio/cy_gpio.h **** *
 824:Generated_Source\PSoC6\pdl\drivers/peripheral/gpio/cy_gpio.h **** * \param base
 825:Generated_Source\PSoC6\pdl\drivers/peripheral/gpio/cy_gpio.h **** * Pointer to the pin's port register base address
 826:Generated_Source\PSoC6\pdl\drivers/peripheral/gpio/cy_gpio.h **** *
 827:Generated_Source\PSoC6\pdl\drivers/peripheral/gpio/cy_gpio.h **** * \param pinNum
 828:Generated_Source\PSoC6\pdl\drivers/peripheral/gpio/cy_gpio.h **** * Position of the pin bit-field within the port register
 829:Generated_Source\PSoC6\pdl\drivers/peripheral/gpio/cy_gpio.h **** *
 830:Generated_Source\PSoC6\pdl\drivers/peripheral/gpio/cy_gpio.h **** * \return
 831:Generated_Source\PSoC6\pdl\drivers/peripheral/gpio/cy_gpio.h **** * void
 832:Generated_Source\PSoC6\pdl\drivers/peripheral/gpio/cy_gpio.h **** *
 833:Generated_Source\PSoC6\pdl\drivers/peripheral/gpio/cy_gpio.h **** * \funcusage
 834:Generated_Source\PSoC6\pdl\drivers/peripheral/gpio/cy_gpio.h **** * \snippet gpio/gpio_v1_10_sut_01.cydsn/main_cm4.c snippet_Cy_GPIO_Clr
 835:Generated_Source\PSoC6\pdl\drivers/peripheral/gpio/cy_gpio.h **** *
 836:Generated_Source\PSoC6\pdl\drivers/peripheral/gpio/cy_gpio.h **** *******************************************************************************/
 837:Generated_Source\PSoC6\pdl\drivers/peripheral/gpio/cy_gpio.h **** __STATIC_INLINE void Cy_GPIO_Clr(GPIO_PRT_Type* base, uint32_t pinNum)
 838:Generated_Source\PSoC6\pdl\drivers/peripheral/gpio/cy_gpio.h **** {
 839:Generated_Source\PSoC6\pdl\drivers/peripheral/gpio/cy_gpio.h ****     CY_ASSERT_L2(CY_GPIO_IS_PIN_VALID(pinNum));
 840:Generated_Source\PSoC6\pdl\drivers/peripheral/gpio/cy_gpio.h ****     
 841:Generated_Source\PSoC6\pdl\drivers/peripheral/gpio/cy_gpio.h ****     base->OUT_CLR = CY_GPIO_OUT_MASK << pinNum;
 130              		.loc 2 841 0
 131 0076 0122     		movs	r2, #1
 132 0078 114B     		ldr	r3, .L5
 133 007a 5A60     		str	r2, [r3, #4]
 134              	.LVL12:
 135              	.LBE35:
 136              	.LBE34:
 100:temperature_eink.c ****     
 101:temperature_eink.c ****     /* Read the ADC count values */
 102:temperature_eink.c ****     countReference  = ADC_GetResult16(REFERENCE_CHANNEL);
 103:temperature_eink.c ****     countThermistor = ADC_GetResult16(THERMISTOR_CHANNEL);
 104:temperature_eink.c ****    
 105:temperature_eink.c ****     /* Put the ADC to sleep so that entering low power modes won't affect
 106:temperature_eink.c ****        the ADC operation */
 107:temperature_eink.c ****     ADC_Sleep();
 108:temperature_eink.c ****     
 109:temperature_eink.c ****     /* Clear the GPIO that drives the thermistor circuit, to save power */
 110:temperature_eink.c ****     Cy_GPIO_Clr(THER_VDD_0_PORT,THER_VDD_0_NUM);
 111:temperature_eink.c ****     
 112:temperature_eink.c ****     /* Calculate the thermistor resistance and the corresponding temperature */
 113:temperature_eink.c ****     rThermistor = (R_REFERENCE*countThermistor)/countReference;    
 137              		.loc 1 113 0
 138 007c B8EEC88A 		vcvt.f32.s32	s16, s16
 139 0080 DFED147A 		vldr.32	s15, .L5+20
 140 0084 28EE278A 		vmul.f32	s16, s16, s15
ARM GAS  C:\Users\codyg\AppData\Local\Temp\cctpv6eZ.s 			page 44


 141 0088 F8EEE88A 		vcvt.f32.s32	s17, s17
 142 008c 88EE287A 		vdiv.f32	s14, s16, s17
 143              	.LVL13:
 114:temperature_eink.c ****     temperature = (B_CONSTANT/(logf(rThermistor/R_INFINITY)))+ABSOLUTE_ZERO;
 144              		.loc 1 114 0
 145 0090 DFED117A 		vldr.32	s15, .L5+24
 146 0094 C7EE276A 		vdiv.f32	s13, s14, s15
 147 0098 16EE900A 		vmov	r0, s13
 148 009c FFF7FEFF 		bl	logf
 149              	.LVL14:
 150 00a0 DFED0E7A 		vldr.32	s15, .L5+28
 151 00a4 06EE900A 		vmov	s13, r0
 152 00a8 87EEA67A 		vdiv.f32	s14, s15, s13
 153              	.LVL15:
 115:temperature_eink.c ****     
 116:temperature_eink.c ****     /* Return the temperature value */
 117:temperature_eink.c ****     return temperature;
 118:temperature_eink.c **** }
 154              		.loc 1 118 0
 155 00ac DFED0C7A 		vldr.32	s15, .L5+32
 156 00b0 77EE677A 		vsub.f32	s15, s14, s15
 157              	.LVL16:
 158 00b4 17EE900A 		vmov	r0, s15
 159 00b8 BDEC028B 		vldm	sp!, {d8}
 160              		.cfi_restore 80
 161              		.cfi_restore 81
 162              		.cfi_def_cfa_offset 8
 163              	.LVL17:
 164 00bc 10BD     		pop	{r4, pc}
 165              	.L6:
 166 00be 00BF     		.align	2
 167              	.L5:
 168 00c0 00053240 		.word	1077019904
 169 00c4 00001D41 		.word	1092419584
 170 00c8 00000000 		.word	ADC_currentConfig
 171 00cc 00000000 		.word	ADC_allConfigs
 172 00d0 00000000 		.word	.LC0
 173 00d4 00401C46 		.word	1176256512
 174 00d8 F54BF43D 		.word	1039420405
 175 00dc 00405345 		.word	1163083776
 176 00e0 33938843 		.word	1133024051
 177              		.cfi_endproc
 178              	.LFE523:
 179              		.size	GetTemperature, .-GetTemperature
 180              		.section	.text.InitTemperature,"ax",%progbits
 181              		.align	2
 182              		.global	InitTemperature
 183              		.thumb
 184              		.thumb_func
 185              		.type	InitTemperature, %function
 186              	InitTemperature:
 187              	.LFB524:
 119:temperature_eink.c **** 
 120:temperature_eink.c **** /*******************************************************************************
 121:temperature_eink.c **** * Function Name: void InitTemperature(void)
 122:temperature_eink.c **** ********************************************************************************
 123:temperature_eink.c **** * Summary:
ARM GAS  C:\Users\codyg\AppData\Local\Temp\cctpv6eZ.s 			page 45


 124:temperature_eink.c **** *  This function initializes the components used for temperature sensing
 125:temperature_eink.c **** *
 126:temperature_eink.c **** * Parameters:
 127:temperature_eink.c **** *  void
 128:temperature_eink.c **** *
 129:temperature_eink.c **** * Return:
 130:temperature_eink.c **** *  None
 131:temperature_eink.c **** *
 132:temperature_eink.c **** *******************************************************************************/
 133:temperature_eink.c **** void InitTemperature(void)
 134:temperature_eink.c **** {
 188              		.loc 1 134 0
 189              		.cfi_startproc
 190              		@ args = 0, pretend = 0, frame = 0
 191              		@ frame_needed = 0, uses_anonymous_args = 0
 192 0000 08B5     		push	{r3, lr}
 193              		.cfi_def_cfa_offset 8
 194              		.cfi_offset 3, -8
 195              		.cfi_offset 14, -4
 135:temperature_eink.c ****     /* Initialize the ADC and put it to sleep so that entering low power modes
 136:temperature_eink.c ****        won't affect the ADC operation */
 137:temperature_eink.c ****     ADC_Start();
 196              		.loc 1 137 0
 197 0002 FFF7FEFF 		bl	ADC_Start
 198              	.LVL18:
 199              	.LBB36:
 200              	.LBB37:
1317:Generated_Source\PSoC6/ADC.h **** }
 201              		.loc 3 1317 0
 202 0006 0248     		ldr	r0, .L9
 203 0008 FFF7FEFF 		bl	Cy_SAR_Sleep
 204              	.LVL19:
 205 000c 08BD     		pop	{r3, pc}
 206              	.L10:
 207 000e 00BF     		.align	2
 208              	.L9:
 209 0010 00001D41 		.word	1092419584
 210              	.LBE37:
 211              	.LBE36:
 212              		.cfi_endproc
 213              	.LFE524:
 214              		.size	InitTemperature, .-InitTemperature
 215              		.section	.rodata.str1.4,"aMS",%progbits,1
 216              		.align	2
 217              	.LC0:
 218 0000 47656E65 		.ascii	"Generated_Source\\PSoC6/ADC.h\000"
 218      72617465 
 218      645F536F 
 218      75726365 
 218      5C50536F 
 219              		.text
 220              	.Letext0:
 221              		.file 4 "c:\\program files (x86)\\cypress\\psoc creator\\4.2\\psoc creator\\import\\gnu\\arm\\5.4.
 222              		.file 5 "c:\\program files (x86)\\cypress\\psoc creator\\4.2\\psoc creator\\import\\gnu\\arm\\5.4.
 223              		.file 6 "Generated_Source\\PSoC6\\pdl\\devices/psoc6/ip/cyip_gpio.h"
 224              		.file 7 "Generated_Source\\PSoC6\\pdl\\devices/psoc6/ip/cyip_sar.h"
 225              		.file 8 "Generated_Source\\PSoC6\\pdl\\drivers/peripheral/syslib/cy_syslib.h"
ARM GAS  C:\Users\codyg\AppData\Local\Temp\cctpv6eZ.s 			page 46


 226              		.file 9 "Generated_Source\\PSoC6\\pdl\\drivers/peripheral/scb/cy_scb_spi.h"
 227              		.file 10 "Generated_Source\\PSoC6\\pdl\\drivers/peripheral/sar/cy_sar.h"
 228              		.file 11 "Generated_Source\\PSoC6\\pdl\\middleware/ble/cy_ble_stack_host_main.h"
 229              		.file 12 "Generated_Source\\PSoC6\\pdl\\middleware/ble/cy_ble_gap.h"
 230              		.file 13 "Generated_Source\\PSoC6\\pdl\\cmsis/include/core_cm4.h"
 231              		.file 14 "Generated_Source\\PSoC6/CY_EINK_SPIM.h"
 232              		.file 15 "c:\\program files (x86)\\cypress\\psoc creator\\4.2\\psoc creator\\import\\gnu\\arm\\5.4