ARM GAS  C:\Users\codyg\AppData\Local\Temp\ccLTRIO4.s 			page 1


   1              		.syntax unified
   2              		.cpu cortex-m4
   3              		.eabi_attribute 27, 1
   4              		.fpu fpv4-sp-d16
   5              		.eabi_attribute 20, 1
   6              		.eabi_attribute 21, 1
   7              		.eabi_attribute 23, 3
   8              		.eabi_attribute 24, 1
   9              		.eabi_attribute 25, 1
  10              		.eabi_attribute 26, 1
  11              		.eabi_attribute 30, 1
  12              		.eabi_attribute 34, 1
  13              		.eabi_attribute 18, 4
  14              		.thumb
  15              		.syntax unified
  16              		.file	"cy_ble_dis.c"
  17              		.text
  18              	.Ltext0:
  19              		.cfi_sections	.debug_frame
  20              		.section	.text.Cy_BLE_DIS_EventHandler,"ax",%progbits
  21              		.align	2
  22              		.thumb
  23              		.thumb_func
  24              		.type	Cy_BLE_DIS_EventHandler, %function
  25              	Cy_BLE_DIS_EventHandler:
  26              	.LFB289:
  27              		.file 1 "Generated_Source\\PSoC6\\pdl\\middleware\\ble\\cy_ble_dis.c"
   1:Generated_Source\PSoC6\pdl\middleware\ble/cy_ble_dis.c **** /***************************************************************************//**
   2:Generated_Source\PSoC6\pdl\middleware\ble/cy_ble_dis.c **** * \file cy_ble_dis.c
   3:Generated_Source\PSoC6\pdl\middleware\ble/cy_ble_dis.c **** * \version 2.0
   4:Generated_Source\PSoC6\pdl\middleware\ble/cy_ble_dis.c **** *
   5:Generated_Source\PSoC6\pdl\middleware\ble/cy_ble_dis.c **** * \brief
   6:Generated_Source\PSoC6\pdl\middleware\ble/cy_ble_dis.c **** *  Contains the source code for the Device Information Service.
   7:Generated_Source\PSoC6\pdl\middleware\ble/cy_ble_dis.c **** *
   8:Generated_Source\PSoC6\pdl\middleware\ble/cy_ble_dis.c **** ********************************************************************************
   9:Generated_Source\PSoC6\pdl\middleware\ble/cy_ble_dis.c **** * \copyright
  10:Generated_Source\PSoC6\pdl\middleware\ble/cy_ble_dis.c **** * Copyright 2017-2018, Cypress Semiconductor Corporation.  All rights reserved.
  11:Generated_Source\PSoC6\pdl\middleware\ble/cy_ble_dis.c **** * You may use this file only in accordance with the license, terms, conditions,
  12:Generated_Source\PSoC6\pdl\middleware\ble/cy_ble_dis.c **** * disclaimers, and limitations in the end user license agreement accompanying
  13:Generated_Source\PSoC6\pdl\middleware\ble/cy_ble_dis.c **** * the software package with which this file was provided.
  14:Generated_Source\PSoC6\pdl\middleware\ble/cy_ble_dis.c **** *******************************************************************************/
  15:Generated_Source\PSoC6\pdl\middleware\ble/cy_ble_dis.c **** 
  16:Generated_Source\PSoC6\pdl\middleware\ble/cy_ble_dis.c **** 
  17:Generated_Source\PSoC6\pdl\middleware\ble/cy_ble_dis.c **** #include "cy_ble_event_handler.h"
  18:Generated_Source\PSoC6\pdl\middleware\ble/cy_ble_dis.c **** 
  19:Generated_Source\PSoC6\pdl\middleware\ble/cy_ble_dis.c **** /* C binding of definitions if building with C++ compiler */
  20:Generated_Source\PSoC6\pdl\middleware\ble/cy_ble_dis.c **** #ifdef __cplusplus
  21:Generated_Source\PSoC6\pdl\middleware\ble/cy_ble_dis.c **** extern "C" {
  22:Generated_Source\PSoC6\pdl\middleware\ble/cy_ble_dis.c **** #endif /* __cplusplus */
  23:Generated_Source\PSoC6\pdl\middleware\ble/cy_ble_dis.c **** 
  24:Generated_Source\PSoC6\pdl\middleware\ble/cy_ble_dis.c **** #if (CY_BLE_MODE_PROFILE && defined(CY_BLE_DIS))
  25:Generated_Source\PSoC6\pdl\middleware\ble/cy_ble_dis.c **** 
  26:Generated_Source\PSoC6\pdl\middleware\ble/cy_ble_dis.c **** #ifdef CY_BLE_DIS_CLIENT
  27:Generated_Source\PSoC6\pdl\middleware\ble/cy_ble_dis.c **** /* DIS Center Service characteristics GATT DB handles structure */
  28:Generated_Source\PSoC6\pdl\middleware\ble/cy_ble_dis.c **** cy_stc_ble_disc_t cy_ble_disc[CY_BLE_GATTC_COUNT];
  29:Generated_Source\PSoC6\pdl\middleware\ble/cy_ble_dis.c **** 
  30:Generated_Source\PSoC6\pdl\middleware\ble/cy_ble_dis.c **** /* The internal storage for the last request handle to check response */
ARM GAS  C:\Users\codyg\AppData\Local\Temp\ccLTRIO4.s 			page 2


  31:Generated_Source\PSoC6\pdl\middleware\ble/cy_ble_dis.c **** static cy_ble_gatt_db_attr_handle_t cy_ble_discReqHandle[CY_BLE_GATTC_COUNT];
  32:Generated_Source\PSoC6\pdl\middleware\ble/cy_ble_dis.c **** static cy_ble_callback_t Cy_BLE_DIS_ApplCallback = NULL;
  33:Generated_Source\PSoC6\pdl\middleware\ble/cy_ble_dis.c **** #endif /* (CY_BLE_DIS_CLIENT) */
  34:Generated_Source\PSoC6\pdl\middleware\ble/cy_ble_dis.c **** 
  35:Generated_Source\PSoC6\pdl\middleware\ble/cy_ble_dis.c **** 
  36:Generated_Source\PSoC6\pdl\middleware\ble/cy_ble_dis.c **** /* The pointer on global BLE DIS Config structure */
  37:Generated_Source\PSoC6\pdl\middleware\ble/cy_ble_dis.c **** cy_stc_ble_dis_config_t *cy_ble_disConfigPtr = NULL;
  38:Generated_Source\PSoC6\pdl\middleware\ble/cy_ble_dis.c **** 
  39:Generated_Source\PSoC6\pdl\middleware\ble/cy_ble_dis.c **** /***************************************
  40:Generated_Source\PSoC6\pdl\middleware\ble/cy_ble_dis.c **** * Private Function Prototypes
  41:Generated_Source\PSoC6\pdl\middleware\ble/cy_ble_dis.c **** ***************************************/
  42:Generated_Source\PSoC6\pdl\middleware\ble/cy_ble_dis.c **** #ifdef CY_BLE_DIS_CLIENT
  43:Generated_Source\PSoC6\pdl\middleware\ble/cy_ble_dis.c **** static void Cy_BLE_DISC_DiscoverCharacteristicsEventHandler(cy_stc_ble_disc_char_info_t *discCharIn
  44:Generated_Source\PSoC6\pdl\middleware\ble/cy_ble_dis.c **** static void Cy_BLE_DISC_ReadResponseEventHandler(cy_stc_ble_gattc_read_rsp_param_t *eventParam);
  45:Generated_Source\PSoC6\pdl\middleware\ble/cy_ble_dis.c **** static void Cy_BLE_DISC_ErrorResponseEventHandler(const cy_stc_ble_gatt_err_param_t *eventParam);
  46:Generated_Source\PSoC6\pdl\middleware\ble/cy_ble_dis.c **** #endif /* (CY_BLE_DIS_CLIENT) */
  47:Generated_Source\PSoC6\pdl\middleware\ble/cy_ble_dis.c **** static cy_en_ble_gatt_err_code_t Cy_BLE_DIS_EventHandler(uint32_t eventCode, void *eventParam);
  48:Generated_Source\PSoC6\pdl\middleware\ble/cy_ble_dis.c **** 
  49:Generated_Source\PSoC6\pdl\middleware\ble/cy_ble_dis.c **** 
  50:Generated_Source\PSoC6\pdl\middleware\ble/cy_ble_dis.c **** /******************************************************************************
  51:Generated_Source\PSoC6\pdl\middleware\ble/cy_ble_dis.c **** * Function Name: Cy_BLE_DIS_Init
  52:Generated_Source\PSoC6\pdl\middleware\ble/cy_ble_dis.c **** ***************************************************************************//**
  53:Generated_Source\PSoC6\pdl\middleware\ble/cy_ble_dis.c **** *
  54:Generated_Source\PSoC6\pdl\middleware\ble/cy_ble_dis.c **** *  This function initializes the Device Information Service.
  55:Generated_Source\PSoC6\pdl\middleware\ble/cy_ble_dis.c **** *
  56:Generated_Source\PSoC6\pdl\middleware\ble/cy_ble_dis.c **** *  \param config: Configuration structure for the Device Information Service.
  57:Generated_Source\PSoC6\pdl\middleware\ble/cy_ble_dis.c **** *
  58:Generated_Source\PSoC6\pdl\middleware\ble/cy_ble_dis.c **** *  \return
  59:Generated_Source\PSoC6\pdl\middleware\ble/cy_ble_dis.c **** *  \ref cy_en_ble_api_result_t : Return value indicates if the function succeeded or
  60:Generated_Source\PSoC6\pdl\middleware\ble/cy_ble_dis.c **** *  failed. The following are possible error codes.
  61:Generated_Source\PSoC6\pdl\middleware\ble/cy_ble_dis.c **** *
  62:Generated_Source\PSoC6\pdl\middleware\ble/cy_ble_dis.c **** *   Error Codes                             | Description
  63:Generated_Source\PSoC6\pdl\middleware\ble/cy_ble_dis.c **** *   ------------                            | -----------
  64:Generated_Source\PSoC6\pdl\middleware\ble/cy_ble_dis.c **** *   CY_BLE_SUCCESS                          | The function completed successfully.
  65:Generated_Source\PSoC6\pdl\middleware\ble/cy_ble_dis.c **** *   CY_BLE_ERROR_INVALID_PARAMETER          | On specifying NULL as input parameter
  66:Generated_Source\PSoC6\pdl\middleware\ble/cy_ble_dis.c **** *   CY_BLE_ERROR_MEMORY_ALLOCATION_FAILED   | Buffer overflow in the registration callback.
  67:Generated_Source\PSoC6\pdl\middleware\ble/cy_ble_dis.c **** *
  68:Generated_Source\PSoC6\pdl\middleware\ble/cy_ble_dis.c **** ******************************************************************************/
  69:Generated_Source\PSoC6\pdl\middleware\ble/cy_ble_dis.c **** cy_en_ble_api_result_t Cy_BLE_DIS_Init(cy_stc_ble_dis_config_t *config)
  70:Generated_Source\PSoC6\pdl\middleware\ble/cy_ble_dis.c **** {
  71:Generated_Source\PSoC6\pdl\middleware\ble/cy_ble_dis.c ****     cy_en_ble_api_result_t apiResult;
  72:Generated_Source\PSoC6\pdl\middleware\ble/cy_ble_dis.c **** 
  73:Generated_Source\PSoC6\pdl\middleware\ble/cy_ble_dis.c ****     if(config == NULL)
  74:Generated_Source\PSoC6\pdl\middleware\ble/cy_ble_dis.c ****     {
  75:Generated_Source\PSoC6\pdl\middleware\ble/cy_ble_dis.c ****         apiResult = CY_BLE_ERROR_INVALID_PARAMETER;
  76:Generated_Source\PSoC6\pdl\middleware\ble/cy_ble_dis.c ****     }
  77:Generated_Source\PSoC6\pdl\middleware\ble/cy_ble_dis.c ****     else
  78:Generated_Source\PSoC6\pdl\middleware\ble/cy_ble_dis.c ****     {
  79:Generated_Source\PSoC6\pdl\middleware\ble/cy_ble_dis.c ****         /* Registers a pointer to config structure */
  80:Generated_Source\PSoC6\pdl\middleware\ble/cy_ble_dis.c ****         cy_ble_disConfigPtr = config;
  81:Generated_Source\PSoC6\pdl\middleware\ble/cy_ble_dis.c **** 
  82:Generated_Source\PSoC6\pdl\middleware\ble/cy_ble_dis.c ****         /* Registers Event Handler for the DIS Service */
  83:Generated_Source\PSoC6\pdl\middleware\ble/cy_ble_dis.c ****         apiResult = Cy_BLE_RegisterServiceEventHandler(&Cy_BLE_DIS_EventHandler);
  84:Generated_Source\PSoC6\pdl\middleware\ble/cy_ble_dis.c **** 
  85:Generated_Source\PSoC6\pdl\middleware\ble/cy_ble_dis.c **** 
  86:Generated_Source\PSoC6\pdl\middleware\ble/cy_ble_dis.c ****     #ifdef CY_BLE_DIS_CLIENT
  87:Generated_Source\PSoC6\pdl\middleware\ble/cy_ble_dis.c ****         {
ARM GAS  C:\Users\codyg\AppData\Local\Temp\ccLTRIO4.s 			page 3


  88:Generated_Source\PSoC6\pdl\middleware\ble/cy_ble_dis.c ****             uint32_t idx;
  89:Generated_Source\PSoC6\pdl\middleware\ble/cy_ble_dis.c ****             for(idx = 0u; idx < CY_BLE_GATTC_COUNT; idx++)
  90:Generated_Source\PSoC6\pdl\middleware\ble/cy_ble_dis.c ****             {
  91:Generated_Source\PSoC6\pdl\middleware\ble/cy_ble_dis.c ****                 if(cy_ble_serverInfo[idx][CY_BLE_SRVI_DIS].range.startHandle == CY_BLE_GATT_INVALID
  92:Generated_Source\PSoC6\pdl\middleware\ble/cy_ble_dis.c ****                 {
  93:Generated_Source\PSoC6\pdl\middleware\ble/cy_ble_dis.c ****                     (void)memset(&cy_ble_disc[idx], 0, sizeof(cy_stc_ble_disc_t));
  94:Generated_Source\PSoC6\pdl\middleware\ble/cy_ble_dis.c **** 
  95:Generated_Source\PSoC6\pdl\middleware\ble/cy_ble_dis.c ****                     /* initialize uuid  */
  96:Generated_Source\PSoC6\pdl\middleware\ble/cy_ble_dis.c ****                     cy_ble_serverInfo[idx][CY_BLE_SRVI_DIS].uuid = CY_BLE_UUID_DEVICE_INFO_SERVICE;
  97:Generated_Source\PSoC6\pdl\middleware\ble/cy_ble_dis.c ****                 }
  98:Generated_Source\PSoC6\pdl\middleware\ble/cy_ble_dis.c ****                 cy_ble_discReqHandle[idx] = CY_BLE_GATT_INVALID_ATTR_HANDLE_VALUE;
  99:Generated_Source\PSoC6\pdl\middleware\ble/cy_ble_dis.c ****             }
 100:Generated_Source\PSoC6\pdl\middleware\ble/cy_ble_dis.c ****             /* Registers a callback function via config structure*/
 101:Generated_Source\PSoC6\pdl\middleware\ble/cy_ble_dis.c ****             if(cy_ble_disConfigPtr->callbackFunc != NULL)
 102:Generated_Source\PSoC6\pdl\middleware\ble/cy_ble_dis.c ****             {
 103:Generated_Source\PSoC6\pdl\middleware\ble/cy_ble_dis.c ****                 Cy_BLE_DIS_ApplCallback = cy_ble_disConfigPtr->callbackFunc;
 104:Generated_Source\PSoC6\pdl\middleware\ble/cy_ble_dis.c ****             }
 105:Generated_Source\PSoC6\pdl\middleware\ble/cy_ble_dis.c ****         }
 106:Generated_Source\PSoC6\pdl\middleware\ble/cy_ble_dis.c ****     #endif /* CY_BLE_DIS_CLIENT */
 107:Generated_Source\PSoC6\pdl\middleware\ble/cy_ble_dis.c ****     }
 108:Generated_Source\PSoC6\pdl\middleware\ble/cy_ble_dis.c **** 
 109:Generated_Source\PSoC6\pdl\middleware\ble/cy_ble_dis.c ****     return(apiResult);
 110:Generated_Source\PSoC6\pdl\middleware\ble/cy_ble_dis.c **** }
 111:Generated_Source\PSoC6\pdl\middleware\ble/cy_ble_dis.c **** 
 112:Generated_Source\PSoC6\pdl\middleware\ble/cy_ble_dis.c **** 
 113:Generated_Source\PSoC6\pdl\middleware\ble/cy_ble_dis.c **** /******************************************************************************
 114:Generated_Source\PSoC6\pdl\middleware\ble/cy_ble_dis.c **** * Function Name: Cy_BLE_DIS_RegisterAttrCallback
 115:Generated_Source\PSoC6\pdl\middleware\ble/cy_ble_dis.c **** ***************************************************************************//**
 116:Generated_Source\PSoC6\pdl\middleware\ble/cy_ble_dis.c **** *
 117:Generated_Source\PSoC6\pdl\middleware\ble/cy_ble_dis.c **** *  Registers a callback function for service-specific attribute operations.
 118:Generated_Source\PSoC6\pdl\middleware\ble/cy_ble_dis.c **** *  Callback doesn't have events in server role.
 119:Generated_Source\PSoC6\pdl\middleware\ble/cy_ble_dis.c **** *
 120:Generated_Source\PSoC6\pdl\middleware\ble/cy_ble_dis.c **** *  \param callbackFunc: An application layer event callback function to receive
 121:Generated_Source\PSoC6\pdl\middleware\ble/cy_ble_dis.c **** *                    events from the BLE Middleware. The definition of
 122:Generated_Source\PSoC6\pdl\middleware\ble/cy_ble_dis.c **** *                    cy_ble_callback_t for Device Information Service is:\n
 123:Generated_Source\PSoC6\pdl\middleware\ble/cy_ble_dis.c **** *                    typedef void (* cy_ble_callback_t) (uint32_t eventCode,
 124:Generated_Source\PSoC6\pdl\middleware\ble/cy_ble_dis.c **** *                                                       void *eventParam)
 125:Generated_Source\PSoC6\pdl\middleware\ble/cy_ble_dis.c **** *                    * eventCode indicates the event that triggered this
 126:Generated_Source\PSoC6\pdl\middleware\ble/cy_ble_dis.c **** *                      callback.
 127:Generated_Source\PSoC6\pdl\middleware\ble/cy_ble_dis.c **** *                    * eventParam contains the parameters corresponding to the
 128:Generated_Source\PSoC6\pdl\middleware\ble/cy_ble_dis.c **** *                      current event.
 129:Generated_Source\PSoC6\pdl\middleware\ble/cy_ble_dis.c **** *
 130:Generated_Source\PSoC6\pdl\middleware\ble/cy_ble_dis.c **** *  \return
 131:Generated_Source\PSoC6\pdl\middleware\ble/cy_ble_dis.c **** *  cy_en_ble_api_result_t : Return value indicates if the function succeeded or
 132:Generated_Source\PSoC6\pdl\middleware\ble/cy_ble_dis.c **** *  failed. The following are possible error codes:
 133:Generated_Source\PSoC6\pdl\middleware\ble/cy_ble_dis.c **** *
 134:Generated_Source\PSoC6\pdl\middleware\ble/cy_ble_dis.c **** *   Error Codes                             | Description
 135:Generated_Source\PSoC6\pdl\middleware\ble/cy_ble_dis.c **** *   ------------                            | -----------
 136:Generated_Source\PSoC6\pdl\middleware\ble/cy_ble_dis.c **** *   CY_BLE_SUCCESS                          | The function completed successfully.
 137:Generated_Source\PSoC6\pdl\middleware\ble/cy_ble_dis.c **** *   CY_BLE_ERROR_INVALID_OPERATION          | This operation is not permitted
 138:Generated_Source\PSoC6\pdl\middleware\ble/cy_ble_dis.c **** *
 139:Generated_Source\PSoC6\pdl\middleware\ble/cy_ble_dis.c **** ******************************************************************************/
 140:Generated_Source\PSoC6\pdl\middleware\ble/cy_ble_dis.c **** cy_en_ble_api_result_t Cy_BLE_DIS_RegisterAttrCallback(cy_ble_callback_t callbackFunc)
 141:Generated_Source\PSoC6\pdl\middleware\ble/cy_ble_dis.c **** { 
 142:Generated_Source\PSoC6\pdl\middleware\ble/cy_ble_dis.c ****     cy_en_ble_api_result_t apiResult = CY_BLE_SUCCESS;
 143:Generated_Source\PSoC6\pdl\middleware\ble/cy_ble_dis.c ****     
 144:Generated_Source\PSoC6\pdl\middleware\ble/cy_ble_dis.c **** #ifdef CY_BLE_DIS_CLIENT
ARM GAS  C:\Users\codyg\AppData\Local\Temp\ccLTRIO4.s 			page 4


 145:Generated_Source\PSoC6\pdl\middleware\ble/cy_ble_dis.c ****     Cy_BLE_DIS_ApplCallback = callbackFunc;
 146:Generated_Source\PSoC6\pdl\middleware\ble/cy_ble_dis.c ****     if(cy_ble_disConfigPtr != NULL)
 147:Generated_Source\PSoC6\pdl\middleware\ble/cy_ble_dis.c ****     {
 148:Generated_Source\PSoC6\pdl\middleware\ble/cy_ble_dis.c ****         cy_ble_disConfigPtr->callbackFunc = callbackFunc;
 149:Generated_Source\PSoC6\pdl\middleware\ble/cy_ble_dis.c ****     }
 150:Generated_Source\PSoC6\pdl\middleware\ble/cy_ble_dis.c ****     else
 151:Generated_Source\PSoC6\pdl\middleware\ble/cy_ble_dis.c ****     {
 152:Generated_Source\PSoC6\pdl\middleware\ble/cy_ble_dis.c ****         apiResult = CY_BLE_ERROR_INVALID_OPERATION;
 153:Generated_Source\PSoC6\pdl\middleware\ble/cy_ble_dis.c ****     }
 154:Generated_Source\PSoC6\pdl\middleware\ble/cy_ble_dis.c **** #else
 155:Generated_Source\PSoC6\pdl\middleware\ble/cy_ble_dis.c ****     if(callbackFunc != NULL) /* Callback doesn't have events in server role */
 156:Generated_Source\PSoC6\pdl\middleware\ble/cy_ble_dis.c ****     {
 157:Generated_Source\PSoC6\pdl\middleware\ble/cy_ble_dis.c ****     }
 158:Generated_Source\PSoC6\pdl\middleware\ble/cy_ble_dis.c **** #endif /* CY_BLE_DIS_CLIENT */  
 159:Generated_Source\PSoC6\pdl\middleware\ble/cy_ble_dis.c ****     return(apiResult);  
 160:Generated_Source\PSoC6\pdl\middleware\ble/cy_ble_dis.c **** }
 161:Generated_Source\PSoC6\pdl\middleware\ble/cy_ble_dis.c **** 
 162:Generated_Source\PSoC6\pdl\middleware\ble/cy_ble_dis.c **** #ifdef CY_BLE_DIS_SERVER
 163:Generated_Source\PSoC6\pdl\middleware\ble/cy_ble_dis.c **** 
 164:Generated_Source\PSoC6\pdl\middleware\ble/cy_ble_dis.c **** 
 165:Generated_Source\PSoC6\pdl\middleware\ble/cy_ble_dis.c **** /******************************************************************************
 166:Generated_Source\PSoC6\pdl\middleware\ble/cy_ble_dis.c **** * Function Name: Cy_BLE_DISS_SetCharacteristicValue
 167:Generated_Source\PSoC6\pdl\middleware\ble/cy_ble_dis.c **** ***************************************************************************//**
 168:Generated_Source\PSoC6\pdl\middleware\ble/cy_ble_dis.c **** *
 169:Generated_Source\PSoC6\pdl\middleware\ble/cy_ble_dis.c **** *  Sets a characteristic value of the service, which is identified by charIndex,
 170:Generated_Source\PSoC6\pdl\middleware\ble/cy_ble_dis.c **** *  to the local database.
 171:Generated_Source\PSoC6\pdl\middleware\ble/cy_ble_dis.c **** *
 172:Generated_Source\PSoC6\pdl\middleware\ble/cy_ble_dis.c **** *
 173:Generated_Source\PSoC6\pdl\middleware\ble/cy_ble_dis.c **** *  \param charIndex: The index of a service characteristic.
 174:Generated_Source\PSoC6\pdl\middleware\ble/cy_ble_dis.c **** *  \param attrSize: The size of the characteristic value attribute.
 175:Generated_Source\PSoC6\pdl\middleware\ble/cy_ble_dis.c **** *  \param *attrValue: The pointer to the characteristic value data that should be
 176:Generated_Source\PSoC6\pdl\middleware\ble/cy_ble_dis.c **** *                   stored to the GATT database.
 177:Generated_Source\PSoC6\pdl\middleware\ble/cy_ble_dis.c **** *
 178:Generated_Source\PSoC6\pdl\middleware\ble/cy_ble_dis.c **** * \return
 179:Generated_Source\PSoC6\pdl\middleware\ble/cy_ble_dis.c **** *  A return value of type cy_en_ble_api_result_t.
 180:Generated_Source\PSoC6\pdl\middleware\ble/cy_ble_dis.c **** *  * CY_BLE_SUCCESS - The request was handled successfully
 181:Generated_Source\PSoC6\pdl\middleware\ble/cy_ble_dis.c **** *  * CY_BLE_ERROR_INVALID_PARAMETER - Validation of the input parameter failed
 182:Generated_Source\PSoC6\pdl\middleware\ble/cy_ble_dis.c **** *
 183:Generated_Source\PSoC6\pdl\middleware\ble/cy_ble_dis.c **** ******************************************************************************/
 184:Generated_Source\PSoC6\pdl\middleware\ble/cy_ble_dis.c **** cy_en_ble_api_result_t Cy_BLE_DISS_SetCharacteristicValue(cy_en_ble_dis_char_index_t charIndex,
 185:Generated_Source\PSoC6\pdl\middleware\ble/cy_ble_dis.c ****                                                           uint8_t attrSize,
 186:Generated_Source\PSoC6\pdl\middleware\ble/cy_ble_dis.c ****                                                           uint8_t *attrValue)
 187:Generated_Source\PSoC6\pdl\middleware\ble/cy_ble_dis.c **** {
 188:Generated_Source\PSoC6\pdl\middleware\ble/cy_ble_dis.c ****     cy_en_ble_api_result_t apiResult = CY_BLE_SUCCESS;
 189:Generated_Source\PSoC6\pdl\middleware\ble/cy_ble_dis.c **** 
 190:Generated_Source\PSoC6\pdl\middleware\ble/cy_ble_dis.c ****     if(charIndex >= CY_BLE_DIS_CHAR_COUNT)
 191:Generated_Source\PSoC6\pdl\middleware\ble/cy_ble_dis.c ****     {
 192:Generated_Source\PSoC6\pdl\middleware\ble/cy_ble_dis.c ****         apiResult = CY_BLE_ERROR_INVALID_PARAMETER;
 193:Generated_Source\PSoC6\pdl\middleware\ble/cy_ble_dis.c ****     }
 194:Generated_Source\PSoC6\pdl\middleware\ble/cy_ble_dis.c ****     else
 195:Generated_Source\PSoC6\pdl\middleware\ble/cy_ble_dis.c ****     {
 196:Generated_Source\PSoC6\pdl\middleware\ble/cy_ble_dis.c ****         /* Store data in database */
 197:Generated_Source\PSoC6\pdl\middleware\ble/cy_ble_dis.c ****         cy_stc_ble_gatts_db_attr_val_info_t dbAttrValInfo =
 198:Generated_Source\PSoC6\pdl\middleware\ble/cy_ble_dis.c ****         {
 199:Generated_Source\PSoC6\pdl\middleware\ble/cy_ble_dis.c ****             .handleValuePair.attrHandle = cy_ble_disConfigPtr->diss->charHandle[charIndex],
 200:Generated_Source\PSoC6\pdl\middleware\ble/cy_ble_dis.c ****             .handleValuePair.value.len  = attrSize,
 201:Generated_Source\PSoC6\pdl\middleware\ble/cy_ble_dis.c ****             .handleValuePair.value.val  = attrValue,
ARM GAS  C:\Users\codyg\AppData\Local\Temp\ccLTRIO4.s 			page 5


 202:Generated_Source\PSoC6\pdl\middleware\ble/cy_ble_dis.c ****             .offset                     = 0u,
 203:Generated_Source\PSoC6\pdl\middleware\ble/cy_ble_dis.c ****             .flags                      = CY_BLE_GATT_DB_LOCALLY_INITIATED
 204:Generated_Source\PSoC6\pdl\middleware\ble/cy_ble_dis.c ****         };
 205:Generated_Source\PSoC6\pdl\middleware\ble/cy_ble_dis.c **** 
 206:Generated_Source\PSoC6\pdl\middleware\ble/cy_ble_dis.c ****         if(Cy_BLE_GATTS_WriteAttributeValueCCCD(&dbAttrValInfo) != CY_BLE_GATT_ERR_NONE)
 207:Generated_Source\PSoC6\pdl\middleware\ble/cy_ble_dis.c ****         {
 208:Generated_Source\PSoC6\pdl\middleware\ble/cy_ble_dis.c ****             apiResult = CY_BLE_ERROR_INVALID_PARAMETER;
 209:Generated_Source\PSoC6\pdl\middleware\ble/cy_ble_dis.c ****         }
 210:Generated_Source\PSoC6\pdl\middleware\ble/cy_ble_dis.c ****     }
 211:Generated_Source\PSoC6\pdl\middleware\ble/cy_ble_dis.c **** 
 212:Generated_Source\PSoC6\pdl\middleware\ble/cy_ble_dis.c ****     return(apiResult);
 213:Generated_Source\PSoC6\pdl\middleware\ble/cy_ble_dis.c **** }
 214:Generated_Source\PSoC6\pdl\middleware\ble/cy_ble_dis.c **** 
 215:Generated_Source\PSoC6\pdl\middleware\ble/cy_ble_dis.c **** 
 216:Generated_Source\PSoC6\pdl\middleware\ble/cy_ble_dis.c **** /******************************************************************************
 217:Generated_Source\PSoC6\pdl\middleware\ble/cy_ble_dis.c **** * Function Name: Cy_BLE_DISS_GetCharacteristicValue
 218:Generated_Source\PSoC6\pdl\middleware\ble/cy_ble_dis.c **** ***************************************************************************//**
 219:Generated_Source\PSoC6\pdl\middleware\ble/cy_ble_dis.c **** *
 220:Generated_Source\PSoC6\pdl\middleware\ble/cy_ble_dis.c **** *  Gets a characteristic value of the service, which is identified by charIndex,
 221:Generated_Source\PSoC6\pdl\middleware\ble/cy_ble_dis.c **** *  from the GATT database.
 222:Generated_Source\PSoC6\pdl\middleware\ble/cy_ble_dis.c **** *
 223:Generated_Source\PSoC6\pdl\middleware\ble/cy_ble_dis.c **** *  \param charIndex: The index of a service characteristic.
 224:Generated_Source\PSoC6\pdl\middleware\ble/cy_ble_dis.c **** *  \param attrSize: The size of the characteristic value attribute.
 225:Generated_Source\PSoC6\pdl\middleware\ble/cy_ble_dis.c **** *  \param *attrValue: The pointer to the location where characteristic value data
 226:Generated_Source\PSoC6\pdl\middleware\ble/cy_ble_dis.c **** *               should be stored.
 227:Generated_Source\PSoC6\pdl\middleware\ble/cy_ble_dis.c **** *
 228:Generated_Source\PSoC6\pdl\middleware\ble/cy_ble_dis.c **** * \return
 229:Generated_Source\PSoC6\pdl\middleware\ble/cy_ble_dis.c **** *  A return value of type cy_en_ble_api_result_t.
 230:Generated_Source\PSoC6\pdl\middleware\ble/cy_ble_dis.c **** *  A return value of type cy_en_ble_api_result_t.
 231:Generated_Source\PSoC6\pdl\middleware\ble/cy_ble_dis.c **** *  * CY_BLE_SUCCESS - The request was handled successfully
 232:Generated_Source\PSoC6\pdl\middleware\ble/cy_ble_dis.c **** *  * CY_BLE_ERROR_INVALID_PARAMETER - Validation of the input parameter failed
 233:Generated_Source\PSoC6\pdl\middleware\ble/cy_ble_dis.c **** *
 234:Generated_Source\PSoC6\pdl\middleware\ble/cy_ble_dis.c **** ******************************************************************************/
 235:Generated_Source\PSoC6\pdl\middleware\ble/cy_ble_dis.c **** cy_en_ble_api_result_t Cy_BLE_DISS_GetCharacteristicValue(cy_en_ble_dis_char_index_t charIndex,
 236:Generated_Source\PSoC6\pdl\middleware\ble/cy_ble_dis.c ****                                                           uint8_t attrSize,
 237:Generated_Source\PSoC6\pdl\middleware\ble/cy_ble_dis.c ****                                                           uint8_t *attrValue)
 238:Generated_Source\PSoC6\pdl\middleware\ble/cy_ble_dis.c **** {
 239:Generated_Source\PSoC6\pdl\middleware\ble/cy_ble_dis.c ****     cy_en_ble_api_result_t apiResult = CY_BLE_SUCCESS;
 240:Generated_Source\PSoC6\pdl\middleware\ble/cy_ble_dis.c **** 
 241:Generated_Source\PSoC6\pdl\middleware\ble/cy_ble_dis.c ****     if(charIndex >= CY_BLE_DIS_CHAR_COUNT)
 242:Generated_Source\PSoC6\pdl\middleware\ble/cy_ble_dis.c ****     {
 243:Generated_Source\PSoC6\pdl\middleware\ble/cy_ble_dis.c ****         apiResult = CY_BLE_ERROR_INVALID_PARAMETER;
 244:Generated_Source\PSoC6\pdl\middleware\ble/cy_ble_dis.c ****     }
 245:Generated_Source\PSoC6\pdl\middleware\ble/cy_ble_dis.c ****     else
 246:Generated_Source\PSoC6\pdl\middleware\ble/cy_ble_dis.c ****     {
 247:Generated_Source\PSoC6\pdl\middleware\ble/cy_ble_dis.c ****         /* Read characteristic value from database */
 248:Generated_Source\PSoC6\pdl\middleware\ble/cy_ble_dis.c ****         cy_stc_ble_gatts_db_attr_val_info_t dbAttrValInfo =
 249:Generated_Source\PSoC6\pdl\middleware\ble/cy_ble_dis.c ****         {
 250:Generated_Source\PSoC6\pdl\middleware\ble/cy_ble_dis.c ****             .handleValuePair.attrHandle = cy_ble_disConfigPtr->diss->charHandle[charIndex],
 251:Generated_Source\PSoC6\pdl\middleware\ble/cy_ble_dis.c ****             .handleValuePair.value.len  = attrSize,
 252:Generated_Source\PSoC6\pdl\middleware\ble/cy_ble_dis.c ****             .handleValuePair.value.val  = attrValue,
 253:Generated_Source\PSoC6\pdl\middleware\ble/cy_ble_dis.c ****             .offset                     = 0u,
 254:Generated_Source\PSoC6\pdl\middleware\ble/cy_ble_dis.c ****             .flags                      = CY_BLE_GATT_DB_LOCALLY_INITIATED
 255:Generated_Source\PSoC6\pdl\middleware\ble/cy_ble_dis.c ****         };
 256:Generated_Source\PSoC6\pdl\middleware\ble/cy_ble_dis.c **** 
 257:Generated_Source\PSoC6\pdl\middleware\ble/cy_ble_dis.c ****         if(Cy_BLE_GATTS_ReadAttributeValueCCCD(&dbAttrValInfo) != CY_BLE_GATT_ERR_NONE)
 258:Generated_Source\PSoC6\pdl\middleware\ble/cy_ble_dis.c ****         {
ARM GAS  C:\Users\codyg\AppData\Local\Temp\ccLTRIO4.s 			page 6


 259:Generated_Source\PSoC6\pdl\middleware\ble/cy_ble_dis.c ****             apiResult = CY_BLE_ERROR_INVALID_PARAMETER;
 260:Generated_Source\PSoC6\pdl\middleware\ble/cy_ble_dis.c ****         }
 261:Generated_Source\PSoC6\pdl\middleware\ble/cy_ble_dis.c ****     }
 262:Generated_Source\PSoC6\pdl\middleware\ble/cy_ble_dis.c **** 
 263:Generated_Source\PSoC6\pdl\middleware\ble/cy_ble_dis.c ****     return(apiResult);
 264:Generated_Source\PSoC6\pdl\middleware\ble/cy_ble_dis.c **** }
 265:Generated_Source\PSoC6\pdl\middleware\ble/cy_ble_dis.c **** 
 266:Generated_Source\PSoC6\pdl\middleware\ble/cy_ble_dis.c **** #endif /* CY_BLE_DIS_SERVER */
 267:Generated_Source\PSoC6\pdl\middleware\ble/cy_ble_dis.c **** 
 268:Generated_Source\PSoC6\pdl\middleware\ble/cy_ble_dis.c **** #ifdef CY_BLE_DIS_CLIENT
 269:Generated_Source\PSoC6\pdl\middleware\ble/cy_ble_dis.c **** 
 270:Generated_Source\PSoC6\pdl\middleware\ble/cy_ble_dis.c **** 
 271:Generated_Source\PSoC6\pdl\middleware\ble/cy_ble_dis.c **** /******************************************************************************
 272:Generated_Source\PSoC6\pdl\middleware\ble/cy_ble_dis.c **** * Function Name: Cy_BLE_DISC_DiscoverCharacteristicsEventHandler
 273:Generated_Source\PSoC6\pdl\middleware\ble/cy_ble_dis.c **** ***************************************************************************//**
 274:Generated_Source\PSoC6\pdl\middleware\ble/cy_ble_dis.c **** *
 275:Generated_Source\PSoC6\pdl\middleware\ble/cy_ble_dis.c **** *  This function is called on receiving a CY_BLE_EVT_GATTC_READ_BY_TYPE_RSP event.
 276:Generated_Source\PSoC6\pdl\middleware\ble/cy_ble_dis.c **** *  Based on the service UUID, an appropriate data structure is populated using the
 277:Generated_Source\PSoC6\pdl\middleware\ble/cy_ble_dis.c **** *  data received as part of the callback.
 278:Generated_Source\PSoC6\pdl\middleware\ble/cy_ble_dis.c **** *
 279:Generated_Source\PSoC6\pdl\middleware\ble/cy_ble_dis.c **** *  \param *discCharInfo:  the pointer to a characteristic information structure.
 280:Generated_Source\PSoC6\pdl\middleware\ble/cy_ble_dis.c **** *
 281:Generated_Source\PSoC6\pdl\middleware\ble/cy_ble_dis.c **** ******************************************************************************/
 282:Generated_Source\PSoC6\pdl\middleware\ble/cy_ble_dis.c **** static void Cy_BLE_DISC_DiscoverCharacteristicsEventHandler(cy_stc_ble_disc_char_info_t *discCharIn
 283:Generated_Source\PSoC6\pdl\middleware\ble/cy_ble_dis.c **** {
 284:Generated_Source\PSoC6\pdl\middleware\ble/cy_ble_dis.c ****     uint32_t discIdx = Cy_BLE_GetDiscoveryIdx(discCharInfo->connHandle);
 285:Generated_Source\PSoC6\pdl\middleware\ble/cy_ble_dis.c **** 
 286:Generated_Source\PSoC6\pdl\middleware\ble/cy_ble_dis.c ****     if((discCharInfo->uuidFormat == CY_BLE_GATT_16_BIT_UUID_FORMAT) &&
 287:Generated_Source\PSoC6\pdl\middleware\ble/cy_ble_dis.c ****        (cy_ble_discovery[discIdx].servCount == (uint32_t)CY_BLE_SRVI_DIS))
 288:Generated_Source\PSoC6\pdl\middleware\ble/cy_ble_dis.c ****     {
 289:Generated_Source\PSoC6\pdl\middleware\ble/cy_ble_dis.c ****         switch(discCharInfo->uuid.uuid16)
 290:Generated_Source\PSoC6\pdl\middleware\ble/cy_ble_dis.c ****         {
 291:Generated_Source\PSoC6\pdl\middleware\ble/cy_ble_dis.c ****             case CY_BLE_UUID_CHAR_MANUFACTURER_NAME:
 292:Generated_Source\PSoC6\pdl\middleware\ble/cy_ble_dis.c ****                 Cy_BLE_DISC_CheckCharHandle(cy_ble_disc[discIdx].charInfo[CY_BLE_DIS_MANUFACTURER_N
 293:Generated_Source\PSoC6\pdl\middleware\ble/cy_ble_dis.c ****                 break;
 294:Generated_Source\PSoC6\pdl\middleware\ble/cy_ble_dis.c **** 
 295:Generated_Source\PSoC6\pdl\middleware\ble/cy_ble_dis.c ****             case CY_BLE_UUID_CHAR_MODEL_NUMBER:
 296:Generated_Source\PSoC6\pdl\middleware\ble/cy_ble_dis.c ****                 Cy_BLE_DISC_CheckCharHandle(cy_ble_disc[discIdx].charInfo[CY_BLE_DIS_MODEL_NUMBER])
 297:Generated_Source\PSoC6\pdl\middleware\ble/cy_ble_dis.c ****                 break;
 298:Generated_Source\PSoC6\pdl\middleware\ble/cy_ble_dis.c **** 
 299:Generated_Source\PSoC6\pdl\middleware\ble/cy_ble_dis.c ****             case CY_BLE_UUID_CHAR_SERIAL_NUMBER:
 300:Generated_Source\PSoC6\pdl\middleware\ble/cy_ble_dis.c ****                 Cy_BLE_DISC_CheckCharHandle(cy_ble_disc[discIdx].charInfo[CY_BLE_DIS_SERIAL_NUMBER]
 301:Generated_Source\PSoC6\pdl\middleware\ble/cy_ble_dis.c ****                 break;
 302:Generated_Source\PSoC6\pdl\middleware\ble/cy_ble_dis.c **** 
 303:Generated_Source\PSoC6\pdl\middleware\ble/cy_ble_dis.c ****             case CY_BLE_UUID_CHAR_HARDWARE_REV:
 304:Generated_Source\PSoC6\pdl\middleware\ble/cy_ble_dis.c ****                 Cy_BLE_DISC_CheckCharHandle(cy_ble_disc[discIdx].charInfo[CY_BLE_DIS_HARDWARE_REV])
 305:Generated_Source\PSoC6\pdl\middleware\ble/cy_ble_dis.c ****                 break;
 306:Generated_Source\PSoC6\pdl\middleware\ble/cy_ble_dis.c **** 
 307:Generated_Source\PSoC6\pdl\middleware\ble/cy_ble_dis.c ****             case CY_BLE_UUID_CHAR_FIRMWARE_REV:
 308:Generated_Source\PSoC6\pdl\middleware\ble/cy_ble_dis.c ****                 Cy_BLE_DISC_CheckCharHandle(cy_ble_disc[discIdx].charInfo[CY_BLE_DIS_FIRMWARE_REV])
 309:Generated_Source\PSoC6\pdl\middleware\ble/cy_ble_dis.c ****                 break;
 310:Generated_Source\PSoC6\pdl\middleware\ble/cy_ble_dis.c **** 
 311:Generated_Source\PSoC6\pdl\middleware\ble/cy_ble_dis.c ****             case CY_BLE_UUID_CHAR_SOFTWARE_REV:
 312:Generated_Source\PSoC6\pdl\middleware\ble/cy_ble_dis.c ****                 Cy_BLE_DISC_CheckCharHandle(cy_ble_disc[discIdx].charInfo[CY_BLE_DIS_SOFTWARE_REV])
 313:Generated_Source\PSoC6\pdl\middleware\ble/cy_ble_dis.c ****                 break;
 314:Generated_Source\PSoC6\pdl\middleware\ble/cy_ble_dis.c **** 
 315:Generated_Source\PSoC6\pdl\middleware\ble/cy_ble_dis.c ****             case CY_BLE_UUID_CHAR_SYSTEM_ID:
ARM GAS  C:\Users\codyg\AppData\Local\Temp\ccLTRIO4.s 			page 7


 316:Generated_Source\PSoC6\pdl\middleware\ble/cy_ble_dis.c ****                 Cy_BLE_DISC_CheckCharHandle(cy_ble_disc[discIdx].charInfo[CY_BLE_DIS_SYSTEM_ID]);
 317:Generated_Source\PSoC6\pdl\middleware\ble/cy_ble_dis.c ****                 break;
 318:Generated_Source\PSoC6\pdl\middleware\ble/cy_ble_dis.c **** 
 319:Generated_Source\PSoC6\pdl\middleware\ble/cy_ble_dis.c ****             case CY_BLE_UUID_CHAR_REG_CERT_DATA:
 320:Generated_Source\PSoC6\pdl\middleware\ble/cy_ble_dis.c ****                 Cy_BLE_DISC_CheckCharHandle(cy_ble_disc[discIdx].charInfo[CY_BLE_DIS_REG_CERT_DATA]
 321:Generated_Source\PSoC6\pdl\middleware\ble/cy_ble_dis.c ****                 break;
 322:Generated_Source\PSoC6\pdl\middleware\ble/cy_ble_dis.c **** 
 323:Generated_Source\PSoC6\pdl\middleware\ble/cy_ble_dis.c ****             case CY_BLE_UUID_CHAR_PNP_ID:
 324:Generated_Source\PSoC6\pdl\middleware\ble/cy_ble_dis.c ****                 Cy_BLE_DISC_CheckCharHandle(cy_ble_disc[discIdx].charInfo[CY_BLE_DIS_PNP_ID]);
 325:Generated_Source\PSoC6\pdl\middleware\ble/cy_ble_dis.c ****                 break;
 326:Generated_Source\PSoC6\pdl\middleware\ble/cy_ble_dis.c **** 
 327:Generated_Source\PSoC6\pdl\middleware\ble/cy_ble_dis.c ****             default:
 328:Generated_Source\PSoC6\pdl\middleware\ble/cy_ble_dis.c ****                 break;
 329:Generated_Source\PSoC6\pdl\middleware\ble/cy_ble_dis.c ****         }
 330:Generated_Source\PSoC6\pdl\middleware\ble/cy_ble_dis.c **** 
 331:Generated_Source\PSoC6\pdl\middleware\ble/cy_ble_dis.c ****         /* Indicate that request was handled */
 332:Generated_Source\PSoC6\pdl\middleware\ble/cy_ble_dis.c ****         cy_ble_eventHandlerFlag &= (uint8_t) ~CY_BLE_CALLBACK;
 333:Generated_Source\PSoC6\pdl\middleware\ble/cy_ble_dis.c ****     }
 334:Generated_Source\PSoC6\pdl\middleware\ble/cy_ble_dis.c **** }
 335:Generated_Source\PSoC6\pdl\middleware\ble/cy_ble_dis.c **** 
 336:Generated_Source\PSoC6\pdl\middleware\ble/cy_ble_dis.c **** 
 337:Generated_Source\PSoC6\pdl\middleware\ble/cy_ble_dis.c **** /******************************************************************************
 338:Generated_Source\PSoC6\pdl\middleware\ble/cy_ble_dis.c **** * Function Name: Cy_BLE_DISC_GetCharacteristicValue
 339:Generated_Source\PSoC6\pdl\middleware\ble/cy_ble_dis.c **** ***************************************************************************//**
 340:Generated_Source\PSoC6\pdl\middleware\ble/cy_ble_dis.c **** *
 341:Generated_Source\PSoC6\pdl\middleware\ble/cy_ble_dis.c **** *  This function is used to read the characteristic Value from a server
 342:Generated_Source\PSoC6\pdl\middleware\ble/cy_ble_dis.c **** *  which is identified by charIndex.
 343:Generated_Source\PSoC6\pdl\middleware\ble/cy_ble_dis.c **** *
 344:Generated_Source\PSoC6\pdl\middleware\ble/cy_ble_dis.c **** *  The Read Response returns the characteristic value in the Attribute Value
 345:Generated_Source\PSoC6\pdl\middleware\ble/cy_ble_dis.c **** *  parameter. The Read Response only contains the characteristic value that is
 346:Generated_Source\PSoC6\pdl\middleware\ble/cy_ble_dis.c **** *  less than or equal to (MTU - 1) octets in length. If the characteristic value
 347:Generated_Source\PSoC6\pdl\middleware\ble/cy_ble_dis.c **** *  is greater than (MTU - 1) octets in length, a Read Long Characteristic Value
 348:Generated_Source\PSoC6\pdl\middleware\ble/cy_ble_dis.c **** *  procedure may be used if the rest of the characteristic value is required.
 349:Generated_Source\PSoC6\pdl\middleware\ble/cy_ble_dis.c **** *
 350:Generated_Source\PSoC6\pdl\middleware\ble/cy_ble_dis.c **** *  This function call can result in generation of the following events based on
 351:Generated_Source\PSoC6\pdl\middleware\ble/cy_ble_dis.c **** *  the response from the server device.
 352:Generated_Source\PSoC6\pdl\middleware\ble/cy_ble_dis.c **** *
 353:Generated_Source\PSoC6\pdl\middleware\ble/cy_ble_dis.c **** *  * CY_BLE_EVT_DISC_READ_CHAR_RESPONSE
 354:Generated_Source\PSoC6\pdl\middleware\ble/cy_ble_dis.c **** *  * CY_BLE_EVT_GATTC_ERROR_RSP
 355:Generated_Source\PSoC6\pdl\middleware\ble/cy_ble_dis.c **** *
 356:Generated_Source\PSoC6\pdl\middleware\ble/cy_ble_dis.c **** *  \param connHandle: The connection handle.
 357:Generated_Source\PSoC6\pdl\middleware\ble/cy_ble_dis.c **** *  \param charIndex: The index of the service characteristic.
 358:Generated_Source\PSoC6\pdl\middleware\ble/cy_ble_dis.c **** *
 359:Generated_Source\PSoC6\pdl\middleware\ble/cy_ble_dis.c **** * \return
 360:Generated_Source\PSoC6\pdl\middleware\ble/cy_ble_dis.c **** *  A return value of type cy_en_ble_api_result_t.
 361:Generated_Source\PSoC6\pdl\middleware\ble/cy_ble_dis.c **** *  * CY_BLE_SUCCESS - The read request was sent successfully
 362:Generated_Source\PSoC6\pdl\middleware\ble/cy_ble_dis.c **** *  * CY_BLE_ERROR_INVALID_PARAMETER - Validation of the input parameters failed
 363:Generated_Source\PSoC6\pdl\middleware\ble/cy_ble_dis.c **** *  * CY_BLE_ERROR_MEMORY_ALLOCATION_FAILED - Memory allocation failed
 364:Generated_Source\PSoC6\pdl\middleware\ble/cy_ble_dis.c **** *  * CY_BLE_ERROR_INVALID_OPERATION - Operation is invalid for this
 365:Generated_Source\PSoC6\pdl\middleware\ble/cy_ble_dis.c **** *                                     characteristic
 366:Generated_Source\PSoC6\pdl\middleware\ble/cy_ble_dis.c **** *
 367:Generated_Source\PSoC6\pdl\middleware\ble/cy_ble_dis.c **** * \events
 368:Generated_Source\PSoC6\pdl\middleware\ble/cy_ble_dis.c **** *  In case of successful execution (return value = CY_BLE_SUCCESS)
 369:Generated_Source\PSoC6\pdl\middleware\ble/cy_ble_dis.c **** *  the following events can appear: \n
 370:Generated_Source\PSoC6\pdl\middleware\ble/cy_ble_dis.c **** *   If the DIS service-specific callback is registered
 371:Generated_Source\PSoC6\pdl\middleware\ble/cy_ble_dis.c **** *      (with Cy_BLE_DIS_RegisterAttrCallback):
 372:Generated_Source\PSoC6\pdl\middleware\ble/cy_ble_dis.c **** *  * CY_BLE_EVT_DISC_READ_CHAR_RESPONSE - In case if the requested attribute is
ARM GAS  C:\Users\codyg\AppData\Local\Temp\ccLTRIO4.s 			page 8


 373:Generated_Source\PSoC6\pdl\middleware\ble/cy_ble_dis.c **** *                                successfully read on the peer device,
 374:Generated_Source\PSoC6\pdl\middleware\ble/cy_ble_dis.c **** *                                the details (char index , value, etc.) are
 375:Generated_Source\PSoC6\pdl\middleware\ble/cy_ble_dis.c **** *                                provided with event parameter structure
 376:Generated_Source\PSoC6\pdl\middleware\ble/cy_ble_dis.c **** *                                of type cy_stc_ble_dis_char_value_t.
 377:Generated_Source\PSoC6\pdl\middleware\ble/cy_ble_dis.c **** *  .
 378:Generated_Source\PSoC6\pdl\middleware\ble/cy_ble_dis.c **** *   Otherwise (if the DIS service-specific callback is not registered):
 379:Generated_Source\PSoC6\pdl\middleware\ble/cy_ble_dis.c **** *  * CY_BLE_EVT_GATTC_READ_RSP - In case if the requested attribute is
 380:Generated_Source\PSoC6\pdl\middleware\ble/cy_ble_dis.c **** *                                successfully read on the peer device,
 381:Generated_Source\PSoC6\pdl\middleware\ble/cy_ble_dis.c **** *                                the details (handle, value, etc.) are
 382:Generated_Source\PSoC6\pdl\middleware\ble/cy_ble_dis.c **** *                                provided with event parameters
 383:Generated_Source\PSoC6\pdl\middleware\ble/cy_ble_dis.c **** *                                structure (cy_stc_ble_gattc_read_rsp_param_t).
 384:Generated_Source\PSoC6\pdl\middleware\ble/cy_ble_dis.c **** *  * CY_BLE_EVT_GATTC_ERROR_RSP - In case if an error occurred with the
 385:Generated_Source\PSoC6\pdl\middleware\ble/cy_ble_dis.c **** *                                requested attribute on the peer device,
 386:Generated_Source\PSoC6\pdl\middleware\ble/cy_ble_dis.c **** *                                the details are provided with event parameters
 387:Generated_Source\PSoC6\pdl\middleware\ble/cy_ble_dis.c **** *                                structure (cy_stc_ble_gatt_err_param_t).
 388:Generated_Source\PSoC6\pdl\middleware\ble/cy_ble_dis.c **** *
 389:Generated_Source\PSoC6\pdl\middleware\ble/cy_ble_dis.c **** ******************************************************************************/
 390:Generated_Source\PSoC6\pdl\middleware\ble/cy_ble_dis.c **** cy_en_ble_api_result_t Cy_BLE_DISC_GetCharacteristicValue(cy_stc_ble_conn_handle_t connHandle,
 391:Generated_Source\PSoC6\pdl\middleware\ble/cy_ble_dis.c ****                                                           cy_en_ble_dis_char_index_t charIndex)
 392:Generated_Source\PSoC6\pdl\middleware\ble/cy_ble_dis.c **** {
 393:Generated_Source\PSoC6\pdl\middleware\ble/cy_ble_dis.c ****     cy_en_ble_api_result_t apiResult;
 394:Generated_Source\PSoC6\pdl\middleware\ble/cy_ble_dis.c ****     uint32_t discIdx = Cy_BLE_GetDiscoveryIdx(connHandle);
 395:Generated_Source\PSoC6\pdl\middleware\ble/cy_ble_dis.c **** 
 396:Generated_Source\PSoC6\pdl\middleware\ble/cy_ble_dis.c ****     if((charIndex >= CY_BLE_DIS_CHAR_COUNT) || (discIdx >= CY_BLE_GATTC_COUNT))
 397:Generated_Source\PSoC6\pdl\middleware\ble/cy_ble_dis.c ****     {
 398:Generated_Source\PSoC6\pdl\middleware\ble/cy_ble_dis.c ****         apiResult = CY_BLE_ERROR_INVALID_PARAMETER;
 399:Generated_Source\PSoC6\pdl\middleware\ble/cy_ble_dis.c ****     }
 400:Generated_Source\PSoC6\pdl\middleware\ble/cy_ble_dis.c ****     else
 401:Generated_Source\PSoC6\pdl\middleware\ble/cy_ble_dis.c ****     {
 402:Generated_Source\PSoC6\pdl\middleware\ble/cy_ble_dis.c ****         cy_stc_ble_gattc_read_req_t readReqParam =
 403:Generated_Source\PSoC6\pdl\middleware\ble/cy_ble_dis.c ****         {
 404:Generated_Source\PSoC6\pdl\middleware\ble/cy_ble_dis.c ****             .attrHandle = cy_ble_disc[discIdx].charInfo[charIndex].valueHandle,
 405:Generated_Source\PSoC6\pdl\middleware\ble/cy_ble_dis.c ****             .connHandle = connHandle
 406:Generated_Source\PSoC6\pdl\middleware\ble/cy_ble_dis.c ****         };
 407:Generated_Source\PSoC6\pdl\middleware\ble/cy_ble_dis.c ****         apiResult = Cy_BLE_GATTC_ReadCharacteristicValue(&readReqParam);
 408:Generated_Source\PSoC6\pdl\middleware\ble/cy_ble_dis.c **** 
 409:Generated_Source\PSoC6\pdl\middleware\ble/cy_ble_dis.c ****         /* Save handle to support service-specific read response from device */
 410:Generated_Source\PSoC6\pdl\middleware\ble/cy_ble_dis.c ****         if(apiResult == CY_BLE_SUCCESS)
 411:Generated_Source\PSoC6\pdl\middleware\ble/cy_ble_dis.c ****         {
 412:Generated_Source\PSoC6\pdl\middleware\ble/cy_ble_dis.c ****             cy_ble_discReqHandle[discIdx] = cy_ble_disc[discIdx].charInfo[charIndex].valueHandle;
 413:Generated_Source\PSoC6\pdl\middleware\ble/cy_ble_dis.c ****         }
 414:Generated_Source\PSoC6\pdl\middleware\ble/cy_ble_dis.c ****     }
 415:Generated_Source\PSoC6\pdl\middleware\ble/cy_ble_dis.c **** 
 416:Generated_Source\PSoC6\pdl\middleware\ble/cy_ble_dis.c ****     return(apiResult);
 417:Generated_Source\PSoC6\pdl\middleware\ble/cy_ble_dis.c **** }
 418:Generated_Source\PSoC6\pdl\middleware\ble/cy_ble_dis.c **** 
 419:Generated_Source\PSoC6\pdl\middleware\ble/cy_ble_dis.c **** 
 420:Generated_Source\PSoC6\pdl\middleware\ble/cy_ble_dis.c **** /******************************************************************************
 421:Generated_Source\PSoC6\pdl\middleware\ble/cy_ble_dis.c **** * Function Name: Cy_BLE_DISC_ReadResponseEventHandler
 422:Generated_Source\PSoC6\pdl\middleware\ble/cy_ble_dis.c **** ***************************************************************************//**
 423:Generated_Source\PSoC6\pdl\middleware\ble/cy_ble_dis.c **** *
 424:Generated_Source\PSoC6\pdl\middleware\ble/cy_ble_dis.c **** *  Handles the Read Response Event.
 425:Generated_Source\PSoC6\pdl\middleware\ble/cy_ble_dis.c **** *
 426:Generated_Source\PSoC6\pdl\middleware\ble/cy_ble_dis.c **** *  \param *eventParam: the pointer to the data structure specified by the event.
 427:Generated_Source\PSoC6\pdl\middleware\ble/cy_ble_dis.c **** *
 428:Generated_Source\PSoC6\pdl\middleware\ble/cy_ble_dis.c **** ******************************************************************************/
 429:Generated_Source\PSoC6\pdl\middleware\ble/cy_ble_dis.c **** static void Cy_BLE_DISC_ReadResponseEventHandler(cy_stc_ble_gattc_read_rsp_param_t *eventParam)
ARM GAS  C:\Users\codyg\AppData\Local\Temp\ccLTRIO4.s 			page 9


 430:Generated_Source\PSoC6\pdl\middleware\ble/cy_ble_dis.c **** {
 431:Generated_Source\PSoC6\pdl\middleware\ble/cy_ble_dis.c ****     cy_en_ble_dis_char_index_t locCharIndex;
 432:Generated_Source\PSoC6\pdl\middleware\ble/cy_ble_dis.c ****     uint32_t discIdx = Cy_BLE_GetDiscoveryIdx(eventParam->connHandle);
 433:Generated_Source\PSoC6\pdl\middleware\ble/cy_ble_dis.c **** 
 434:Generated_Source\PSoC6\pdl\middleware\ble/cy_ble_dis.c ****     if((discIdx < CY_BLE_GATTC_COUNT) && (Cy_BLE_DIS_ApplCallback != NULL) &&
 435:Generated_Source\PSoC6\pdl\middleware\ble/cy_ble_dis.c ****        (CY_BLE_GATT_INVALID_ATTR_HANDLE_VALUE != cy_ble_discReqHandle[discIdx]))
 436:Generated_Source\PSoC6\pdl\middleware\ble/cy_ble_dis.c ****     {
 437:Generated_Source\PSoC6\pdl\middleware\ble/cy_ble_dis.c ****         for(locCharIndex = CY_BLE_DIS_MANUFACTURER_NAME; locCharIndex < CY_BLE_DIS_CHAR_COUNT; locC
 438:Generated_Source\PSoC6\pdl\middleware\ble/cy_ble_dis.c ****         {
 439:Generated_Source\PSoC6\pdl\middleware\ble/cy_ble_dis.c ****             if(cy_ble_discReqHandle[discIdx] == cy_ble_disc[discIdx].charInfo[locCharIndex].valueHa
 440:Generated_Source\PSoC6\pdl\middleware\ble/cy_ble_dis.c ****             {
 441:Generated_Source\PSoC6\pdl\middleware\ble/cy_ble_dis.c ****                 cy_stc_ble_dis_char_value_t locCharValue =
 442:Generated_Source\PSoC6\pdl\middleware\ble/cy_ble_dis.c ****                 {
 443:Generated_Source\PSoC6\pdl\middleware\ble/cy_ble_dis.c ****                     .connHandle = eventParam->connHandle,
 444:Generated_Source\PSoC6\pdl\middleware\ble/cy_ble_dis.c ****                     .charIndex  = locCharIndex,
 445:Generated_Source\PSoC6\pdl\middleware\ble/cy_ble_dis.c ****                     .value      = &eventParam->value
 446:Generated_Source\PSoC6\pdl\middleware\ble/cy_ble_dis.c ****                 };
 447:Generated_Source\PSoC6\pdl\middleware\ble/cy_ble_dis.c **** 
 448:Generated_Source\PSoC6\pdl\middleware\ble/cy_ble_dis.c ****                 cy_ble_eventHandlerFlag &= (uint8_t) ~CY_BLE_CALLBACK;
 449:Generated_Source\PSoC6\pdl\middleware\ble/cy_ble_dis.c ****                 cy_ble_discReqHandle[discIdx] = CY_BLE_GATT_INVALID_ATTR_HANDLE_VALUE;
 450:Generated_Source\PSoC6\pdl\middleware\ble/cy_ble_dis.c ****                 Cy_BLE_DIS_ApplCallback((uint32_t)CY_BLE_EVT_DISC_READ_CHAR_RESPONSE, &locCharValue
 451:Generated_Source\PSoC6\pdl\middleware\ble/cy_ble_dis.c ****                 break;
 452:Generated_Source\PSoC6\pdl\middleware\ble/cy_ble_dis.c ****             }
 453:Generated_Source\PSoC6\pdl\middleware\ble/cy_ble_dis.c ****         }
 454:Generated_Source\PSoC6\pdl\middleware\ble/cy_ble_dis.c ****     }
 455:Generated_Source\PSoC6\pdl\middleware\ble/cy_ble_dis.c **** }
 456:Generated_Source\PSoC6\pdl\middleware\ble/cy_ble_dis.c **** 
 457:Generated_Source\PSoC6\pdl\middleware\ble/cy_ble_dis.c **** 
 458:Generated_Source\PSoC6\pdl\middleware\ble/cy_ble_dis.c **** /******************************************************************************
 459:Generated_Source\PSoC6\pdl\middleware\ble/cy_ble_dis.c **** * Function Name: Cy_BLE_DISC_ErrorResponseEventHandler
 460:Generated_Source\PSoC6\pdl\middleware\ble/cy_ble_dis.c **** ***************************************************************************//**
 461:Generated_Source\PSoC6\pdl\middleware\ble/cy_ble_dis.c **** *
 462:Generated_Source\PSoC6\pdl\middleware\ble/cy_ble_dis.c **** *  Handles the Error Response Event.
 463:Generated_Source\PSoC6\pdl\middleware\ble/cy_ble_dis.c **** *
 464:Generated_Source\PSoC6\pdl\middleware\ble/cy_ble_dis.c **** *  \param *eventParam: the pointer to the data structure specified by the event.
 465:Generated_Source\PSoC6\pdl\middleware\ble/cy_ble_dis.c **** *
 466:Generated_Source\PSoC6\pdl\middleware\ble/cy_ble_dis.c **** ******************************************************************************/
 467:Generated_Source\PSoC6\pdl\middleware\ble/cy_ble_dis.c **** static void Cy_BLE_DISC_ErrorResponseEventHandler(const cy_stc_ble_gatt_err_param_t *eventParam)
 468:Generated_Source\PSoC6\pdl\middleware\ble/cy_ble_dis.c **** {
 469:Generated_Source\PSoC6\pdl\middleware\ble/cy_ble_dis.c ****     if(eventParam != NULL)
 470:Generated_Source\PSoC6\pdl\middleware\ble/cy_ble_dis.c ****     {
 471:Generated_Source\PSoC6\pdl\middleware\ble/cy_ble_dis.c ****         if(cy_ble_discReqHandle[Cy_BLE_GetDiscoveryIdx(eventParam->connHandle)] == eventParam->errI
 472:Generated_Source\PSoC6\pdl\middleware\ble/cy_ble_dis.c ****         {
 473:Generated_Source\PSoC6\pdl\middleware\ble/cy_ble_dis.c ****             cy_ble_discReqHandle[Cy_BLE_GetDiscoveryIdx(eventParam->connHandle)] = CY_BLE_GATT_INVA
 474:Generated_Source\PSoC6\pdl\middleware\ble/cy_ble_dis.c ****         }
 475:Generated_Source\PSoC6\pdl\middleware\ble/cy_ble_dis.c ****     }
 476:Generated_Source\PSoC6\pdl\middleware\ble/cy_ble_dis.c **** }
 477:Generated_Source\PSoC6\pdl\middleware\ble/cy_ble_dis.c **** 
 478:Generated_Source\PSoC6\pdl\middleware\ble/cy_ble_dis.c **** #endif /* (CY_BLE_DIS_CLIENT) */
 479:Generated_Source\PSoC6\pdl\middleware\ble/cy_ble_dis.c **** 
 480:Generated_Source\PSoC6\pdl\middleware\ble/cy_ble_dis.c **** /******************************************************************************
 481:Generated_Source\PSoC6\pdl\middleware\ble/cy_ble_dis.c **** * Function Name: Cy_BLE_DIS_EventHandler
 482:Generated_Source\PSoC6\pdl\middleware\ble/cy_ble_dis.c **** ***************************************************************************//**
 483:Generated_Source\PSoC6\pdl\middleware\ble/cy_ble_dis.c **** *
 484:Generated_Source\PSoC6\pdl\middleware\ble/cy_ble_dis.c **** *  Handles the events from the BLE Stack for the Device Information Service.
 485:Generated_Source\PSoC6\pdl\middleware\ble/cy_ble_dis.c **** *
 486:Generated_Source\PSoC6\pdl\middleware\ble/cy_ble_dis.c **** *  \param eventCode:  the event code
ARM GAS  C:\Users\codyg\AppData\Local\Temp\ccLTRIO4.s 			page 10


 487:Generated_Source\PSoC6\pdl\middleware\ble/cy_ble_dis.c **** *  \param eventParam:  the event parameters
 488:Generated_Source\PSoC6\pdl\middleware\ble/cy_ble_dis.c **** *
 489:Generated_Source\PSoC6\pdl\middleware\ble/cy_ble_dis.c **** * \return
 490:Generated_Source\PSoC6\pdl\middleware\ble/cy_ble_dis.c **** *  A return value of type cy_en_ble_gatt_err_code_t.
 491:Generated_Source\PSoC6\pdl\middleware\ble/cy_ble_dis.c **** *
 492:Generated_Source\PSoC6\pdl\middleware\ble/cy_ble_dis.c **** ******************************************************************************/
 493:Generated_Source\PSoC6\pdl\middleware\ble/cy_ble_dis.c **** static cy_en_ble_gatt_err_code_t Cy_BLE_DIS_EventHandler(uint32_t eventCode,
 494:Generated_Source\PSoC6\pdl\middleware\ble/cy_ble_dis.c ****                                                          void *eventParam)
 495:Generated_Source\PSoC6\pdl\middleware\ble/cy_ble_dis.c **** {
  28              		.loc 1 495 0
  29              		.cfi_startproc
  30              		@ args = 0, pretend = 0, frame = 0
  31              		@ frame_needed = 0, uses_anonymous_args = 0
  32              		@ link register save eliminated.
  33              	.LVL0:
 496:Generated_Source\PSoC6\pdl\middleware\ble/cy_ble_dis.c ****     if(eventCode > (uint32_t)CY_BLE_EVT_MAX)
 497:Generated_Source\PSoC6\pdl\middleware\ble/cy_ble_dis.c ****     {
 498:Generated_Source\PSoC6\pdl\middleware\ble/cy_ble_dis.c ****         /**************************************************************************
 499:Generated_Source\PSoC6\pdl\middleware\ble/cy_ble_dis.c ****          * Handling Service Specific Events
 500:Generated_Source\PSoC6\pdl\middleware\ble/cy_ble_dis.c ****          ***************************************************************************/
 501:Generated_Source\PSoC6\pdl\middleware\ble/cy_ble_dis.c ****         switch((cy_en_ble_evt_t)eventCode)
 502:Generated_Source\PSoC6\pdl\middleware\ble/cy_ble_dis.c ****         {
 503:Generated_Source\PSoC6\pdl\middleware\ble/cy_ble_dis.c ****         #ifdef CY_BLE_DIS_CLIENT
 504:Generated_Source\PSoC6\pdl\middleware\ble/cy_ble_dis.c ****             /* Discovery Events */
 505:Generated_Source\PSoC6\pdl\middleware\ble/cy_ble_dis.c ****             case CY_BLE_EVT_GATTC_DISC_CHAR:
 506:Generated_Source\PSoC6\pdl\middleware\ble/cy_ble_dis.c ****                 (void)Cy_BLE_DISC_DiscoverCharacteristicsEventHandler((cy_stc_ble_disc_char_info_t*
 507:Generated_Source\PSoC6\pdl\middleware\ble/cy_ble_dis.c ****                 break;
 508:Generated_Source\PSoC6\pdl\middleware\ble/cy_ble_dis.c ****         #endif /* CY_BLE_DIS_CLIENT */
 509:Generated_Source\PSoC6\pdl\middleware\ble/cy_ble_dis.c **** 
 510:Generated_Source\PSoC6\pdl\middleware\ble/cy_ble_dis.c ****             default:
 511:Generated_Source\PSoC6\pdl\middleware\ble/cy_ble_dis.c ****                 break;
 512:Generated_Source\PSoC6\pdl\middleware\ble/cy_ble_dis.c ****         }
 513:Generated_Source\PSoC6\pdl\middleware\ble/cy_ble_dis.c ****     }
 514:Generated_Source\PSoC6\pdl\middleware\ble/cy_ble_dis.c ****     else
 515:Generated_Source\PSoC6\pdl\middleware\ble/cy_ble_dis.c ****     {
 516:Generated_Source\PSoC6\pdl\middleware\ble/cy_ble_dis.c ****         switch((cy_en_ble_event_t)eventCode)
 517:Generated_Source\PSoC6\pdl\middleware\ble/cy_ble_dis.c ****         {
 518:Generated_Source\PSoC6\pdl\middleware\ble/cy_ble_dis.c ****             /**************************************************************************
 519:Generated_Source\PSoC6\pdl\middleware\ble/cy_ble_dis.c ****              * Handling GATT Client Events
 520:Generated_Source\PSoC6\pdl\middleware\ble/cy_ble_dis.c ****              ***************************************************************************/
 521:Generated_Source\PSoC6\pdl\middleware\ble/cy_ble_dis.c ****         #ifdef CY_BLE_DIS_CLIENT
 522:Generated_Source\PSoC6\pdl\middleware\ble/cy_ble_dis.c ****             case CY_BLE_EVT_GATTC_READ_BY_TYPE_RSP:
 523:Generated_Source\PSoC6\pdl\middleware\ble/cy_ble_dis.c ****                 /* implementation in cy_ble_event_handler.c */
 524:Generated_Source\PSoC6\pdl\middleware\ble/cy_ble_dis.c ****                 break;
 525:Generated_Source\PSoC6\pdl\middleware\ble/cy_ble_dis.c **** 
 526:Generated_Source\PSoC6\pdl\middleware\ble/cy_ble_dis.c ****             case CY_BLE_EVT_GATTC_ERROR_RSP:
 527:Generated_Source\PSoC6\pdl\middleware\ble/cy_ble_dis.c ****             {
 528:Generated_Source\PSoC6\pdl\middleware\ble/cy_ble_dis.c ****                 uint32_t discIdx = Cy_BLE_GetDiscoveryIdx(((cy_stc_ble_gatt_err_param_t*)eventParam
 529:Generated_Source\PSoC6\pdl\middleware\ble/cy_ble_dis.c ****                 if((discIdx < CY_BLE_GATTC_COUNT) && (cy_ble_discovery[discIdx].autoDiscoveryFlag =
 530:Generated_Source\PSoC6\pdl\middleware\ble/cy_ble_dis.c ****                    (((cy_stc_ble_gatt_err_param_t*)eventParam)->errInfo.errorCode != CY_BLE_GATT_ER
 531:Generated_Source\PSoC6\pdl\middleware\ble/cy_ble_dis.c ****                 {
 532:Generated_Source\PSoC6\pdl\middleware\ble/cy_ble_dis.c ****                     if((cy_ble_eventHandlerFlag & CY_BLE_CALLBACK) != 0u)
 533:Generated_Source\PSoC6\pdl\middleware\ble/cy_ble_dis.c ****                     {
 534:Generated_Source\PSoC6\pdl\middleware\ble/cy_ble_dis.c ****                         Cy_BLE_DISC_ErrorResponseEventHandler((cy_stc_ble_gatt_err_param_t*)eventPa
 535:Generated_Source\PSoC6\pdl\middleware\ble/cy_ble_dis.c ****                     }
 536:Generated_Source\PSoC6\pdl\middleware\ble/cy_ble_dis.c ****                 }
 537:Generated_Source\PSoC6\pdl\middleware\ble/cy_ble_dis.c ****             }
ARM GAS  C:\Users\codyg\AppData\Local\Temp\ccLTRIO4.s 			page 11


 538:Generated_Source\PSoC6\pdl\middleware\ble/cy_ble_dis.c ****             break;
 539:Generated_Source\PSoC6\pdl\middleware\ble/cy_ble_dis.c **** 
 540:Generated_Source\PSoC6\pdl\middleware\ble/cy_ble_dis.c ****             case CY_BLE_EVT_GATTC_READ_RSP:
 541:Generated_Source\PSoC6\pdl\middleware\ble/cy_ble_dis.c ****                 if((cy_ble_eventHandlerFlag & CY_BLE_CALLBACK) != 0u)
 542:Generated_Source\PSoC6\pdl\middleware\ble/cy_ble_dis.c ****                 {
 543:Generated_Source\PSoC6\pdl\middleware\ble/cy_ble_dis.c ****                     Cy_BLE_DISC_ReadResponseEventHandler((cy_stc_ble_gattc_read_rsp_param_t*)eventP
 544:Generated_Source\PSoC6\pdl\middleware\ble/cy_ble_dis.c ****                 }
 545:Generated_Source\PSoC6\pdl\middleware\ble/cy_ble_dis.c ****                 break;
 546:Generated_Source\PSoC6\pdl\middleware\ble/cy_ble_dis.c ****         #endif /* CY_BLE_DIS_CLIENT */
 547:Generated_Source\PSoC6\pdl\middleware\ble/cy_ble_dis.c ****             default:
 548:Generated_Source\PSoC6\pdl\middleware\ble/cy_ble_dis.c ****                 break;
 549:Generated_Source\PSoC6\pdl\middleware\ble/cy_ble_dis.c ****         }
 550:Generated_Source\PSoC6\pdl\middleware\ble/cy_ble_dis.c ****     }
 551:Generated_Source\PSoC6\pdl\middleware\ble/cy_ble_dis.c **** 
 552:Generated_Source\PSoC6\pdl\middleware\ble/cy_ble_dis.c ****     return(CY_BLE_GATT_ERR_NONE);
 553:Generated_Source\PSoC6\pdl\middleware\ble/cy_ble_dis.c **** }
  34              		.loc 1 553 0
  35 0000 0020     		movs	r0, #0
  36              	.LVL1:
  37 0002 7047     		bx	lr
  38              		.cfi_endproc
  39              	.LFE289:
  40              		.size	Cy_BLE_DIS_EventHandler, .-Cy_BLE_DIS_EventHandler
  41              		.section	.text.Cy_BLE_DIS_Init,"ax",%progbits
  42              		.align	2
  43              		.global	Cy_BLE_DIS_Init
  44              		.thumb
  45              		.thumb_func
  46              		.type	Cy_BLE_DIS_Init, %function
  47              	Cy_BLE_DIS_Init:
  48              	.LFB285:
  70:Generated_Source\PSoC6\pdl\middleware\ble/cy_ble_dis.c ****     cy_en_ble_api_result_t apiResult;
  49              		.loc 1 70 0
  50              		.cfi_startproc
  51              		@ args = 0, pretend = 0, frame = 0
  52              		@ frame_needed = 0, uses_anonymous_args = 0
  53              	.LVL2:
  73:Generated_Source\PSoC6\pdl\middleware\ble/cy_ble_dis.c ****     {
  54              		.loc 1 73 0
  55 0000 30B1     		cbz	r0, .L4
  70:Generated_Source\PSoC6\pdl\middleware\ble/cy_ble_dis.c ****     cy_en_ble_api_result_t apiResult;
  56              		.loc 1 70 0
  57 0002 08B5     		push	{r3, lr}
  58              		.cfi_def_cfa_offset 8
  59              		.cfi_offset 3, -8
  60              		.cfi_offset 14, -4
  80:Generated_Source\PSoC6\pdl\middleware\ble/cy_ble_dis.c **** 
  61              		.loc 1 80 0
  62 0004 034A     		ldr	r2, .L7
  63 0006 1060     		str	r0, [r2]
  83:Generated_Source\PSoC6\pdl\middleware\ble/cy_ble_dis.c **** 
  64              		.loc 1 83 0
  65 0008 0348     		ldr	r0, .L7+4
  66              	.LVL3:
  67 000a FFF7FEFF 		bl	Cy_BLE_RegisterServiceEventHandler
  68              	.LVL4:
  69 000e 08BD     		pop	{r3, pc}
ARM GAS  C:\Users\codyg\AppData\Local\Temp\ccLTRIO4.s 			page 12


  70              	.LVL5:
  71              	.L4:
  72              		.cfi_def_cfa_offset 0
  73              		.cfi_restore 3
  74              		.cfi_restore 14
  75:Generated_Source\PSoC6\pdl\middleware\ble/cy_ble_dis.c ****     }
  75              		.loc 1 75 0
  76 0010 0248     		ldr	r0, .L7+8
  77              	.LVL6:
  78 0012 7047     		bx	lr
  79              	.L8:
  80              		.align	2
  81              	.L7:
  82 0014 00000000 		.word	.LANCHOR0
  83 0018 00000000 		.word	Cy_BLE_DIS_EventHandler
  84 001c 01001600 		.word	1441793
  85              		.cfi_endproc
  86              	.LFE285:
  87              		.size	Cy_BLE_DIS_Init, .-Cy_BLE_DIS_Init
  88              		.section	.text.Cy_BLE_DIS_RegisterAttrCallback,"ax",%progbits
  89              		.align	2
  90              		.global	Cy_BLE_DIS_RegisterAttrCallback
  91              		.thumb
  92              		.thumb_func
  93              		.type	Cy_BLE_DIS_RegisterAttrCallback, %function
  94              	Cy_BLE_DIS_RegisterAttrCallback:
  95              	.LFB286:
 141:Generated_Source\PSoC6\pdl\middleware\ble/cy_ble_dis.c ****     cy_en_ble_api_result_t apiResult = CY_BLE_SUCCESS;
  96              		.loc 1 141 0
  97              		.cfi_startproc
  98              		@ args = 0, pretend = 0, frame = 0
  99              		@ frame_needed = 0, uses_anonymous_args = 0
 100              		@ link register save eliminated.
 101              	.LVL7:
 160:Generated_Source\PSoC6\pdl\middleware\ble/cy_ble_dis.c **** 
 102              		.loc 1 160 0
 103 0000 0020     		movs	r0, #0
 104              	.LVL8:
 105 0002 7047     		bx	lr
 106              		.cfi_endproc
 107              	.LFE286:
 108              		.size	Cy_BLE_DIS_RegisterAttrCallback, .-Cy_BLE_DIS_RegisterAttrCallback
 109              		.section	.text.Cy_BLE_DISS_SetCharacteristicValue,"ax",%progbits
 110              		.align	2
 111              		.global	Cy_BLE_DISS_SetCharacteristicValue
 112              		.thumb
 113              		.thumb_func
 114              		.type	Cy_BLE_DISS_SetCharacteristicValue, %function
 115              	Cy_BLE_DISS_SetCharacteristicValue:
 116              	.LFB287:
 187:Generated_Source\PSoC6\pdl\middleware\ble/cy_ble_dis.c ****     cy_en_ble_api_result_t apiResult = CY_BLE_SUCCESS;
 117              		.loc 1 187 0
 118              		.cfi_startproc
 119              		@ args = 0, pretend = 0, frame = 24
 120              		@ frame_needed = 0, uses_anonymous_args = 0
 121              	.LVL9:
 190:Generated_Source\PSoC6\pdl\middleware\ble/cy_ble_dis.c ****     {
ARM GAS  C:\Users\codyg\AppData\Local\Temp\ccLTRIO4.s 			page 13


 122              		.loc 1 190 0
 123 0000 0828     		cmp	r0, #8
 124 0002 17D8     		bhi	.L13
 187:Generated_Source\PSoC6\pdl\middleware\ble/cy_ble_dis.c ****     cy_en_ble_api_result_t apiResult = CY_BLE_SUCCESS;
 125              		.loc 1 187 0
 126 0004 00B5     		push	{lr}
 127              		.cfi_def_cfa_offset 4
 128              		.cfi_offset 14, -4
 129 0006 87B0     		sub	sp, sp, #28
 130              		.cfi_def_cfa_offset 32
 131              	.LBB2:
 197:Generated_Source\PSoC6\pdl\middleware\ble/cy_ble_dis.c ****         {
 132              		.loc 1 197 0
 133 0008 0023     		movs	r3, #0
 134 000a 0293     		str	r3, [sp, #8]
 135 000c 0393     		str	r3, [sp, #12]
 136 000e 0493     		str	r3, [sp, #16]
 137 0010 0593     		str	r3, [sp, #20]
 138 0012 0192     		str	r2, [sp, #4]
 139 0014 ADF80810 		strh	r1, [sp, #8]	@ movhi
 199:Generated_Source\PSoC6\pdl\middleware\ble/cy_ble_dis.c ****             .handleValuePair.value.len  = attrSize,
 140              		.loc 1 199 0
 141 0018 094B     		ldr	r3, .L17
 142 001a 1B68     		ldr	r3, [r3]
 143 001c 1B68     		ldr	r3, [r3]
 144 001e 03EB4000 		add	r0, r3, r0, lsl #1
 145              	.LVL10:
 146 0022 4388     		ldrh	r3, [r0, #2]
 197:Generated_Source\PSoC6\pdl\middleware\ble/cy_ble_dis.c ****         {
 147              		.loc 1 197 0
 148 0024 ADF80C30 		strh	r3, [sp, #12]	@ movhi
 206:Generated_Source\PSoC6\pdl\middleware\ble/cy_ble_dis.c ****         {
 149              		.loc 1 206 0
 150 0028 01A8     		add	r0, sp, #4
 151 002a FFF7FEFF 		bl	Cy_BLE_GATTS_WriteAttributeValueCCCD
 152              	.LVL11:
 153 002e 18B1     		cbz	r0, .L11
 208:Generated_Source\PSoC6\pdl\middleware\ble/cy_ble_dis.c ****         }
 154              		.loc 1 208 0
 155 0030 0448     		ldr	r0, .L17+4
 156              	.LVL12:
 157 0032 01E0     		b	.L11
 158              	.LVL13:
 159              	.L13:
 160              		.cfi_def_cfa_offset 0
 161              		.cfi_restore 14
 162              	.LBE2:
 192:Generated_Source\PSoC6\pdl\middleware\ble/cy_ble_dis.c ****     }
 163              		.loc 1 192 0
 164 0034 0348     		ldr	r0, .L17+4
 165              	.LVL14:
 166 0036 7047     		bx	lr
 167              	.LVL15:
 168              	.L11:
 169              		.cfi_def_cfa_offset 32
 170              		.cfi_offset 14, -4
 213:Generated_Source\PSoC6\pdl\middleware\ble/cy_ble_dis.c **** 
ARM GAS  C:\Users\codyg\AppData\Local\Temp\ccLTRIO4.s 			page 14


 171              		.loc 1 213 0
 172 0038 07B0     		add	sp, sp, #28
 173              		.cfi_def_cfa_offset 4
 174              		@ sp needed
 175 003a 5DF804FB 		ldr	pc, [sp], #4
 176              	.L18:
 177 003e 00BF     		.align	2
 178              	.L17:
 179 0040 00000000 		.word	.LANCHOR0
 180 0044 01001600 		.word	1441793
 181              		.cfi_endproc
 182              	.LFE287:
 183              		.size	Cy_BLE_DISS_SetCharacteristicValue, .-Cy_BLE_DISS_SetCharacteristicValue
 184              		.section	.text.Cy_BLE_DISS_GetCharacteristicValue,"ax",%progbits
 185              		.align	2
 186              		.global	Cy_BLE_DISS_GetCharacteristicValue
 187              		.thumb
 188              		.thumb_func
 189              		.type	Cy_BLE_DISS_GetCharacteristicValue, %function
 190              	Cy_BLE_DISS_GetCharacteristicValue:
 191              	.LFB288:
 238:Generated_Source\PSoC6\pdl\middleware\ble/cy_ble_dis.c ****     cy_en_ble_api_result_t apiResult = CY_BLE_SUCCESS;
 192              		.loc 1 238 0
 193              		.cfi_startproc
 194              		@ args = 0, pretend = 0, frame = 24
 195              		@ frame_needed = 0, uses_anonymous_args = 0
 196              	.LVL16:
 241:Generated_Source\PSoC6\pdl\middleware\ble/cy_ble_dis.c ****     {
 197              		.loc 1 241 0
 198 0000 0828     		cmp	r0, #8
 199 0002 17D8     		bhi	.L22
 238:Generated_Source\PSoC6\pdl\middleware\ble/cy_ble_dis.c ****     cy_en_ble_api_result_t apiResult = CY_BLE_SUCCESS;
 200              		.loc 1 238 0
 201 0004 00B5     		push	{lr}
 202              		.cfi_def_cfa_offset 4
 203              		.cfi_offset 14, -4
 204 0006 87B0     		sub	sp, sp, #28
 205              		.cfi_def_cfa_offset 32
 206              	.LBB3:
 248:Generated_Source\PSoC6\pdl\middleware\ble/cy_ble_dis.c ****         {
 207              		.loc 1 248 0
 208 0008 0023     		movs	r3, #0
 209 000a 0293     		str	r3, [sp, #8]
 210 000c 0393     		str	r3, [sp, #12]
 211 000e 0493     		str	r3, [sp, #16]
 212 0010 0593     		str	r3, [sp, #20]
 213 0012 0192     		str	r2, [sp, #4]
 214 0014 ADF80810 		strh	r1, [sp, #8]	@ movhi
 250:Generated_Source\PSoC6\pdl\middleware\ble/cy_ble_dis.c ****             .handleValuePair.value.len  = attrSize,
 215              		.loc 1 250 0
 216 0018 094B     		ldr	r3, .L26
 217 001a 1B68     		ldr	r3, [r3]
 218 001c 1B68     		ldr	r3, [r3]
 219 001e 03EB4000 		add	r0, r3, r0, lsl #1
 220              	.LVL17:
 221 0022 4388     		ldrh	r3, [r0, #2]
 248:Generated_Source\PSoC6\pdl\middleware\ble/cy_ble_dis.c ****         {
ARM GAS  C:\Users\codyg\AppData\Local\Temp\ccLTRIO4.s 			page 15


 222              		.loc 1 248 0
 223 0024 ADF80C30 		strh	r3, [sp, #12]	@ movhi
 257:Generated_Source\PSoC6\pdl\middleware\ble/cy_ble_dis.c ****         {
 224              		.loc 1 257 0
 225 0028 01A8     		add	r0, sp, #4
 226 002a FFF7FEFF 		bl	Cy_BLE_GATTS_ReadAttributeValueCCCD
 227              	.LVL18:
 228 002e 18B1     		cbz	r0, .L20
 259:Generated_Source\PSoC6\pdl\middleware\ble/cy_ble_dis.c ****         }
 229              		.loc 1 259 0
 230 0030 0448     		ldr	r0, .L26+4
 231              	.LVL19:
 232 0032 01E0     		b	.L20
 233              	.LVL20:
 234              	.L22:
 235              		.cfi_def_cfa_offset 0
 236              		.cfi_restore 14
 237              	.LBE3:
 243:Generated_Source\PSoC6\pdl\middleware\ble/cy_ble_dis.c ****     }
 238              		.loc 1 243 0
 239 0034 0348     		ldr	r0, .L26+4
 240              	.LVL21:
 241 0036 7047     		bx	lr
 242              	.LVL22:
 243              	.L20:
 244              		.cfi_def_cfa_offset 32
 245              		.cfi_offset 14, -4
 264:Generated_Source\PSoC6\pdl\middleware\ble/cy_ble_dis.c **** 
 246              		.loc 1 264 0
 247 0038 07B0     		add	sp, sp, #28
 248              		.cfi_def_cfa_offset 4
 249              		@ sp needed
 250 003a 5DF804FB 		ldr	pc, [sp], #4
 251              	.L27:
 252 003e 00BF     		.align	2
 253              	.L26:
 254 0040 00000000 		.word	.LANCHOR0
 255 0044 01001600 		.word	1441793
 256              		.cfi_endproc
 257              	.LFE288:
 258              		.size	Cy_BLE_DISS_GetCharacteristicValue, .-Cy_BLE_DISS_GetCharacteristicValue
 259              		.global	cy_ble_disConfigPtr
 260              		.bss
 261              		.align	2
 262              		.set	.LANCHOR0,. + 0
 263              		.type	cy_ble_disConfigPtr, %object
 264              		.size	cy_ble_disConfigPtr, 4
 265              	cy_ble_disConfigPtr:
 266 0000 00000000 		.space	4
 267              		.text
 268              	.Letext0:
 269              		.file 2 "c:\\program files (x86)\\cypress\\psoc creator\\4.2\\psoc creator\\import\\gnu\\arm\\5.4.
 270              		.file 3 "c:\\program files (x86)\\cypress\\psoc creator\\4.2\\psoc creator\\import\\gnu\\arm\\5.4.
 271              		.file 4 "Generated_Source\\PSoC6\\pdl\\middleware\\ble\\cy_ble_stack.h"
 272              		.file 5 "Generated_Source\\PSoC6\\pdl\\middleware\\ble\\cy_ble_stack_host_main.h"
 273              		.file 6 "Generated_Source\\PSoC6\\pdl\\middleware\\ble\\cy_ble_stack_gatt.h"
 274              		.file 7 "Generated_Source\\PSoC6\\pdl\\middleware\\ble\\cy_ble_gap.h"
ARM GAS  C:\Users\codyg\AppData\Local\Temp\ccLTRIO4.s 			page 16


 275              		.file 8 "Generated_Source\\PSoC6\\pdl\\middleware\\ble\\cy_ble_stack_gatt_db.h"
 276              		.file 9 "Generated_Source\\PSoC6\\pdl\\middleware\\ble\\cy_ble.h"
 277              		.file 10 "Generated_Source\\PSoC6\\pdl\\middleware\\ble\\cy_ble_dis.h"
 278              		.file 11 "Generated_Source\\PSoC6\\pdl\\middleware\\ble\\cy_ble_hts.h"
 279              		.file 12 "Generated_Source\\PSoC6\\pdl\\middleware\\ble\\cy_ble_event_handler.h"
 280              		.file 13 "Generated_Source\\PSoC6\\pdl\\cmsis/include/core_cm4.h"
 281              		.file 14 "Generated_Source\\PSoC6\\pdl\\middleware\\ble\\cy_ble_gatt.h"