ARM GAS  C:\Users\codyg\AppData\Local\Temp\ccmSWLSY.s 			page 1


   1              		.syntax unified
   2              		.cpu cortex-m4
   3              		.eabi_attribute 27, 1
   4              		.fpu fpv4-sp-d16
   5              		.eabi_attribute 20, 1
   6              		.eabi_attribute 21, 1
   7              		.eabi_attribute 23, 3
   8              		.eabi_attribute 24, 1
   9              		.eabi_attribute 25, 1
  10              		.eabi_attribute 26, 1
  11              		.eabi_attribute 30, 1
  12              		.eabi_attribute 34, 1
  13              		.eabi_attribute 18, 4
  14              		.thumb
  15              		.syntax unified
  16              		.file	"encode.c"
  17              		.text
  18              	.Ltext0:
  19              		.cfi_sections	.debug_frame
  20              		.section	.text.encode_cobs,"ax",%progbits
  21              		.align	2
  22              		.global	encode_cobs
  23              		.thumb
  24              		.thumb_func
  25              		.type	encode_cobs, %function
  26              	encode_cobs:
  27              	.LFB0:
  28              		.file 1 "encode.c"
   1:encode.c      **** /**
   2:encode.c      ****  * Copyright (c) 2019 Tanzen Medical, Inc.
   3:encode.c      ****  *
   4:encode.c      ****  * @file encode.c
   5:encode.c      ****  * @author Nicholas Haltmeyer <hanicho1@umbc.edu>
   6:encode.c      ****  * @date 13 Jan 2019
   7:encode.c      ****  * @brief Routines for encoding RestEaZe frames.
   8:encode.c      ****  */
   9:encode.c      **** 
  10:encode.c      **** #include "encode.h"
  11:encode.c      **** 
  12:encode.c      **** #include <assert.h>
  13:encode.c      **** #include <time.h>
  14:encode.c      **** 
  15:encode.c      **** /**
  16:encode.c      ****  * @brief Encodes a Calendar struct as a Unix timestamp.
  17:encode.c      ****  * @param cal_0 Calendar time.
  18:encode.c      ****  * @return Seconds since 1 Jan 1970.
  19:encode.c      ****  */
  20:encode.c      **** //uint32_t encode_cal(const Calendar *cal_0) {
  21:encode.c      **** //	struct tm cal_1 = { 0 };
  22:encode.c      **** //
  23:encode.c      **** //	cal_1.tm_sec = cal_0->Seconds;
  24:encode.c      **** //	cal_1.tm_min = cal_0->Minutes;
  25:encode.c      **** //	cal_1.tm_hour = cal_0->Hours;
  26:encode.c      **** //	cal_1.tm_mday = cal_0->DayOfMonth;
  27:encode.c      **** //	cal_1.tm_mon = cal_0->Month;
  28:encode.c      **** //	cal_1.tm_year = cal_0->Year - 1970;
  29:encode.c      **** //	cal_1.tm_wday = cal_0->DayOfWeek;
ARM GAS  C:\Users\codyg\AppData\Local\Temp\ccmSWLSY.s 			page 2


  30:encode.c      **** //
  31:encode.c      **** //	/* NOTE setting tm_isdst to -1 will force mktime to check whether DST is in
  32:encode.c      **** //	 * effect. */
  33:encode.c      **** //	cal_1.tm_isdst = -1;
  34:encode.c      **** //
  35:encode.c      **** //	return (uint32_t) mktime(&cal_1);
  36:encode.c      **** //}
  37:encode.c      **** 
  38:encode.c      **** /**
  39:encode.c      ****  * @brief Encodes a frame encoded with consistent overhead byte stuffing.
  40:encode.c      ****  * @param dec Source decoded frame.
  41:encode.c      ****  * @param enc Destination encoded frame.
  42:encode.c      ****  * @param len Length of the source frame in bytes.
  43:encode.c      ****  * @return The length of the encoded frame in bytes.
  44:encode.c      ****  * @see https://en.wikipedia.org/wiki/Consistent_Overhead_Byte_Stuffing
  45:encode.c      ****  */
  46:encode.c      **** size_t encode_cobs(const uint8_t *dec, uint8_t *enc, size_t len) {
  29              		.loc 1 46 0
  30              		.cfi_startproc
  31              		@ args = 0, pretend = 0, frame = 0
  32              		@ frame_needed = 0, uses_anonymous_args = 0
  33              		@ link register save eliminated.
  34              	.LVL0:
  35 0000 F0B4     		push	{r4, r5, r6, r7}
  36              		.cfi_def_cfa_offset 16
  37              		.cfi_offset 4, -16
  38              		.cfi_offset 5, -12
  39              		.cfi_offset 6, -8
  40              		.cfi_offset 7, -4
  41              	.LVL1:
  47:encode.c      **** 	const uint8_t *beg = enc;
  48:encode.c      **** 	const uint8_t *end = dec + len;
  42              		.loc 1 48 0
  43 0002 0244     		add	r2, r2, r0
  44              	.LVL2:
  49:encode.c      **** 
  50:encode.c      **** 	uint8_t *code;
  51:encode.c      **** 	uint8_t curs;
  52:encode.c      **** 
  53:encode.c      **** 	code = enc++;
  45              		.loc 1 53 0
  46 0004 4C1C     		adds	r4, r1, #1
  47              	.LVL3:
  48 0006 0F46     		mov	r7, r1
  54:encode.c      **** 	curs = 1;
  49              		.loc 1 54 0
  50 0008 0123     		movs	r3, #1
  55:encode.c      **** 
  56:encode.c      **** 	while (dec < end) {
  51              		.loc 1 56 0
  52 000a 10E0     		b	.L2
  53              	.LVL4:
  54              	.L5:
  57:encode.c      **** 		if (curs != 0xFF) {
  55              		.loc 1 57 0
  56 000c FF2B     		cmp	r3, #255
  57 000e 08D0     		beq	.L6
ARM GAS  C:\Users\codyg\AppData\Local\Temp\ccmSWLSY.s 			page 3


  58              	.LBB2:
  58:encode.c      **** 			uint8_t tmp = *dec++;
  59              		.loc 1 58 0
  60 0010 451C     		adds	r5, r0, #1
  61              	.LVL5:
  62 0012 0678     		ldrb	r6, [r0]	@ zero_extendqisi2
  63              	.LVL6:
  59:encode.c      **** 
  60:encode.c      **** 			if (tmp != 0) {
  64              		.loc 1 60 0
  65 0014 36B1     		cbz	r6, .L3
  66              	.LVL7:
  61:encode.c      **** 				*enc++ = tmp;
  67              		.loc 1 61 0
  68 0016 2670     		strb	r6, [r4]
  62:encode.c      **** 				curs++;
  69              		.loc 1 62 0
  70 0018 0133     		adds	r3, r3, #1
  71              	.LVL8:
  72 001a DBB2     		uxtb	r3, r3
  73              	.LVL9:
  61:encode.c      **** 				*enc++ = tmp;
  74              		.loc 1 61 0
  75 001c 0134     		adds	r4, r4, #1
  76              	.LVL10:
  58:encode.c      **** 
  77              		.loc 1 58 0
  78 001e 2846     		mov	r0, r5
  63:encode.c      **** 				continue;
  79              		.loc 1 63 0
  80 0020 05E0     		b	.L2
  81              	.LVL11:
  82              	.L6:
  83 0022 0546     		mov	r5, r0
  84              	.LVL12:
  85              	.L3:
  86              	.LBE2:
  64:encode.c      **** 			}
  65:encode.c      **** 		}
  66:encode.c      **** 
  67:encode.c      **** 		*code = curs;
  87              		.loc 1 67 0
  88 0024 3B70     		strb	r3, [r7]
  89              	.LVL13:
  68:encode.c      **** 		code = enc++;
  90              		.loc 1 68 0
  91 0026 2746     		mov	r7, r4
  92 0028 0134     		adds	r4, r4, #1
  93              	.LVL14:
  94 002a 2846     		mov	r0, r5
  69:encode.c      **** 		curs = 1;
  95              		.loc 1 69 0
  96 002c 0123     		movs	r3, #1
  97              	.LVL15:
  98              	.L2:
  56:encode.c      **** 		if (curs != 0xFF) {
  99              		.loc 1 56 0
ARM GAS  C:\Users\codyg\AppData\Local\Temp\ccmSWLSY.s 			page 4


 100 002e 9042     		cmp	r0, r2
 101 0030 ECD3     		bcc	.L5
  70:encode.c      **** 	}
  71:encode.c      **** 
  72:encode.c      **** 	*code = curs;
 102              		.loc 1 72 0
 103 0032 3B70     		strb	r3, [r7]
  73:encode.c      **** 	*enc = 0;
 104              		.loc 1 73 0
 105 0034 0023     		movs	r3, #0
 106              	.LVL16:
 107 0036 2370     		strb	r3, [r4]
 108              	.LVL17:
  74:encode.c      **** 	return enc - beg;
  75:encode.c      **** }
 109              		.loc 1 75 0
 110 0038 601A     		subs	r0, r4, r1
 111              	.LVL18:
 112 003a F0BC     		pop	{r4, r5, r6, r7}
 113              		.cfi_restore 7
 114              		.cfi_restore 6
 115              		.cfi_restore 5
 116              		.cfi_restore 4
 117              		.cfi_def_cfa_offset 0
 118              	.LVL19:
 119 003c 7047     		bx	lr
 120              		.cfi_endproc
 121              	.LFE0:
 122              		.size	encode_cobs, .-encode_cobs
 123 003e 00BF     		.section	.text.msb_offset8,"ax",%progbits
 124              		.align	2
 125              		.global	msb_offset8
 126              		.thumb
 127              		.thumb_func
 128              		.type	msb_offset8, %function
 129              	msb_offset8:
 130              	.LFB1:
  76:encode.c      **** 
  77:encode.c      **** /**
  78:encode.c      ****  * @brief Computes the number of most-significant padding bits for 8-bit fields.
  79:encode.c      ****  * @param data 8-bit field.
  80:encode.c      ****  * @return Number of most-significant padding bits.
  81:encode.c      ****  * @see https://graphics.stanford.edu/~seander/bithacks.html
  82:encode.c      ****  */
  83:encode.c      **** uint8_t msb_offset8(uint8_t data) {
 131              		.loc 1 83 0
 132              		.cfi_startproc
 133              		@ args = 0, pretend = 0, frame = 0
 134              		@ frame_needed = 0, uses_anonymous_args = 0
 135              		@ link register save eliminated.
 136              	.LVL20:
  84:encode.c      **** 	uint8_t n = 0;
  85:encode.c      **** 
  86:encode.c      **** 	if (data == 0)
 137              		.loc 1 86 0
 138 0000 0346     		mov	r3, r0
 139 0002 90B1     		cbz	r0, .L12
ARM GAS  C:\Users\codyg\AppData\Local\Temp\ccmSWLSY.s 			page 5


  87:encode.c      **** 		return 8;
  88:encode.c      **** 	if (data <= 0x0F)
 140              		.loc 1 88 0
 141 0004 0F28     		cmp	r0, #15
 142 0006 03D8     		bhi	.L13
 143              	.LVL21:
  89:encode.c      **** 		n += 4, data <<= 4u;
 144              		.loc 1 89 0
 145 0008 0301     		lsls	r3, r0, #4
 146 000a DBB2     		uxtb	r3, r3
 147              	.LVL22:
 148 000c 0420     		movs	r0, #4
 149 000e 00E0     		b	.L10
 150              	.LVL23:
 151              	.L13:
  84:encode.c      **** 	uint8_t n = 0;
 152              		.loc 1 84 0
 153 0010 0020     		movs	r0, #0
 154              	.LVL24:
 155              	.L10:
  90:encode.c      **** 	if (data <= 0x3F)
 156              		.loc 1 90 0
 157 0012 3F2B     		cmp	r3, #63
 158 0014 03D8     		bhi	.L11
  91:encode.c      **** 		n += 2, data <<= 2u;
 159              		.loc 1 91 0
 160 0016 0230     		adds	r0, r0, #2
 161              	.LVL25:
 162 0018 C0B2     		uxtb	r0, r0
 163              	.LVL26:
 164 001a 9B00     		lsls	r3, r3, #2
 165              	.LVL27:
 166 001c DBB2     		uxtb	r3, r3
 167              	.LVL28:
 168              	.L11:
  92:encode.c      **** 	if (data <= 0x7F)
 169              		.loc 1 92 0
 170 001e 13F0800F 		tst	r3, #128
 171 0022 03D1     		bne	.L9
  93:encode.c      **** 		n++;
 172              		.loc 1 93 0
 173 0024 0130     		adds	r0, r0, #1
 174              	.LVL29:
 175 0026 C0B2     		uxtb	r0, r0
 176 0028 7047     		bx	lr
 177              	.LVL30:
 178              	.L12:
  87:encode.c      **** 	if (data <= 0x0F)
 179              		.loc 1 87 0
 180 002a 0820     		movs	r0, #8
 181              	.LVL31:
 182              	.L9:
  94:encode.c      **** 
  95:encode.c      **** 	return n;
  96:encode.c      **** }
 183              		.loc 1 96 0
 184 002c 7047     		bx	lr
ARM GAS  C:\Users\codyg\AppData\Local\Temp\ccmSWLSY.s 			page 6


 185              		.cfi_endproc
 186              	.LFE1:
 187              		.size	msb_offset8, .-msb_offset8
 188 002e 00BF     		.section	.text.msb_offset16,"ax",%progbits
 189              		.align	2
 190              		.global	msb_offset16
 191              		.thumb
 192              		.thumb_func
 193              		.type	msb_offset16, %function
 194              	msb_offset16:
 195              	.LFB2:
  97:encode.c      **** 
  98:encode.c      **** /**
  99:encode.c      ****  * @brief Computes the number of most-significant padding bits for 16-bit
 100:encode.c      ****  * fields.
 101:encode.c      ****  * @param data 16-bit field.
 102:encode.c      ****  * @return Number of most-significant padding bits.
 103:encode.c      ****  * @see https://graphics.stanford.edu/~seander/bithacks.html
 104:encode.c      ****  */
 105:encode.c      **** uint8_t msb_offset16(uint16_t data) {
 196              		.loc 1 105 0
 197              		.cfi_startproc
 198              		@ args = 0, pretend = 0, frame = 0
 199              		@ frame_needed = 0, uses_anonymous_args = 0
 200              		@ link register save eliminated.
 201              	.LVL32:
 106:encode.c      **** 	uint8_t n = 0;
 107:encode.c      **** 
 108:encode.c      **** 	if (data == 0)
 202              		.loc 1 108 0
 203 0000 0346     		mov	r3, r0
 204 0002 D0B1     		cbz	r0, .L20
 109:encode.c      **** 		return 16;
 110:encode.c      **** 	if (data <= 0x00FF)
 205              		.loc 1 110 0
 206 0004 FF28     		cmp	r0, #255
 207 0006 03D8     		bhi	.L21
 208              	.LVL33:
 111:encode.c      **** 		n += 8, data <<= 8u;
 209              		.loc 1 111 0
 210 0008 0302     		lsls	r3, r0, #8
 211 000a 9BB2     		uxth	r3, r3
 212              	.LVL34:
 213 000c 0820     		movs	r0, #8
 214 000e 00E0     		b	.L17
 215              	.LVL35:
 216              	.L21:
 106:encode.c      **** 	uint8_t n = 0;
 217              		.loc 1 106 0
 218 0010 0020     		movs	r0, #0
 219              	.LVL36:
 220              	.L17:
 112:encode.c      **** 	if (data <= 0x0FFF)
 221              		.loc 1 112 0
 222 0012 B3F5805F 		cmp	r3, #4096
 223 0016 03D2     		bcs	.L18
 113:encode.c      **** 		n += 4, data <<= 4u;
ARM GAS  C:\Users\codyg\AppData\Local\Temp\ccmSWLSY.s 			page 7


 224              		.loc 1 113 0
 225 0018 0430     		adds	r0, r0, #4
 226              	.LVL37:
 227 001a C0B2     		uxtb	r0, r0
 228              	.LVL38:
 229 001c 1B01     		lsls	r3, r3, #4
 230              	.LVL39:
 231 001e 9BB2     		uxth	r3, r3
 232              	.LVL40:
 233              	.L18:
 114:encode.c      **** 	if (data <= 0x3FFF)
 234              		.loc 1 114 0
 235 0020 B3F5804F 		cmp	r3, #16384
 236 0024 03D2     		bcs	.L19
 115:encode.c      **** 		n += 2, data <<= 2u;
 237              		.loc 1 115 0
 238 0026 0230     		adds	r0, r0, #2
 239              	.LVL41:
 240 0028 C0B2     		uxtb	r0, r0
 241              	.LVL42:
 242 002a 9B00     		lsls	r3, r3, #2
 243              	.LVL43:
 244 002c 9BB2     		uxth	r3, r3
 245              	.LVL44:
 246              	.L19:
 116:encode.c      **** 	if (data <= 0x7FFF)
 247              		.loc 1 116 0
 248 002e 13F4004F 		tst	r3, #32768
 249 0032 03D1     		bne	.L16
 117:encode.c      **** 		n++;
 250              		.loc 1 117 0
 251 0034 0130     		adds	r0, r0, #1
 252              	.LVL45:
 253 0036 C0B2     		uxtb	r0, r0
 254 0038 7047     		bx	lr
 255              	.LVL46:
 256              	.L20:
 109:encode.c      **** 	if (data <= 0x00FF)
 257              		.loc 1 109 0
 258 003a 1020     		movs	r0, #16
 259              	.LVL47:
 260              	.L16:
 118:encode.c      **** 
 119:encode.c      **** 	return n;
 120:encode.c      **** }
 261              		.loc 1 120 0
 262 003c 7047     		bx	lr
 263              		.cfi_endproc
 264              	.LFE2:
 265              		.size	msb_offset16, .-msb_offset16
 266 003e 00BF     		.section	.text.msb_offset32,"ax",%progbits
 267              		.align	2
 268              		.global	msb_offset32
 269              		.thumb
 270              		.thumb_func
 271              		.type	msb_offset32, %function
 272              	msb_offset32:
ARM GAS  C:\Users\codyg\AppData\Local\Temp\ccmSWLSY.s 			page 8


 273              	.LFB3:
 121:encode.c      **** 
 122:encode.c      **** /**
 123:encode.c      ****  * @brief Computes the number of most-significant padding bits for 32-bit
 124:encode.c      ****  * fields.
 125:encode.c      ****  * @param data 32-bit field.
 126:encode.c      ****  * @return Number of most-significant padding bits.
 127:encode.c      ****  * @see https://graphics.stanford.edu/~seander/bithacks.html
 128:encode.c      ****  */
 129:encode.c      **** uint8_t msb_offset32(uint32_t data) {
 274              		.loc 1 129 0
 275              		.cfi_startproc
 276              		@ args = 0, pretend = 0, frame = 0
 277              		@ frame_needed = 0, uses_anonymous_args = 0
 278              		@ link register save eliminated.
 279              	.LVL48:
 280 0000 0246     		mov	r2, r0
 281              	.LVL49:
 130:encode.c      **** 	uint8_t n = 0;
 131:encode.c      **** 
 132:encode.c      **** 	if (data <= 0x0000FFFF)
 282              		.loc 1 132 0
 283 0002 B0F5803F 		cmp	r0, #65536
 284 0006 02D2     		bcs	.L29
 285              	.LVL50:
 133:encode.c      **** 		n += 16, data <<= 16u;
 286              		.loc 1 133 0
 287 0008 0204     		lsls	r2, r0, #16
 288              	.LVL51:
 289 000a 1020     		movs	r0, #16
 290 000c 00E0     		b	.L24
 291              	.LVL52:
 292              	.L29:
 130:encode.c      **** 	uint8_t n = 0;
 293              		.loc 1 130 0
 294 000e 0020     		movs	r0, #0
 295              	.LVL53:
 296              	.L24:
 134:encode.c      **** 	if (data <= 0x00FFFFFF)
 297              		.loc 1 134 0
 298 0010 B2F1807F 		cmp	r2, #16777216
 299 0014 03D2     		bcs	.L25
 135:encode.c      **** 		n += 8, data <<= 8u;
 300              		.loc 1 135 0
 301 0016 00F10803 		add	r3, r0, #8
 302 001a D8B2     		uxtb	r0, r3
 303              	.LVL54:
 304 001c 1202     		lsls	r2, r2, #8
 305              	.LVL55:
 306              	.L25:
 136:encode.c      **** 	if (data <= 0x0FFFFFFF)
 307              		.loc 1 136 0
 308 001e B2F1805F 		cmp	r2, #268435456
 309 0022 02D2     		bcs	.L26
 137:encode.c      **** 		n += 4, data <<= 4u;
 310              		.loc 1 137 0
 311 0024 031D     		adds	r3, r0, #4
ARM GAS  C:\Users\codyg\AppData\Local\Temp\ccmSWLSY.s 			page 9


 312 0026 D8B2     		uxtb	r0, r3
 313              	.LVL56:
 314 0028 1201     		lsls	r2, r2, #4
 315              	.LVL57:
 316              	.L26:
 138:encode.c      **** 	if (data <= 0x3FFFFFFF)
 317              		.loc 1 138 0
 318 002a B2F1804F 		cmp	r2, #1073741824
 319 002e 02D2     		bcs	.L27
 139:encode.c      **** 		n += 2, data <<= 2u;
 320              		.loc 1 139 0
 321 0030 831C     		adds	r3, r0, #2
 322 0032 D8B2     		uxtb	r0, r3
 323              	.LVL58:
 324 0034 9200     		lsls	r2, r2, #2
 325              	.LVL59:
 326              	.L27:
 140:encode.c      **** 	if (data <= 0x7FFFFFFF)
 327              		.loc 1 140 0
 328 0036 002A     		cmp	r2, #0
 329 0038 01DB     		blt	.L28
 141:encode.c      **** 		n++;
 330              		.loc 1 141 0
 331 003a 0130     		adds	r0, r0, #1
 332              	.LVL60:
 333 003c C0B2     		uxtb	r0, r0
 334              	.LVL61:
 335              	.L28:
 142:encode.c      **** 
 143:encode.c      **** 	return n;
 144:encode.c      **** }
 336              		.loc 1 144 0
 337 003e 7047     		bx	lr
 338              		.cfi_endproc
 339              	.LFE3:
 340              		.size	msb_offset32, .-msb_offset32
 341              		.section	.text.lsb_offset8,"ax",%progbits
 342              		.align	2
 343              		.global	lsb_offset8
 344              		.thumb
 345              		.thumb_func
 346              		.type	lsb_offset8, %function
 347              	lsb_offset8:
 348              	.LFB4:
 145:encode.c      **** 
 146:encode.c      **** /**
 147:encode.c      ****  * @brief Computes the number of least-significant padding bits for 8-bit
 148:encode.c      ****  * fields.
 149:encode.c      ****  * @param data 8-bit field.
 150:encode.c      ****  * @return Number of least-significant padding bits.
 151:encode.c      ****  * @see https://graphics.stanford.edu/~seander/bithacks.html
 152:encode.c      ****  */
 153:encode.c      **** uint8_t lsb_offset8(uint8_t data) {
 349              		.loc 1 153 0
 350              		.cfi_startproc
 351              		@ args = 0, pretend = 0, frame = 0
 352              		@ frame_needed = 0, uses_anonymous_args = 0
ARM GAS  C:\Users\codyg\AppData\Local\Temp\ccmSWLSY.s 			page 10


 353              		@ link register save eliminated.
 354              	.LVL62:
 154:encode.c      **** 	uint8_t n = 1;
 155:encode.c      **** 
 156:encode.c      **** 	if (data & 0x1u)
 355              		.loc 1 156 0
 356 0000 10F0010F 		tst	r0, #1
 357 0004 12D1     		bne	.L34
 157:encode.c      **** 		return 0;
 158:encode.c      **** 	if (data == 0)
 358              		.loc 1 158 0
 359 0006 98B1     		cbz	r0, .L35
 159:encode.c      **** 		return 8;
 160:encode.c      **** 	if ((data & 0x0Fu) == 0)
 360              		.loc 1 160 0
 361 0008 10F00F0F 		tst	r0, #15
 362 000c 02D1     		bne	.L36
 363              	.LVL63:
 161:encode.c      **** 		n += 4, data >>= 4u;
 364              		.loc 1 161 0
 365 000e 0009     		lsrs	r0, r0, #4
 366              	.LVL64:
 367 0010 0523     		movs	r3, #5
 368 0012 00E0     		b	.L32
 369              	.LVL65:
 370              	.L36:
 154:encode.c      **** 
 371              		.loc 1 154 0
 372 0014 0123     		movs	r3, #1
 373              	.LVL66:
 374              	.L32:
 162:encode.c      **** 	if ((data & 0x03u) == 0)
 375              		.loc 1 162 0
 376 0016 10F0030F 		tst	r0, #3
 377 001a 02D1     		bne	.L33
 163:encode.c      **** 		n += 2, data >>= 2u;
 378              		.loc 1 163 0
 379 001c 0233     		adds	r3, r3, #2
 380              	.LVL67:
 381 001e DBB2     		uxtb	r3, r3
 382              	.LVL68:
 383 0020 8008     		lsrs	r0, r0, #2
 384              	.LVL69:
 385              	.L33:
 164:encode.c      **** 
 165:encode.c      **** 	n -= data & 0x1u;
 386              		.loc 1 165 0
 387 0022 00F00100 		and	r0, r0, #1
 388              	.LVL70:
 389 0026 181A     		subs	r0, r3, r0
 390 0028 C0B2     		uxtb	r0, r0
 391              	.LVL71:
 166:encode.c      **** 
 167:encode.c      **** 	return n;
 392              		.loc 1 167 0
 393 002a 7047     		bx	lr
 394              	.LVL72:
ARM GAS  C:\Users\codyg\AppData\Local\Temp\ccmSWLSY.s 			page 11


 395              	.L34:
 157:encode.c      **** 	if (data == 0)
 396              		.loc 1 157 0
 397 002c 0020     		movs	r0, #0
 398              	.LVL73:
 399 002e 7047     		bx	lr
 400              	.LVL74:
 401              	.L35:
 159:encode.c      **** 	if ((data & 0x0Fu) == 0)
 402              		.loc 1 159 0
 403 0030 0820     		movs	r0, #8
 404              	.LVL75:
 168:encode.c      **** }
 405              		.loc 1 168 0
 406 0032 7047     		bx	lr
 407              		.cfi_endproc
 408              	.LFE4:
 409              		.size	lsb_offset8, .-lsb_offset8
 410              		.section	.text.lsb_offset16,"ax",%progbits
 411              		.align	2
 412              		.global	lsb_offset16
 413              		.thumb
 414              		.thumb_func
 415              		.type	lsb_offset16, %function
 416              	lsb_offset16:
 417              	.LFB5:
 169:encode.c      **** 
 170:encode.c      **** /**
 171:encode.c      ****  * @brief Computes the number of least-significant padding bits for 16-bit
 172:encode.c      ****  * fields.
 173:encode.c      ****  * @param data 16-bit field.
 174:encode.c      ****  * @return Number of least-significant padding bits.
 175:encode.c      ****  * @see https://graphics.stanford.edu/~seander/bithacks.html
 176:encode.c      ****  */
 177:encode.c      **** uint8_t lsb_offset16(uint16_t data) {
 418              		.loc 1 177 0
 419              		.cfi_startproc
 420              		@ args = 0, pretend = 0, frame = 0
 421              		@ frame_needed = 0, uses_anonymous_args = 0
 422              		@ link register save eliminated.
 423              	.LVL76:
 178:encode.c      **** 	uint8_t n = 1;
 179:encode.c      **** 
 180:encode.c      **** 	if (data & 0x1u)
 424              		.loc 1 180 0
 425 0000 10F0010F 		tst	r0, #1
 426 0004 18D1     		bne	.L42
 181:encode.c      **** 		return 0;
 182:encode.c      **** 	if (data == 0)
 427              		.loc 1 182 0
 428 0006 C8B1     		cbz	r0, .L43
 183:encode.c      **** 		return 16;
 184:encode.c      **** 	if ((data & 0x00FFu) == 0)
 429              		.loc 1 184 0
 430 0008 10F0FF0F 		tst	r0, #255
 431 000c 02D1     		bne	.L44
 432              	.LVL77:
ARM GAS  C:\Users\codyg\AppData\Local\Temp\ccmSWLSY.s 			page 12


 185:encode.c      **** 		n += 8, data >>= 8u;
 433              		.loc 1 185 0
 434 000e 000A     		lsrs	r0, r0, #8
 435              	.LVL78:
 436 0010 0923     		movs	r3, #9
 437 0012 00E0     		b	.L39
 438              	.LVL79:
 439              	.L44:
 178:encode.c      **** 
 440              		.loc 1 178 0
 441 0014 0123     		movs	r3, #1
 442              	.LVL80:
 443              	.L39:
 186:encode.c      **** 	if ((data & 0x000Fu) == 0)
 444              		.loc 1 186 0
 445 0016 10F00F0F 		tst	r0, #15
 446 001a 02D1     		bne	.L40
 187:encode.c      **** 		n += 4, data >>= 4u;
 447              		.loc 1 187 0
 448 001c 0433     		adds	r3, r3, #4
 449              	.LVL81:
 450 001e DBB2     		uxtb	r3, r3
 451              	.LVL82:
 452 0020 0009     		lsrs	r0, r0, #4
 453              	.LVL83:
 454              	.L40:
 188:encode.c      **** 	if ((data & 0x0003u) == 0)
 455              		.loc 1 188 0
 456 0022 10F0030F 		tst	r0, #3
 457 0026 02D1     		bne	.L41
 189:encode.c      **** 		n += 2, data >>= 2u;
 458              		.loc 1 189 0
 459 0028 0233     		adds	r3, r3, #2
 460              	.LVL84:
 461 002a DBB2     		uxtb	r3, r3
 462              	.LVL85:
 463 002c 8008     		lsrs	r0, r0, #2
 464              	.LVL86:
 465              	.L41:
 190:encode.c      **** 
 191:encode.c      **** 	n -= data & 0x1u;
 466              		.loc 1 191 0
 467 002e 00F00100 		and	r0, r0, #1
 468              	.LVL87:
 469 0032 181A     		subs	r0, r3, r0
 470 0034 C0B2     		uxtb	r0, r0
 471              	.LVL88:
 192:encode.c      **** 
 193:encode.c      **** 	return n;
 472              		.loc 1 193 0
 473 0036 7047     		bx	lr
 474              	.LVL89:
 475              	.L42:
 181:encode.c      **** 	if (data == 0)
 476              		.loc 1 181 0
 477 0038 0020     		movs	r0, #0
 478              	.LVL90:
ARM GAS  C:\Users\codyg\AppData\Local\Temp\ccmSWLSY.s 			page 13


 479 003a 7047     		bx	lr
 480              	.LVL91:
 481              	.L43:
 183:encode.c      **** 	if ((data & 0x00FFu) == 0)
 482              		.loc 1 183 0
 483 003c 1020     		movs	r0, #16
 484              	.LVL92:
 194:encode.c      **** }
 485              		.loc 1 194 0
 486 003e 7047     		bx	lr
 487              		.cfi_endproc
 488              	.LFE5:
 489              		.size	lsb_offset16, .-lsb_offset16
 490              		.section	.text.lsb_offset32,"ax",%progbits
 491              		.align	2
 492              		.global	lsb_offset32
 493              		.thumb
 494              		.thumb_func
 495              		.type	lsb_offset32, %function
 496              	lsb_offset32:
 497              	.LFB6:
 195:encode.c      **** 
 196:encode.c      **** /**
 197:encode.c      ****  * @brief Computes the number of least-significant padding bits for 32-bit
 198:encode.c      ****  * fields.
 199:encode.c      ****  * @param data 32-bit field.
 200:encode.c      ****  * @return Number of least-significant padding bits.
 201:encode.c      ****  * @see https://graphics.stanford.edu/~seander/bithacks.html
 202:encode.c      ****  */
 203:encode.c      **** uint8_t lsb_offset32(uint32_t data) {
 498              		.loc 1 203 0
 499              		.cfi_startproc
 500              		@ args = 0, pretend = 0, frame = 0
 501              		@ frame_needed = 0, uses_anonymous_args = 0
 502              		@ link register save eliminated.
 503              	.LVL93:
 204:encode.c      **** 	uint8_t n = 1;
 205:encode.c      **** 
 206:encode.c      **** 	if (data & 0x1u)
 504              		.loc 1 206 0
 505 0000 10F0010F 		tst	r0, #1
 506 0004 1DD1     		bne	.L51
 207:encode.c      **** 		return 0;
 208:encode.c      **** 	if (data == 0)
 507              		.loc 1 208 0
 508 0006 F0B1     		cbz	r0, .L52
 209:encode.c      **** 		return 32;
 210:encode.c      **** 	if ((data & 0xFFFFu) == 0)
 509              		.loc 1 210 0
 510 0008 83B2     		uxth	r3, r0
 511 000a 13B9     		cbnz	r3, .L53
 512              	.LVL94:
 211:encode.c      **** 		n += 16, data >>= 16u;
 513              		.loc 1 211 0
 514 000c 000C     		lsrs	r0, r0, #16
 515              	.LVL95:
 516 000e 1123     		movs	r3, #17
ARM GAS  C:\Users\codyg\AppData\Local\Temp\ccmSWLSY.s 			page 14


 517 0010 00E0     		b	.L47
 518              	.LVL96:
 519              	.L53:
 204:encode.c      **** 
 520              		.loc 1 204 0
 521 0012 0123     		movs	r3, #1
 522              	.LVL97:
 523              	.L47:
 212:encode.c      **** 	if ((data & 0x00FFu) == 0)
 524              		.loc 1 212 0
 525 0014 10F0FF0F 		tst	r0, #255
 526 0018 02D1     		bne	.L48
 213:encode.c      **** 		n += 8, data >>= 8u;
 527              		.loc 1 213 0
 528 001a 0833     		adds	r3, r3, #8
 529              	.LVL98:
 530 001c DBB2     		uxtb	r3, r3
 531              	.LVL99:
 532 001e 000A     		lsrs	r0, r0, #8
 533              	.LVL100:
 534              	.L48:
 214:encode.c      **** 	if ((data & 0x000Fu) == 0)
 535              		.loc 1 214 0
 536 0020 10F00F0F 		tst	r0, #15
 537 0024 02D1     		bne	.L49
 215:encode.c      **** 		n += 4, data >>= 4u;
 538              		.loc 1 215 0
 539 0026 0433     		adds	r3, r3, #4
 540              	.LVL101:
 541 0028 DBB2     		uxtb	r3, r3
 542              	.LVL102:
 543 002a 0009     		lsrs	r0, r0, #4
 544              	.LVL103:
 545              	.L49:
 216:encode.c      **** 	if ((data & 0x0003u) == 0)
 546              		.loc 1 216 0
 547 002c 10F0030F 		tst	r0, #3
 548 0030 02D1     		bne	.L50
 217:encode.c      **** 		n += 2, data >>= 2u;
 549              		.loc 1 217 0
 550 0032 0233     		adds	r3, r3, #2
 551              	.LVL104:
 552 0034 DBB2     		uxtb	r3, r3
 553              	.LVL105:
 554 0036 8008     		lsrs	r0, r0, #2
 555              	.LVL106:
 556              	.L50:
 218:encode.c      **** 
 219:encode.c      **** 	n -= data & 0x1u;
 557              		.loc 1 219 0
 558 0038 00F00100 		and	r0, r0, #1
 559              	.LVL107:
 560 003c 181A     		subs	r0, r3, r0
 561 003e C0B2     		uxtb	r0, r0
 562              	.LVL108:
 220:encode.c      **** 
 221:encode.c      **** 	return n;
ARM GAS  C:\Users\codyg\AppData\Local\Temp\ccmSWLSY.s 			page 15


 563              		.loc 1 221 0
 564 0040 7047     		bx	lr
 565              	.LVL109:
 566              	.L51:
 207:encode.c      **** 	if (data == 0)
 567              		.loc 1 207 0
 568 0042 0020     		movs	r0, #0
 569              	.LVL110:
 570 0044 7047     		bx	lr
 571              	.LVL111:
 572              	.L52:
 209:encode.c      **** 	if ((data & 0xFFFFu) == 0)
 573              		.loc 1 209 0
 574 0046 2020     		movs	r0, #32
 575              	.LVL112:
 222:encode.c      **** }
 576              		.loc 1 222 0
 577 0048 7047     		bx	lr
 578              		.cfi_endproc
 579              	.LFE6:
 580              		.size	lsb_offset32, .-lsb_offset32
 581 004a 00BF     		.section	.text.encode_prefix_uint8,"ax",%progbits
 582              		.align	2
 583              		.global	encode_prefix_uint8
 584              		.thumb
 585              		.thumb_func
 586              		.type	encode_prefix_uint8, %function
 587              	encode_prefix_uint8:
 588              	.LFB7:
 223:encode.c      **** 
 224:encode.c      **** /**
 225:encode.c      ****  * @brief Encodes the prefix bits for 8-bit fields.
 226:encode.c      ****  * @param rem Pointer to the current byte cursor.
 227:encode.c      ****  * @param enc Encoded byte array.
 228:encode.c      ****  * @param i Current byte index.
 229:encode.c      ****  * @param j Current bit index.
 230:encode.c      ****  * @return Number of bits in the encoded field.
 231:encode.c      ****  */
 232:encode.c      **** uint8_t encode_prefix_uint8(uint8_t *rem, uint8_t *enc, size_t *i, size_t *j) {
 589              		.loc 1 232 0
 590              		.cfi_startproc
 591              		@ args = 0, pretend = 0, frame = 0
 592              		@ frame_needed = 0, uses_anonymous_args = 0
 593              	.LVL113:
 594 0000 2DE9F843 		push	{r3, r4, r5, r6, r7, r8, r9, lr}
 595              		.cfi_def_cfa_offset 32
 596              		.cfi_offset 3, -32
 597              		.cfi_offset 4, -28
 598              		.cfi_offset 5, -24
 599              		.cfi_offset 6, -20
 600              		.cfi_offset 7, -16
 601              		.cfi_offset 8, -12
 602              		.cfi_offset 9, -8
 603              		.cfi_offset 14, -4
 604 0004 1C46     		mov	r4, r3
 233:encode.c      **** 	assert(*j < 8);
 605              		.loc 1 233 0
ARM GAS  C:\Users\codyg\AppData\Local\Temp\ccmSWLSY.s 			page 16


 606 0006 1B68     		ldr	r3, [r3]
 607              	.LVL114:
 608 0008 072B     		cmp	r3, #7
 609 000a 05D9     		bls	.L55
 610              		.loc 1 233 0 is_stmt 0 discriminator 1
 611 000c 314B     		ldr	r3, .L66
 612 000e 324A     		ldr	r2, .L66+4
 613              	.LVL115:
 614 0010 E921     		movs	r1, #233
 615              	.LVL116:
 616 0012 3248     		ldr	r0, .L66+8
 617              	.LVL117:
 618 0014 FFF7FEFF 		bl	__assert_func
 619              	.LVL118:
 620              	.L55:
 621 0018 0746     		mov	r7, r0
 622 001a 0D46     		mov	r5, r1
 623 001c 1646     		mov	r6, r2
 624              	.LVL119:
 234:encode.c      **** 
 235:encode.c      **** 	uint8_t n_bits = 8;
 236:encode.c      **** 	uint8_t msb_offset = msb_offset8(*rem);
 625              		.loc 1 236 0 is_stmt 1
 626 001e 90F80090 		ldrb	r9, [r0]	@ zero_extendqisi2
 627 0022 4846     		mov	r0, r9
 628              	.LVL120:
 629 0024 FFF7FEFF 		bl	msb_offset8
 630              	.LVL121:
 631 0028 8046     		mov	r8, r0
 632              	.LVL122:
 237:encode.c      **** 	uint8_t lsb_offset = lsb_offset8(*rem);
 633              		.loc 1 237 0
 634 002a 4846     		mov	r0, r9
 635 002c FFF7FEFF 		bl	lsb_offset8
 636              	.LVL123:
 238:encode.c      **** 
 239:encode.c      **** 	/* Account for empty fields (all zeros). */
 240:encode.c      **** 	msb_offset = msb_offset == 8 ? (uint8_t) 7 : msb_offset;
 637              		.loc 1 240 0
 638 0030 B8F1080F 		cmp	r8, #8
 639 0034 01D1     		bne	.L56
 640 0036 4FF00708 		mov	r8, #7
 641              	.LVL124:
 642              	.L56:
 241:encode.c      **** 	lsb_offset = lsb_offset == 8 ? (uint8_t) 7 : lsb_offset;
 643              		.loc 1 241 0 discriminator 4
 644 003a 0828     		cmp	r0, #8
 645 003c 00D1     		bne	.L57
 646              		.loc 1 241 0 is_stmt 0
 647 003e 0720     		movs	r0, #7
 648              	.LVL125:
 649              	.L57:
 242:encode.c      **** 
 243:encode.c      **** 	if (msb_offset >= lsb_offset) {
 650              		.loc 1 243 0 is_stmt 1 discriminator 4
 651 0040 8045     		cmp	r8, r0
 652 0042 07D3     		bcc	.L58
ARM GAS  C:\Users\codyg\AppData\Local\Temp\ccmSWLSY.s 			page 17


 244:encode.c      **** 		n_bits -= msb_offset;
 653              		.loc 1 244 0
 654 0044 C8F10803 		rsb	r3, r8, #8
 655 0048 D9B2     		uxtb	r1, r3
 656              	.LVL126:
 245:encode.c      **** 		(*rem) <<= msb_offset;
 657              		.loc 1 245 0
 658 004a 09FA08F9 		lsl	r9, r9, r8
 659 004e 87F80090 		strb	r9, [r7]
 660 0052 02E0     		b	.L59
 661              	.LVL127:
 662              	.L58:
 246:encode.c      **** 	} else {
 247:encode.c      **** 		n_bits -= lsb_offset;
 663              		.loc 1 247 0
 664 0054 C0F10803 		rsb	r3, r0, #8
 665 0058 D9B2     		uxtb	r1, r3
 666              	.LVL128:
 667              	.L59:
 248:encode.c      **** 	}
 249:encode.c      **** 
 250:encode.c      **** 	uint8_t curs = 0;
 251:encode.c      **** 	uint8_t n_rem = n_bits;
 252:encode.c      **** 
 253:encode.c      **** 	/* First bit indicates MSB or LSB shift. */
 254:encode.c      **** 	if (msb_offset < lsb_offset) {
 668              		.loc 1 254 0
 669 005a 8045     		cmp	r8, r0
 670 005c 01D3     		bcc	.L63
 250:encode.c      **** 	uint8_t n_rem = n_bits;
 671              		.loc 1 250 0
 672 005e 0022     		movs	r2, #0
 673 0060 00E0     		b	.L60
 674              	.L63:
 255:encode.c      **** 		curs = 0b10000000;
 675              		.loc 1 255 0
 676 0062 8022     		movs	r2, #128
 677              	.L60:
 678              	.LVL129:
 256:encode.c      **** 	}
 257:encode.c      **** 
 258:encode.c      **** 	/* Next 3 bits indicate length (in bits). */
 259:encode.c      **** 	curs |= (n_bits - 1) << 4;
 679              		.loc 1 259 0
 680 0064 8E46     		mov	lr, r1
 681 0066 4B1E     		subs	r3, r1, #1
 682 0068 42EA0312 		orr	r2, r2, r3, lsl #4
 683              	.LVL130:
 684 006c 02F0F002 		and	r2, r2, #240
 685              	.LVL131:
 260:encode.c      **** 	curs |= (uint8_t) ((*rem >> 4) & 0b1111);
 686              		.loc 1 260 0
 687 0070 97F800C0 		ldrb	ip, [r7]	@ zero_extendqisi2
 688 0074 42EA1C13 		orr	r3, r2, ip, lsr #4
 689              	.LVL132:
 261:encode.c      **** 	n_rem = (uint8_t) (n_rem < 4 ? 0 : n_rem - 4);
 690              		.loc 1 261 0
ARM GAS  C:\Users\codyg\AppData\Local\Temp\ccmSWLSY.s 			page 18


 691 0078 0329     		cmp	r1, #3
 692 007a 02D9     		bls	.L64
 693              		.loc 1 261 0 is_stmt 0 discriminator 1
 694 007c 081F     		subs	r0, r1, #4
 695              	.LVL133:
 696 007e C0B2     		uxtb	r0, r0
 697 0080 00E0     		b	.L61
 698              	.LVL134:
 699              	.L64:
 700              		.loc 1 261 0
 701 0082 0020     		movs	r0, #0
 702              	.LVL135:
 703              	.L61:
 262:encode.c      **** 	(*rem) <<= 4;
 704              		.loc 1 262 0 is_stmt 1 discriminator 4
 705 0084 4FEA0C1C 		lsl	ip, ip, #4
 706 0088 87F800C0 		strb	ip, [r7]
 263:encode.c      **** 	enc[*i] |= curs >> *j;
 707              		.loc 1 263 0 discriminator 4
 708 008c 3768     		ldr	r7, [r6]
 709              	.LVL136:
 710 008e 2268     		ldr	r2, [r4]
 711 0090 43FA02F2 		asr	r2, r3, r2
 712 0094 15F807C0 		ldrb	ip, [r5, r7]	@ zero_extendqisi2
 713 0098 4CEA0202 		orr	r2, ip, r2
 714 009c EA55     		strb	r2, [r5, r7]
 264:encode.c      **** 
 265:encode.c      **** 	/* Only move over to the next byte if we have remaining values in the cursor.
 266:encode.c      **** 	 */
 267:encode.c      **** 	if (4 + n_bits >= 8 - *j) {
 715              		.loc 1 267 0 discriminator 4
 716 009e 0EF1040E 		add	lr, lr, #4
 717 00a2 2268     		ldr	r2, [r4]
 718 00a4 C2F10802 		rsb	r2, r2, #8
 719 00a8 9645     		cmp	lr, r2
 720 00aa 09D3     		bcc	.L62
 268:encode.c      **** 		*i += 1;
 721              		.loc 1 268 0
 722 00ac 3268     		ldr	r2, [r6]
 723 00ae 0132     		adds	r2, r2, #1
 724 00b0 3260     		str	r2, [r6]
 269:encode.c      **** 		enc[*i] |= curs << (8 - *j);
 725              		.loc 1 269 0
 726 00b2 2668     		ldr	r6, [r4]
 727              	.LVL137:
 728 00b4 C6F10806 		rsb	r6, r6, #8
 729 00b8 B340     		lsls	r3, r3, r6
 730              	.LVL138:
 731 00ba AE5C     		ldrb	r6, [r5, r2]	@ zero_extendqisi2
 732 00bc 3343     		orrs	r3, r3, r6
 733 00be AB54     		strb	r3, [r5, r2]
 734              	.L62:
 270:encode.c      **** 	}
 271:encode.c      **** 
 272:encode.c      **** 	*j = (*j + 4 + n_bits - n_rem) % 8;
 735              		.loc 1 272 0
 736 00c0 2368     		ldr	r3, [r4]
ARM GAS  C:\Users\codyg\AppData\Local\Temp\ccmSWLSY.s 			page 19


 737 00c2 0B44     		add	r3, r3, r1
 738 00c4 1B1A     		subs	r3, r3, r0
 739 00c6 0433     		adds	r3, r3, #4
 740 00c8 03F00703 		and	r3, r3, #7
 741 00cc 2360     		str	r3, [r4]
 273:encode.c      **** 
 274:encode.c      **** 	return n_rem;
 275:encode.c      **** }
 742              		.loc 1 275 0
 743 00ce BDE8F883 		pop	{r3, r4, r5, r6, r7, r8, r9, pc}
 744              	.LVL139:
 745              	.L67:
 746 00d2 00BF     		.align	2
 747              	.L66:
 748 00d4 00000000 		.word	.LC0
 749 00d8 00000000 		.word	.LANCHOR0
 750 00dc 08000000 		.word	.LC1
 751              		.cfi_endproc
 752              	.LFE7:
 753              		.size	encode_prefix_uint8, .-encode_prefix_uint8
 754              		.section	.text.encode_prefix_uint16,"ax",%progbits
 755              		.align	2
 756              		.global	encode_prefix_uint16
 757              		.thumb
 758              		.thumb_func
 759              		.type	encode_prefix_uint16, %function
 760              	encode_prefix_uint16:
 761              	.LFB8:
 276:encode.c      **** 
 277:encode.c      **** /**
 278:encode.c      ****  * @brief Encodes the prefix bits for 16-bit fields.
 279:encode.c      ****  * @param rem Pointer to the current byte cursor.
 280:encode.c      ****  * @param enc Encoded byte array.
 281:encode.c      ****  * @param i Current byte index.
 282:encode.c      ****  * @param j Current bit index.
 283:encode.c      ****  * @return Number of bits in the encoded field.
 284:encode.c      ****  */
 285:encode.c      **** uint8_t encode_prefix_uint16(uint16_t *rem, uint8_t *enc, size_t *i,
 286:encode.c      **** 		size_t *j) {
 762              		.loc 1 286 0
 763              		.cfi_startproc
 764              		@ args = 0, pretend = 0, frame = 0
 765              		@ frame_needed = 0, uses_anonymous_args = 0
 766              	.LVL140:
 767 0000 2DE9F843 		push	{r3, r4, r5, r6, r7, r8, r9, lr}
 768              		.cfi_def_cfa_offset 32
 769              		.cfi_offset 3, -32
 770              		.cfi_offset 4, -28
 771              		.cfi_offset 5, -24
 772              		.cfi_offset 6, -20
 773              		.cfi_offset 7, -16
 774              		.cfi_offset 8, -12
 775              		.cfi_offset 9, -8
 776              		.cfi_offset 14, -4
 777 0004 1C46     		mov	r4, r3
 287:encode.c      **** 	assert(*j < 8);
 778              		.loc 1 287 0
ARM GAS  C:\Users\codyg\AppData\Local\Temp\ccmSWLSY.s 			page 20


 779 0006 1B68     		ldr	r3, [r3]
 780              	.LVL141:
 781 0008 072B     		cmp	r3, #7
 782 000a 06D9     		bls	.L69
 783              		.loc 1 287 0 is_stmt 0 discriminator 1
 784 000c 314B     		ldr	r3, .L80
 785 000e 324A     		ldr	r2, .L80+4
 786              	.LVL142:
 787 0010 40F21F11 		movw	r1, #287
 788              	.LVL143:
 789 0014 3148     		ldr	r0, .L80+8
 790              	.LVL144:
 791 0016 FFF7FEFF 		bl	__assert_func
 792              	.LVL145:
 793              	.L69:
 794 001a 0546     		mov	r5, r0
 795 001c 0E46     		mov	r6, r1
 796 001e 1746     		mov	r7, r2
 797              	.LVL146:
 288:encode.c      **** 
 289:encode.c      **** 	uint8_t n_bits = 16;
 290:encode.c      **** 	uint8_t msb_offset = msb_offset16(*rem);
 798              		.loc 1 290 0 is_stmt 1
 799 0020 B0F80090 		ldrh	r9, [r0]
 800 0024 4846     		mov	r0, r9
 801              	.LVL147:
 802 0026 FFF7FEFF 		bl	msb_offset16
 803              	.LVL148:
 804 002a 8046     		mov	r8, r0
 805              	.LVL149:
 291:encode.c      **** 	uint8_t lsb_offset = lsb_offset16(*rem);
 806              		.loc 1 291 0
 807 002c 4846     		mov	r0, r9
 808 002e FFF7FEFF 		bl	lsb_offset16
 809              	.LVL150:
 292:encode.c      **** 
 293:encode.c      **** 	/* Account for empty fields (all zeros). */
 294:encode.c      **** 	msb_offset = msb_offset == 16 ? (uint8_t) 15 : msb_offset;
 810              		.loc 1 294 0
 811 0032 B8F1100F 		cmp	r8, #16
 812 0036 01D1     		bne	.L70
 813 0038 4FF00F08 		mov	r8, #15
 814              	.LVL151:
 815              	.L70:
 295:encode.c      **** 	lsb_offset = lsb_offset == 16 ? (uint8_t) 15 : lsb_offset;
 816              		.loc 1 295 0 discriminator 4
 817 003c 1028     		cmp	r0, #16
 818 003e 00D1     		bne	.L71
 819              		.loc 1 295 0 is_stmt 0
 820 0040 0F20     		movs	r0, #15
 821              	.LVL152:
 822              	.L71:
 296:encode.c      **** 
 297:encode.c      **** 	if (msb_offset >= lsb_offset) {
 823              		.loc 1 297 0 is_stmt 1 discriminator 4
 824 0042 8045     		cmp	r8, r0
 825 0044 07D3     		bcc	.L72
ARM GAS  C:\Users\codyg\AppData\Local\Temp\ccmSWLSY.s 			page 21


 298:encode.c      **** 		n_bits -= msb_offset;
 826              		.loc 1 298 0
 827 0046 C8F11003 		rsb	r3, r8, #16
 828 004a D9B2     		uxtb	r1, r3
 829              	.LVL153:
 299:encode.c      **** 		(*rem) <<= msb_offset;
 830              		.loc 1 299 0
 831 004c 09FA08F9 		lsl	r9, r9, r8
 832 0050 A5F80090 		strh	r9, [r5]	@ movhi
 833 0054 02E0     		b	.L73
 834              	.LVL154:
 835              	.L72:
 300:encode.c      **** 	} else {
 301:encode.c      **** 		n_bits -= lsb_offset;
 836              		.loc 1 301 0
 837 0056 C0F11003 		rsb	r3, r0, #16
 838 005a D9B2     		uxtb	r1, r3
 839              	.LVL155:
 840              	.L73:
 302:encode.c      **** 	}
 303:encode.c      **** 
 304:encode.c      **** 	uint8_t n_rem = n_bits;
 305:encode.c      **** 	uint8_t curs = 0;
 306:encode.c      **** 
 307:encode.c      **** 	/* First bit indicates MSB or LSB shift. */
 308:encode.c      **** 	if (msb_offset < lsb_offset) {
 841              		.loc 1 308 0
 842 005c 8045     		cmp	r8, r0
 843 005e 01D3     		bcc	.L77
 305:encode.c      **** 
 844              		.loc 1 305 0
 845 0060 0022     		movs	r2, #0
 846 0062 00E0     		b	.L74
 847              	.L77:
 309:encode.c      **** 		curs = 0b10000000;
 848              		.loc 1 309 0
 849 0064 8022     		movs	r2, #128
 850              	.L74:
 851              	.LVL156:
 310:encode.c      **** 	}
 311:encode.c      **** 
 312:encode.c      **** 	/* Next 4 bits indicate length (in bits) */
 313:encode.c      **** 	curs |= (n_bits - 1) << 3;
 852              		.loc 1 313 0
 853 0066 8E46     		mov	lr, r1
 854 0068 4B1E     		subs	r3, r1, #1
 855 006a 42EAC302 		orr	r2, r2, r3, lsl #3
 856              	.LVL157:
 857 006e 52B2     		sxtb	r2, r2
 858              	.LVL158:
 314:encode.c      **** 	curs |= (uint8_t) ((*rem >> 13) & 0b111);
 859              		.loc 1 314 0
 860 0070 B5F800C0 		ldrh	ip, [r5]
 861 0074 42EA5C32 		orr	r2, r2, ip, lsr #13
 862              	.LVL159:
 863 0078 D3B2     		uxtb	r3, r2
 864              	.LVL160:
ARM GAS  C:\Users\codyg\AppData\Local\Temp\ccmSWLSY.s 			page 22


 315:encode.c      **** 	n_rem = (uint8_t) (n_rem < 3 ? 0 : n_rem - 3);
 865              		.loc 1 315 0
 866 007a 0229     		cmp	r1, #2
 867 007c 02D9     		bls	.L78
 868              		.loc 1 315 0 is_stmt 0 discriminator 1
 869 007e C81E     		subs	r0, r1, #3
 870              	.LVL161:
 871 0080 C0B2     		uxtb	r0, r0
 872 0082 00E0     		b	.L75
 873              	.LVL162:
 874              	.L78:
 875              		.loc 1 315 0
 876 0084 0020     		movs	r0, #0
 877              	.LVL163:
 878              	.L75:
 316:encode.c      **** 	(*rem) <<= 3;
 879              		.loc 1 316 0 is_stmt 1 discriminator 4
 880 0086 4FEACC0C 		lsl	ip, ip, #3
 881 008a A5F800C0 		strh	ip, [r5]	@ movhi
 317:encode.c      **** 	enc[*i] |= curs >> *j;
 882              		.loc 1 317 0 discriminator 4
 883 008e 3D68     		ldr	r5, [r7]
 884              	.LVL164:
 885 0090 2268     		ldr	r2, [r4]
 886 0092 43FA02F2 		asr	r2, r3, r2
 887 0096 16F805C0 		ldrb	ip, [r6, r5]	@ zero_extendqisi2
 888 009a 4CEA0202 		orr	r2, ip, r2
 889 009e 7255     		strb	r2, [r6, r5]
 318:encode.c      **** 
 319:encode.c      **** 	/* Only move over to the next byte if we have remaining values in the cursor.
 320:encode.c      **** 	 */
 321:encode.c      **** 	if (5 + n_bits >= 8 - *j) {
 890              		.loc 1 321 0 discriminator 4
 891 00a0 0EF1050E 		add	lr, lr, #5
 892 00a4 2268     		ldr	r2, [r4]
 893 00a6 C2F10802 		rsb	r2, r2, #8
 894 00aa 9645     		cmp	lr, r2
 895 00ac 09D3     		bcc	.L76
 322:encode.c      **** 		*i += 1;
 896              		.loc 1 322 0
 897 00ae 3A68     		ldr	r2, [r7]
 898 00b0 0132     		adds	r2, r2, #1
 899 00b2 3A60     		str	r2, [r7]
 323:encode.c      **** 		enc[*i] |= curs << (8 - *j);
 900              		.loc 1 323 0
 901 00b4 2568     		ldr	r5, [r4]
 902 00b6 C5F10805 		rsb	r5, r5, #8
 903 00ba AB40     		lsls	r3, r3, r5
 904              	.LVL165:
 905 00bc B55C     		ldrb	r5, [r6, r2]	@ zero_extendqisi2
 906 00be 2B43     		orrs	r3, r3, r5
 907 00c0 B354     		strb	r3, [r6, r2]
 908              	.L76:
 324:encode.c      **** 	}
 325:encode.c      **** 
 326:encode.c      **** 	*j = (*j + 5 + n_bits - n_rem) % 8;
 909              		.loc 1 326 0
ARM GAS  C:\Users\codyg\AppData\Local\Temp\ccmSWLSY.s 			page 23


 910 00c2 2368     		ldr	r3, [r4]
 911 00c4 0B44     		add	r3, r3, r1
 912 00c6 1B1A     		subs	r3, r3, r0
 913 00c8 0533     		adds	r3, r3, #5
 914 00ca 03F00703 		and	r3, r3, #7
 915 00ce 2360     		str	r3, [r4]
 327:encode.c      **** 
 328:encode.c      **** 	return n_rem;
 329:encode.c      **** }
 916              		.loc 1 329 0
 917 00d0 BDE8F883 		pop	{r3, r4, r5, r6, r7, r8, r9, pc}
 918              	.LVL166:
 919              	.L81:
 920              		.align	2
 921              	.L80:
 922 00d4 00000000 		.word	.LC0
 923 00d8 14000000 		.word	.LANCHOR0+20
 924 00dc 08000000 		.word	.LC1
 925              		.cfi_endproc
 926              	.LFE8:
 927              		.size	encode_prefix_uint16, .-encode_prefix_uint16
 928              		.section	.text.encode_prefix_uint32,"ax",%progbits
 929              		.align	2
 930              		.global	encode_prefix_uint32
 931              		.thumb
 932              		.thumb_func
 933              		.type	encode_prefix_uint32, %function
 934              	encode_prefix_uint32:
 935              	.LFB9:
 330:encode.c      **** 
 331:encode.c      **** /**
 332:encode.c      ****  * @brief Encodes the prefix bits for 32-bit fields.
 333:encode.c      ****  * @param rem Pointer to the current byte cursor.
 334:encode.c      ****  * @param enc Encoded byte array.
 335:encode.c      ****  * @param i Current byte index.
 336:encode.c      ****  * @param j Current bit index.
 337:encode.c      ****  * @return Number of bits in the encoded field.
 338:encode.c      ****  */
 339:encode.c      **** uint8_t encode_prefix_uint32(uint32_t *rem, uint8_t *enc, size_t *i,
 340:encode.c      **** 		size_t *j) {
 936              		.loc 1 340 0
 937              		.cfi_startproc
 938              		@ args = 0, pretend = 0, frame = 0
 939              		@ frame_needed = 0, uses_anonymous_args = 0
 940              	.LVL167:
 941 0000 2DE9F843 		push	{r3, r4, r5, r6, r7, r8, r9, lr}
 942              		.cfi_def_cfa_offset 32
 943              		.cfi_offset 3, -32
 944              		.cfi_offset 4, -28
 945              		.cfi_offset 5, -24
 946              		.cfi_offset 6, -20
 947              		.cfi_offset 7, -16
 948              		.cfi_offset 8, -12
 949              		.cfi_offset 9, -8
 950              		.cfi_offset 14, -4
 951 0004 1C46     		mov	r4, r3
 341:encode.c      **** 	assert(*j < 8);
ARM GAS  C:\Users\codyg\AppData\Local\Temp\ccmSWLSY.s 			page 24


 952              		.loc 1 341 0
 953 0006 1B68     		ldr	r3, [r3]
 954              	.LVL168:
 955 0008 072B     		cmp	r3, #7
 956 000a 06D9     		bls	.L83
 957              		.loc 1 341 0 is_stmt 0 discriminator 1
 958 000c 304B     		ldr	r3, .L94
 959 000e 314A     		ldr	r2, .L94+4
 960              	.LVL169:
 961 0010 40F25511 		movw	r1, #341
 962              	.LVL170:
 963 0014 3048     		ldr	r0, .L94+8
 964              	.LVL171:
 965 0016 FFF7FEFF 		bl	__assert_func
 966              	.LVL172:
 967              	.L83:
 968 001a 0546     		mov	r5, r0
 969 001c 0E46     		mov	r6, r1
 970 001e 1746     		mov	r7, r2
 971              	.LVL173:
 342:encode.c      **** 
 343:encode.c      **** 	uint8_t n_bits = 32;
 344:encode.c      **** 	uint8_t msb_offset = msb_offset32(*rem);
 972              		.loc 1 344 0 is_stmt 1
 973 0020 D0F80090 		ldr	r9, [r0]
 974 0024 4846     		mov	r0, r9
 975              	.LVL174:
 976 0026 FFF7FEFF 		bl	msb_offset32
 977              	.LVL175:
 978 002a 8046     		mov	r8, r0
 979              	.LVL176:
 345:encode.c      **** 	uint8_t lsb_offset = lsb_offset32(*rem);
 980              		.loc 1 345 0
 981 002c 4846     		mov	r0, r9
 982 002e FFF7FEFF 		bl	lsb_offset32
 983              	.LVL177:
 346:encode.c      **** 
 347:encode.c      **** 	/* Account for empty fields (all zeros). */
 348:encode.c      **** 	msb_offset = msb_offset == 32 ? (uint8_t) 31 : msb_offset;
 984              		.loc 1 348 0
 985 0032 B8F1200F 		cmp	r8, #32
 986 0036 01D1     		bne	.L84
 987 0038 4FF01F08 		mov	r8, #31
 988              	.LVL178:
 989              	.L84:
 349:encode.c      **** 	lsb_offset = lsb_offset == 32 ? (uint8_t) 31 : lsb_offset;
 990              		.loc 1 349 0 discriminator 4
 991 003c 2028     		cmp	r0, #32
 992 003e 00D1     		bne	.L85
 993              		.loc 1 349 0 is_stmt 0
 994 0040 1F20     		movs	r0, #31
 995              	.LVL179:
 996              	.L85:
 350:encode.c      **** 
 351:encode.c      **** 	if (msb_offset >= lsb_offset) {
 997              		.loc 1 351 0 is_stmt 1 discriminator 4
 998 0042 8045     		cmp	r8, r0
ARM GAS  C:\Users\codyg\AppData\Local\Temp\ccmSWLSY.s 			page 25


 999 0044 06D3     		bcc	.L86
 352:encode.c      **** 		n_bits -= msb_offset;
 1000              		.loc 1 352 0
 1001 0046 C8F12003 		rsb	r3, r8, #32
 1002 004a D9B2     		uxtb	r1, r3
 1003              	.LVL180:
 353:encode.c      **** 		(*rem) <<= msb_offset;
 1004              		.loc 1 353 0
 1005 004c 09FA08F3 		lsl	r3, r9, r8
 1006 0050 2B60     		str	r3, [r5]
 1007 0052 02E0     		b	.L87
 1008              	.LVL181:
 1009              	.L86:
 354:encode.c      **** 	} else {
 355:encode.c      **** 		n_bits -= lsb_offset;
 1010              		.loc 1 355 0
 1011 0054 C0F12003 		rsb	r3, r0, #32
 1012 0058 D9B2     		uxtb	r1, r3
 1013              	.LVL182:
 1014              	.L87:
 356:encode.c      **** 	}
 357:encode.c      **** 
 358:encode.c      **** 	uint8_t n_rem = n_bits;
 359:encode.c      **** 	uint8_t curs = 0;
 360:encode.c      **** 
 361:encode.c      **** 	/* First bit indicates MSB or LSB shift. */
 362:encode.c      **** 	if (msb_offset < lsb_offset) {
 1015              		.loc 1 362 0
 1016 005a 8045     		cmp	r8, r0
 1017 005c 01D3     		bcc	.L91
 359:encode.c      **** 
 1018              		.loc 1 359 0
 1019 005e 0022     		movs	r2, #0
 1020 0060 00E0     		b	.L88
 1021              	.L91:
 363:encode.c      **** 		curs = 0b10000000;
 1022              		.loc 1 363 0
 1023 0062 8022     		movs	r2, #128
 1024              	.L88:
 1025              	.LVL183:
 364:encode.c      **** 	}
 365:encode.c      **** 
 366:encode.c      **** 	/* Next 5 bits indicate length (in bits) */
 367:encode.c      **** 	curs |= (n_bits - 1) << 2;
 1026              		.loc 1 367 0
 1027 0064 8E46     		mov	lr, r1
 1028 0066 4B1E     		subs	r3, r1, #1
 1029 0068 42EA8302 		orr	r2, r2, r3, lsl #2
 1030              	.LVL184:
 1031 006c 52B2     		sxtb	r2, r2
 1032              	.LVL185:
 368:encode.c      **** 	curs |= (uint8_t) ((*rem >> 30) & 0b11);
 1033              		.loc 1 368 0
 1034 006e D5F800C0 		ldr	ip, [r5]
 1035 0072 42EA9C72 		orr	r2, r2, ip, lsr #30
 1036              	.LVL186:
 1037 0076 D3B2     		uxtb	r3, r2
ARM GAS  C:\Users\codyg\AppData\Local\Temp\ccmSWLSY.s 			page 26


 1038              	.LVL187:
 369:encode.c      **** 	n_rem = (uint8_t) (n_rem < 2 ? 0 : n_rem - 2);
 1039              		.loc 1 369 0
 1040 0078 0129     		cmp	r1, #1
 1041 007a 02D9     		bls	.L92
 1042              		.loc 1 369 0 is_stmt 0 discriminator 1
 1043 007c 881E     		subs	r0, r1, #2
 1044              	.LVL188:
 1045 007e C0B2     		uxtb	r0, r0
 1046 0080 00E0     		b	.L89
 1047              	.LVL189:
 1048              	.L92:
 1049              		.loc 1 369 0
 1050 0082 0020     		movs	r0, #0
 1051              	.LVL190:
 1052              	.L89:
 370:encode.c      **** 	(*rem) <<= 2;
 1053              		.loc 1 370 0 is_stmt 1 discriminator 4
 1054 0084 4FEA8C02 		lsl	r2, ip, #2
 1055 0088 2A60     		str	r2, [r5]
 371:encode.c      **** 	enc[*i] |= curs >> *j;
 1056              		.loc 1 371 0 discriminator 4
 1057 008a 3D68     		ldr	r5, [r7]
 1058              	.LVL191:
 1059 008c 2268     		ldr	r2, [r4]
 1060 008e 43FA02F2 		asr	r2, r3, r2
 1061 0092 16F805C0 		ldrb	ip, [r6, r5]	@ zero_extendqisi2
 1062 0096 4CEA0202 		orr	r2, ip, r2
 1063 009a 7255     		strb	r2, [r6, r5]
 372:encode.c      **** 
 373:encode.c      **** 	/* Only move over to the next byte if we have remaining values in the cursor.
 374:encode.c      **** 	 */
 375:encode.c      **** 	if (6 + n_bits >= 8 - *j) {
 1064              		.loc 1 375 0 discriminator 4
 1065 009c 0EF1060E 		add	lr, lr, #6
 1066 00a0 2268     		ldr	r2, [r4]
 1067 00a2 C2F10802 		rsb	r2, r2, #8
 1068 00a6 9645     		cmp	lr, r2
 1069 00a8 09D3     		bcc	.L90
 376:encode.c      **** 		*i += 1;
 1070              		.loc 1 376 0
 1071 00aa 3A68     		ldr	r2, [r7]
 1072 00ac 0132     		adds	r2, r2, #1
 1073 00ae 3A60     		str	r2, [r7]
 377:encode.c      **** 		enc[*i] |= curs << (8 - *j);
 1074              		.loc 1 377 0
 1075 00b0 2568     		ldr	r5, [r4]
 1076 00b2 C5F10805 		rsb	r5, r5, #8
 1077 00b6 AB40     		lsls	r3, r3, r5
 1078              	.LVL192:
 1079 00b8 B55C     		ldrb	r5, [r6, r2]	@ zero_extendqisi2
 1080 00ba 2B43     		orrs	r3, r3, r5
 1081 00bc B354     		strb	r3, [r6, r2]
 1082              	.L90:
 378:encode.c      **** 	}
 379:encode.c      **** 
 380:encode.c      **** 	*j = (*j + 6 + n_bits - n_rem) % 8;
ARM GAS  C:\Users\codyg\AppData\Local\Temp\ccmSWLSY.s 			page 27


 1083              		.loc 1 380 0
 1084 00be 2368     		ldr	r3, [r4]
 1085 00c0 0B44     		add	r3, r3, r1
 1086 00c2 1B1A     		subs	r3, r3, r0
 1087 00c4 0633     		adds	r3, r3, #6
 1088 00c6 03F00703 		and	r3, r3, #7
 1089 00ca 2360     		str	r3, [r4]
 381:encode.c      **** 
 382:encode.c      **** 	return n_rem;
 383:encode.c      **** }
 1090              		.loc 1 383 0
 1091 00cc BDE8F883 		pop	{r3, r4, r5, r6, r7, r8, r9, pc}
 1092              	.LVL193:
 1093              	.L95:
 1094              		.align	2
 1095              	.L94:
 1096 00d0 00000000 		.word	.LC0
 1097 00d4 2C000000 		.word	.LANCHOR0+44
 1098 00d8 08000000 		.word	.LC1
 1099              		.cfi_endproc
 1100              	.LFE9:
 1101              		.size	encode_prefix_uint32, .-encode_prefix_uint32
 1102              		.section	.text.encode_uint8,"ax",%progbits
 1103              		.align	2
 1104              		.global	encode_uint8
 1105              		.thumb
 1106              		.thumb_func
 1107              		.type	encode_uint8, %function
 1108              	encode_uint8:
 1109              	.LFB10:
 384:encode.c      **** 
 385:encode.c      **** /**
 386:encode.c      ****  * @brief Encodes an 8-bit field.
 387:encode.c      ****  * @param data 8-bit field.
 388:encode.c      ****  * @param enc Encoded byte array.
 389:encode.c      ****  * @param i Pointer to byte index.
 390:encode.c      ****  * @param j Pointer to bit index.
 391:encode.c      ****  */
 392:encode.c      **** void encode_uint8(uint8_t data, uint8_t *enc, size_t *i, size_t *j) {
 1110              		.loc 1 392 0
 1111              		.cfi_startproc
 1112              		@ args = 0, pretend = 0, frame = 8
 1113              		@ frame_needed = 0, uses_anonymous_args = 0
 1114              	.LVL194:
 1115 0000 F0B5     		push	{r4, r5, r6, r7, lr}
 1116              		.cfi_def_cfa_offset 20
 1117              		.cfi_offset 4, -20
 1118              		.cfi_offset 5, -16
 1119              		.cfi_offset 6, -12
 1120              		.cfi_offset 7, -8
 1121              		.cfi_offset 14, -4
 1122 0002 83B0     		sub	sp, sp, #12
 1123              		.cfi_def_cfa_offset 32
 1124 0004 1C46     		mov	r4, r3
 393:encode.c      **** 	assert(*j < 8);
 1125              		.loc 1 393 0
 1126 0006 1B68     		ldr	r3, [r3]
ARM GAS  C:\Users\codyg\AppData\Local\Temp\ccmSWLSY.s 			page 28


 1127              	.LVL195:
 1128 0008 072B     		cmp	r3, #7
 1129 000a 06D9     		bls	.L97
 1130              		.loc 1 393 0 is_stmt 0 discriminator 1
 1131 000c 1E4B     		ldr	r3, .L103
 1132 000e 1F4A     		ldr	r2, .L103+4
 1133              	.LVL196:
 1134 0010 40F28911 		movw	r1, #393
 1135              	.LVL197:
 1136 0014 1E48     		ldr	r0, .L103+8
 1137              	.LVL198:
 1138 0016 FFF7FEFF 		bl	__assert_func
 1139              	.LVL199:
 1140              	.L97:
 1141 001a 0746     		mov	r7, r0
 1142 001c 0D46     		mov	r5, r1
 1143 001e 1646     		mov	r6, r2
 394:encode.c      **** 
 395:encode.c      **** 	uint8_t rem = data;
 1144              		.loc 1 395 0 is_stmt 1
 1145 0020 02A8     		add	r0, sp, #8
 1146              	.LVL200:
 1147 0022 00F8017D 		strb	r7, [r0, #-1]!
 396:encode.c      **** 	uint8_t n_rem = encode_prefix_uint8(&rem, enc, i, j);
 1148              		.loc 1 396 0
 1149 0026 2346     		mov	r3, r4
 1150 0028 FFF7FEFF 		bl	encode_prefix_uint8
 1151              	.LVL201:
 397:encode.c      **** 
 398:encode.c      **** 	while (n_rem > 0) {
 1152              		.loc 1 398 0
 1153 002c 28E0     		b	.L98
 1154              	.L101:
 1155              	.LBB3:
 399:encode.c      **** 		uint8_t curs = rem;
 1156              		.loc 1 399 0
 1157 002e 9DF80720 		ldrb	r2, [sp, #7]	@ zero_extendqisi2
 1158              	.LVL202:
 400:encode.c      **** 		enc[*i] |= curs >> *j;
 1159              		.loc 1 400 0
 1160 0032 3168     		ldr	r1, [r6]
 1161 0034 2368     		ldr	r3, [r4]
 1162 0036 42FA03F3 		asr	r3, r2, r3
 1163 003a 6F5C     		ldrb	r7, [r5, r1]	@ zero_extendqisi2
 1164 003c 3B43     		orrs	r3, r3, r7
 1165 003e 6B54     		strb	r3, [r5, r1]
 401:encode.c      **** 
 402:encode.c      **** 		if (n_rem + *j < 8) {
 1166              		.loc 1 402 0
 1167 0040 2368     		ldr	r3, [r4]
 1168 0042 0344     		add	r3, r3, r0
 1169 0044 072B     		cmp	r3, #7
 1170 0046 02D8     		bhi	.L99
 403:encode.c      **** 			*j += n_rem;
 1171              		.loc 1 403 0
 1172 0048 2360     		str	r3, [r4]
 1173              	.LVL203:
ARM GAS  C:\Users\codyg\AppData\Local\Temp\ccmSWLSY.s 			page 29


 404:encode.c      **** 			n_rem = 0;
 1174              		.loc 1 404 0
 1175 004a 0020     		movs	r0, #0
 1176 004c 18E0     		b	.L98
 1177              	.LVL204:
 1178              	.L99:
 405:encode.c      **** 		} else {
 406:encode.c      **** 			(*i)++;
 1179              		.loc 1 406 0
 1180 004e 3368     		ldr	r3, [r6]
 1181 0050 0133     		adds	r3, r3, #1
 1182 0052 3360     		str	r3, [r6]
 407:encode.c      **** 			enc[*i] |= curs << (8 - *j);
 1183              		.loc 1 407 0
 1184 0054 2168     		ldr	r1, [r4]
 1185 0056 C1F10801 		rsb	r1, r1, #8
 1186 005a 8A40     		lsls	r2, r2, r1
 1187              	.LVL205:
 1188 005c E95C     		ldrb	r1, [r5, r3]	@ zero_extendqisi2
 1189 005e 0A43     		orrs	r2, r2, r1
 1190 0060 EA54     		strb	r2, [r5, r3]
 408:encode.c      **** 			n_rem -= (8 - *j);
 1191              		.loc 1 408 0
 1192 0062 2368     		ldr	r3, [r4]
 1193 0064 1844     		add	r0, r0, r3
 1194              	.LVL206:
 1195 0066 C0B2     		uxtb	r0, r0
 1196 0068 0838     		subs	r0, r0, #8
 1197 006a C0B2     		uxtb	r0, r0
 1198              	.LVL207:
 409:encode.c      **** 			rem <<= (8 - *j);
 1199              		.loc 1 409 0
 1200 006c C3F10803 		rsb	r3, r3, #8
 1201 0070 9DF80720 		ldrb	r2, [sp, #7]	@ zero_extendqisi2
 1202 0074 02FA03F3 		lsl	r3, r2, r3
 1203 0078 8DF80730 		strb	r3, [sp, #7]
 410:encode.c      **** 			*j = 0;
 1204              		.loc 1 410 0
 1205 007c 0023     		movs	r3, #0
 1206 007e 2360     		str	r3, [r4]
 1207              	.LVL208:
 1208              	.L98:
 1209              	.LBE3:
 398:encode.c      **** 		uint8_t curs = rem;
 1210              		.loc 1 398 0
 1211 0080 0028     		cmp	r0, #0
 1212 0082 D4D1     		bne	.L101
 411:encode.c      **** 		}
 412:encode.c      **** 	}
 413:encode.c      **** }
 1213              		.loc 1 413 0
 1214 0084 03B0     		add	sp, sp, #12
 1215              		.cfi_def_cfa_offset 20
 1216              		@ sp needed
 1217 0086 F0BD     		pop	{r4, r5, r6, r7, pc}
 1218              	.LVL209:
 1219              	.L104:
ARM GAS  C:\Users\codyg\AppData\Local\Temp\ccmSWLSY.s 			page 30


 1220              		.align	2
 1221              	.L103:
 1222 0088 00000000 		.word	.LC0
 1223 008c 44000000 		.word	.LANCHOR0+68
 1224 0090 08000000 		.word	.LC1
 1225              		.cfi_endproc
 1226              	.LFE10:
 1227              		.size	encode_uint8, .-encode_uint8
 1228              		.section	.text.encode_uint16,"ax",%progbits
 1229              		.align	2
 1230              		.global	encode_uint16
 1231              		.thumb
 1232              		.thumb_func
 1233              		.type	encode_uint16, %function
 1234              	encode_uint16:
 1235              	.LFB11:
 414:encode.c      **** 
 415:encode.c      **** /**
 416:encode.c      ****  * @brief Encodes a 16-bit field.
 417:encode.c      ****  * @param data 16-bit field.
 418:encode.c      ****  * @param enc Encoded byte array.
 419:encode.c      ****  * @param i Pointer to byte index.
 420:encode.c      ****  * @param j Pointer to bit index.
 421:encode.c      ****  */
 422:encode.c      **** void encode_uint16(uint16_t data, uint8_t *enc, size_t *i, size_t *j) {
 1236              		.loc 1 422 0
 1237              		.cfi_startproc
 1238              		@ args = 0, pretend = 0, frame = 8
 1239              		@ frame_needed = 0, uses_anonymous_args = 0
 1240              	.LVL210:
 1241 0000 F0B5     		push	{r4, r5, r6, r7, lr}
 1242              		.cfi_def_cfa_offset 20
 1243              		.cfi_offset 4, -20
 1244              		.cfi_offset 5, -16
 1245              		.cfi_offset 6, -12
 1246              		.cfi_offset 7, -8
 1247              		.cfi_offset 14, -4
 1248 0002 83B0     		sub	sp, sp, #12
 1249              		.cfi_def_cfa_offset 32
 1250 0004 1C46     		mov	r4, r3
 423:encode.c      **** 	assert(*j < 8);
 1251              		.loc 1 423 0
 1252 0006 1B68     		ldr	r3, [r3]
 1253              	.LVL211:
 1254 0008 072B     		cmp	r3, #7
 1255 000a 06D9     		bls	.L106
 1256              		.loc 1 423 0 is_stmt 0 discriminator 1
 1257 000c 1F4B     		ldr	r3, .L112
 1258 000e 204A     		ldr	r2, .L112+4
 1259              	.LVL212:
 1260 0010 40F2A711 		movw	r1, #423
 1261              	.LVL213:
 1262 0014 1F48     		ldr	r0, .L112+8
 1263              	.LVL214:
 1264 0016 FFF7FEFF 		bl	__assert_func
 1265              	.LVL215:
 1266              	.L106:
ARM GAS  C:\Users\codyg\AppData\Local\Temp\ccmSWLSY.s 			page 31


 1267 001a 0746     		mov	r7, r0
 1268 001c 0D46     		mov	r5, r1
 1269 001e 1646     		mov	r6, r2
 424:encode.c      **** 
 425:encode.c      **** 	uint16_t rem = data;
 1270              		.loc 1 425 0 is_stmt 1
 1271 0020 02A8     		add	r0, sp, #8
 1272              	.LVL216:
 1273 0022 20F8027D 		strh	r7, [r0, #-2]!	@ movhi
 426:encode.c      **** 	uint8_t n_rem = encode_prefix_uint16(&rem, enc, i, j);
 1274              		.loc 1 426 0
 1275 0026 2346     		mov	r3, r4
 1276 0028 FFF7FEFF 		bl	encode_prefix_uint16
 1277              	.LVL217:
 427:encode.c      **** 
 428:encode.c      **** 	while (n_rem > 0) {
 1278              		.loc 1 428 0
 1279 002c 29E0     		b	.L107
 1280              	.L110:
 1281              	.LBB4:
 429:encode.c      **** 		uint8_t curs = (uint8_t) ((rem >> 8) & 0xFF);
 1282              		.loc 1 429 0
 1283 002e BDF80630 		ldrh	r3, [sp, #6]
 1284 0032 1B0A     		lsrs	r3, r3, #8
 1285              	.LVL218:
 430:encode.c      **** 		enc[*i] |= curs >> *j;
 1286              		.loc 1 430 0
 1287 0034 3168     		ldr	r1, [r6]
 1288 0036 2268     		ldr	r2, [r4]
 1289 0038 43FA02F2 		asr	r2, r3, r2
 1290 003c 6F5C     		ldrb	r7, [r5, r1]	@ zero_extendqisi2
 1291 003e 3A43     		orrs	r2, r2, r7
 1292 0040 6A54     		strb	r2, [r5, r1]
 431:encode.c      **** 
 432:encode.c      **** 		if (n_rem + *j < 8) {
 1293              		.loc 1 432 0
 1294 0042 2268     		ldr	r2, [r4]
 1295 0044 0244     		add	r2, r2, r0
 1296 0046 072A     		cmp	r2, #7
 1297 0048 02D8     		bhi	.L108
 433:encode.c      **** 			*j += n_rem;
 1298              		.loc 1 433 0
 1299 004a 2260     		str	r2, [r4]
 1300              	.LVL219:
 434:encode.c      **** 			n_rem = 0;
 1301              		.loc 1 434 0
 1302 004c 0020     		movs	r0, #0
 1303 004e 18E0     		b	.L107
 1304              	.LVL220:
 1305              	.L108:
 435:encode.c      **** 		} else {
 436:encode.c      **** 			(*i)++;
 1306              		.loc 1 436 0
 1307 0050 3268     		ldr	r2, [r6]
 1308 0052 0132     		adds	r2, r2, #1
 1309 0054 3260     		str	r2, [r6]
 437:encode.c      **** 			enc[*i] |= curs << (8 - *j);
ARM GAS  C:\Users\codyg\AppData\Local\Temp\ccmSWLSY.s 			page 32


 1310              		.loc 1 437 0
 1311 0056 2168     		ldr	r1, [r4]
 1312 0058 C1F10801 		rsb	r1, r1, #8
 1313 005c 8B40     		lsls	r3, r3, r1
 1314              	.LVL221:
 1315 005e A95C     		ldrb	r1, [r5, r2]	@ zero_extendqisi2
 1316 0060 0B43     		orrs	r3, r3, r1
 1317 0062 AB54     		strb	r3, [r5, r2]
 438:encode.c      **** 			n_rem -= (8 - *j);
 1318              		.loc 1 438 0
 1319 0064 2368     		ldr	r3, [r4]
 1320 0066 1844     		add	r0, r0, r3
 1321              	.LVL222:
 1322 0068 C0B2     		uxtb	r0, r0
 1323 006a 0838     		subs	r0, r0, #8
 1324 006c C0B2     		uxtb	r0, r0
 1325              	.LVL223:
 439:encode.c      **** 			rem <<= (8 - *j);
 1326              		.loc 1 439 0
 1327 006e C3F10803 		rsb	r3, r3, #8
 1328 0072 BDF80620 		ldrh	r2, [sp, #6]
 1329 0076 02FA03F3 		lsl	r3, r2, r3
 1330 007a ADF80630 		strh	r3, [sp, #6]	@ movhi
 440:encode.c      **** 			*j = 0;
 1331              		.loc 1 440 0
 1332 007e 0023     		movs	r3, #0
 1333 0080 2360     		str	r3, [r4]
 1334              	.LVL224:
 1335              	.L107:
 1336              	.LBE4:
 428:encode.c      **** 		uint8_t curs = (uint8_t) ((rem >> 8) & 0xFF);
 1337              		.loc 1 428 0
 1338 0082 0028     		cmp	r0, #0
 1339 0084 D3D1     		bne	.L110
 441:encode.c      **** 		}
 442:encode.c      **** 	}
 443:encode.c      **** }
 1340              		.loc 1 443 0
 1341 0086 03B0     		add	sp, sp, #12
 1342              		.cfi_def_cfa_offset 20
 1343              		@ sp needed
 1344 0088 F0BD     		pop	{r4, r5, r6, r7, pc}
 1345              	.LVL225:
 1346              	.L113:
 1347 008a 00BF     		.align	2
 1348              	.L112:
 1349 008c 00000000 		.word	.LC0
 1350 0090 54000000 		.word	.LANCHOR0+84
 1351 0094 08000000 		.word	.LC1
 1352              		.cfi_endproc
 1353              	.LFE11:
 1354              		.size	encode_uint16, .-encode_uint16
 1355              		.section	.text.encode_uint32,"ax",%progbits
 1356              		.align	2
 1357              		.global	encode_uint32
 1358              		.thumb
 1359              		.thumb_func
ARM GAS  C:\Users\codyg\AppData\Local\Temp\ccmSWLSY.s 			page 33


 1360              		.type	encode_uint32, %function
 1361              	encode_uint32:
 1362              	.LFB12:
 444:encode.c      **** 
 445:encode.c      **** /**
 446:encode.c      ****  * @brief Encodes a 32-bit field.
 447:encode.c      ****  * @param data 32-bit field.
 448:encode.c      ****  * @param enc Encoded byte array.
 449:encode.c      ****  * @param i Pointer to byte index.
 450:encode.c      ****  * @param j Pointer to bit index.
 451:encode.c      ****  */
 452:encode.c      **** void encode_uint32(uint32_t data, uint8_t *enc, size_t *i, size_t *j) {
 1363              		.loc 1 452 0
 1364              		.cfi_startproc
 1365              		@ args = 0, pretend = 0, frame = 8
 1366              		@ frame_needed = 0, uses_anonymous_args = 0
 1367              	.LVL226:
 1368 0000 F0B5     		push	{r4, r5, r6, r7, lr}
 1369              		.cfi_def_cfa_offset 20
 1370              		.cfi_offset 4, -20
 1371              		.cfi_offset 5, -16
 1372              		.cfi_offset 6, -12
 1373              		.cfi_offset 7, -8
 1374              		.cfi_offset 14, -4
 1375 0002 83B0     		sub	sp, sp, #12
 1376              		.cfi_def_cfa_offset 32
 1377 0004 1C46     		mov	r4, r3
 453:encode.c      **** 	assert(*j < 8);
 1378              		.loc 1 453 0
 1379 0006 1B68     		ldr	r3, [r3]
 1380              	.LVL227:
 1381 0008 072B     		cmp	r3, #7
 1382 000a 06D9     		bls	.L115
 1383              		.loc 1 453 0 is_stmt 0 discriminator 1
 1384 000c 1D4B     		ldr	r3, .L121
 1385 000e 1E4A     		ldr	r2, .L121+4
 1386              	.LVL228:
 1387 0010 40F2C511 		movw	r1, #453
 1388              	.LVL229:
 1389 0014 1D48     		ldr	r0, .L121+8
 1390              	.LVL230:
 1391 0016 FFF7FEFF 		bl	__assert_func
 1392              	.LVL231:
 1393              	.L115:
 1394 001a 0746     		mov	r7, r0
 1395 001c 0D46     		mov	r5, r1
 1396 001e 1646     		mov	r6, r2
 454:encode.c      **** 
 455:encode.c      **** 	uint32_t rem = data;
 1397              		.loc 1 455 0 is_stmt 1
 1398 0020 02A8     		add	r0, sp, #8
 1399              	.LVL232:
 1400 0022 40F8047D 		str	r7, [r0, #-4]!
 456:encode.c      **** 	uint8_t n_rem = encode_prefix_uint32(&rem, enc, i, j);
 1401              		.loc 1 456 0
 1402 0026 2346     		mov	r3, r4
 1403 0028 FFF7FEFF 		bl	encode_prefix_uint32
ARM GAS  C:\Users\codyg\AppData\Local\Temp\ccmSWLSY.s 			page 34


 1404              	.LVL233:
 457:encode.c      **** 
 458:encode.c      **** 	while (n_rem > 0) {
 1405              		.loc 1 458 0
 1406 002c 26E0     		b	.L116
 1407              	.LVL234:
 1408              	.L119:
 1409              	.LBB5:
 459:encode.c      **** 		uint8_t curs = (uint8_t) ((rem >> 24) & 0xFF);
 1410              		.loc 1 459 0
 1411 002e 9DF80720 		ldrb	r2, [sp, #7]	@ zero_extendqisi2
 1412              	.LVL235:
 460:encode.c      **** 		enc[*i] |= curs >> *j;
 1413              		.loc 1 460 0
 1414 0032 3168     		ldr	r1, [r6]
 1415 0034 2368     		ldr	r3, [r4]
 1416 0036 42FA03F3 		asr	r3, r2, r3
 1417 003a 6F5C     		ldrb	r7, [r5, r1]	@ zero_extendqisi2
 1418 003c 3B43     		orrs	r3, r3, r7
 1419 003e 6B54     		strb	r3, [r5, r1]
 461:encode.c      **** 
 462:encode.c      **** 		if (n_rem + *j < 8) {
 1420              		.loc 1 462 0
 1421 0040 2368     		ldr	r3, [r4]
 1422 0042 0344     		add	r3, r3, r0
 1423 0044 072B     		cmp	r3, #7
 1424 0046 02D8     		bhi	.L117
 463:encode.c      **** 			*j += n_rem;
 1425              		.loc 1 463 0
 1426 0048 2360     		str	r3, [r4]
 1427              	.LVL236:
 464:encode.c      **** 			n_rem = 0;
 1428              		.loc 1 464 0
 1429 004a 0020     		movs	r0, #0
 1430 004c 16E0     		b	.L116
 1431              	.LVL237:
 1432              	.L117:
 465:encode.c      **** 		} else {
 466:encode.c      **** 			(*i)++;
 1433              		.loc 1 466 0
 1434 004e 3368     		ldr	r3, [r6]
 1435 0050 0133     		adds	r3, r3, #1
 1436 0052 3360     		str	r3, [r6]
 467:encode.c      **** 			enc[*i] |= curs << (8 - *j);
 1437              		.loc 1 467 0
 1438 0054 2168     		ldr	r1, [r4]
 1439 0056 C1F10801 		rsb	r1, r1, #8
 1440 005a 8A40     		lsls	r2, r2, r1
 1441              	.LVL238:
 1442 005c E95C     		ldrb	r1, [r5, r3]	@ zero_extendqisi2
 1443 005e 0A43     		orrs	r2, r2, r1
 1444 0060 EA54     		strb	r2, [r5, r3]
 468:encode.c      **** 			n_rem -= (8 - *j);
 1445              		.loc 1 468 0
 1446 0062 2368     		ldr	r3, [r4]
 1447 0064 1844     		add	r0, r0, r3
 1448              	.LVL239:
ARM GAS  C:\Users\codyg\AppData\Local\Temp\ccmSWLSY.s 			page 35


 1449 0066 C0B2     		uxtb	r0, r0
 1450 0068 0838     		subs	r0, r0, #8
 1451 006a C0B2     		uxtb	r0, r0
 1452              	.LVL240:
 469:encode.c      **** 			rem <<= (8 - *j);
 1453              		.loc 1 469 0
 1454 006c C3F10803 		rsb	r3, r3, #8
 1455 0070 019A     		ldr	r2, [sp, #4]
 1456 0072 02FA03F3 		lsl	r3, r2, r3
 1457 0076 0193     		str	r3, [sp, #4]
 470:encode.c      **** 			*j = 0;
 1458              		.loc 1 470 0
 1459 0078 0023     		movs	r3, #0
 1460 007a 2360     		str	r3, [r4]
 1461              	.LVL241:
 1462              	.L116:
 1463              	.LBE5:
 458:encode.c      **** 		uint8_t curs = (uint8_t) ((rem >> 24) & 0xFF);
 1464              		.loc 1 458 0
 1465 007c 0028     		cmp	r0, #0
 1466 007e D6D1     		bne	.L119
 471:encode.c      **** 		}
 472:encode.c      **** 	}
 473:encode.c      **** }
 1467              		.loc 1 473 0
 1468 0080 03B0     		add	sp, sp, #12
 1469              		.cfi_def_cfa_offset 20
 1470              		@ sp needed
 1471 0082 F0BD     		pop	{r4, r5, r6, r7, pc}
 1472              	.LVL242:
 1473              	.L122:
 1474              		.align	2
 1475              	.L121:
 1476 0084 00000000 		.word	.LC0
 1477 0088 64000000 		.word	.LANCHOR0+100
 1478 008c 08000000 		.word	.LC1
 1479              		.cfi_endproc
 1480              	.LFE12:
 1481              		.size	encode_uint32, .-encode_uint32
 1482              		.section	.text.encode_data_frame,"ax",%progbits
 1483              		.align	2
 1484              		.global	encode_data_frame
 1485              		.thumb
 1486              		.thumb_func
 1487              		.type	encode_data_frame, %function
 1488              	encode_data_frame:
 1489              	.LFB13:
 474:encode.c      **** 
 475:encode.c      **** /**
 476:encode.c      ****  * @brief Encodes a RestEaZe data frame.
 477:encode.c      ****  * @param data Source data frame.
 478:encode.c      ****  * @param enc Encoded data frame.
 479:encode.c      ****  * @return Length of the encoded frame in bytes.
 480:encode.c      ****  * @warning enc must be at least FRAME_MTU in length.
 481:encode.c      ****  */
 482:encode.c      **** size_t encode_data_frame(const data_frame_t *data, uint8_t *enc) {
 1490              		.loc 1 482 0
ARM GAS  C:\Users\codyg\AppData\Local\Temp\ccmSWLSY.s 			page 36


 1491              		.cfi_startproc
 1492              		@ args = 0, pretend = 0, frame = 8
 1493              		@ frame_needed = 0, uses_anonymous_args = 0
 1494              	.LVL243:
 1495 0000 30B5     		push	{r4, r5, lr}
 1496              		.cfi_def_cfa_offset 12
 1497              		.cfi_offset 4, -12
 1498              		.cfi_offset 5, -8
 1499              		.cfi_offset 14, -4
 1500 0002 83B0     		sub	sp, sp, #12
 1501              		.cfi_def_cfa_offset 24
 1502 0004 0446     		mov	r4, r0
 1503 0006 0D46     		mov	r5, r1
 483:encode.c      **** 	size_t i = 0; /* Byte index */
 1504              		.loc 1 483 0
 1505 0008 0023     		movs	r3, #0
 484:encode.c      **** 	size_t j = 0; /* Bit index */
 1506              		.loc 1 484 0
 1507 000a 0093     		str	r3, [sp]
 485:encode.c      **** 
 486:encode.c      **** 	/* Frame header */
 487:encode.c      **** 	enc[i] = FRAME_TYPE_DATA;
 1508              		.loc 1 487 0
 1509 000c 0B70     		strb	r3, [r1]
 488:encode.c      **** 	enc[i] |= data->sensor_status & FRAME_CTRL_DATA_STAT_SENSOR;
 1510              		.loc 1 488 0
 1511 000e 0378     		ldrb	r3, [r0]	@ zero_extendqisi2
 1512 0010 03F00C03 		and	r3, r3, #12
 1513 0014 0B70     		strb	r3, [r1]
 489:encode.c      **** 	enc[i] |= data->battery_status & FRAME_CTRL_DATA_STAT_BATTERY;
 1514              		.loc 1 489 0
 1515 0016 4378     		ldrb	r3, [r0, #1]	@ zero_extendqisi2
 1516 0018 03F00303 		and	r3, r3, #3
 1517 001c 0A78     		ldrb	r2, [r1]	@ zero_extendqisi2
 1518 001e 1343     		orrs	r3, r3, r2
 1519 0020 0B70     		strb	r3, [r1]
 490:encode.c      **** 	i++;
 491:encode.c      **** 
 492:encode.c      **** 	/* Field header */
 493:encode.c      **** 	enc[i] = data->field_hdr;
 1520              		.loc 1 493 0
 1521 0022 8378     		ldrb	r3, [r0, #2]	@ zero_extendqisi2
 1522 0024 4B70     		strb	r3, [r1, #1]
 494:encode.c      **** 	i++;
 1523              		.loc 1 494 0
 1524 0026 0223     		movs	r3, #2
 1525 0028 0193     		str	r3, [sp, #4]
 495:encode.c      **** 
 496:encode.c      **** 	encode_uint32(data->seq, enc, &i, &j);
 1526              		.loc 1 496 0
 1527 002a 6B46     		mov	r3, sp
 1528 002c 01AA     		add	r2, sp, #4
 1529 002e 4068     		ldr	r0, [r0, #4]
 1530              	.LVL244:
 1531 0030 FFF7FEFF 		bl	encode_uint32
 1532              	.LVL245:
 497:encode.c      **** 
ARM GAS  C:\Users\codyg\AppData\Local\Temp\ccmSWLSY.s 			page 37


 498:encode.c      **** 	encode_uint8(data->session, enc, &i, &j);
 1533              		.loc 1 498 0
 1534 0034 6B46     		mov	r3, sp
 1535 0036 01AA     		add	r2, sp, #4
 1536 0038 2946     		mov	r1, r5
 1537 003a 207A     		ldrb	r0, [r4, #8]	@ zero_extendqisi2
 1538 003c FFF7FEFF 		bl	encode_uint8
 1539              	.LVL246:
 499:encode.c      **** 
 500:encode.c      **** 	if (data->field_hdr & FRAME_FIELD_TIME) {
 1540              		.loc 1 500 0
 1541 0040 94F90230 		ldrsb	r3, [r4, #2]
 1542 0044 002B     		cmp	r3, #0
 1543 0046 0BDA     		bge	.L124
 501:encode.c      **** 		encode_uint32(data->time_sec, enc, &i, &j);
 1544              		.loc 1 501 0
 1545 0048 6B46     		mov	r3, sp
 1546 004a 01AA     		add	r2, sp, #4
 1547 004c 2946     		mov	r1, r5
 1548 004e E068     		ldr	r0, [r4, #12]
 1549 0050 FFF7FEFF 		bl	encode_uint32
 1550              	.LVL247:
 502:encode.c      **** 		encode_uint32(data->time_msec, enc, &i, &j);
 1551              		.loc 1 502 0
 1552 0054 6B46     		mov	r3, sp
 1553 0056 01AA     		add	r2, sp, #4
 1554 0058 2946     		mov	r1, r5
 1555 005a 2069     		ldr	r0, [r4, #16]
 1556 005c FFF7FEFF 		bl	encode_uint32
 1557              	.LVL248:
 1558              	.L124:
 503:encode.c      **** 	}
 504:encode.c      **** 
 505:encode.c      **** 	if (data->field_hdr & FRAME_FIELD_TICK) {
 1559              		.loc 1 505 0
 1560 0060 A378     		ldrb	r3, [r4, #2]	@ zero_extendqisi2
 1561 0062 13F0400F 		tst	r3, #64
 1562 0066 05D0     		beq	.L125
 506:encode.c      **** 		encode_uint16(data->last_tick_usec, enc, &i, &j);
 1563              		.loc 1 506 0
 1564 0068 6B46     		mov	r3, sp
 1565 006a 01AA     		add	r2, sp, #4
 1566 006c 2946     		mov	r1, r5
 1567 006e A08A     		ldrh	r0, [r4, #20]
 1568 0070 FFF7FEFF 		bl	encode_uint16
 1569              	.LVL249:
 1570              	.L125:
 507:encode.c      **** 	}
 508:encode.c      **** 
 509:encode.c      **** 	if (data->field_hdr & FRAME_FIELD_FUEL) {
 1571              		.loc 1 509 0
 1572 0074 A378     		ldrb	r3, [r4, #2]	@ zero_extendqisi2
 1573 0076 13F0200F 		tst	r3, #32
 1574 007a 05D0     		beq	.L126
 510:encode.c      **** 		encode_uint16(data->fuel, enc, &i, &j);
 1575              		.loc 1 510 0
 1576 007c 6B46     		mov	r3, sp
ARM GAS  C:\Users\codyg\AppData\Local\Temp\ccmSWLSY.s 			page 38


 1577 007e 01AA     		add	r2, sp, #4
 1578 0080 2946     		mov	r1, r5
 1579 0082 E08A     		ldrh	r0, [r4, #22]
 1580 0084 FFF7FEFF 		bl	encode_uint16
 1581              	.LVL250:
 1582              	.L126:
 511:encode.c      **** 	}
 512:encode.c      **** 
 513:encode.c      **** 	if (data->field_hdr & FRAME_FIELD_CAP) {
 1583              		.loc 1 513 0
 1584 0088 A378     		ldrb	r3, [r4, #2]	@ zero_extendqisi2
 1585 008a 13F0100F 		tst	r3, #16
 1586 008e 11D0     		beq	.L127
 514:encode.c      **** 		encode_uint16(data->cap[0], enc, &i, &j);
 1587              		.loc 1 514 0
 1588 0090 6B46     		mov	r3, sp
 1589 0092 01AA     		add	r2, sp, #4
 1590 0094 2946     		mov	r1, r5
 1591 0096 208B     		ldrh	r0, [r4, #24]
 1592 0098 FFF7FEFF 		bl	encode_uint16
 1593              	.LVL251:
 515:encode.c      **** 		encode_uint16(data->cap[1], enc, &i, &j);
 1594              		.loc 1 515 0
 1595 009c 6B46     		mov	r3, sp
 1596 009e 01AA     		add	r2, sp, #4
 1597 00a0 2946     		mov	r1, r5
 1598 00a2 608B     		ldrh	r0, [r4, #26]
 1599 00a4 FFF7FEFF 		bl	encode_uint16
 1600              	.LVL252:
 516:encode.c      **** 		encode_uint16(data->cap[2], enc, &i, &j);
 1601              		.loc 1 516 0
 1602 00a8 6B46     		mov	r3, sp
 1603 00aa 01AA     		add	r2, sp, #4
 1604 00ac 2946     		mov	r1, r5
 1605 00ae A08B     		ldrh	r0, [r4, #28]
 1606 00b0 FFF7FEFF 		bl	encode_uint16
 1607              	.LVL253:
 1608              	.L127:
 517:encode.c      **** 	}
 518:encode.c      **** 
 519:encode.c      **** 	if (data->field_hdr & FRAME_FIELD_ACCEL) {
 1609              		.loc 1 519 0
 1610 00b4 A378     		ldrb	r3, [r4, #2]	@ zero_extendqisi2
 1611 00b6 13F0080F 		tst	r3, #8
 1612 00ba 11D0     		beq	.L128
 520:encode.c      **** 		encode_uint16((uint16_t) data->accel[0], enc, &i, &j);
 1613              		.loc 1 520 0
 1614 00bc 6B46     		mov	r3, sp
 1615 00be 01AA     		add	r2, sp, #4
 1616 00c0 2946     		mov	r1, r5
 1617 00c2 E08B     		ldrh	r0, [r4, #30]
 1618 00c4 FFF7FEFF 		bl	encode_uint16
 1619              	.LVL254:
 521:encode.c      **** 		encode_uint16((uint16_t) data->accel[1], enc, &i, &j);
 1620              		.loc 1 521 0
 1621 00c8 6B46     		mov	r3, sp
 1622 00ca 01AA     		add	r2, sp, #4
ARM GAS  C:\Users\codyg\AppData\Local\Temp\ccmSWLSY.s 			page 39


 1623 00cc 2946     		mov	r1, r5
 1624 00ce 208C     		ldrh	r0, [r4, #32]
 1625 00d0 FFF7FEFF 		bl	encode_uint16
 1626              	.LVL255:
 522:encode.c      **** 		encode_uint16((uint16_t) data->accel[2], enc, &i, &j);
 1627              		.loc 1 522 0
 1628 00d4 6B46     		mov	r3, sp
 1629 00d6 01AA     		add	r2, sp, #4
 1630 00d8 2946     		mov	r1, r5
 1631 00da 608C     		ldrh	r0, [r4, #34]
 1632 00dc FFF7FEFF 		bl	encode_uint16
 1633              	.LVL256:
 1634              	.L128:
 523:encode.c      **** 	}
 524:encode.c      **** 
 525:encode.c      **** 	if (data->field_hdr & FRAME_FIELD_GYRO) {
 1635              		.loc 1 525 0
 1636 00e0 A378     		ldrb	r3, [r4, #2]	@ zero_extendqisi2
 1637 00e2 13F0040F 		tst	r3, #4
 1638 00e6 11D0     		beq	.L129
 526:encode.c      **** 		encode_uint16((uint16_t) data->gyro[0], enc, &i, &j);
 1639              		.loc 1 526 0
 1640 00e8 6B46     		mov	r3, sp
 1641 00ea 01AA     		add	r2, sp, #4
 1642 00ec 2946     		mov	r1, r5
 1643 00ee A08C     		ldrh	r0, [r4, #36]
 1644 00f0 FFF7FEFF 		bl	encode_uint16
 1645              	.LVL257:
 527:encode.c      **** 		encode_uint16((uint16_t) data->gyro[1], enc, &i, &j);
 1646              		.loc 1 527 0
 1647 00f4 6B46     		mov	r3, sp
 1648 00f6 01AA     		add	r2, sp, #4
 1649 00f8 2946     		mov	r1, r5
 1650 00fa E08C     		ldrh	r0, [r4, #38]
 1651 00fc FFF7FEFF 		bl	encode_uint16
 1652              	.LVL258:
 528:encode.c      **** 		encode_uint16((uint16_t) data->gyro[2], enc, &i, &j);
 1653              		.loc 1 528 0
 1654 0100 6B46     		mov	r3, sp
 1655 0102 01AA     		add	r2, sp, #4
 1656 0104 2946     		mov	r1, r5
 1657 0106 208D     		ldrh	r0, [r4, #40]
 1658 0108 FFF7FEFF 		bl	encode_uint16
 1659              	.LVL259:
 1660              	.L129:
 529:encode.c      **** 	}
 530:encode.c      **** 
 531:encode.c      **** 	if (data->field_hdr & FRAME_FIELD_SENTINEL) {
 1661              		.loc 1 531 0
 1662 010c A378     		ldrb	r3, [r4, #2]	@ zero_extendqisi2
 1663 010e 13F0020F 		tst	r3, #2
 1664 0112 31D0     		beq	.L130
 532:encode.c      **** 		/* Sentinel Fields
 533:encode.c      **** 		1.  uint32_t for the IR Led data
 534:encode.c      **** 		2.  uint32_t for the Red Led data
 535:encode.c      **** 		3.  uint32_t for the Green Led data
 536:encode.c      **** 		4.  uint16_t for the heart rate data
ARM GAS  C:\Users\codyg\AppData\Local\Temp\ccmSWLSY.s 			page 40


 537:encode.c      **** 		5.  uint16_t for the blood oxygen level
 538:encode.c      **** 		5.  uint8_t for the confidence level
 539:encode.c      **** 		6.  uint8_t for the finger detected status
 540:encode.c      **** 		 */
 541:encode.c      **** 		encode_uint32(data->led_ir, enc, &i, &j);
 1665              		.loc 1 541 0
 1666 0114 6B46     		mov	r3, sp
 1667 0116 01AA     		add	r2, sp, #4
 1668 0118 2946     		mov	r1, r5
 1669 011a E06A     		ldr	r0, [r4, #44]
 1670 011c FFF7FEFF 		bl	encode_uint32
 1671              	.LVL260:
 542:encode.c      **** 		encode_uint32(data->led_red, enc, &i, &j);
 1672              		.loc 1 542 0
 1673 0120 6B46     		mov	r3, sp
 1674 0122 01AA     		add	r2, sp, #4
 1675 0124 2946     		mov	r1, r5
 1676 0126 206B     		ldr	r0, [r4, #48]
 1677 0128 FFF7FEFF 		bl	encode_uint32
 1678              	.LVL261:
 543:encode.c      **** 		encode_uint32(data->led_green, enc, &i, &j);
 1679              		.loc 1 543 0
 1680 012c 6B46     		mov	r3, sp
 1681 012e 01AA     		add	r2, sp, #4
 1682 0130 2946     		mov	r1, r5
 1683 0132 606B     		ldr	r0, [r4, #52]
 1684 0134 FFF7FEFF 		bl	encode_uint32
 1685              	.LVL262:
 544:encode.c      **** 		encode_uint16(data->heart_rate, enc, &i, &j);
 1686              		.loc 1 544 0
 1687 0138 6B46     		mov	r3, sp
 1688 013a 01AA     		add	r2, sp, #4
 1689 013c 2946     		mov	r1, r5
 1690 013e 208F     		ldrh	r0, [r4, #56]
 1691 0140 FFF7FEFF 		bl	encode_uint16
 1692              	.LVL263:
 545:encode.c      **** 		encode_uint16(data->blood_oxygen_level, enc, &i, &j);
 1693              		.loc 1 545 0
 1694 0144 6B46     		mov	r3, sp
 1695 0146 01AA     		add	r2, sp, #4
 1696 0148 2946     		mov	r1, r5
 1697 014a 608F     		ldrh	r0, [r4, #58]
 1698 014c FFF7FEFF 		bl	encode_uint16
 1699              	.LVL264:
 546:encode.c      **** 		encode_uint8(data->confidence_level, enc, &i, &j);
 1700              		.loc 1 546 0
 1701 0150 6B46     		mov	r3, sp
 1702 0152 01AA     		add	r2, sp, #4
 1703 0154 2946     		mov	r1, r5
 1704 0156 94F83C00 		ldrb	r0, [r4, #60]	@ zero_extendqisi2
 1705 015a FFF7FEFF 		bl	encode_uint8
 1706              	.LVL265:
 547:encode.c      **** 		encode_uint8(data->finger_detected_status, enc, &i, &j);
 1707              		.loc 1 547 0
 1708 015e 6B46     		mov	r3, sp
 1709 0160 01AA     		add	r2, sp, #4
 1710 0162 2946     		mov	r1, r5
ARM GAS  C:\Users\codyg\AppData\Local\Temp\ccmSWLSY.s 			page 41


 1711 0164 94F83D00 		ldrb	r0, [r4, #61]	@ zero_extendqisi2
 1712 0168 FFF7FEFF 		bl	encode_uint8
 1713              	.LVL266:
 548:encode.c      **** 		encode_uint32(data->temperature, enc, &i, &j);
 1714              		.loc 1 548 0
 1715 016c 6B46     		mov	r3, sp
 1716 016e 01AA     		add	r2, sp, #4
 1717 0170 2946     		mov	r1, r5
 1718 0172 206C     		ldr	r0, [r4, #64]
 1719 0174 FFF7FEFF 		bl	encode_uint32
 1720              	.LVL267:
 1721              	.L130:
 549:encode.c      **** 
 550:encode.c      **** 	}
 551:encode.c      **** 
 552:encode.c      **** 	if (data->field_hdr & FRAME_FIELD_SYNC) {
 1722              		.loc 1 552 0
 1723 0178 A378     		ldrb	r3, [r4, #2]	@ zero_extendqisi2
 1724 017a 13F0010F 		tst	r3, #1
 1725 017e 06D0     		beq	.L131
 553:encode.c      **** 		encode_uint8(data->sync, enc, &i, &j);
 1726              		.loc 1 553 0
 1727 0180 6B46     		mov	r3, sp
 1728 0182 01AA     		add	r2, sp, #4
 1729 0184 2946     		mov	r1, r5
 1730 0186 94F84400 		ldrb	r0, [r4, #68]	@ zero_extendqisi2
 1731 018a FFF7FEFF 		bl	encode_uint8
 1732              	.LVL268:
 1733              	.L131:
 554:encode.c      **** 	}
 555:encode.c      **** 
 556:encode.c      **** 	if (bytes_parity(enc, i + 1)) {
 1734              		.loc 1 556 0
 1735 018e 0199     		ldr	r1, [sp, #4]
 1736 0190 0131     		adds	r1, r1, #1
 1737 0192 2846     		mov	r0, r5
 1738 0194 FFF7FEFF 		bl	bytes_parity
 1739              	.LVL269:
 1740 0198 18B1     		cbz	r0, .L132
 557:encode.c      **** 		enc[0] |= FRAME_CTRL_PARITY;
 1741              		.loc 1 557 0
 1742 019a 2B78     		ldrb	r3, [r5]	@ zero_extendqisi2
 1743 019c 63F07F03 		orn	r3, r3, #127
 1744 01a0 2B70     		strb	r3, [r5]
 1745              	.L132:
 558:encode.c      **** 	}
 559:encode.c      **** 
 560:encode.c      **** 	return i + 1;
 561:encode.c      **** }
 1746              		.loc 1 561 0
 1747 01a2 0198     		ldr	r0, [sp, #4]
 1748 01a4 0130     		adds	r0, r0, #1
 1749 01a6 03B0     		add	sp, sp, #12
 1750              		.cfi_def_cfa_offset 12
 1751              		@ sp needed
 1752 01a8 30BD     		pop	{r4, r5, pc}
 1753              		.cfi_endproc
ARM GAS  C:\Users\codyg\AppData\Local\Temp\ccmSWLSY.s 			page 42


 1754              	.LFE13:
 1755              		.size	encode_data_frame, .-encode_data_frame
 1756 01aa 00BF     		.section	.text.encode_delta_frame,"ax",%progbits
 1757              		.align	2
 1758              		.global	encode_delta_frame
 1759              		.thumb
 1760              		.thumb_func
 1761              		.type	encode_delta_frame, %function
 1762              	encode_delta_frame:
 1763              	.LFB14:
 562:encode.c      **** 
 563:encode.c      **** /**
 564:encode.c      ****  * @brief Decodes a delta-encoded RestEaZe data frame.
 565:encode.c      ****  * @param data_0 Data frame from the prior time step.
 566:encode.c      ****  * @param data_1 Data frame from the current time step.
 567:encode.c      ****  * @param dec Delta-encoded data frame.
 568:encode.c      ****  * @return Length of the delta-encoded frame in bytes.
 569:encode.c      ****  * @warning enc must be at least FRAME_MTU in length.
 570:encode.c      ****  */
 571:encode.c      **** size_t encode_delta_frame(const data_frame_t *data_checkpoint,
 572:encode.c      **** 		const data_frame_t *data, uint8_t *enc) {
 1764              		.loc 1 572 0
 1765              		.cfi_startproc
 1766              		@ args = 0, pretend = 0, frame = 72
 1767              		@ frame_needed = 0, uses_anonymous_args = 0
 1768              	.LVL270:
 1769 0000 70B5     		push	{r4, r5, r6, lr}
 1770              		.cfi_def_cfa_offset 16
 1771              		.cfi_offset 4, -16
 1772              		.cfi_offset 5, -12
 1773              		.cfi_offset 6, -8
 1774              		.cfi_offset 14, -4
 1775 0002 92B0     		sub	sp, sp, #72
 1776              		.cfi_def_cfa_offset 88
 1777 0004 1446     		mov	r4, r2
 573:encode.c      **** 	/* The sequence number of data_0 must be immediately prior (without overflow).
 574:encode.c      **** 	 */
 575:encode.c      **** 	assert(data_checkpoint->seq == data->seq - 1 || data_checkpoint->seq == UINT32_MAX && data->seq ==
 1778              		.loc 1 575 0
 1779 0006 4368     		ldr	r3, [r0, #4]
 1780 0008 4E68     		ldr	r6, [r1, #4]
 1781 000a 721E     		subs	r2, r6, #1
 1782              	.LVL271:
 1783 000c 9342     		cmp	r3, r2
 1784 000e 20D0     		beq	.L141
 1785              		.loc 1 575 0 is_stmt 0 discriminator 1
 1786 0010 B3F1FF3F 		cmp	r3, #-1
 1787 0014 00D1     		bne	.L136
 1788              		.loc 1 575 0 discriminator 3
 1789 0016 F6B1     		cbz	r6, .L142
 1790              	.L136:
 1791              		.loc 1 575 0 discriminator 4
 1792 0018 5D4B     		ldr	r3, .L144
 1793 001a 5E4A     		ldr	r2, .L144+4
 1794 001c 40F23F21 		movw	r1, #575
 1795              	.LVL272:
 1796 0020 5D48     		ldr	r0, .L144+8
ARM GAS  C:\Users\codyg\AppData\Local\Temp\ccmSWLSY.s 			page 43


 1797              	.LVL273:
 1798 0022 FFF7FEFF 		bl	__assert_func
 1799              	.LVL274:
 1800              	.L138:
 576:encode.c      **** 
 577:encode.c      **** #ifndef NDEBUG
 578:encode.c      **** 	/* The fields present in the new frame must be a subset of the fields in the
 579:encode.c      **** 	 * prior. */
 580:encode.c      **** 	size_t i;
 581:encode.c      **** 
 582:encode.c      **** 	for (i = 0; i < 8; i++) {
 583:encode.c      **** 		if (((data->field_hdr >> (7 - i)) & 0x01) &&
 1801              		.loc 1 583 0 is_stmt 1
 1802 0026 8A78     		ldrb	r2, [r1, #2]	@ zero_extendqisi2
 1803 0028 C3F10705 		rsb	r5, r3, #7
 1804 002c 2A41     		asrs	r2, r2, r5
 1805 002e 12F0010F 		tst	r2, #1
 1806 0032 0CD0     		beq	.L137
 584:encode.c      **** 				!((data_checkpoint->field_hdr >> (7 - i)) & 0x01)) {
 1807              		.loc 1 584 0 discriminator 1
 1808 0034 8278     		ldrb	r2, [r0, #2]	@ zero_extendqisi2
 1809 0036 42FA05F5 		asr	r5, r2, r5
 583:encode.c      **** 				!((data_checkpoint->field_hdr >> (7 - i)) & 0x01)) {
 1810              		.loc 1 583 0 discriminator 1
 1811 003a 15F0010F 		tst	r5, #1
 1812 003e 06D1     		bne	.L137
 585:encode.c      **** 			assert(false);
 1813              		.loc 1 585 0
 1814 0040 564B     		ldr	r3, .L144+12
 1815              	.LVL275:
 1816 0042 544A     		ldr	r2, .L144+4
 1817 0044 40F24921 		movw	r1, #585
 1818              	.LVL276:
 1819 0048 5348     		ldr	r0, .L144+8
 1820              	.LVL277:
 1821 004a FFF7FEFF 		bl	__assert_func
 1822              	.LVL278:
 1823              	.L137:
 582:encode.c      **** 		if (((data->field_hdr >> (7 - i)) & 0x01) &&
 1824              		.loc 1 582 0 discriminator 2
 1825 004e 0133     		adds	r3, r3, #1
 1826              	.LVL279:
 1827 0050 02E0     		b	.L135
 1828              	.LVL280:
 1829              	.L141:
 1830 0052 0023     		movs	r3, #0
 1831 0054 00E0     		b	.L135
 1832              	.L142:
 1833 0056 0023     		movs	r3, #0
 1834              	.L135:
 1835              	.LVL281:
 582:encode.c      **** 		if (((data->field_hdr >> (7 - i)) & 0x01) &&
 1836              		.loc 1 582 0 is_stmt 0 discriminator 1
 1837 0058 072B     		cmp	r3, #7
 1838 005a E4D9     		bls	.L138
 586:encode.c      **** 		}
 587:encode.c      **** 	}
ARM GAS  C:\Users\codyg\AppData\Local\Temp\ccmSWLSY.s 			page 44


 588:encode.c      **** #endif
 589:encode.c      **** 
 590:encode.c      **** 	/*
 591:encode.c      **** 	 * Hack to handle negative delta encoding of time_msec
 592:encode.c      **** 	 */
 593:encode.c      **** 
 594:encode.c      **** 	uint32_t delta_sec = data->time_sec - data_checkpoint->time_sec;
 1839              		.loc 1 594 0 is_stmt 1
 1840 005c CB68     		ldr	r3, [r1, #12]
 1841              	.LVL282:
 1842 005e C268     		ldr	r2, [r0, #12]
 1843 0060 9A1A     		subs	r2, r3, r2
 1844              	.LVL283:
 595:encode.c      **** 	int32_t delta_msec = data->time_msec - data_checkpoint->time_msec;
 1845              		.loc 1 595 0
 1846 0062 0B69     		ldr	r3, [r1, #16]
 1847 0064 0569     		ldr	r5, [r0, #16]
 1848 0066 5B1B     		subs	r3, r3, r5
 1849              	.LVL284:
 596:encode.c      **** 	while(delta_msec < 0){
 1850              		.loc 1 596 0
 1851 0068 02E0     		b	.L139
 1852              	.L140:
 597:encode.c      **** 		delta_msec += 1000;
 1853              		.loc 1 597 0
 1854 006a 03F57A73 		add	r3, r3, #1000
 1855              	.LVL285:
 598:encode.c      **** 		delta_sec -= 1;
 1856              		.loc 1 598 0
 1857 006e 013A     		subs	r2, r2, #1
 1858              	.LVL286:
 1859              	.L139:
 596:encode.c      **** 	while(delta_msec < 0){
 1860              		.loc 1 596 0
 1861 0070 002B     		cmp	r3, #0
 1862 0072 FADB     		blt	.L140
 599:encode.c      **** 	}
 600:encode.c      **** 
 601:encode.c      **** 	data_frame_t delta = {
 602:encode.c      **** 			.sensor_status = data->sensor_status,
 1863              		.loc 1 602 0
 1864 0074 0D78     		ldrb	r5, [r1]	@ zero_extendqisi2
 601:encode.c      **** 			.sensor_status = data->sensor_status,
 1865              		.loc 1 601 0
 1866 0076 8DF80050 		strb	r5, [sp]
 603:encode.c      **** 			.battery_status = data->battery_status,
 1867              		.loc 1 603 0
 1868 007a 4D78     		ldrb	r5, [r1, #1]	@ zero_extendqisi2
 601:encode.c      **** 			.sensor_status = data->sensor_status,
 1869              		.loc 1 601 0
 1870 007c 8DF80150 		strb	r5, [sp, #1]
 604:encode.c      **** 			.field_hdr = data->field_hdr,
 1871              		.loc 1 604 0
 1872 0080 8D78     		ldrb	r5, [r1, #2]	@ zero_extendqisi2
 601:encode.c      **** 			.sensor_status = data->sensor_status,
 1873              		.loc 1 601 0
 1874 0082 8DF80250 		strb	r5, [sp, #2]
ARM GAS  C:\Users\codyg\AppData\Local\Temp\ccmSWLSY.s 			page 45


 1875 0086 0196     		str	r6, [sp, #4]
 605:encode.c      **** 			.seq = data->seq,
 606:encode.c      **** 			.session = data->session,
 1876              		.loc 1 606 0
 1877 0088 0D7A     		ldrb	r5, [r1, #8]	@ zero_extendqisi2
 601:encode.c      **** 			.sensor_status = data->sensor_status,
 1878              		.loc 1 601 0
 1879 008a 8DF80850 		strb	r5, [sp, #8]
 1880 008e 0392     		str	r2, [sp, #12]
 1881 0090 0493     		str	r3, [sp, #16]
 607:encode.c      **** //			.time_sec = data->time_sec - data_checkpoint->time_sec,
 608:encode.c      **** //			.time_msec = data->time_msec - data_checkpoint->time_msec,
 609:encode.c      **** 			.time_sec = delta_sec,
 610:encode.c      **** 			.time_msec = (uint32_t)delta_msec,
 611:encode.c      **** 			.last_tick_usec = data->last_tick_usec - data_checkpoint->last_tick_usec,
 1882              		.loc 1 611 0
 1883 0092 8B8A     		ldrh	r3, [r1, #20]
 1884              	.LVL287:
 1885 0094 828A     		ldrh	r2, [r0, #20]
 1886              	.LVL288:
 601:encode.c      **** 			.sensor_status = data->sensor_status,
 1887              		.loc 1 601 0
 1888 0096 9B1A     		subs	r3, r3, r2
 1889 0098 ADF81430 		strh	r3, [sp, #20]	@ movhi
 612:encode.c      **** 			.fuel = data->fuel - data_checkpoint->fuel,
 1890              		.loc 1 612 0
 1891 009c CB8A     		ldrh	r3, [r1, #22]
 1892 009e C28A     		ldrh	r2, [r0, #22]
 601:encode.c      **** 			.sensor_status = data->sensor_status,
 1893              		.loc 1 601 0
 1894 00a0 9B1A     		subs	r3, r3, r2
 1895 00a2 ADF81630 		strh	r3, [sp, #22]	@ movhi
 613:encode.c      **** 			.cap = {
 614:encode.c      **** 					data->cap[0] - data_checkpoint->cap[0],
 1896              		.loc 1 614 0
 1897 00a6 0B8B     		ldrh	r3, [r1, #24]
 1898 00a8 028B     		ldrh	r2, [r0, #24]
 601:encode.c      **** 			.sensor_status = data->sensor_status,
 1899              		.loc 1 601 0
 1900 00aa 9B1A     		subs	r3, r3, r2
 1901 00ac ADF81830 		strh	r3, [sp, #24]	@ movhi
 615:encode.c      **** 					data->cap[1] - data_checkpoint->cap[1],
 1902              		.loc 1 615 0
 1903 00b0 4B8B     		ldrh	r3, [r1, #26]
 1904 00b2 428B     		ldrh	r2, [r0, #26]
 601:encode.c      **** 			.sensor_status = data->sensor_status,
 1905              		.loc 1 601 0
 1906 00b4 9B1A     		subs	r3, r3, r2
 1907 00b6 ADF81A30 		strh	r3, [sp, #26]	@ movhi
 616:encode.c      **** 					data->cap[2] - data_checkpoint->cap[2] },
 1908              		.loc 1 616 0
 1909 00ba 8B8B     		ldrh	r3, [r1, #28]
 1910 00bc 828B     		ldrh	r2, [r0, #28]
 601:encode.c      **** 			.sensor_status = data->sensor_status,
 1911              		.loc 1 601 0
 1912 00be 9B1A     		subs	r3, r3, r2
 1913 00c0 ADF81C30 		strh	r3, [sp, #28]	@ movhi
ARM GAS  C:\Users\codyg\AppData\Local\Temp\ccmSWLSY.s 			page 46


 617:encode.c      **** 			.accel = {
 618:encode.c      **** 					data->accel[0] - data_checkpoint->accel[0],
 1914              		.loc 1 618 0
 1915 00c4 B1F91E30 		ldrsh	r3, [r1, #30]
 1916 00c8 B0F91E20 		ldrsh	r2, [r0, #30]
 601:encode.c      **** 			.sensor_status = data->sensor_status,
 1917              		.loc 1 601 0
 1918 00cc 9B1A     		subs	r3, r3, r2
 1919 00ce ADF81E30 		strh	r3, [sp, #30]	@ movhi
 619:encode.c      **** 					data->accel[1] - data_checkpoint->accel[1],
 1920              		.loc 1 619 0
 1921 00d2 B1F92030 		ldrsh	r3, [r1, #32]
 1922 00d6 B0F92020 		ldrsh	r2, [r0, #32]
 601:encode.c      **** 			.sensor_status = data->sensor_status,
 1923              		.loc 1 601 0
 1924 00da 9B1A     		subs	r3, r3, r2
 1925 00dc ADF82030 		strh	r3, [sp, #32]	@ movhi
 620:encode.c      **** 					data->accel[2] - data_checkpoint->accel[2] },
 1926              		.loc 1 620 0
 1927 00e0 B1F92230 		ldrsh	r3, [r1, #34]
 1928 00e4 B0F92220 		ldrsh	r2, [r0, #34]
 601:encode.c      **** 			.sensor_status = data->sensor_status,
 1929              		.loc 1 601 0
 1930 00e8 9B1A     		subs	r3, r3, r2
 1931 00ea ADF82230 		strh	r3, [sp, #34]	@ movhi
 621:encode.c      **** 			.gyro = {
 622:encode.c      **** 					data->gyro[0] - data_checkpoint->gyro[0],
 1932              		.loc 1 622 0
 1933 00ee B1F92430 		ldrsh	r3, [r1, #36]
 1934 00f2 B0F92420 		ldrsh	r2, [r0, #36]
 601:encode.c      **** 			.sensor_status = data->sensor_status,
 1935              		.loc 1 601 0
 1936 00f6 9B1A     		subs	r3, r3, r2
 1937 00f8 ADF82430 		strh	r3, [sp, #36]	@ movhi
 623:encode.c      **** 					data->gyro[1] - data_checkpoint->gyro[1],
 1938              		.loc 1 623 0
 1939 00fc B1F92630 		ldrsh	r3, [r1, #38]
 1940 0100 B0F92620 		ldrsh	r2, [r0, #38]
 601:encode.c      **** 			.sensor_status = data->sensor_status,
 1941              		.loc 1 601 0
 1942 0104 9B1A     		subs	r3, r3, r2
 1943 0106 ADF82630 		strh	r3, [sp, #38]	@ movhi
 624:encode.c      **** 					data->gyro[2] - data_checkpoint->gyro[2] },
 1944              		.loc 1 624 0
 1945 010a B1F92830 		ldrsh	r3, [r1, #40]
 1946 010e B0F92820 		ldrsh	r2, [r0, #40]
 601:encode.c      **** 			.sensor_status = data->sensor_status,
 1947              		.loc 1 601 0
 1948 0112 9B1A     		subs	r3, r3, r2
 1949 0114 ADF82830 		strh	r3, [sp, #40]	@ movhi
 625:encode.c      **** //			.mag = {
 626:encode.c      **** //					data->mag[0] - data_checkpoint->mag[0],
 627:encode.c      **** //					data->mag[1] - data_checkpoint->mag[1],
 628:encode.c      **** //					data->mag[2] - data_checkpoint->mag[2] },
 629:encode.c      **** 
 630:encode.c      **** 			/* Sentinel Fields */
 631:encode.c      **** 			.led_ir = data->led_ir - data_checkpoint->led_ir,
ARM GAS  C:\Users\codyg\AppData\Local\Temp\ccmSWLSY.s 			page 47


 1950              		.loc 1 631 0
 1951 0118 CB6A     		ldr	r3, [r1, #44]
 1952 011a C26A     		ldr	r2, [r0, #44]
 1953 011c 9B1A     		subs	r3, r3, r2
 601:encode.c      **** 			.sensor_status = data->sensor_status,
 1954              		.loc 1 601 0
 1955 011e 0B93     		str	r3, [sp, #44]
 632:encode.c      **** 			.led_red = data->led_red - data_checkpoint->led_red,
 1956              		.loc 1 632 0
 1957 0120 0B6B     		ldr	r3, [r1, #48]
 1958 0122 026B     		ldr	r2, [r0, #48]
 1959 0124 9B1A     		subs	r3, r3, r2
 601:encode.c      **** 			.sensor_status = data->sensor_status,
 1960              		.loc 1 601 0
 1961 0126 0C93     		str	r3, [sp, #48]
 633:encode.c      **** 			.led_green = data->led_green - data_checkpoint->led_green,
 1962              		.loc 1 633 0
 1963 0128 4B6B     		ldr	r3, [r1, #52]
 1964 012a 426B     		ldr	r2, [r0, #52]
 1965 012c 9B1A     		subs	r3, r3, r2
 601:encode.c      **** 			.sensor_status = data->sensor_status,
 1966              		.loc 1 601 0
 1967 012e 0D93     		str	r3, [sp, #52]
 634:encode.c      **** 			.heart_rate = data->heart_rate - data_checkpoint->heart_rate,
 1968              		.loc 1 634 0
 1969 0130 0B8F     		ldrh	r3, [r1, #56]
 1970 0132 028F     		ldrh	r2, [r0, #56]
 601:encode.c      **** 			.sensor_status = data->sensor_status,
 1971              		.loc 1 601 0
 1972 0134 9B1A     		subs	r3, r3, r2
 1973 0136 ADF83830 		strh	r3, [sp, #56]	@ movhi
 635:encode.c      **** 			.blood_oxygen_level = data->blood_oxygen_level - data_checkpoint->blood_oxygen_level,
 1974              		.loc 1 635 0
 1975 013a 4B8F     		ldrh	r3, [r1, #58]
 1976 013c 428F     		ldrh	r2, [r0, #58]
 601:encode.c      **** 			.sensor_status = data->sensor_status,
 1977              		.loc 1 601 0
 1978 013e 9B1A     		subs	r3, r3, r2
 1979 0140 ADF83A30 		strh	r3, [sp, #58]	@ movhi
 636:encode.c      **** 			.confidence_level = data->confidence_level - data_checkpoint->confidence_level,
 1980              		.loc 1 636 0
 1981 0144 91F83C30 		ldrb	r3, [r1, #60]	@ zero_extendqisi2
 1982 0148 90F83C20 		ldrb	r2, [r0, #60]	@ zero_extendqisi2
 601:encode.c      **** 			.sensor_status = data->sensor_status,
 1983              		.loc 1 601 0
 1984 014c 9B1A     		subs	r3, r3, r2
 1985 014e 8DF83C30 		strb	r3, [sp, #60]
 637:encode.c      **** 			.finger_detected_status = data->finger_detected_status - data_checkpoint->finger_detected_status
 1986              		.loc 1 637 0
 1987 0152 91F83D30 		ldrb	r3, [r1, #61]	@ zero_extendqisi2
 1988 0156 90F83D20 		ldrb	r2, [r0, #61]	@ zero_extendqisi2
 601:encode.c      **** 			.sensor_status = data->sensor_status,
 1989              		.loc 1 601 0
 1990 015a 9B1A     		subs	r3, r3, r2
 1991 015c 8DF83D30 		strb	r3, [sp, #61]
 638:encode.c      **** 			.temperature = data->temperature - data_checkpoint->temperature,
 1992              		.loc 1 638 0
ARM GAS  C:\Users\codyg\AppData\Local\Temp\ccmSWLSY.s 			page 48


 1993 0160 0B6C     		ldr	r3, [r1, #64]
 1994 0162 026C     		ldr	r2, [r0, #64]
 1995 0164 9B1A     		subs	r3, r3, r2
 601:encode.c      **** 			.sensor_status = data->sensor_status,
 1996              		.loc 1 601 0
 1997 0166 1093     		str	r3, [sp, #64]
 639:encode.c      **** 			.sync = data->sync - data_checkpoint->sync, };
 1998              		.loc 1 639 0
 1999 0168 91F84430 		ldrb	r3, [r1, #68]	@ zero_extendqisi2
 2000 016c 90F84420 		ldrb	r2, [r0, #68]	@ zero_extendqisi2
 601:encode.c      **** 			.sensor_status = data->sensor_status,
 2001              		.loc 1 601 0
 2002 0170 9B1A     		subs	r3, r3, r2
 2003 0172 8DF84430 		strb	r3, [sp, #68]
 640:encode.c      **** 
 641:encode.c      **** 	size_t len = encode_data_frame(&delta, enc);
 2004              		.loc 1 641 0
 2005 0176 2146     		mov	r1, r4
 2006              	.LVL289:
 2007 0178 6846     		mov	r0, sp
 2008              	.LVL290:
 2009 017a FFF7FEFF 		bl	encode_data_frame
 2010              	.LVL291:
 642:encode.c      **** 
 643:encode.c      **** 	/* Set the delta bitfield */
 644:encode.c      **** 	enc[0] |= FRAME_CTRL_DATA_DELTA;
 2011              		.loc 1 644 0
 2012 017e 2378     		ldrb	r3, [r4]	@ zero_extendqisi2
 2013 0180 43F01003 		orr	r3, r3, #16
 645:encode.c      **** 
 646:encode.c      **** 	/* Flip the parity bit (to account for the delta bitfield being set) */
 647:encode.c      **** 	enc[0] ^= FRAME_CTRL_PARITY;
 2014              		.loc 1 647 0
 2015 0184 83F08003 		eor	r3, r3, #128
 2016 0188 2370     		strb	r3, [r4]
 648:encode.c      **** 
 649:encode.c      **** 	return len;
 650:encode.c      **** }
 2017              		.loc 1 650 0
 2018 018a 12B0     		add	sp, sp, #72
 2019              		.cfi_def_cfa_offset 16
 2020              		@ sp needed
 2021 018c 70BD     		pop	{r4, r5, r6, pc}
 2022              	.LVL292:
 2023              	.L145:
 2024 018e 00BF     		.align	2
 2025              	.L144:
 2026 0190 14000000 		.word	.LC2
 2027 0194 74000000 		.word	.LANCHOR0+116
 2028 0198 08000000 		.word	.LC1
 2029 019c 74000000 		.word	.LC3
 2030              		.cfi_endproc
 2031              	.LFE14:
 2032              		.size	encode_delta_frame, .-encode_delta_frame
 2033              		.section	.text.encode_command_frame,"ax",%progbits
 2034              		.align	2
 2035              		.global	encode_command_frame
ARM GAS  C:\Users\codyg\AppData\Local\Temp\ccmSWLSY.s 			page 49


 2036              		.thumb
 2037              		.thumb_func
 2038              		.type	encode_command_frame, %function
 2039              	encode_command_frame:
 2040              	.LFB15:
 651:encode.c      **** 
 652:encode.c      **** /**
 653:encode.c      ****  * @brief Encodes a RestEaZe command frame.
 654:encode.c      ****  * @param cmd Source command frame.
 655:encode.c      ****  * @param enc Encoded command frame.
 656:encode.c      ****  * @return Length of the encoded frame in bytes.
 657:encode.c      ****  * @warning enc must be at least FRAME_CMD_MTU in size.
 658:encode.c      ****  */
 659:encode.c      **** size_t encode_command_frame(const command_frame_t *cmd, uint8_t *enc) {
 2041              		.loc 1 659 0
 2042              		.cfi_startproc
 2043              		@ args = 0, pretend = 0, frame = 8
 2044              		@ frame_needed = 0, uses_anonymous_args = 0
 2045              	.LVL293:
 2046 0000 30B5     		push	{r4, r5, lr}
 2047              		.cfi_def_cfa_offset 12
 2048              		.cfi_offset 4, -12
 2049              		.cfi_offset 5, -8
 2050              		.cfi_offset 14, -4
 2051 0002 83B0     		sub	sp, sp, #12
 2052              		.cfi_def_cfa_offset 24
 2053 0004 0546     		mov	r5, r0
 2054 0006 0C46     		mov	r4, r1
 660:encode.c      **** 	size_t i = 0; /* Byte index */
 2055              		.loc 1 660 0
 2056 0008 0023     		movs	r3, #0
 661:encode.c      **** 	size_t j = 0; /* Bit index */
 2057              		.loc 1 661 0
 2058 000a 0093     		str	r3, [sp]
 662:encode.c      **** 
 663:encode.c      **** 	/* Frame header */
 664:encode.c      **** 	enc[i] = FRAME_TYPE_CMD;
 2059              		.loc 1 664 0
 2060 000c 2023     		movs	r3, #32
 2061 000e 0B70     		strb	r3, [r1]
 665:encode.c      **** 	enc[i] |= cmd->cmd & FRAME_CTRL_CMD;
 2062              		.loc 1 665 0
 2063 0010 0378     		ldrb	r3, [r0]	@ zero_extendqisi2
 2064 0012 03F01F03 		and	r3, r3, #31
 2065 0016 43F02003 		orr	r3, r3, #32
 2066 001a 0B70     		strb	r3, [r1]
 666:encode.c      **** 	i++;
 667:encode.c      **** 
 668:encode.c      **** 	enc[i] = cmd->var;
 2067              		.loc 1 668 0
 2068 001c 4378     		ldrb	r3, [r0, #1]	@ zero_extendqisi2
 2069 001e 4B70     		strb	r3, [r1, #1]
 669:encode.c      **** 	i++;
 2070              		.loc 1 669 0
 2071 0020 0223     		movs	r3, #2
 2072 0022 0193     		str	r3, [sp, #4]
 670:encode.c      **** 
ARM GAS  C:\Users\codyg\AppData\Local\Temp\ccmSWLSY.s 			page 50


 671:encode.c      **** 	encode_uint32(cmd->seq, enc, &i, &j);
 2073              		.loc 1 671 0
 2074 0024 6B46     		mov	r3, sp
 2075 0026 01AA     		add	r2, sp, #4
 2076 0028 4068     		ldr	r0, [r0, #4]
 2077              	.LVL294:
 2078 002a FFF7FEFF 		bl	encode_uint32
 2079              	.LVL295:
 672:encode.c      **** 	encode_uint32(cmd->val, enc, &i, &j);
 2080              		.loc 1 672 0
 2081 002e 6B46     		mov	r3, sp
 2082 0030 01AA     		add	r2, sp, #4
 2083 0032 2146     		mov	r1, r4
 2084 0034 A868     		ldr	r0, [r5, #8]
 2085 0036 FFF7FEFF 		bl	encode_uint32
 2086              	.LVL296:
 673:encode.c      **** 
 674:encode.c      **** 	if (bytes_parity(enc, i + 1)) {
 2087              		.loc 1 674 0
 2088 003a 0199     		ldr	r1, [sp, #4]
 2089 003c 0131     		adds	r1, r1, #1
 2090 003e 2046     		mov	r0, r4
 2091 0040 FFF7FEFF 		bl	bytes_parity
 2092              	.LVL297:
 2093 0044 18B1     		cbz	r0, .L147
 675:encode.c      **** 		enc[0] |= FRAME_CTRL_PARITY;
 2094              		.loc 1 675 0
 2095 0046 2378     		ldrb	r3, [r4]	@ zero_extendqisi2
 2096 0048 63F07F03 		orn	r3, r3, #127
 2097 004c 2370     		strb	r3, [r4]
 2098              	.L147:
 676:encode.c      **** 	}
 677:encode.c      **** 
 678:encode.c      **** 	return i + 1;
 679:encode.c      **** }
 2099              		.loc 1 679 0
 2100 004e 0198     		ldr	r0, [sp, #4]
 2101 0050 0130     		adds	r0, r0, #1
 2102 0052 03B0     		add	sp, sp, #12
 2103              		.cfi_def_cfa_offset 12
 2104              		@ sp needed
 2105 0054 30BD     		pop	{r4, r5, pc}
 2106              		.cfi_endproc
 2107              	.LFE15:
 2108              		.size	encode_command_frame, .-encode_command_frame
 2109 0056 00BF     		.section	.text.encode_response_frame,"ax",%progbits
 2110              		.align	2
 2111              		.global	encode_response_frame
 2112              		.thumb
 2113              		.thumb_func
 2114              		.type	encode_response_frame, %function
 2115              	encode_response_frame:
 2116              	.LFB16:
 680:encode.c      **** 
 681:encode.c      **** /**
 682:encode.c      ****  * @brief Encodes a RestEaZe response frame.
 683:encode.c      ****  * @param cmd Source response frame.
ARM GAS  C:\Users\codyg\AppData\Local\Temp\ccmSWLSY.s 			page 51


 684:encode.c      ****  * @param enc Encoded response frame.
 685:encode.c      ****  * @return Length of the encoded frame in bytes.
 686:encode.c      ****  * @warning enc must be at least FRAME_CMD_MTU in size.
 687:encode.c      ****  */
 688:encode.c      **** size_t encode_response_frame(const response_frame_t *resp, uint8_t *enc) {
 2117              		.loc 1 688 0
 2118              		.cfi_startproc
 2119              		@ args = 0, pretend = 0, frame = 8
 2120              		@ frame_needed = 0, uses_anonymous_args = 0
 2121              	.LVL298:
 2122 0000 30B5     		push	{r4, r5, lr}
 2123              		.cfi_def_cfa_offset 12
 2124              		.cfi_offset 4, -12
 2125              		.cfi_offset 5, -8
 2126              		.cfi_offset 14, -4
 2127 0002 83B0     		sub	sp, sp, #12
 2128              		.cfi_def_cfa_offset 24
 2129 0004 0546     		mov	r5, r0
 2130 0006 0C46     		mov	r4, r1
 689:encode.c      **** 	size_t i = 0; /* Byte index */
 2131              		.loc 1 689 0
 2132 0008 0023     		movs	r3, #0
 690:encode.c      **** 	size_t j = 0; /* Bit index */
 2133              		.loc 1 690 0
 2134 000a 0093     		str	r3, [sp]
 691:encode.c      **** 
 692:encode.c      **** 	/* Frame header */
 693:encode.c      **** 	enc[i] = FRAME_TYPE_RESP;
 2135              		.loc 1 693 0
 2136 000c 4023     		movs	r3, #64
 2137 000e 0B70     		strb	r3, [r1]
 694:encode.c      **** 	enc[i] |= resp->ret & FRAME_CTRL_RESP;
 2138              		.loc 1 694 0
 2139 0010 0378     		ldrb	r3, [r0]	@ zero_extendqisi2
 2140 0012 03F01F03 		and	r3, r3, #31
 2141 0016 43F04003 		orr	r3, r3, #64
 2142 001a 0B70     		strb	r3, [r1]
 695:encode.c      **** 	i++;
 696:encode.c      **** 
 697:encode.c      **** 	enc[i] = resp->var;
 2143              		.loc 1 697 0
 2144 001c 4378     		ldrb	r3, [r0, #1]	@ zero_extendqisi2
 2145 001e 4B70     		strb	r3, [r1, #1]
 698:encode.c      **** 	i++;
 2146              		.loc 1 698 0
 2147 0020 0223     		movs	r3, #2
 2148 0022 0193     		str	r3, [sp, #4]
 699:encode.c      **** 
 700:encode.c      **** 	encode_uint32(resp->seq, enc, &i, &j);
 2149              		.loc 1 700 0
 2150 0024 6B46     		mov	r3, sp
 2151 0026 01AA     		add	r2, sp, #4
 2152 0028 4068     		ldr	r0, [r0, #4]
 2153              	.LVL299:
 2154 002a FFF7FEFF 		bl	encode_uint32
 2155              	.LVL300:
 701:encode.c      **** 	encode_uint32(resp->val, enc, &i, &j);
ARM GAS  C:\Users\codyg\AppData\Local\Temp\ccmSWLSY.s 			page 52


 2156              		.loc 1 701 0
 2157 002e 6B46     		mov	r3, sp
 2158 0030 01AA     		add	r2, sp, #4
 2159 0032 2146     		mov	r1, r4
 2160 0034 A868     		ldr	r0, [r5, #8]
 2161 0036 FFF7FEFF 		bl	encode_uint32
 2162              	.LVL301:
 702:encode.c      **** 
 703:encode.c      **** 	if (bytes_parity(enc, i + 1)) {
 2163              		.loc 1 703 0
 2164 003a 0199     		ldr	r1, [sp, #4]
 2165 003c 0131     		adds	r1, r1, #1
 2166 003e 2046     		mov	r0, r4
 2167 0040 FFF7FEFF 		bl	bytes_parity
 2168              	.LVL302:
 2169 0044 18B1     		cbz	r0, .L150
 704:encode.c      **** 		enc[0] |= FRAME_CTRL_PARITY;
 2170              		.loc 1 704 0
 2171 0046 2378     		ldrb	r3, [r4]	@ zero_extendqisi2
 2172 0048 63F07F03 		orn	r3, r3, #127
 2173 004c 2370     		strb	r3, [r4]
 2174              	.L150:
 705:encode.c      **** 	}
 706:encode.c      **** 
 707:encode.c      **** 	return i + 1;
 708:encode.c      **** }
 2175              		.loc 1 708 0
 2176 004e 0198     		ldr	r0, [sp, #4]
 2177 0050 0130     		adds	r0, r0, #1
 2178 0052 03B0     		add	sp, sp, #12
 2179              		.cfi_def_cfa_offset 12
 2180              		@ sp needed
 2181 0054 30BD     		pop	{r4, r5, pc}
 2182              		.cfi_endproc
 2183              	.LFE16:
 2184              		.size	encode_response_frame, .-encode_response_frame
 2185 0056 00BF     		.section	.rodata
 2186              		.align	2
 2187              		.set	.LANCHOR0,. + 0
 2188              		.type	__func__.5045, %object
 2189              		.size	__func__.5045, 20
 2190              	__func__.5045:
 2191 0000 656E636F 		.ascii	"encode_prefix_uint8\000"
 2191      64655F70 
 2191      72656669 
 2191      785F7569 
 2191      6E743800 
 2192              		.type	__func__.5057, %object
 2193              		.size	__func__.5057, 21
 2194              	__func__.5057:
 2195 0014 656E636F 		.ascii	"encode_prefix_uint16\000"
 2195      64655F70 
 2195      72656669 
 2195      785F7569 
 2195      6E743136 
 2196 0029 000000   		.space	3
 2197              		.type	__func__.5069, %object
ARM GAS  C:\Users\codyg\AppData\Local\Temp\ccmSWLSY.s 			page 53


 2198              		.size	__func__.5069, 21
 2199              	__func__.5069:
 2200 002c 656E636F 		.ascii	"encode_prefix_uint32\000"
 2200      64655F70 
 2200      72656669 
 2200      785F7569 
 2200      6E743332 
 2201 0041 000000   		.space	3
 2202              		.type	__func__.5081, %object
 2203              		.size	__func__.5081, 13
 2204              	__func__.5081:
 2205 0044 656E636F 		.ascii	"encode_uint8\000"
 2205      64655F75 
 2205      696E7438 
 2205      00
 2206 0051 000000   		.space	3
 2207              		.type	__func__.5094, %object
 2208              		.size	__func__.5094, 14
 2209              	__func__.5094:
 2210 0054 656E636F 		.ascii	"encode_uint16\000"
 2210      64655F75 
 2210      696E7431 
 2210      3600
 2211 0062 0000     		.space	2
 2212              		.type	__func__.5107, %object
 2213              		.size	__func__.5107, 14
 2214              	__func__.5107:
 2215 0064 656E636F 		.ascii	"encode_uint32\000"
 2215      64655F75 
 2215      696E7433 
 2215      3200
 2216 0072 0000     		.space	2
 2217              		.type	__func__.5125, %object
 2218              		.size	__func__.5125, 19
 2219              	__func__.5125:
 2220 0074 656E636F 		.ascii	"encode_delta_frame\000"
 2220      64655F64 
 2220      656C7461 
 2220      5F667261 
 2220      6D6500
 2221              		.section	.rodata.str1.4,"aMS",%progbits,1
 2222              		.align	2
 2223              	.LC0:
 2224 0000 2A6A203C 		.ascii	"*j < 8\000"
 2224      203800
 2225 0007 00       		.space	1
 2226              	.LC1:
 2227 0008 656E636F 		.ascii	"encode.c\000"
 2227      64652E63 
 2227      00
 2228 0011 000000   		.space	3
 2229              	.LC2:
 2230 0014 64617461 		.ascii	"data_checkpoint->seq == data->seq - 1 || data_check"
 2230      5F636865 
 2230      636B706F 
 2230      696E742D 
 2230      3E736571 
ARM GAS  C:\Users\codyg\AppData\Local\Temp\ccmSWLSY.s 			page 54


 2231 0047 706F696E 		.ascii	"point->seq == UINT32_MAX && data->seq == 0\000"
 2231      742D3E73 
 2231      6571203D 
 2231      3D205549 
 2231      4E543332 
 2232 0072 0000     		.space	2
 2233              	.LC3:
 2234 0074 66616C73 		.ascii	"false\000"
 2234      6500
 2235              		.text
 2236              	.Letext0:
 2237              		.file 2 "c:\\program files (x86)\\cypress\\psoc creator\\4.2\\psoc creator\\import\\gnu\\arm\\5.4.
 2238              		.file 3 "c:\\program files (x86)\\cypress\\psoc creator\\4.2\\psoc creator\\import\\gnu\\arm\\5.4.
 2239              		.file 4 "c:\\program files (x86)\\cypress\\psoc creator\\4.2\\psoc creator\\import\\gnu\\arm\\5.4.
 2240              		.file 5 "frame.h"
 2241              		.file 6 "c:\\program files (x86)\\cypress\\psoc creator\\4.2\\psoc creator\\import\\gnu\\arm\\5.4.