ARM GAS  C:\Users\codyg\AppData\Local\Temp\ccmSWLSY.s 			page 1


   1              		.syntax unified
   2              		.cpu cortex-m4
   3              		.eabi_attribute 27, 1
   4              		.fpu fpv4-sp-d16
   5              		.eabi_attribute 20, 1
   6              		.eabi_attribute 21, 1
   7              		.eabi_attribute 23, 3
   8              		.eabi_attribute 24, 1
   9              		.eabi_attribute 25, 1
  10              		.eabi_attribute 26, 1
  11              		.eabi_attribute 30, 1
  12              		.eabi_attribute 34, 1
  13              		.eabi_attribute 18, 4
  14              		.thumb
  15              		.syntax unified
  16              		.file	"encode.c"
  17              		.text
  18              	.Ltext0:
  19              		.cfi_sections	.debug_frame
  20              		.section	.text.encode_cobs,"ax",%progbits
  21              		.align	2
  22              		.global	encode_cobs
  23              		.thumb
  24              		.thumb_func
  25              		.type	encode_cobs, %function
  26              	encode_cobs:
  27              	.LFB0:
  28              		.file 1 "encode.c"
   1:encode.c      **** /**
   2:encode.c      ****  * Copyright (c) 2019 Tanzen Medical, Inc.
   3:encode.c      ****  *
   4:encode.c      ****  * @file encode.c
   5:encode.c      ****  * @author Nicholas Haltmeyer <hanicho1@umbc.edu>
   6:encode.c      ****  * @date 13 Jan 2019
   7:encode.c      ****  * @brief Routines for encoding RestEaZe frames.
   8:encode.c      ****  */
   9:encode.c      **** 
  10:encode.c      **** #include "encode.h"
  11:encode.c      **** 
  12:encode.c      **** #include <assert.h>
  13:encode.c      **** #include <time.h>
  14:encode.c      **** 
  15:encode.c      **** /**
  16:encode.c      ****  * @brief Encodes a Calendar struct as a Unix timestamp.
  17:encode.c      ****  * @param cal_0 Calendar time.
  18:encode.c      ****  * @return Seconds since 1 Jan 1970.
  19:encode.c      ****  */
  20:encode.c      **** //uint32_t encode_cal(const Calendar *cal_0) {
  21:encode.c      **** //	struct tm cal_1 = { 0 };
  22:encode.c      **** //
  23:encode.c      **** //	cal_1.tm_sec = cal_0->Seconds;
  24:encode.c      **** //	cal_1.tm_min = cal_0->Minutes;
  25:encode.c      **** //	cal_1.tm_hour = cal_0->Hours;
  26:encode.c      **** //	cal_1.tm_mday = cal_0->DayOfMonth;
  27:encode.c      **** //	cal_1.tm_mon = cal_0->Month;
  28:encode.c      **** //	cal_1.tm_year = cal_0->Year - 1970;
  29:encode.c      **** //	cal_1.tm_wday = cal_0->DayOfWeek;
ARM GAS  C:\Users\codyg\AppData\Local\Temp\ccmSWLSY.s 			page 2


  30:encode.c      **** //
  31:encode.c      **** //	/* NOTE setting tm_isdst to -1 will force mktime to check whether DST is in
  32:encode.c      **** //	 * effect. */
  33:encode.c      **** //	cal_1.tm_isdst = -1;
  34:encode.c      **** //
  35:encode.c      **** //	return (uint32_t) mktime(&cal_1);
  36:encode.c      **** //}
  37:encode.c      **** 
  38:encode.c      **** /**
  39:encode.c      ****  * @brief Encodes a frame encoded with consistent overhead byte stuffing.
  40:encode.c      ****  * @param dec Source decoded frame.
  41:encode.c      ****  * @param enc Destination encoded frame.
  42:encode.c      ****  * @param len Length of the source frame in bytes.
  43:encode.c      ****  * @return The length of the encoded frame in bytes.
  44:encode.c      ****  * @see https://en.wikipedia.org/wiki/Consistent_Overhead_Byte_Stuffing
  45:encode.c      ****  */
  46:encode.c      **** size_t encode_cobs(const uint8_t *dec, uint8_t *enc, size_t len) {
  29              		.loc 1 46 0
  30              		.cfi_startproc
  31              		@ args = 0, pretend = 0, frame = 0
  32              		@ frame_needed = 0, uses_anonymous_args = 0
  33              		@ link register save eliminated.
  34              	.LVL0:
  35 0000 F0B4     		push	{r4, r5, r6, r7}
  36              		.cfi_def_cfa_offset 16
  37              		.cfi_offset 4, -16
  38              		.cfi_offset 5, -12
  39              		.cfi_offset 6, -8
  40              		.cfi_offset 7, -4
  41              	.LVL1:
  47:encode.c      **** 	const uint8_t *beg = enc;
  48:encode.c      **** 	const uint8_t *end = dec + len;
  42              		.loc 1 48 0
  43 0002 0244     		add	r2, r2, r0
  44              	.LVL2:
  49:encode.c      **** 
  50:encode.c      **** 	uint8_t *code;
  51:encode.c      **** 	uint8_t curs;
  52:encode.c      **** 
  53:encode.c      **** 	code = enc++;
  45              		.loc 1 53 0
  46 0004 4C1C     		adds	r4, r1, #1
  47              	.LVL3:
  48 0006 0F46     		mov	r7, r1
  54:encode.c      **** 	curs = 1;
  49              		.loc 1 54 0
  50 0008 0123     		movs	r3, #1
  55:encode.c      **** 
  56:encode.c      **** 	while (dec < end) {
  51              		.loc 1 56 0
  52 000a 10E0     		b	.L2
  53              	.LVL4:
  54              	.L5:
  57:encode.c      **** 		if (curs != 0xFF) {
  55              		.loc 1 57 0
  56 000c FF2B     		cmp	r3, #255
  57 000e 08D0     		beq	.L6
ARM GAS  C:\Users\codyg\AppData\Local\Temp\ccmSWLSY.s 			page 3


  58              	.LBB2:
  58:encode.c      **** 			uint8_t tmp = *dec++;
  59              		.loc 1 58 0
  60 0010 451C     		adds	r5, r0, #1
  61              	.LVL5:
  62 0012 0678     		ldrb	r6, [r0]	@ zero_extendqisi2
  63              	.LVL6:
  59:encode.c      **** 
  60:encode.c      **** 			if (tmp != 0) {
  64              		.loc 1 60 0
  65 0014 36B1     		cbz	r6, .L3
  66              	.LVL7:
  61:encode.c      **** 				*enc++ = tmp;
  67              		.loc 1 61 0
  68 0016 2670     		strb	r6, [r4]
  62:encode.c      **** 				curs++;
  69              		.loc 1 62 0
  70 0018 0133     		adds	r3, r3, #1
  71              	.LVL8:
  72 001a DBB2     		uxtb	r3, r3
  73              	.LVL9:
  61:encode.c      **** 				*enc++ = tmp;
  74              		.loc 1 61 0
  75 001c 0134     		adds	r4, r4, #1
  76              	.LVL10:
  58:encode.c      **** 
  77              		.loc 1 58 0
  78 001e 2846     		mov	r0, r5
  63:encode.c      **** 				continue;
  79              		.loc 1 63 0
  80 0020 05E0     		b	.L2
  81              	.LVL11:
  82              	.L6:
  83 0022 0546     		mov	r5, r0
  84              	.LVL12:
  85              	.L3:
  86              	.LBE2:
  64:encode.c      **** 			}
  65:encode.c      **** 		}
  66:encode.c      **** 
  67:encode.c      **** 		*code = curs;
  87              		.loc 1 67 0
  88 0024 3B70     		strb	r3, [r7]
  89              	.LVL13:
  68:encode.c      **** 		code = enc++;
  90              		.loc 1 68 0
  91 0026 2746     		mov	r7, r4
  92 0028 0134     		adds	r4, r4, #1
  93              	.LVL14:
  94 002a 2846     		mov	r0, r5
  69:encode.c      **** 		curs = 1;
  95              		.loc 1 69 0
  96 002c 0123     		movs	r3, #1
  97              	.LVL15:
  98              	.L2:
  56:encode.c      **** 		if (curs != 0xFF) {
  99              		.loc 1 56 0
ARM GAS  C:\Users\codyg\AppData\Local\Temp\ccmSWLSY.s 			page 4


 100 002e 9042     		cmp	r0, r2
 101 0030 ECD3     		bcc	.L5
  70:encode.c      **** 	}
  71:encode.c      **** 
  72:encode.c      **** 	*code = curs;
 102              		.loc 1 72 0
 103 0032 3B70     		strb	r3, [r7]
  73:encode.c      **** 	*enc = 0;
 104              		.loc 1 73 0
 105 0034 0023     		movs	r3, #0
 106              	.LVL16:
 107 0036 2370     		strb	r3, [r4]
 108              	.LVL17:
  74:encode.c      **** 	return enc - beg;
  75:encode.c      **** }
 109              		.loc 1 75 0
 110 0038 601A     		subs	r0, r4, r1
 111              	.LVL18:
 112 003a F0BC     		pop	{r4, r5, r6, r7}
 113              		.cfi_restore 7
 114              		.cfi_restore 6
 115              		.cfi_restore 5
 116              		.cfi_restore 4
 117              		.cfi_def_cfa_offset 0
 118              	.LVL19:
 119 003c 7047     		bx	lr
 120              		.cfi_endproc
 121              	.LFE0:
 122              		.size	encode_cobs, .-encode_cobs
 123 003e 00BF     		.section	.text.msb_offset8,"ax",%progbits
 124              		.align	2
 125              		.global	msb_offset8
 126              		.thumb
 127              		.thumb_func
 128              		.type	msb_offset8, %function
 129              	msb_offset8:
 130              	.LFB1:
  76:encode.c      **** 
  77:encode.c      **** /**
  78:encode.c      ****  * @brief Computes the number of most-significant padding bits for 8-bit fields.
  79:encode.c      ****  * @param data 8-bit field.
  80:encode.c      ****  * @return Number of most-significant padding bits.
  81:encode.c      ****  * @see https://graphics.stanford.edu/~seander/bithacks.html
  82:encode.c      ****  */
  83:encode.c      **** uint8_t msb_offset8(uint8_t data) {
 131              		.loc 1 83 0
 132              		.cfi_startproc
 133              		@ args = 0, pretend = 0, frame = 0
 134              		@ frame_needed = 0, uses_anonymous_args = 0
 135              		@ link register save eliminated.
 136              	.LVL20:
  84:encode.c      **** 	uint8_t n = 0;
  85:encode.c      **** 
  86:encode.c      **** 	if (data == 0)
 137              		.loc 1 86 0
 138 0000 0346     		mov	r3, r0
 139 0002 90B1     		cbz	r0, .L12
ARM GAS  C:\Users\codyg\AppData\Local\Temp\ccmSWLSY.s 			page 5


  87:encode.c      **** 		return 8;
  88:encode.c      **** 	if (data <= 0x0F)
 140              		.loc 1 88 0
 141 0004 0F28     		cmp	r0, #15
 142 0006 03D8     		bhi	.L13
 143              	.LVL21:
  89:encode.c      **** 		n += 4, data <<= 4u;
 144              		.loc 1 89 0
 145 0008 0301     		lsls	r3, r0, #4
 146 000a DBB2     		uxtb	r3, r3
 147              	.LVL22:
 148 000c 0420     		movs	r0, #4
 149 000e 00E0     		b	.L10
 150              	.LVL23:
 151              	.L13:
  84:encode.c      **** 	uint8_t n = 0;
 152              		.loc 1 84 0
 153 0010 0020     		movs	r0, #0
 154              	.LVL24:
 155              	.L10:
  90:encode.c      **** 	if (data <= 0x3F)
 156              		.loc 1 90 0
 157 0012 3F2B     		cmp	r3, #63
 158 0014 03D8     		bhi	.L11
  91:encode.c      **** 		n += 2, data <<= 2u;
 159              		.loc 1 91 0
 160 0016 0230     		adds	r0, r0, #2
 161              	.LVL25:
 162 0018 C0B2     		uxtb	r0, r0
 163              	.LVL26:
 164 001a 9B00     		lsls	r3, r3, #2
 165              	.LVL27:
 166 001c DBB2     		uxtb	r3, r3
 167              	.LVL28:
 168              	.L11:
  92:encode.c      **** 	if (data <= 0x7F)
 169              		.loc 1 92 0
 170 001e 13F0800F 		tst	r3, #128
 171 0022 03D1     		bne	.L9
  93:encode.c      **** 		n++;
 172              		.loc 1 93 0
 173 0024 0130     		adds	r0, r0, #1
 174              	.LVL29:
 175 0026 C0B2     		uxtb	r0, r0
 176 0028 7047     		bx	lr
 177              	.LVL30:
 178              	.L12:
  87:encode.c      **** 	if (data <= 0x0F)
 179              		.loc 1 87 0
 180 002a 0820     		movs	r0, #8
 181              	.LVL31:
 182              	.L9:
  94:encode.c      **** 
  95:encode.c      **** 	return n;
  96:encode.c      **** }
 183              		.loc 1 96 0
 184 002c 7047     		bx	lr
ARM GAS  C:\Users\codyg\AppData\Local\Temp\ccmSWLSY.s 			page 6


 185              		.cfi_endproc
 186              	.LFE1:
 187              		.size	msb_offset8, .-msb_offset8
 188 002e 00BF     		.section	.text.msb_offset16,"ax",%progbits
 189              		.align	2
 190              		.global	msb_offset16
 191              		.thumb
 192              		.thumb_func
 193              		.type	msb_offset16, %function
 194              	msb_offset16:
 195              	.LFB2:
  97:encode.c      **** 
  98:encode.c      **** /**
  99:encode.c      ****  * @brief Computes the number of most-significant padding bits for 16-bit
 100:encode.c      ****  * fields.
 101:encode.c      ****  * @param data 16-bit field.
 102:encode.c      ****  * @return Number of most-significant padding bits.
 103:encode.c      ****  * @see https://graphics.stanford.edu/~seander/bithacks.html
 104:encode.c      ****  */
 105:encode.c      **** uint8_t msb_offset16(uint16_t data) {
 196              		.loc 1 105 0
 197              		.cfi_startproc
 198              		@ args = 0, pretend = 0, frame = 0
 199              		@ frame_needed = 0, uses_anonymous_args = 0
 200              		@ link register save eliminated.
 201              	.LVL32:
 106:encode.c      **** 	uint8_t n = 0;
 107:encode.c      **** 
 108:encode.c      **** 	if (data == 0)
 202              		.loc 1 108 0
 203 0000 0346     		mov	r3, r0
 204 0002 D0B1     		cbz	r0, .L20
 109:encode.c      **** 		return 16;
 110:encode.c      **** 	if (data <= 0x00FF)
 205              		.loc 1 110 0
 206 0004 FF28     		cmp	r0, #255
 207 0006 03D8     		bhi	.L21
 208              	.LVL33:
 111:encode.c      **** 		n += 8, data <<= 8u;
 209              		.loc 1 111 0
 210 0008 0302     		lsls	r3, r0, #8
 211 000a 9BB2     		uxth	r3, r3
 212              	.LVL34:
 213 000c 0820     		movs	r0, #8
 214 000e 00E0     		b	.L17
 215              	.LVL35:
 216              	.L21:
 106:encode.c      **** 	uint8_t n = 0;
 217              		.loc 1 106 0
 218 0010 0020     		movs	r0, #0
 219              	.LVL36:
 220              	.L17:
 112:encode.c      **** 	if (data <= 0x0FFF)
 221              		.loc 1 112 0
 222 0012 B3F5805F 		cmp	r3, #4096
 223 0016 03D2     		bcs	.L18
 113:encode.c      **** 		n += 4, data <<= 4u;
ARM GAS  C:\Users\codyg\AppData\Local\Temp\ccmSWLSY.s 			page 7


 224              		.loc 1 113 0
 225 0018 0430     		adds	r0, r0, #4
 226              	.LVL37:
 227 001a C0B2     		uxtb	r0, r0
 228              	.LVL38:
 229 001c 1B01     		lsls	r3, r3, #4
 230              	.LVL39:
 231 001e 9BB2     		uxth	r3, r3
 232              	.LVL40:
 233              	.L18:
 114:encode.c      **** 	if (data <= 0x3FFF)
 234              		.loc 1 114 0
 235 0020 B3F5804F 		cmp	r3, #16384
 236 0024 03D2     		bcs	.L19
 115:encode.c      **** 		n += 2, data <<= 2u;
 237              		.loc 1 115 0
 238 0026 0230     		adds	r0, r0, #2
 239              	.LVL41:
 240 0028 C0B2     		uxtb	r0, r0
 241              	.LVL42:
 242 002a 9B00     		lsls	r3, r3, #2
 243              	.LVL43:
 244 002c 9BB2     		uxth	r3, r3
 245              	.LVL44:
 246              	.L19:
 116:encode.c      **** 	if (data <= 0x7FFF)
 247              		.loc 1 116 0
 248 002e 13F4004F 		tst	r3, #32768
 249 0032 03D1     		bne	.L16
 117:encode.c      **** 		n++;
 250              		.loc 1 117 0
 251 0034 0130     		adds	r0, r0, #1
 252              	.LVL45:
 253 0036 C0B2     		uxtb	r0, r0
 254 0038 7047     		bx	lr
 255              	.LVL46:
 256              	.L20:
 109:encode.c      **** 	if (data <= 0x00FF)
 257              		.loc 1 109 0
 258 003a 1020     		movs	r0, #16
 259              	.LVL47:
 260              	.L16:
 118:encode.c      **** 
 119:encode.c      **** 	return n;
 120:encode.c      **** }
 261              		.loc 1 120 0
 262 003c 7047     		bx	lr
 263              		.cfi_endproc
 264              	.LFE2:
 265              		.size	msb_offset16, .-msb_offset16
 266 003e 00BF     		.section	.text.msb_offset32,"ax",%progbits
 267              		.align	2
 268              		.global	msb_offset32
 269              		.thumb
 270              		.thumb_func
 271              		.type	msb_offset32, %function
 272              	msb_offset32:
ARM GAS  C:\Users\codyg\AppData\Local\Temp\ccmSWLSY.s 			page 8


 273              	.LFB3:
 121:encode.c      **** 
 122:encode.c      **** /**
 123:encode.c      ****  * @brief Computes the number of most-significant padding bits for 32-bit
 124:encode.c      ****  * fields.
 125:encode.c      ****  * @param data 32-bit field.
 126:encode.c      ****  * @return Number of most-significant padding bits.
 127:encode.c      ****  * @see https://graphics.stanford.edu/~seander/bithacks.html
 128:encode.c      ****  */
 129:encode.c      **** uint8_t msb_offset32(uint32_t data) {
 274              		.loc 1 129 0
 275              		.cfi_startproc
 276              		@ args = 0, pretend = 0, frame = 0
 277              		@ frame_needed = 0, uses_anonymous_args = 0
 278              		@ link register save eliminated.
 279              	.LVL48:
 280 0000 0246     		mov	r2, r0
 281              	.LVL49:
 130:encode.c      **** 	uint8_t n = 0;
 131:encode.c      **** 
 132:encode.c      **** 	if (data <= 0x0000FFFF)
 282              		.loc 1 132 0
 283 0002 B0F5803F 		cmp	r0, #65536
 284 0006 02D2     		bcs	.L29
 285              	.LVL50:
 133:encode.c      **** 		n += 16, data <<= 16u;
 286              		.loc 1 133 0
 287 0008 0204     		lsls	r2, r0, #16
 288              	.LVL51:
 289 000a 1020     		movs	r0, #16
 290 000c 00E0     		b	.L24
 291              	.LVL52:
 292              	.L29:
 130:encode.c      **** 	uint8_t n = 0;
 293              		.loc 1 130 0
 294 000e 0020     		movs	r0, #0
 295              	.LVL53:
 296              	.L24:
 134:encode.c      **** 	if (data <= 0x00FFFFFF)
 297              		.loc 1 134 0
 298 0010 B2F1807F 		cmp	r2, #16777216
 299 0014 03D2     		bcs	.L25
 135:encode.c      **** 		n += 8, data <<= 8u;
 300              		.loc 1 135 0
 301 0016 00F10803 		add	r3, r0, #8
 302 001a D8B2     		uxtb	r0, r3
 303              	.LVL54:
 304 001c 1202     		lsls	r2, r2, #8
 305              	.LVL55:
 306              	.L25:
 136:encode.c      **** 	if (data <= 0x0FFFFFFF)
 307              		.loc 1 136 0
 308 001e B2F1805F 		cmp	r2, #268435456
 309 0022 02D2     		bcs	.L26
 137:encode.c      **** 		n += 4, data <<= 4u;
 310              		.loc 1 137 0
 311 0024 031D     		adds	r3, r0, #4
ARM GAS  C:\Users\codyg\AppData\Local\Temp\ccmSWLSY.s 			page 9


 312 0026 D8B2     		uxtb	r0, r3
 313              	.LVL56:
 314 0028 1201     		lsls	r2, r2, #4
 315              	.LVL57:
 316              	.L26:
 138:encode.c      **** 	if (data <= 0x3FFFFFFF)
 317              		.loc 1 138 0
 318 002a B2F1804F 		cmp	r2, #1073741824
 319 002e 02D2     		bcs	.L27
 139:encode.c      **** 		n += 2, data <<= 2u;
 320              		.loc 1 139 0
 321 0030 831C     		adds	r3, r0, #2
 322 0032 D8B2     		uxtb	r0, r3
 323              	.LVL58:
 324 0034 9200     		lsls	r2, r2, #2
 325              	.LVL59:
 326              	.L27:
 140:encode.c      **** 	if (data <= 0x7FFFFFFF)
 327              		.loc 1 140 0
 328 0036 002A     		cmp	r2, #0
 329 0038 01DB     		blt	.L28
 141:encode.c      **** 		n++;
 330              		.loc 1 141 0
 331 003a 0130     		adds	r0, r0, #1
 332              	.LVL60:
 333 003c C0B2     		uxtb	r0, r0
 334              	.LVL61:
 335              	.L28:
 142:encode.c      **** 
 143:encode.c      **** 	return n;
 144:encode.c      **** }
 336              		.loc 1 144 0
 337 003e 7047     		bx	lr
 338              		.cfi_endproc
 339              	.LFE3:
 340              		.size	msb_offset32, .-msb_offset32
 341              		.section	.text.lsb_offset8,"ax",%progbits
 342              		.align	2
 343              		.global	lsb_offset8
 344              		.thumb
 345              		.thumb_func
 346              		.type	lsb_offset8, %function
 347              	lsb_offset8:
 348              	.LFB4:
 145:encode.c      **** 
 146:encode.c      **** /**
 147:encode.c      ****  * @brief Computes the number of least-significant padding bits for 8-bit
 148:encode.c      ****  * fields.
 149:encode.c      ****  * @param data 8-bit field.
 150:encode.c      ****  * @return Number of least-significant padding bits.
 151:encode.c      ****  * @see https://graphics.stanford.edu/~seander/bithacks.html
 152:encode.c      ****  */
 153:encode.c      **** uint8_t lsb_offset8(uint8_t data) {
 349              		.loc 1 153 0
 350              		.cfi_startproc
 351              		@ args = 0, pretend = 0, frame = 0
 352              		@ frame_needed = 0, uses_anonymous_args = 0
ARM GAS  C:\Users\codyg\AppData\Local\Temp\ccmSWLSY.s 			page 10


 353              		@ link register save eliminated.
 354              	.LVL62:
 154:encode.c      **** 	uint8_t n = 1;
 155:encode.c      **** 
 156:encode.c      **** 	if (data & 0x1u)
 355              		.loc 1 156 0
 356 0000 10F0010F 		tst	r0, #1
 357 0004 12D1     		bne	.L34
 157:encode.c      **** 		return 0;
 158:encode.c      **** 	if (data == 0)
 358              		.loc 1 158 0
 359 0006 98B1     		cbz	r0, .L35
 159:encode.c      **** 		return 8;
 160:encode.c      **** 	if ((data & 0x0Fu) == 0)
 360              		.loc 1 160 0
 361 0008 10F00F0F 		tst	r0, #15
 362 000c 02D1     		bne	.L36
 363              	.LVL63:
 161:encode.c      **** 		n += 4, data >>= 4u;
 364              		.loc 1 161 0
 365 000e 0009     		lsrs	r0, r0, #4
 366              	.LVL64:
 367 0010 0523     		movs	r3, #5
 368 0012 00E0     		b	.L32
 369              	.LVL65:
 370              	.L36:
 154:encode.c      **** 
 371              		.loc 1 154 0
 372 0014 0123     		movs	r3, #1
 373              	.LVL66:
 374              	.L32:
 162:encode.c      **** 	if ((data & 0x03u) == 0)
 375              		.loc 1 162 0
 376 0016 10F0030F 		tst	r0, #3
 377 001a 02D1     		bne	.L33
 163:encode.c      **** 		n += 2, data >>= 2u;
 378              		.loc 1 163 0
 379 001c 0233     		adds	r3, r3, #2
 380              	.LVL67:
 381 001e DBB2     		uxtb	r3, r3
 382              	.LVL68:
 383 0020 8008     		lsrs	r0, r0, #2
 384              	.LVL69:
 385              	.L33:
 164:encode.c      **** 
 165:encode.c      **** 	n -= data & 0x1u;
 386              		.loc 1 165 0
 387 0022 00F00100 		and	r0, r0, #1
 388              	.LVL70:
 389 0026 181A     		subs	r0, r3, r0
 390 0028 C0B2     		uxtb	r0, r0
 391              	.LVL71:
 166:encode.c      **** 
 167:encode.c      **** 	return n;
 392              		.loc 1 167 0
 393 002a 7047     		bx	lr
 394              	.LVL72:
ARM GAS  C:\Users\codyg\AppData\Local\Temp\ccmSWLSY.s 			page 11


 395              	.L34:
 157:encode.c      **** 	if (data == 0)
 396              		.loc 1 157 0
 397 002c 0020     		movs	r0, #0
 398              	.LVL73:
 399 002e 7047     		bx	lr
 400              	.LVL74:
 401              	.L35:
 159:encode.c      **** 	if ((data & 0x0Fu) == 0)
 402              		.loc 1 159 0
 403 0030 0820     		movs	r0, #8
 404              	.LVL75:
 168:encode.c      **** }
 405              		.loc 1 168 0
 406 0032 7047     		bx	lr
 407              		.cfi_endproc
 408              	.LFE4:
 409              		.size	lsb_offset8, .-lsb_offset8
 410              		.section	.text.lsb_offset16,"ax",%progbits
 411              		.align	2
 412              		.global	lsb_offset16
 413              		.thumb
 414              		.thumb_func
 415              		.type	lsb_offset16, %function
 416              	lsb_offset16:
 417              	.LFB5:
 169:encode.c      **** 
 170:encode.c      **** /**
 171:encode.c      ****  * @brief Computes the number of least-significant padding bits for 16-bit
 172:encode.c      ****  * fields.
 173:encode.c      ****  * @param data 16-bit field.
 174:encode.c      ****  * @return Number of least-significant padding bits.
 175:encode.c      ****  * @see https://graphics.stanford.edu/~seander/bithacks.html
 176:encode.c      ****  */
 177:encode.c      **** uint8_t lsb_offset16(uint16_t data) {
 418              		.loc 1 177 0
 419              		.cfi_startproc
 420              		@ args = 0, pretend = 0, frame = 0
 421              		@ frame_needed = 0, uses_anonymous_args = 0
 422              		@ link register save eliminated.
 423              	.LVL76:
 178:encode.c      **** 	uint8_t n = 1;
 179:encode.c      **** 
 180:encode.c      **** 	if (data & 0x1u)
 424              		.loc 1 180 0
 425 0000 10F0010F 		tst	r0, #1
 426 0004 18D1     		bne	.L42
 181:encode.c      **** 		return 0;
 182:encode.c      **** 	if (data == 0)
 427              		.loc 1 182 0
 428 0006 C8B1     		cbz	r0, .L43
 183:encode.c      **** 		return 16;
 184:encode.c      **** 	if ((data & 0x00FFu) == 0)
 429              		.loc 1 184 0
 430 0008 10F0FF0F 		tst	r0, #255
 431 000c 02D1     		bne	.L44
 432              	.LVL77:
ARM GAS  C:\Users\codyg\AppData\Local\Temp\ccmSWLSY.s 			page 12


 185:encode.c      **** 		n += 8, data >>= 8u;
 433              		.loc 1 185 0
 434 000e 000A     		lsrs	r0, r0, #8
 435              	.LVL78:
 436 0010 0923     		movs	r3, #9
 437 0012 00E0     		b	.L39
 438              	.LVL79:
 439              	.L44:
 178:encode.c      **** 
 440              		.loc 1 178 0
 441 0014 0123     		movs	r3, #1
 442              	.LVL80:
 443              	.L39:
 186:encode.c      **** 	if ((data & 0x000Fu) == 0)
 444              		.loc 1 186 0
 445 0016 10F00F0F 		tst	r0, #15
 446 001a 02D1     		bne	.L40
 187:encode.c      **** 		n += 4, data >>= 4u;
 447              		.loc 1 187 0
 448 001c 0433     		adds	r3, r3, #4
 449              	.LVL81:
 450 001e DBB2     		uxtb	r3, r3
 451              	.LVL82:
 452 0020 0009     		lsrs	r0, r0, #4
 453              	.LVL83:
 454              	.L40:
 188:encode.c      **** 	if ((data & 0x0003u) == 0)
 455              		.loc 1 188 0
 456 0022 10F0030F 		tst	r0, #3
 457 0026 02D1     		bne	.L41
 189:encode.c      **** 		n += 2, data >>= 2u;
 458              		.loc 1 189 0
 459 0028 0233     		adds	r3, r3, #2
 460              	.LVL84:
 461 002a DBB2     		uxtb	r3, r3
 462              	.LVL85:
 463 002c 8008     		lsrs	r0, r0, #2
 464              	.LVL86:
 465              	.L41:
 190:encode.c      **** 
 191:encode.c      **** 	n -= data & 0x1u;
 466              		.loc 1 191 0
 467 002e 00F00100 		and	r0, r0, #1
 468              	.LVL87:
 469 0032 181A     		subs	r0, r3, r0
 470 0034 C0B2     		uxtb	r0, r0
 471              	.LVL88:
 192:encode.c      **** 
 193:encode.c      **** 	return n;
 472              		.loc 1 193 0
 473 0036 7047     		bx	lr
 474              	.LVL89:
 475              	.L42:
 181:encode.c      **** 	if (data == 0)
 476              		.loc 1 181 0
 477 0038 0020     		movs	r0, #0
 478              	.LVL90:
ARM GAS  C:\Users\codyg\AppData\Local\Temp\ccmSWLSY.s 			page 13


 479 003a 7047     		bx	lr
 480              	.LVL91:
 481              	.L43:
 183:encode.c      **** 	if ((data & 0x00FFu) == 0)
 482              		.loc 1 183 0
 483 003c 1020     		movs	r0, #16
 484              	.LVL92:
 194:encode.c      **** }
 485              		.loc 1 194 0
 486 003e 7047     		bx	lr
 487              		.cfi_endproc
 488              	.LFE5:
 489              		.size	lsb_offset16, .-lsb_offset16
 490              		.section	.text.lsb_offset32,"ax",%progbits
 491              		.align	2
 492              		.global	lsb_offset32
 493              		.thumb
 494              		.thumb_func
 495              		.type	lsb_offset32, %function
 496              	lsb_offset32:
 497              	.LFB6:
 195:encode.c      **** 
 196:encode.c      **** /**
 197:encode.c      ****  * @brief Computes the number of least-significant padding bits for 32-bit
 198:encode.c      ****  * fields.
 199:encode.c      ****  * @param data 32-bit field.
 200:encode.c      ****  * @return Number of least-significant padding bits.
 201:encode.c      ****  * @see https://graphics.stanford.edu/~seander/bithacks.html
 202:encode.c      ****  */
 203:encode.c      **** uint8_t lsb_offset32(uint32_t data) {
 498              		.loc 1 203 0
 499              		.cfi_startproc
 500              		@ args = 0, pretend = 0, frame = 0
 501              		@ frame_needed = 0, uses_anonymous_args = 0
 502              		@ link register save eliminated.
 503              	.LVL93:
 204:encode.c      **** 	uint8_t n = 1;
 205:encode.c      **** 
 206:encode.c      **** 	if (data & 0x1u)
 504              		.loc 1 206 0
 505 0000 10F0010F 		tst	r0, #1
 506 0004 1DD1     		bne	.L51
 207:encode.c      **** 		return 0;
 208:encode.c      **** 	if (data == 0)
 507              		.loc 1 208 0
 508 0006 F0B1     		cbz	r0, .L52
 209:encode.c      **** 		return 32;
 210:encode.c      **** 	if ((data & 0xFFFFu) == 0)
 509              		.loc 1 210 0
 510 0008 83B2     		uxth	r3, r0
 511 000a 13B9     		cbnz	r3, .L53
 512              	.LVL94:
 211:encode.c      **** 		n += 16, data >>= 16u;
 513              		.loc 1 211 0
 514 000c 000C     		lsrs	r0, r0, #16
 515              	.LVL95:
 516 000e 1123     		movs	r3, #17
ARM GAS  C:\Users\codyg\AppData\Local\Temp\ccmSWLSY.s 			page 14


 517 0010 00E0     		b	.L47
 518              	.LVL96:
 519              	.L53:
 204:encode.c      **** 
 520              		.loc 1 204 0
 521 0012 0123     		movs	r3, #1
 522              	.LVL97:
 523              	.L47:
 212:encode.c      **** 	if ((data & 0x00FFu) == 0)
 524              		.loc 1 212 0
 525 0014 10F0FF0F 		tst	r0, #255
 526 0018 02D1     		bne	.L48
 213:encode.c      **** 		n += 8, data >>= 8u;
 527              		.loc 1 213 0
 528 001a 0833     		adds	r3, r3, #8
 529              	.LVL98:
 530 001c DBB2     		uxtb	r3, r3
 531              	.LVL99:
 532 001e 000A     		lsrs	r0, r0, #8
 533              	.LVL100:
 534              	.L48:
 214:encode.c      **** 	if ((data & 0x000Fu) == 0)
 535              		.loc 1 214 0
 536 0020 10F00F0F 		tst	r0, #15
 537 0024 02D1     		bne	.L49
 215:encode.c      **** 		n += 4, data >>= 4u;
 538              		.loc 1 215 0
 539 0026 0433     		adds	r3, r3, #4
 540              	.LVL101:
 541 0028 DBB2     		uxtb	r3, r3
 542              	.LVL102:
 543 002a 0009     		lsrs	r0, r0, #4
 544              	.LVL103:
 545              	.L49:
 216:encode.c      **** 	if ((data & 0x0003u) == 0)
 546              		.loc 1 216 0
 547 002c 10F0030F 		tst	r0, #3
 548 0030 02D1     		bne	.L50
 217:encode.c      **** 		n += 2, data >>= 2u;
 549              		.loc 1 217 0
 550 0032 0233     		adds	r3, r3, #2
 551              	.LVL104:
 552 0034 DBB2     		uxtb	r3, r3
 553              	.LVL105:
 554 0036 8008     		lsrs	r0, r0, #2
 555              	.LVL106:
 556              	.L50:
 218:encode.c      **** 
 219:encode.c      **** 	n -= data & 0x1u;
 557              		.loc 1 219 0
 558 0038 00F00100 		and	r0, r0, #1
 559              	.LVL107:
 560 003c 181A     		subs	r0, r3, r0
 561 003e C0B2     		uxtb	r0, r0
 562              	.LVL108:
 220:encode.c      **** 
 221:encode.c      **** 	return n;
ARM GAS  C:\Users\codyg\AppData\Local\Temp\ccmSWLSY.s 			page 15


 563              		.loc 1 221 0
 564 0040 7047     		bx	lr
 565              	.LVL109:
 566              	.L51:
 207:encode.c      **** 	if (data == 0)
 567              		.loc 1 207 0
 568 0042 0020     		movs	r0, #0
 569              	.LVL110:
 570 0044 7047     		bx	lr
 571              	.LVL111:
 572              	.L52:
 209:encode.c      **** 	if ((data & 0xFFFFu) == 0)
 573              		.loc 1 209 0
 574 0046 2020     		movs	r0, #32
 575              	.LVL112:
 222:encode.c      **** }
 576              		.loc 1 222 0
 577 0048 7047     		bx	lr
 578              		.cfi_endproc
 579              	.LFE6:
 580              		.size	lsb_offset32, .-lsb_offset32
 581 004a 00BF     		.section	.text.encode_prefix_uint8,"ax",%progbits
 582              		.align	2
 583              		.global	encode_prefix_uint8
 584              		.thumb
 585              		.thumb_func
 586              		.type	encode_prefix_uint8, %function
 587              	encode_prefix_uint8:
 588              	.LFB7:
 223:encode.c      **** 
 224:encode.c      **** /**
 225:encode.c      ****  * @brief Encodes the prefix bits for 8-bit fields.
 226:encode.c      ****  * @param rem Pointer to the current byte cursor.
 227:encode.c      ****  * @param enc Encoded byte array.
 228:encode.c      ****  * @param i Current byte index.
 229:encode.c      ****  * @param j Current bit index.
 230:encode.c      ****  * @return Number of bits in the encoded field.
 231:encode.c      ****  */
 232:encode.c      **** uint8_t encode_prefix_uint8(uint8_t *rem, uint8_t *enc, size_t *i, size_t *j) {
 589              		.loc 1 232 0
 590              		.cfi_startproc
 591              		@ args = 0, pretend = 0, frame = 0
 592              		@ frame_needed = 0, uses_anonymous_args = 0
 593              	.LVL113:
 594 0000 2DE9F843 		push	{r3, r4, r5, r6, r7, r8, r9, lr}
 595              		.cfi_def_cfa_offset 32
 596              		.cfi_offset 3, -32
 597              		.cfi_offset 4, -28
 598              		.cfi_offset 5, -24
 599              		.cfi_offset 6, -20
 600              		.cfi_offset 7, -16
 601              		.cfi_offset 8, -12
 602              		.cfi_offset 9, -8
 603              		.cfi_offset 14, -4
 604 0004 1C46     		mov	r4, r3
 233:encode.c      **** 	assert(*j < 8);
 605              		.loc 1 233 0
ARM GAS  C:\Users\codyg\AppData\Local\Temp\ccmSWLSY.s 			page 16


 606 0006 1B68     		ldr	r3, [r3]
 607              	.LVL114:
 608 0008 072B     		cmp	r3, #7
 609 000a 05D9     		bls	.L55
 610              		.loc 1 233 0 is_stmt 0 discriminator 1
 611 000c 314B     		ldr	r3, .L66
 612 000e 324A     		ldr	r2, .L66+4
 613              	.LVL115:
 614 0010 E921     		movs	r1, #233
 615              	.LVL116:
 616 0012 3248     		ldr	r0, .L66+8
 617              	.LVL117:
 618 0014 FFF7FEFF 		bl	__assert_func
 619              	.LVL118:
 620              	.L55:
 621 0018 0746     		mov	r7, r0
 622 001a 0D46     		mov	r5, r1
 623 001c 1646     		mov	r6, r2
 624              	.LVL119:
 234:encode.c      **** 
 235:encode.c      **** 	uint8_t n_bits = 8;
 236:encode.c      **** 	uint8_t msb_offset = msb_offset8(*rem);
 625              		.loc 1 236 0 is_stmt 1
 626 001e 90F80090 		ldrb	r9, [r0]	@ zero_extendqisi2
 627 0022 4846     		mov	r0, r9
 628              	.LVL120:
 629 0024 FFF7FEFF 		bl	msb_offset8
 630              	.LVL121:
 631 0028 8046     		mov	r8, r0
 632              	.LVL122:
 237:encode.c      **** 	uint8_t lsb_offset = lsb_offset8(*rem);
 633              		.loc 1 237 0
 634 002a 4846     		mov	r0, r9
 635 002c FFF7FEFF 		bl	lsb_offset8
 636              	.LVL123:
 238:encode.c      **** 
 239:encode.c      **** 	/* Account for empty fields (all zeros). */
 240:encode.c      **** 	msb_offset = msb_offset == 8 ? (uint8_t) 7 : msb_offset;
 637              		.loc 1 240 0
 638 0030 B8F1080F 		cmp	r8, #8
 639 0034 01D1     		bne	.L56
 640 0036 4FF00708 		mov	r8, #7
 641              	.LVL124:
 642              	.L56:
 241:encode.c      **** 	lsb_offset = lsb_offset == 8 ? (uint8_t) 7 : lsb_offset;
 643              		.loc 1 241 0 discriminator 4
 644 003a 0828     		cmp	r0, #8
 645 003c 00D1     		bne	.L57
 646              		.loc 1 241 0 is_stmt 0
 647 003e 0720     		movs	r0, #7
 648              	.LVL125:
 649              	.L57:
 242:encode.c      **** 
 243:encode.c      **** 	if (msb_offset >= lsb_offset) {
 650              		.loc 1 243 0 is_stmt 1 discriminator 4
 651 0040 8045     		cmp	r8, r0
 652 0042 07D3     		bcc	.L58
ARM GAS  C:\Users\codyg\AppData\Local\Temp\ccmSWLSY.s 			page 17


 244:encode.c      **** 		n_bits -= msb_offset;
 653              		.loc 1 244 0
 654 0044 C8F10803 		rsb	r3, r8, #8
 655 0048 D9B2     		uxtb	r1, r3
 656              	.LVL126:
 245:encode.c      **** 		(*rem) <<= msb_offset;
 657              		.loc 1 245 0
 658 004a 09FA08F9 		lsl	r9, r9, r8
 659 004e 87F80090 		strb	r9, [r7]
 660 0052 02E0     		b	.L59
 661              	.LVL127:
 662              	.L58:
 246:encode.c      **** 	} else {
 247:encode.c      **** 		n_bits -= lsb_offset;
 663              		.loc 1 247 0
 664 0054 C0F10803 		rsb	r3, r0, #8
 665 0058 D9B2     		uxtb	r1, r3
 666              	.LVL128:
 667              	.L59:
 248:encode.c      **** 	}
 249:encode.c      **** 
 250:encode.c      **** 	uint8_t curs = 0;
 251:encode.c      **** 	uint8_t n_rem = n_bits;
 252:encode.c      **** 
 253:encode.c      **** 	/* First bit indicates MSB or LSB shift. */
 254:encode.c      **** 	if (msb_offset < lsb_offset) {
 668              		.loc 1 254 0
 669 005a 8045     		cmp	r8, r0
 670 005c 01D3     		bcc	.L63
 250:encode.c      **** 	uint8_t n_rem = n_bits;
 671              		.loc 1 250 0
 672 005e 0022     		movs	r2, #0
 673 0060 00E0     		b	.L60
 674              	.L63:
 255:encode.c      **** 		curs = 0b10000000;
 675              		.loc 1 255 0
 676 0062 8022     		movs	r2, #128
 677              	.L60:
 678              	.LVL129:
 256:encode.c      **** 	}
 257:encode.c      **** 
 258:encode.c      **** 	/* Next 3 bits indicate length (in bits). */
 259:encode.c      **** 	curs |= (n_bits - 1) << 4;
 679              		.loc 1 259 0
 680 0064 8E46     		mov	lr, r1
 681 0066 4B1E     		subs	r3, r1, #1
 682 0068 42EA0312 		orr	r2, r2, r3, lsl #4
 683              	.LVL130:
 684 006c 02F0F002 		and	r2, r2, #240
 685              	.LVL131:
 260:encode.c      **** 	curs |= (uint8_t) ((*rem >> 4) & 0b1111);
 686              		.loc 1 260 0
 687 0070 97F800C0 		ldrb	ip, [r7]	@ zero_extendqisi2
 688 0074 42EA1C13 		orr	r3, r2, ip, lsr #4
 689              	.LVL132:
 261:encode.c      **** 	n_rem = (uint8_t) (n_rem < 4 ? 0 : n_rem - 4);
 690              		.loc 1 261 0
ARM GAS  C:\Users\codyg\AppData\Local\Temp\ccmSWLSY.s 			page 18


 691 0078 0329     		cmp	r1, #3
 692 007a 02D9     		bls	.L64
 693              		.loc 1 261 0 is_stmt 0 discriminator 1
 694 007c 081F     		subs	r0, r1, #4
 695              	.LVL133:
 696 007e C0B2     		uxtb	r0, r0
 697 0080 00E0     		b	.L61
 698              	.LVL134:
 699              	.L64:
 700              		.loc 1 261 0
 701 0082 0020     		movs	r0, #0
 702              	.LVL135:
 703              	.L61:
 262:encode.c      **** 	(*rem) <<= 4;
 704              		.loc 1 262 0 is_stmt 1 discriminator 4
 705 0084 4FEA0C1C 		lsl	ip, ip, #4
 706 0088 87F800C0 		strb	ip, [r7]
 263:encode.c      **** 	enc[*i] |= curs >> *j;
 707              		.loc 1 263 0 discriminator 4
 708 008c 3768     		ldr	r7, [r6]
 709              	.LVL136:
 710 008e 2268     		ldr	r2, [r4]
 711 0090 43FA02F2 		asr	r2, r3, r2
 712 0094 15F807C0 		ldrb	ip, [r5, r7]	@ zero_extendqisi2
 713 0098 4CEA0202 		orr	r2, ip, r2
 714 009c EA55     		strb	r2, [r5, r7]
 264:encode.c      **** 
 265:encode.c      **** 	/* Only move over to the next byte if we have remaining values in the cursor.
 266:encode.c      **** 	 */
 267:encode.c      **** 	if (4 + n_bits >= 8 - *j) {
 715              		.loc 1 267 0 discriminator 4
 716 009e 0EF1040E 		add	lr, lr, #4
 717 00a2 2268     		ldr	r2, [r4]
 718 00a4 C2F10802 		rsb	r2, r2, #8
 719 00a8 9645     		cmp	lr, r2
 720 00aa 09D3     		bcc	.L62
 268:encode.c      **** 		*i += 1;
 721              		.loc 1 268 0
 722 00ac 3268     		ldr	r2, [r6]
 723 00ae 0132     		adds	r2, r2, #1
 724 00b0 3260     		str	r2, [r6]
 269:encode.c      **** 		enc[*i] |= curs << (8 - *j);
 725              		.loc 1 269 0
 726 00b2 2668     		ldr	r6, [r4]
 727              	.LVL137:
 728 00b4 C6F10806 		rsb	r6, r6, #8
 729 00b8 B340     		lsls	r3, r3, r6
 730              	.LVL138:
 731 00ba AE5C     		ldrb	r6, [r5, r2]	@ zero_extendqisi2
 732 00bc 3343     		orrs	r3, r3, r6
 733 00be AB54     		strb	r3, [r5, r2]
 734              	.L62:
 270:encode.c      **** 	}
 271:encode.c      **** 
 272:encode.c      **** 	*j = (*j + 4 + n_bits - n_rem) % 8;
 735              		.loc 1 272 0
 736 00c0 2368     		ldr	r3, [r4]
ARM GAS  C:\Users\codyg\AppData\Local\Temp\ccmSWLSY.s 			page 19


 737 00c2 0B44     		add	r3, r3, r1
 738 00c4 1B1A     		subs	r3, r3, r0
 739 00c6 0433     		adds	r3, r3, #4
 740 00c8 03F00703 		and	r3, r3, #7
 741 00cc 2360     		str	r3, [r4]
 273:encode.c      **** 
 274:encode.c      **** 	return n_rem;
 275:encode.c      **** }
 742              		.loc 1 275 0
 743 00ce BDE8F883 		pop	{r3, r4, r5, r6, r7, r8, r9, pc}
 744              	.LVL139:
 745              	.L67:
 746 00d2 00BF     		.align	2
 747              	.L66:
 748 00d4 00000000 		.word	.LC0
 749 00d8 00000000 		.word	.LANCHOR0
 750 00dc 08000000 		.word	.LC1
 751              		.cfi_endproc
 752              	.LFE7:
 753              		.size	encode_prefix_uint8, .-encode_prefix_uint8
 754              		.section	.text.encode_prefix_uint16,"ax",%progbits
 755              		.align	2
 756              		.global	encode_prefix_uint16
 757              		.thumb
 758              		.thumb_func
 759              		.type	encode_prefix_uint16, %function
 760              	encode_prefix_uint16:
 761              	.LFB8:
 276:encode.c      **** 
 277:encode.c      **** /**
 278:encode.c      ****  * @brief Encodes the prefix bits for 16-bit fields.
 279:encode.c      ****  * @param rem Pointer to the current byte cursor.
 280:encode.c      ****  * @param enc Encoded byte array.
 281:encode.c      ****  * @param i Current byte index.
 282:encode.c      ****  * @param j Current bit index.
 283:encode.c      ****  * @return Number of bits in the encoded field.
 284:encode.c      ****  */
 285:encode.c      **** uint8_t encode_prefix_uint16(uint16_t *rem, uint8_t *enc, size_t *i,
 286:encode.c      **** 		size_t *j) {
 762              		.loc 1 286 0
 763              		.cfi_startproc
 764              		@ args = 0, pretend = 0, frame = 0
 765              		@ frame_needed = 0, uses_anonymous_args = 0
 766              	.LVL140:
 767 0000 2DE9F843 		push	{r3, r4, r5, r6, r7, r8, r9, lr}
 768              		.cfi_def_cfa_offset 32
 769              		.cfi_offset 3, -32
 770              		.cfi_offset 4, -28
 771              		.cfi_offset 5, -24
 772              		.cfi_offset 6, -20
 773              		.cfi_offset 7, -16
 774              		.cfi_offset 8, -12
 775              		.cfi_offset 9, -8
 776              		.cfi_offset 14, -4
 777 0004 1C46     		mov	r4, r3
 287:encode.c      **** 	assert(*j < 8);
 778              		.loc 1 287 0
ARM GAS  C:\Users\codyg\AppData\Local\Temp\ccmSWLSY.s 			page 20


 779 0006 1B68     		ldr	r3, [r3]
 780              	.LVL141:
 781 0008 072B     		cmp	r3, #7
 782 000a 06D9     		bls	.L69
 783              		.loc 1 287 0 is_stmt 0 discriminator 1
 784 000c 314B     		ldr	r3, .L80
 785 000e 324A     		ldr	r2, .L80+4
 786              	.LVL142:
 787 0010 40F21F11 		movw	r1, #287
 788              	.LVL143:
 789 0014 3148     		ldr	r0, .L80+8
 790              	.LVL144:
 791 0016 FFF7FEFF 		bl	__assert_func
 792              	.LVL145:
 793              	.L69:
 794 001a 0546     		mov	r5, r0
 795 001c 0E46     		mov	r6, r1
 796 001e 1746     		mov	r7, r2
 797              	.LVL146:
 288:encode.c      **** 
 289:encode.c      **** 	uint8_t n_bits = 16;
 290:encode.c      **** 	uint8_t msb_offset = msb_offset16(*rem);
 798              		.loc 1 290 0 is_stmt 1
 799 0020 B0F80090 		ldrh	r9, [r0]
 800 0024 4846     		mov	r0, r9
 801              	.LVL147:
 802 0026 FFF7FEFF 		bl	msb_offset16
 803              	.LVL148:
 804 002a 8046     		mov	r8, r0
 805              	.LVL149:
 291:encode.c      **** 	uint8_t lsb_offset = lsb_offset16(*rem);
 806              		.loc 1 291 0
 807 002c 4846     		mov	r0, r9
 808 002e FFF7FEFF 		bl	lsb_offset16
 809              	.LVL150:
 292:encode.c      **** 
 293:encode.c      **** 	/* Account for empty fields (all zeros). */
 294:encode.c      **** 	msb_offset = msb_offset == 16 ? (uint8_t) 15 : msb_offset;
 810              		.loc 1 294 0
 811 0032 B8F1100F 		cmp	r8, #16
 812 0036 01D1     		bne	.L70
 813 0038 4FF00F08 		mov	r8, #15
 814              	.LVL151:
 815              	.L70:
 295:encode.c      **** 	lsb_offset = lsb_offset == 16 ? (uint8_t) 15 : lsb_offset;
 816              		.loc 1 295 0 discriminator 4
 817 003c 1028     		cmp	r0, #16
 818 003e 00D1     		bne	.L71
 819              		.loc 1 295 0 is_stmt 0
 820 0040 0F20     		movs	r0, #15
 821              	.LVL152:
 822              	.L71:
 296:encode.c      **** 
 297:encode.c      **** 	if (msb_offset >= lsb_offset) {
 823              		.loc 1 297 0 is_stmt 1 discriminator 4
 824 0042 8045     		cmp	r8, r0
 825 0044 07D3     		bcc	.L72
ARM GAS  C:\Users\codyg\AppData\Local\Temp\ccmSWLSY.s 			page 21


 298:encode.c      **** 		n_bits -= msb_offset;
 826              		.loc 1 298 0
 827 0046 C8F11003 		rsb	r3, r8, #16
 828 004a D9B2     		uxtb	r1, r3
 829              	.LVL153:
 299:encode.c      **** 		(*rem) <<= msb_offset;
 830              		.loc 1 299 0
 831 004c 09FA08F9 		lsl	r9, r9, r8
 832 0050 A5F80090 		strh	r9, [r5]	@ movhi
 833 0054 02E0     		b	.L73
 834              	.LVL154:
 835              	.L72:
 300:encode.c      **** 	} else {
 301:encode.c      **** 		n_bits -= lsb_offset;
 836              		.loc 1 301 0
 837 0056 C0F11003 		rsb	r3, r0, #16
 838 005a D9B2     		uxtb	r1, r3
 839              	.LVL155:
 840              	.L73:
 302:encode.c      **** 	}
 303:encode.c      **** 
 304:encode.c      **** 	uint8_t n_rem = n_bits;
 305:encode.c      **** 	uint8_t curs = 0;
 306:encode.c      **** 
 307:encode.c      **** 	/* First bit indicates MSB or LSB shift. */
 308:encode.c      **** 	if (msb_offset < lsb_offset) {
 841              		.loc 1 308 0
 842 005c 8045     		cmp	r8, r0
 843 005e 01D3     		bcc	.L77
 305:encode.c      **** 
 844              		.loc 1 305 0
 845 0060 0022     		movs	r2, #0
 846 0062 00E0     		b	.L74
 847              	.L77:
 309:encode.c      **** 		curs = 0b10000000;
 848              		.loc 1 309 0
 849 0064 8022     		movs	r2, #128
 850              	.L74:
 851              	.LVL156:
 310:encode.c      **** 	}
 311:encode.c      **** 
 312:encode.c      **** 	/* Next 4 bits indicate length (in bits) */
 313:encode.c      **** 	curs |= (n_bits - 1) << 3;
 852              		.loc 1 313 0
 853 0066 8E46     		mov	lr, r1
 854 0068 4B1E     		subs	r3, r1, #1
 855 006a 42EAC302 		orr	r2, r2, r3, lsl #3
 856              	.LVL157:
 857 006e 52B2     		sxtb	r2, r2
 858              	.LVL158:
 314:encode.c      **** 	curs |= (uint8_t) ((*rem >> 13) & 0b111);
 859              		.loc 1 314 0
 860 0070 B5F800C0 		ldrh	ip, [r5]
 861 0074 42EA5C32 		orr	r2, r2, ip, lsr #13
 862              	.LVL159:
 863 0078 D3B2     		uxtb	r3, r2
 864              	.LVL160:
ARM GAS  C:\Users\codyg\AppData\Local\Temp\ccmSWLSY.s 			page 22


 315:encode.c      **** 	n_rem = (uint8_t) (n_rem < 3 ? 0 : n_rem - 3);
 865              		.loc 1 315 0
 866 007a 0229     		cmp	r1, #2
 867 007c 02D9     		bls	.L78
 868              		.loc 1 315 0 is_stmt 0 discriminator 1
 869 007e C81E     		subs	r0, r1, #3
 870              	.LVL161:
 871 0080 C0B2     		uxtb	r0, r0
 872 0082 00E0     		b	.L75
 873              	.LVL162:
 874              	.L78:
 875              		.loc 1 315 0
 876 0084 0020     		movs	r0, #0
 877              	.LVL163:
 878              	.L75:
 316:encode.c      **** 	(*rem) <<= 3;
 879              		.loc 1 316 0 is_stmt 1 discriminator 4
 880 0086 4FEACC0C 		lsl	ip, ip, #3
 881 008a A5F800C0 		strh	ip, [r5]	@ movhi
 317:encode.c      **** 	enc[*i] |= curs >> *j;
 882              		.loc 1 317 0 discriminator 4
 883 008e 3D68     		ldr	r5, [r7]
 884              	.LVL164:
 885 0090 2268     		ldr	r2, [r4]
 886 0092 43FA02F2 		asr	r2, r3, r2
 887 0096 16F805C0 		ldrb	ip, [r6, r5]	@ zero_extendqisi2
 888 009a 4CEA0202 		orr	r2, ip, r2
 889 009e 7255     		strb	r2, [r6, r5]
 318:encode.c      **** 
 319:encode.c      **** 	/* Only move over to the next byte if we have remaining values in the cursor.
 320:encode.c      **** 	 */
 321:encode.c      **** 	if (5 + n_bits >= 8 - *j) {
 890              		.loc 1 321 0 discriminator 4
 891 00a0 0EF1050E 		add	lr, lr, #5
 892 00a4 2268     		ldr	r2, [r4]
 893 00a6 C2F10802 		rsb	r2, r2, #8
 894 00aa 9645     		cmp	lr, r2
 895 00ac 09D3     		bcc	.L76
 322:encode.c      **** 		*i += 1;
 896              		.loc 1 322 0
 897 00ae 3A68     		ldr	r2, [r7]
 898 00b0 0132     		adds	r2, r2, #1
 899 00b2 3A60     		str	r2, [r7]
 323:encode.c      **** 		enc[*i] |= curs << (8 - *j);
 900              		.loc 1 323 0
 901 00b4 2568     		ldr	r5, [r4]
 902 00b6 C5F10805 		rsb	r5, r5, #8
 903 00ba AB40     		lsls	r3, r3, r5
 904              	.LVL165:
 905 00bc B55C     		ldrb	r5, [r6, r2]	@ zero_extendqisi2
 906 00be 2B43     		orrs	r3, r3, r5
 907 00c0 B354     		strb	r3, [r6, r2]
 908              	.L76:
 324:encode.c      **** 	}
 325:encode.c      **** 
 326:encode.c      **** 	*j = (*j + 5 + n_bits - n_rem) % 8;
 909              		.loc 1 326 0
ARM GAS  C:\Users\codyg\AppData\Local\Temp\ccmSWLSY.s 			page 23


 910 00c2 2368     		ldr	r3, [r4]
 911 00c4 0B44     		add	r3, r3, r1
 912 00c6 1B1A     		subs	r3, r3, r0
 913 00c8 0533     		adds	r3, r3, #5
 914 00ca 03F00703 		and	r3, r3, #7
 915 00ce 2360     		str	r3, [r4]
 327:encode.c      **** 
 328:encode.c      **** 	return n_rem;
 329:encode.c      **** }
 916              		.loc 1 329 0
 917 00d0 BDE8F883 		pop	{r3, r4, r5, r6, r7, r8, r9, pc}
 918              	.LVL166:
 919              	.L81:
 920              		.align	2
 921              	.L80:
 922 00d4 00000000 		.word	.LC0
 923 00d8 14000000 		.word	.LANCHOR0+20
 924 00dc 08000000 		.word	.LC1
 925              		.cfi_endproc
 926              	.LFE8:
 927              		.size	encode_prefix_uint16, .-encode_prefix_uint16
 928              		.section	.text.encode_prefix_uint32,"ax",%progbits
 929              		.align	2
 930              		.global	encode_prefix_uint32
 931              		.thumb
 932              		.thumb_func
 933              		.type	encode_prefix_uint32, %function
 934              	encode_prefix_uint32:
 935              	.LFB9:
 330:encode.c      **** 
 331:encode.c      **** /**
 332:encode.c      ****  * @brief Encodes the prefix bits for 32-bit fields.
 333:encode.c      ****  * @param rem Pointer to the current byte cursor.
 334:encode.c      ****  * @param enc Encoded byte array.
 335:encode.c      ****  * @param i Current byte index.
 336:encode.c      ****  * @param j Current bit index.
 337:encode.c      ****  * @return Number of bits in the encoded field.
 338:encode.c      ****  */
 339:encode.c      **** uint8_t encode_prefix_uint32(uint32_t *rem, uint8_t *enc, size_t *i,
 340:encode.c      **** 		size_t *j) {
 936              		.loc 1 340 0
 937              		.cfi_startproc
 938              		@ args = 0, pretend = 0, frame = 0
 939              		@ frame_needed = 0, uses_anonymous_args = 0
 940              	.LVL167:
 941 0000 2DE9F843 		push	{r3, r4, r5, r6, r7, r8, r9, lr}
 942              		.cfi_def_cfa_offset 32
 943              		.cfi_offset 3, -32
 944              		.cfi_offset 4, -28
 945              		.cfi_offset 5, -24
 946              		.cfi_offset 6, -20
 947              		.cfi_offset 7, -16
 948              		.cfi_offset 8, -12
 949              		.cfi_offset 9, -8
 950              		.cfi_offset 14, -4
 951 0004 1C46     		mov	r4, r3
 341:encode.c      **** 	assert(*j < 8);
ARM GAS  C:\Users\codyg\AppData\Local\Temp\ccmSWLSY.s 			page 24


 952              		.loc 1 341 0
 953 0006 1B68     		ldr	r3, [r3]
 954              	.LVL168:
 955 0008 072B     		cmp	r3, #7
 956 000a 06D9     		bls	.L83
 957              		.loc 1 341 0 is_stmt 0 discriminator 1
 958 000c 304B     		ldr	r3, .L94
 959 000e 314A     		ldr	r2, .L94+4
 960              	.LVL169:
 961 0010 40F25511 		movw	r1, #341
 962              	.LVL170:
 963 0014 3048     		ldr	r0, .L94+8
 964              	.LVL171:
 965 0016 FFF7FEFF 		bl	__assert_func
 966              	.LVL172:
 967              	.L83:
 968 001a 0546     		mov	r5, r0
 969 001c 0E46     		mov	r6, r1
 970 001e 1746     		mov	r7, r2
 971              	.LVL173:
 342:encode.c      **** 
 343:encode.c      **** 	uint8_t n_bits = 32;
 344:encode.c      **** 	uint8_t msb_offset = msb_offset32(*rem);
 972              		.loc 1 344 0 is_stmt 1
 973 0020 D0F80090 		ldr	r9, [r0]
 974 0024 4846     		mov	r0, r9
 975              	.LVL174:
 976 0026 FFF7FEFF 		bl	msb_offset32
 977              	.LVL175:
 978 002a 8046     		mov	r8, r0
 979              	.LVL176:
 345:encode.c      **** 	uint8_t lsb_offset = lsb_offset32(*rem);
 980              		.loc 1 345 0
 981 002c 4846     		mov	r0, r9
 982 002e FFF7FEFF 		bl	lsb_offset32
 983              	.LVL177:
 346:encode.c      **** 
 347:encode.c      **** 	/* Account for empty fields (all zeros). */
 348:encode.c      **** 	msb_offset = msb_offset == 32 ? (uint8_t) 31 : msb_offset;
 984              		.loc 1 348 0
 985 0032 B8F1200F 		cmp	r8, #32
 986 0036 01D1     		bne	.L84
 987 0038 4FF01F08 		mov	r8, #31
 988              	.LVL178:
 989              	.L84:
 349:encode.c      **** 	lsb_offset = lsb_offset == 32 ? (uint8_t) 31 : lsb_offset;
 990              		.loc 1 349 0 discriminator 4
 991 003c 2028     		cmp	r0, #32
 992 003e 00D1     		bne	.L85
 993              		.loc 1 349 0 is_stmt 0
 994 0040 1F20     		movs	r0, #31
 995              	.LVL179:
 996              	.L85:
 350:encode.c      **** 
 351:encode.c      **** 	if (msb_offset >= lsb_offset) {
 997              		.loc 1 351 0 is_stmt 1 discriminator 4
 998 0042 8045     		cmp	r8, r0
ARM GAS  C:\Users\codyg\AppData\Local\Temp\ccmSWLSY.s 			page 25


 999 0044 06D3     		bcc	.L86
 352:encode.c      **** 		n_bits -= msb_offset;
 1000              		.loc 1 352 0
 1001 0046 C8F12003 		rsb	r3, r8, #32
 1002 004a D9B2     		uxtb	r1, r3
 1003              	.LVL180:
 353:encode.c      **** 		(*rem) <<= msb_offset;
 1004              		.loc 1 353 0
 1005 004c 09FA08F3 		lsl	r3, r9, r8
 1006 0050 2B60     		str	r3, [r5]
 1007 0052 02E0     		b	.L87
 1008              	.LVL181:
 1009              	.L86:
 354:encode.c      **** 	} else {
 355:encode.c      **** 		n_bits -= lsb_offset;
 1010              		.loc 1 355 0
 1011 0054 C0F12003 		rsb	r3, r0, #32
 1012 0058 D9B2     		uxtb	r1, r3
 1013              	.LVL182:
 1014              	.L87:
 356:encode.c      **** 	}
 357:encode.c      **** 
 358:encode.c      **** 	uint8_t n_rem = n_bits;
 359:encode.c      **** 	uint8_t curs = 0;
 360:encode.c      **** 
 361:encode.c      **** 	/* First bit indicates MSB or LSB shift. */
 362:encode.c      **** 	if (msb_offset < lsb_offset) {
 1015              		.loc 1 362 0
 1016 005a 8045     		cmp	r8, r0
 1017 005c 01D3     		bcc	.L91
 359:encode.c      **** 
 1018              		.loc 1 359 0
 1019 005e 0022     		movs	r2, #0
 1020 0060 00E0     		b	.L88
 1021              	.L91:
 363:encode.c      **** 		curs = 0b10000000;
 1022              		.loc 1 363 0
 1023 0062 8022     		movs	r2, #128
 1024              	.L88:
 1025              	.LVL183:
 364:encode.c      **** 	}
 365:encode.c      **** 
 366:encode.c      **** 	/* Next 5 bits indicate length (in bits) */
 367:encode.c      **** 	curs |= (n_bits - 1) << 2;
 1026              		.loc 1 367 0
 1027 0064 8E46     		mov	lr, r1
 1028 0066 4B1E     		subs	r3, r1, #1
 1029 0068 42EA8302 		orr	r2, r2, r3, lsl #2
 1030              	.LVL184:
 1031 006c 52B2     		sxtb	r2, r2
 1032              	.LVL185:
 368:encode.c      **** 	curs |= (uint8_t) ((*rem >> 30) & 0b11);
 1033              		.loc 1 368 0
 1034 006e D5F800C0 		ldr	ip, [r5]
 1035 0072 42EA9C72 		orr	r2, r2, ip, lsr #30
 1036              	.LVL186:
 1037 0076 D3B2     		uxtb	r3, r2
ARM GAS  C:\Users\codyg\AppData\Local\Temp\ccmSWLSY.s 			page 26


 1038              	.LVL187:
 369:encode.c      **** 	n_rem = (uint8_t) (n_rem < 2 ? 0 : n_rem - 2);
 1039              		.loc 1 369 0
 1040 0078 0129     		cmp	r1, #1
 1041 007a 02D9     		bls	.L92
 1042              		.loc 1 369 0 is_stmt 0 discriminator 1
 1043 007c 881E     		subs	r0, r1, #2
 1044              	.LVL188:
 1045 007e C0B2     		uxtb	r0, r0
 1046 0080 00E0     		b	.L89
 1047              	.LVL189:
 1048              	.L92:
 1049              		.loc 1 369 0
 1050 0082 0020     		movs	r0, #0
 1051              	.LVL190:
 1052              	.L89:
 370:encode.c      **** 	(*rem) <<= 2;
 1053              		.loc 1 370 0 is_stmt 1 discriminator 4
 1054 0084 4FEA8C02 		lsl	r2, ip, #2
 1055 0088 2A60     		str	r2, [r5]
 371:encode.c      **** 	enc[*i] |= curs >> *j;
 1056              		.loc 1 371 0 discriminator 4
 1057 008a 3D68     		ldr	r5, [r7]
 1058              	.LVL191:
 1059 008c 2268     		ldr	r2, [r4]
 1060 008e 43FA02F2 		asr	r2, r3, r2
 1061 0092 16F805C0 		ldrb	ip, [r6, r5]	@ zero_extendqisi2
 1062 0096 4CEA0202 		orr	r2, ip, r2
 1063 009a 7255     		strb	r2, [r6, r5]
 372:encode.c      **** 
 373:encode.c      **** 	/* Only move over to the next byte if we have remaining values in the cursor.
 374:encode.c      **** 	 */
 375:encode.c      **** 	if (6 + n_bits >= 8 - *j) {
 1064              		.loc 1 375 0 discriminator 4
 1065 009c 0EF1060E 		add	lr, lr, #6
 1066 00a0 2268     		ldr	r2, [r4]
 1067 00a2 C2F10802 		rsb	r2, r2, #8
 1068 00a6 9645     		cmp	lr, r2
 1069 00a8 09D3     		bcc	.L90
 376:encode.c      **** 		*i += 1;
 1070              		.loc 1 376 0
 1071 00aa 3A68     		ldr	r2, [r7]
 1072 00ac 0132     		adds	r2, r2, #1
 1073 00ae 3A60     		str	r2, [r7]
 377:encode.c      **** 		enc[*i] |= curs << (8 - *j);
 1074              		.loc 1 377 0
 1075 00b0 2568     		ldr	r5, [r4]
 1076 00b2 C5F10805 		rsb	r5, r5, #8
 1077 00b6 AB40     		lsls	r3, r3, r5
 1078              	.LVL192:
 1079 00b8 B55C     		ldrb	r5, [r6, r2]	@ zero_extendqisi2
 1080 00ba 2B43     		orrs	r3, r3, r5
 1081 00bc B354     		strb	r3, [r6, r2]
 1082              	.L90:
 378:encode.c      **** 	}
 379:encode.c      **** 
 380:encode.c      **** 	*j = (*j + 6 + n_bits - n_rem) % 8;
ARM GAS  C:\Users\codyg\AppData\Local\Temp\ccmSWLSY.s 			page 27


 1083              		.loc 1 380 0
 1084 00be 2368     		ldr	r3, [r4]
 1085 00c0 0B44     		add	r3, r3, r1
 1086 00c2 1B1A     		subs	r3, r3, r0
 1087 00c4 0633     		adds	r3, r3, #6
 1088 00c6 03F00703 		and	r3, r3, #7
 1089 00ca 2360     		str	r3, [r4]
 381:encode.c      **** 
 382:encode.c      **** 	return n_rem;
 383:encode.c      **** }
 1090              		.loc 1 383 0
 1091 00cc BDE8F883 		pop	{r3, r4, r5, r6, r7, r8, r9, pc}
 1092              	.LVL193:
 1093              	.L95:
 1094              		.align	2
 1095              	.L94:
 1096 00d0 00000000 		.word	.LC0
 1097 00d4 2C000000 		.word	.LANCHOR0+44
 1098 00d8 08000000 		.word	.LC1
 1099              		.cfi_endproc
 1100              	.LFE9:
 1101              		.size	encode_prefix_uint32, .-encode_prefix_uint32
 1102              		.section	.text.encode_uint8,"ax",%progbits
 1103              		.align	2
 1104              		.global	encode_uint8
 1105              		.thumb
 1106              		.thumb_func
 1107              		.type	encode_uint8, %function
 1108              	encode_uint8:
 1109              	.LFB10:
 384:encode.c      **** 
 385:encode.c      **** /**
 386:encode.c      ****  * @brief Encodes an 8-bit field.
 387:encode.c      ****  * @param data 8-bit field.
 388:encode.c      ****  * @param enc Encoded byte array.
 389:encode.c      ****  * @param i Pointer to byte index.
 390:encode.c      ****  * @param j Pointer to bit index.
 391:encode.c      ****  */
 392:encode.c      **** void encode_uint8(uint8_t data, uint8_t *enc, size_t *i, size_t *j) {
 1110              		.loc 1 392 0
 1111              		.cfi_startproc
 1112              		@ args = 0, pretend = 0, frame = 8
 1113              		@ frame_needed = 0, uses_anonymous_args = 0
 1114              	.LVL194:
 1115 0000 F0B5     		push	{r4, r5, r6, r7, lr}
 1116              		.cfi_def_cfa_offset 20
 1117              		.cfi_offset 4, -20
 1118              		.cfi_offset 5, -16
 1119              		.cfi_offset 6, -12
 1120              		.cfi_offset 7, -8
 1121              		.cfi_offset 14, -4
 1122 0002 83B0     		sub	sp, sp, #12
 1123              		.cfi_def_cfa_offset 32
 1124 0004 1C46     		mov	r4, r3
 393:encode.c      **** 	assert(*j < 8);
 1125              		.loc 1 393 0
 1126 0006 1B68     		ldr	r3, [r3]
ARM GAS  C:\Users\codyg\AppData\Local\Temp\ccmSWLSY.s 			page 28


 1127              	.LVL195:
 1128 0008 072B     		cmp	r3, #7
 1129 000a 06D9     		bls	.L97
 1130              		.loc 1 393 0 is_stmt 0 discriminator 1
 1131 000c 1E4B     		ldr	r3, .L103
 1132 000e 1F4A     		ldr	r2, .L103+4
 1133              	.LVL196:
 1134 0010 40F28911 		movw	r1, #393
 1135              	.LVL197:
 1136 0014 1E48     		ldr	r0, .L103+8
 1137              	.LVL198:
 1138 0016 FFF7FEFF 		bl	__assert_func
 1139              	.LVL199:
 1140              	.L97:
 1141 001a 0746     		mov	r7, r0
 1142 001c 0D46     		mov	r5, r1
 1143 001e 1646     		mov	r6, r2
 394:encode.c      **** 
 395:encode.c      **** 	uint8_t rem = data;
 1144              		.loc 1 395 0 is_stmt 1
 1145 0020 02A8     		add	r0, sp, #8
 1146              	.LVL200:
 1147 0022 00F8017D 		strb	r7, [r0, #-1]!
 396:encode.c      **** 	uint8_t n_rem = encode_prefix_uint8(&rem, enc, i, j);
 1148              		.loc 1 396 0
 1149 0026 2346     		mov	r3, r4
 1150 0028 FFF7FEFF 		bl	encode_prefix_uint8
 1151              	.LVL201:
 397:encode.c      **** 
 398:encode.c      **** 	while (n_rem > 0) {
 1152              		.loc 1 398 0
 1153 002c 28E0     		b	.L98
 1154              	.L101:
 1155              	.LBB3:
 399:encode.c      **** 		uint8_t curs = rem;
 1156              		.loc 1 399 0
 1157 002e 9DF80720 		ldrb	r2, [sp, #7]	@ zero_extendqisi2
 1158              	.LVL202:
 400:encode.c      **** 		enc[*i] |= curs >> *j;
 1159              		.loc 1 400 0
 1160 0032 3168     		ldr	r1, [r6]
 1161 0034 2368     		ldr	r3, [r4]
 1162 0036 42FA03F3 		asr	r3, r2, r3
 1163 003a 6F5C     		ldrb	r7, [r5, r1]	@ zero_extendqisi2
 1164 003c 3B43     		orrs	r3, r3, r7
 1165 003e 6B54     		strb	r3, [r5, r1]
 401:encode.c      **** 
 402:encode.c      **** 		if (n_rem + *j < 8) {
 1166              		.loc 1 402 0
 1167 0040 2368     		ldr	r3, [r4]
 1168 0042 0344     		add	r3, r3, r0
 1169 0044 072B     		cmp	r3, #7
 1170 0046 02D8     		bhi	.L99
 403:encode.c      **** 			*j += n_rem;
 1171              		.loc 1 403 0
 1172 0048 2360     		str	r3, [r4]
 1173              	.LVL203:
ARM GAS  C:\Users\codyg\AppData\Local\Temp\ccmSWLSY.s 			page 29


 404:encode.c      **** 			n_rem = 0;
 1174              		.loc 1 404 0
 1175 004a 0020     		movs	r0, #0
 1176 004c 18E0     		b	.L98
 1177              	.LVL204:
 1178              	.L99:
 405:encode.c      **** 		} else {
 406:encode.c      **** 			(*i)++;
 1179              		.loc 1 406 0
 1180 004e 3368     		ldr	r3, [r6]
 1181 0050 0133     		adds	r3, r3, #1
 1182 0052 3360     		str	r3, [r6]
 407:encode.c      **** 			enc[*i] |= curs << (8 - *j);
 1183              		.loc 1 407 0
 1184 0054 2168     		ldr	r1, [r4]
 1185 0056 C1F10801 		rsb	r1, r1, #8
 1186 005a 8A40     		lsls	r2, r2, r1
 1187              	.LVL205:
 1188 005c E95C     		ldrb	r1, [r5, r3]	@ zero_extendqisi2
 1189 005e 0A43     		orrs	r2, r2, r1
 1190 0060 EA54     		strb	r2, [r5, r3]
 408:encode.c      **** 			n_rem -= (8 - *j);
 1191              		.loc 1 408 0
 1192 0062 2368     		ldr	r3, [r4]
 1193 0064 1844     		add	r0, r0, r3
 1194              	.LVL206:
 1195 0066 C0B2     		uxtb	r0, r0
 1196 0068 0838     		subs	r0, r0, #8
 1197 006a C0B2     		uxtb	r0, r0
 1198              	.LVL207:
 409:encode.c      **** 			rem <<= (8 - *j);
 1199              		.loc 1 409 0
 1200 006c C3F10803 		rsb	r3, r3, #8
 1201 0070 9DF80720 		ldrb	r2, [sp, #7]	@ zero_extendqisi2
 1202 0074 02FA03F3 		lsl	r3, r2, r3
 1203 0078 8DF80730 		strb	r3, [sp, #7]
 410:encode.c      **** 			*j = 0;
 1204              		.loc 1 410 0
 1205 007c 0023     		movs	r3, #0
 1206 007e 2360     		str	r3, [r4]
 1207              	.LVL208:
 1208              	.L98:
 1209              	.LBE3:
 398:encode.c      **** 		uint8_t curs = rem;
 1210              		.loc 1 398 0
 1211 0080 0028     		cmp	r0, #0
 1212 0082 D4D1     		bne	.L101
 411:encode.c      **** 		}
 412:encode.c      **** 	}
 413:encode.c      **** }
 1213              		.loc 1 413 0
 1214 0084 03B0     		add	sp, sp, #12
 1215              		.cfi_def_cfa_offset 20
 1216              		@ sp needed
 1217 0086 F0BD     		pop	{r4, r5, r6, r7, pc}
 1218              	.LVL209:
 1219              	.L104:
ARM GAS  C:\Users\codyg\AppData\Local\Temp\ccmSWLSY.s 			page 30


 1220              		.align	2
 1221              	.L103:
 1222 0088 00000000 		.word	.LC0
 1223 008c 44000000 		.word	.LANCHOR0+68
 1224 0090 08000000 		.word	.LC1
 1225              		.cfi_endproc
 1226              	.LFE10:
 1227              		.size	encode_uint8, .-encode_uint8
 1228              		.section	.text.encode_uint16,"ax",%progbits
 1229              		.align	2
 1230              		.global	encode_uint16
 1231              		.thumb
 1232              		.thumb_func
 1233              		.type	encode_uint16, %function
 1234              	encode_uint16:
 1235              	.LFB11:
 414:encode.c      **** 
 415:encode.c      **** /**
 416:encode.c      ****  * @brief Encodes a 16-bit field.
 417:encode.c      ****  * @param data 16-bit field.
 418:encode.c      ****  * @param enc Encoded byte array.
 419:encode.c      ****  * @param i Pointer to byte index.
 420:encode.c      ****  * @param j Pointer to bit index.
 421:encode.c      ****  */
 422:encode.c      **** void encode_uint16(uint16_t data, uint8_t *enc, size_t *i, size_t *j) {
 1236              		.loc 1 422 0
 1237              		.cfi_startproc
 1238              		@ args = 0, pretend = 0, frame = 8
 1239              		@ frame_needed = 0, uses_anonymous_args = 0
 1240              	.LVL210:
 1241 0000 F0B5     		push	{r4, r5, r6, r7, lr}
 1242              		.cfi_def_cfa_offset 20
 1243              		.cfi_offset 4, -20
 1244              		.cfi_offset 5, -16
 1245              		.cfi_offset 6, -12
 1246              		.cfi_offset 7, -8
 1247              		.cfi_offset 14, -4
 1248 0002 83B0     		sub	sp, sp, #12
 1249              		.cfi_def_cfa_offset 32
 1250 0004 1C46     		mov	r4, r3
 423:encode.c      **** 	assert(*j < 8);
 1251              		.loc 1 423 0
 1252 0006 1B68     		ldr	r3, [r3]
 1253              	.LVL211:
 1254 0008 072B     		cmp	r3, #7
 1255 000a 06D9     		bls	.L106
 1256              		.loc 1 423 0 is_stmt 0 discriminator 1
 1257 000c 1F4B     		ldr	r3, .L112
 1258 000e 204A     		ldr	r2, .L112+4
 1259              	.LVL212:
 1260 0010 40F2A711 		movw	r1, #423
 1261              	.LVL213:
 1262 0014 1F48     		ldr	r0, .L112+8
 1263              	.LVL214:
 1264 0016 FFF7FEFF 		bl	__assert_func
 1265              	.LVL215:
 1266              	.L106:
ARM GAS  C:\Users\codyg\AppData\Local\Temp\ccmSWLSY.s 			page 31


 1267 001a 0746     		mov	r7, r0
 1268 001c 0D46     		mov	r5, r1
 1269 001e 1646     		mov	r6, r2
 424:encode.c      **** 
 425:encode.c      **** 	uint16_t rem = data;
 1270              		.loc 1 425 0 is_stmt 1
 1271 0020 02A8     		add	r0, sp, #8
 1272              	.LVL216:
 1273 0022 20F8027D 		strh	r7, [r0, #-2]!	@ movhi
 426:encode.c      **** 	uint8_t n_rem = encode_prefix_uint16(&rem, enc, i, j);
 1274              		.loc 1 426 0
 1275 0026 2346     		mov	r3, r4
 1276 0028 FFF7FEFF 		bl	encode_prefix_uint16
 1277              	.LVL217:
 427:encode.c      **** 
 428:encode.c      **** 	while (n_rem > 0) {
 1278              		.loc 1 428 0
 1279 002c 29E0     		b	.L107
 1280              	.L110:
 1281              	.LBB4:
 429:encode.c      **** 		uint8_t curs = (uint8_t) ((rem >> 8) & 0xFF);
 1282              		.loc 1 429 0
 1283 002e BDF80630 		ldrh	r3, [sp, #6]
 1284 0032 1B0A     		lsrs	r3, r3, #8
 1285              	.LVL218:
 430:encode.c      **** 		enc[*i] |= curs >> *j;
 1286              		.loc 1 430 0
 1287 0034 3168     		ldr	r1, [r6]
 1288 0036 2268     		ldr	r2, [r4]
 1289 0038 43FA02F2 		asr	r2, r3, r2
 1290 003c 6F5C     		ldrb	r7, [r5, r1]	@ zero_extendqisi2
 1291 003e 3A43     		orrs	r2, r2, r7
 1292 0040 6A54     		strb	r2, [r5, r1]
 431:encode.c      **** 
 432:encode.c      **** 		if (n_rem + *j < 8) {
 1293              		.loc 1 432 0
 1294 0042 2268     		ldr	r2, [r4]
 1295 0044 0244     		add	r2, r2, r0
 1296 0046 072A     		cmp	r2, #7
 1297 0048 02D8     		bhi	.L108
 433:encode.c      **** 			*j += n_rem;
 1298              		.loc 1 433 0
 1299 004a 2260     		str	r2, [r4]
 1300              	.LVL219:
 434:encode.c      **** 			n_rem = 0;
 1301              		.loc 1 434 0
 1302 004c 0020     		movs	r0, #0
 1303 004e 18E0     		b	.L107
 1304              	.LVL220:
 1305              	.L108:
 435:encode.c      **** 		} else {
 436:encode.c      **** 			(*i)++;
 1306              		.loc 1 436 0
 1307 0050 3268     		ldr	r2, [r6]
 1308 0052 0132     		adds	r2, r2, #1
 1309 0054 3260     		str	r2, [r6]
 437:encode.c      **** 			enc[*i] |= curs << (8 - *j);
ARM GAS  C:\Users\codyg\AppData\Local\Temp\ccmSWLSY.s 			page 32


 1310              		.loc 1 437 0
 1311 0056 2168     		ldr	r1, [r4]
 1312 0058 C1F10801 		rsb	r1, r1, #8
 1313 005c 8B40     		lsls	r3, r3, r1
 1314              	.LVL221:
 1315 005e A95C     		ldrb	r1, [r5, r2]	@ zero_extendqisi2
 1316 0060 0B43     		orrs	r3, r3, r1
 1317 0062 AB54     		strb	r3, [r5, r2]
 438:encode.c      **** 			n_rem -= (8 - *j);
 1318              		.loc 1 438 0
 1319 0064 2368     		ldr	r3, [r4]
 1320 0066 1844     		add	r0, r0, r3
 1321              	.LVL222:
 1322 0068 C0B2     		uxtb	r0, r0
 1323 006a 0838     		subs	r0, r0, #8
 1324 006c C0B2     		uxtb	r0, r0
 1325              	.LVL223:
 439:encode.c      **** 			rem <<= (8 - *j);
 1326              		.loc 1 439 0
 1327 006e C3F10803 		rsb	r3, r3, #8
 1328 0072 BDF80620 		ldrh	r2, [sp, #6]
 1329 0076 02FA03F3 		lsl	r3, r2, r3
 1330 007a ADF80630 		strh	r3, [sp, #6]	@ movhi
 440:encode.c      **** 			*j = 0;
 1331              		.loc 1 440 0
 1332 007e 0023     		movs	r3, #0
 1333 0080 2360     		str	r3, [r4]
 1334              	.LVL224:
 1335              	.L107:
 1336              	.LBE4:
 428:encode.c      **** 		uint8_t curs = (uint8_t) ((rem >> 8) & 0xFF);
 1337              		.loc 1 428 0
 1338 0082 0028     		cmp	r0, #0
 1339 0084 D3D1     		bne	.L110
 441:encode.c      **** 		}
 442:encode.c      **** 	}
 443:encode.c      **** }
 1340              		.loc 1 443 0
 1341 0086 03B0     		add	sp, sp, #12
 1342              		.cfi_def_cfa_offset 20
 1343              		@ sp needed
 1344 0088 F0BD     		pop	{r4, r5, r6, r7, pc}
 1345              	.LVL225:
 1346              	.L113:
 1347 008a 00BF     		.align	2
 1348              	.L112:
 1349 008c 00000000 		.word	.LC0
 1350 0090 54000000 		.word	.LANCHOR0+84
 1351 0094 08000000 		.word	.LC1
 1352              		.cfi_endproc
 1353              	.LFE11:
 1354              		.size	encode_uint16, .-encode_uint16
 1355              		.section	.text.encode_uint32,"ax",%progbits
 1356              		.align	2
 1357              		.global	encode_uint32
 1358              		.thumb
 1359              		.thumb_func
ARM GAS  C:\Users\codyg\AppData\Local\Temp\ccmSWLSY.s 			page 33


 1360              		.type	encode_uint32, %function
 1361              	encode_uint32:
 1362              	.LFB12:
 444:encode.c      **** 
 445:encode.c      **** /**
 446:encode.c      ****  * @brief Encodes a 32-bit field.
 447:encode.c      ****  * @param data 32-bit field.
 448:encode.c      ****  * @param enc Encoded byte array.
 449:encode.c      ****  * @param i Pointer to byte index.
 450:encode.c      ****  * @param j Pointer to bit index.
 451:encode.c      ****  */
 452:encode.c      **** void encode_uint32(uint32_t data, uint8_t *enc, size_t *i, size_t *j) {
 1363              		.loc 1 452 0
 1364              		.cfi_startproc
 1365              		@ args = 0, pretend = 0, frame = 8
 1366              		@ frame_needed = 0, uses_anonymous_args = 0
 1367              	.LVL226:
 1368 0000 F0B5     		push	{r4, r5, r6, r7, lr}
 1369              		.cfi_def_cfa_offset 20
 1370              		.cfi_offset 4, -20
 1371              		.cfi_offset 5, -16
 1372              		.cfi_offset 6, -12
 1373              		.cfi_offset 7, -8
 1374              		.cfi_offset 14, -4
 1375 0002 83B0     		sub	sp, sp, #12
 1376              		.cfi_def_cfa_offset 32
 1377 0004 1C46     		mov	r4, r3
 453:encode.c      **** 	assert(*j < 8);
 1378              		.loc 1 453 0
 1379 0006 1B68     		ldr	r3, [r3]
 1380              	.LVL227:
 1381 0008 072B     		cmp	r3, #7
 1382 000a 06D9     		bls	.L115
 1383              		.loc 1 453 0 is_stmt 0 discriminator 1
 1384 000c 1D4B     		ldr	r3, .L121
 1385 000e 1E4A     		ldr	r2, .L121+4
 1386              	.LVL228:
 1387 0010 40F2C511 		movw	r1, #453
 1388              	.LVL229:
 1389 0014 1D48     		ldr	r0, .L121+8
 1390              	.LVL230:
 1391 0016 FFF7FEFF 		bl	__assert_func
 1392              	.LVL231:
 1393              	.L115:
 1394 001a 0746     		mov	r7, r0
 1395 001c 0D46     		mov	r5, r1
 1396 001e 1646     		mov	r6, r2
 454:encode.c      **** 
 455:encode.c      **** 	uint32_t rem = data;
 1397              		.loc 1 455 0 is_stmt 1
 1398 0020 02A8     		add	r0, sp, #8
 1399              	.LVL232:
 1400 0022 40F8047D 		str	r7, [r0, #-4]!
 456:encode.c      **** 	uint8_t n_rem = encode_prefix_uint32(&rem, enc, i, j);
 1401              		.loc 1 456 0
 1402 0026 2346     		mov	r3, r4
 1403 0028 FFF7FEFF 		bl	encode_prefix_uint32
ARM GAS  C:\Users\codyg\AppData\Local\Temp\ccmSWLSY.s 			page 34


 1404              	.LVL233:
 457:encode.c      **** 
 458:encode.c      **** 	while (n_rem > 0) {
 1405              		.loc 1 458 0
 1406 002c 26E0     		b	.L116
 1407              	.LVL234:
 1408              	.L119:
 1409              	.LBB5:
 459:encode.c      **** 		uint8_t curs = (uint8_t) ((rem >> 24) & 0xFF);
 1410              		.loc 1 459 0
 1411 002e 9DF80720 		ldrb	r2, [sp, #7]	@ zero_extendqisi2
 1412              	.LVL235:
 460:encode.c      **** 		enc[*i] |= curs >> *j;
 1413              		.loc 1 460 0
 1414 0032 3168     		ldr	r1, [r6]
 1415 0034 2368     		ldr	r3, [r4]
 1416 0036 42FA03F3 		asr	r3, r2, r3
 1417 003a 6F5C     		ldrb	r7, [r5, r1]	@ zero_extendqisi2
 1418 003c 3B43     		orrs	r3, r3, r7
 1419 003e 6B54     		strb	r3, [r5, r1]
 461:encode.c      **** 
 462:encode.c      **** 		if (n_rem + *j < 8) {
 1420              		.loc 1 462 0
 1421 0040 2368     		ldr	r3, [r4]
 1422 0042 0344     		add	r3, r3, r0
 1423 0044 072B     		cmp	r3, #7
 1424 0046 02D8     		bhi	.L117
 463:encode.c      **** 			*j += n_rem;
 1425              		.loc 1 463 0
 1426 0048 2360     		str	r3, [r4]
 1427              	.LVL236:
 464:encode.c      **** 			n_rem = 0;
 1428              		.loc 1 464 0
 1429 004a 0020     		movs	r0, #0
 1430 004c 16E0     		b	.L116
 1431              	.LVL237:
 1432              	.L117:
 465:encode.c      **** 		} else {
 466:encode.c      **** 			(*i)++;
 1433              		.loc 1 466 0
 1434 004e 3368     		ldr	r3, [r6]
 1435 0050 0133     		adds	r3, r3, #1
 1436 0052 3360     		str	r3, [r6]
 467:encode.c      **** 			enc[*i] |= curs << (8 - *j);
 1437              		.loc 1 467 0
 1438 0054 2168     		ldr	r1, [r4]
 1439 0056 C1F10801 		rsb	r1, r1, #8
 1440 005a 8A40     		lsls	r2, r2, r1
 1441              	.LVL238:
 1442 005c E95C     		ldrb	r1, [r5, r3]	@ zero_extendqisi2
 1443 005e 0A43     		orrs	r2, r2, r1
 1444 0060 EA54     		strb	r2, [r5, r3]
 468:encode.c      **** 			n_rem -= (8 - *j);
 1445              		.loc 1 468 0
 1446 0062 2368     		ldr	r3, [r4]
 1447 0064 1844     		add	r0, r0, r3
 1448              	.LVL239:
ARM GAS  C:\Users\codyg\AppData\Local\Temp\ccmSWLSY.s 			page 35


 1449 0066 C0B2     		uxtb	r0, r0
 1450 0068 0838     		subs	r0, r0, #8
 1451 006a C0B2     		uxtb	r0, r0
 1452              	.LVL240:
 469:encode.c      **** 			rem <<= (8 - *j);
 1453              		.loc 1 469 0
 1454 006c C3F10803 		rsb	r3, r3, #8
 1455 0070 019A     		ldr	r2, [sp, #4]
 1456 0072 02FA03F3 		lsl	r3, r2, r3
 1457 0076 0193     		str	r3, [sp, #4]
 470:encode.c      **** 			*j = 0;
 1458              		.loc 1 470 0
 1459 0078 0023     		movs	r3, #0
 1460 007a 2360     		str	r3, [r4]
 1461              	.LVL241:
 1462              	.L116:
 1463              	.LBE5:
 458:encode.c      **** 		uint8_t curs = (uint8_t) ((rem >> 24) & 0xFF);
 1464              		.loc 1 458 0
 1465 007c 0028     		cmp	r0, #0
 1466 007e D6D1     		bne	.L119
 471:encode.c      **** 		}
 472:encode.c      **** 	}
 473:encode.c      **** }
 1467              		.loc 1 473 0
 1468 0080 03B0     		add	sp, sp, #12
 1469              		.cfi_def_cfa_offset 20
 1470              		@ sp needed
 1471 0082 F0BD     		pop	{r4, r5, r6, r7, pc}
 1472              	.LVL242:
 1473              	.L122:
 1474              		.align	2
 1475              	.L121:
 1476 0084 00000000 		.word	.LC0
 1477 0088 64000000 		.word	.LANCHOR0+100
 1478 008c 08000000 		.word	.LC1
 1479              		.cfi_endproc
 1480              	.LFE12:
 1481              		.size	encode_uint32, .-encode_uint32
 1482              		.section	.text.encode_data_frame,"ax",%progbits
 1483              		.align	2
 1484              		.global	encode_data_frame
 1485              		.thumb
 1486              		.thumb_func
 1487              		.type	encode_data_frame, %function
 1488              	encode_data_frame:
 1489              	.LFB13:
 474:encode.c      **** 
 475:encode.c      **** /**
 476:encode.c      ****  * @brief Encodes a RestEaZe data frame.
 477:encode.c      ****  * @param data Source data frame.
 478:encode.c      ****  * @param enc Encoded data frame.
 479:encode.c      ****  * @return Length of the encoded frame in bytes.
 480:encode.c      ****  * @warning enc must be at least FRAME_MTU in length.
 481:encode.c      ****  */
 482:encode.c      **** size_t encode_data_frame(const data_frame_t *data, uint8_t *enc) {
 1490              		.loc 1 482 0
ARM GAS  C:\Users\codyg\AppData\Local\Temp\ccmSWLSY.s 			page 36


 1491              		.cfi_startproc
 1492              		@ args = 0, pretend = 0, frame = 8
 1493              		@ frame_needed = 0, uses_anonymous_args = 0
 1494              	.LVL243:
 1495 0000 30B5     		push	{r4, r5, lr}
 1496              		.cfi_def_cfa_offset 12
 1497              		.cfi_offset 4, -12
 1498              		.cfi_offset 5, -8
 1499              		.cfi_offset 14, -4
 1500 0002 83B0     		sub	sp, sp, #12
 1501              		.cfi_def_cfa_offset 24
 1502 0004 0446     		mov	r4, r0
 1503 0006 0D46     		mov	r5, r1
 483:encode.c      **** 	size_t i = 0; /* Byte index */
 1504              		.loc 1 483 0
 1505 0008 0023     		movs	r3, #0
 484:encode.c      **** 	size_t j = 0; /* Bit index */
 1506              		.loc 1 484 0
 1507 000a 0093     		str	r3, [sp]
 485:encode.c      **** 
 486:encode.c      **** 	/* Frame header */
 487:encode.c      **** 	enc[i] = FRAME_TYPE_DATA;
 1508              		.loc 1 487 0
 1509 000c 0B70     		strb	r3, [r1]
 488:encode.c      **** 	enc[i] |= data->sensor_status & FRAME_CTRL_DATA_STAT_SENSOR;
 1510              		.loc 1 488 0
 1511 000e 0378     		ldrb	r3, [r0]	@ zero_extendqisi2
 1512 0010 03F00C03 		and	r3, r3, #12
 1513 0014 0B70     		strb	r3, [r1]
 489:encode.c      **** 	enc[i] |= data->battery_status & FRAME_CTRL_DATA_STAT_BATTERY;
 1514              		.loc 1 489 0
 1515 0016 4378     		ldrb	r3, [r0, #1]	@ zero_extendqisi2
 1516 0018 03F00303 		and	r3, r3, #3
 1517 001c 0A78     		ldrb	r2, [r1]	@ zero_extendqisi2
 1518 001e 1343     		orrs	r3, r3, r2
 1519 0020 0B70     		strb	r3, [r1]
 490:encode.c      **** 	i++;
 491:encode.c      **** 
 492:encode.c      **** 	/* Field header */
 493:encode.c      **** 	enc[i] = data->field_hdr;
 1520              		.loc 1 493 0
 1521 0022 8378     		ldrb	r3, [r0, #2]	@ zero_extendqisi2
 1522 0024 4B70     		strb	r3, [r1, #1]
 494:encode.c      **** 	i++;
 1523              		.loc 1 494 0
 1524 0026 0223     		movs	r3, #2
 1525 0028 0193     		str	r3, [sp, #4]
 495:encode.c      **** 
 496:encode.c      **** 	encode_uint32(data->seq, enc, &i, &j);
 1526              		.loc 1 496 0
 1527 002a 6B46     		mov	r3, sp
 1528 002c 01AA     		add	r2, sp, #4
 1529 002e 4068     		ldr	r0, [r0, #4]
 1530              	.LVL244:
 1531 0030 FFF7FEFF 		bl	encode_uint32
 1532              	.LVL245:
 497:encode.c      **** 
ARM GAS  C:\Users\codyg\AppData\Local\Temp\ccmSWLSY.s 			page 37


 498:encode.c      **** 	encode_uint8(data->session, enc, &i, &j);
 1533              		.loc 1 498 0
 1534 0034 6B46     		mov	r3, sp
 1535 0036 01AA     		add	r2, sp, #4
 1536 0038 2946     		mov	r1, r5
 1537 003a 207A     		ldrb	r0, [r4, #8]	@ zero_extendqisi2
 1538 003c FFF7FEFF 		bl	encode_uint8
 1539              	.LVL246:
 499:encode.c      **** 
 500:encode.c      **** 	if (data->field_hdr & FRAME_FIELD_TIME) {
 1540              		.loc 1 500 0
 1541 0040 94F90230 		ldrsb	r3, [r4, #2]
 1542 0044 002B     		cmp	r3, #0
 1543 0046 0BDA     		bge	.L124
 501:encode.c      **** 		encode_uint32(data->time_sec, enc, &i, &j);
 1544              		.loc 1 501 0
 1545 0048 6B46     		mov	r3, sp
 1546 004a 01AA     		add	r2, sp, #4
 1547 004c 2946     		mov	r1, r5
 1548 004e E068     		ldr	r0, [r4, #12]
 1549 0050 FFF7FEFF 		bl	encode_uint32
 1550              	.LVL247:
 502:encode.c      **** 		encode_uint32(data->time_msec, enc, &i, &j);
 1551              		.loc 1 502 0
 1552 0054 6B46     		mov	r3, sp
 1553 0056 01AA     		add	r2, sp, #4
 1554 0058 2946     		mov	r1, r5
 1555 005a 2069     		ldr	r0, [r4, #16]
 1556 005c FFF7FEFF 		bl	encode_uint32
 1557              	.LVL248:
 1558              	.L124:
 503:encode.c      **** 	}
 504:encode.c      **** 
 505:encode.c      **** 	if (data->field_hdr & FRAME_FIELD_TICK) {
 1559              		.loc 1 505 0
 1560 0060 A378     		ldrb	r3, [r4, #2]	@ zero_extendqisi2
 1561 0062 13F0400F 		tst	r3, #64
 1562 0066 05D0     		beq	.L125
 506:encode.c      **** 		encode_uint16(data->last_tick_usec, enc, &i, &j);
 1563              		.loc 1 506 0
 1564 0068 6B46     		mov	r3, sp
 1565 006a 01AA     		add	r2, sp, #4
 1566 006c 2946     		mov	r1, r5
 1567 006e A08A     		ldrh	r0, [r4, #20]
 1568 0070 FFF7FEFF 		bl	encode_uint16
 1569              	.LVL249:
 1570              	.L125:
 507:encode.c      **** 	}
 508:encode.c      **** 
 509:encode.c      **** 	if (data->field_hdr & FRAME_FIELD_FUEL) {
 1571              		.loc 1 509 0
 1572 0074 A378     		ldrb	r3, [r4, #2]	@ zero_extendqisi2
 1573 0076 13F0200F 		tst	r3, #32
 1574 007a 05D0     		beq	.L126
 510:encode.c      **** 		encode_uint16(data->fuel, enc, &i, &j);
 1575              		.loc 1 510 0
 1576 007c 6B46     		mov	r3, sp
ARM GAS  C:\Users\codyg\AppData\Local\Temp\ccmSWLSY.s 			page 38


 1577 007e 01AA     		add	r2, sp, #4
 1578 0080 2946     		mov	r1, r5
 1579 0082 E08A     		ldrh	r0, [r4, #22]
 1580 0084 FFF7FEFF 		bl	encode_uint16
 1581              	.LVL250:
 1582              	.L126:
 511:encode.c      **** 	}
 512:encode.c      **** 
 513:encode.c      **** 	if (data->field_hdr & FRAME_FIELD_CAP) {
 1583              		.loc 1 513 0
 1584 0088 A378     		ldrb	r3, [r4, #2]	@ zero_extendqisi2
 1585 008a 13F0100F 		tst	r3, #16
 1586 008e 11D0     		beq	.L127
 514:encode.c      **** 		encode_uint16(data->cap[0], enc, &i, &j);
 1587              		.loc 1 514 0
 1588 0090 6B46     		mov	r3, sp
 1589 0092 01AA     		add	r2, sp, #4
 1590 0094 2946     		mov	r1, r5
 1591 0096 208B     		ldrh	r0, [r4, #24]
 1592 0098 FFF7FEFF 		bl	encode_uint16
 1593              	.LVL251:
 515:encode.c      **** 		encode_uint16(data->cap[1], enc, &i, &j);
 1594              		.loc 1 515 0
 1595 009c 6B46     		mov	r3, sp
 1596 009e 01AA     		add	r2, sp, #4
 1597 00a0 2946     		mov	r1, r5
 1598 00a2 608B     		ldrh	r0, [r4, #26]
 1599 00a4 FFF7FEFF 		bl	encode_uint16
 1600              	.LVL252:
 516:encode.c      **** 		encode_uint16(data->cap[2], enc, &i, &j);
 1601              		.loc 1 516 0
 1602 00a8 6B46     		mov	r3, sp
 1603 00aa 01AA     		add	r2, sp, #4
 1604 00ac 2946     		mov	r1, r5
 1605 00ae A08B     		ldrh	r0, [r4, #28]
 1606 00b0 FFF7FEFF 		bl	encode_uint16
 1607              	.LVL253:
 1608              	.L127:
 517:encode.c      **** 	}
 518:encode.c      **** 
 519:encode.c      **** 	if (data->field_hdr & FRAME_FIELD_ACCEL) {
 1609              		.loc 1 519 0
 1610 00b4 A378     		ldrb	r3, [r4, #2]	@ zero_extendqisi2
 1611 00b6 13F0080F 		tst	r3, #8
 1612 00ba 11D0     		beq	.L128
 520:encode.c      **** 		encode_uint16((uint16_t) data->accel[0], enc, &i, &j);
 1613              		.loc 1 520 0
 1614 00bc 6B46     		mov	r3, sp
 1615 00be 01AA     		add	r2, sp, #4
 1616 00c0 2946     		mov	r1, r5
 1617 00c2 E08B     		ldrh	r0, [r4, #30]
 1618 00c4 FFF7FEFF 		bl	encode_uint16
 1619              	.LVL254:
 521:encode.c      **** 		encode_uint16((uint16_t) data->accel[1], enc, &i, &j);
 1620              		.loc 1 521 0
 1621 00c8 6B46     		mov	r3, sp
 1622 00ca 01AA     		add	r2, sp, #4
ARM GAS  C:\Users\codyg\AppData\Local\Temp\ccmSWLSY.s 			page 39


 1623 00cc 2946     		mov	r1, r5
 1624 00ce 208C     		ldrh	r0, [r4, #32]
 1625 00d0 FFF7FEFF 		bl	encode_uint16
 1626              	.LVL255:
 522:encode.c      **** 		encode_uint16((uint16_t) data->accel[2], enc, &i, &j);
 1627              		.loc 1 522 0
 1628 00d4 6B46     		mov	r3, sp
 1629 00d6 01AA     		add	r2, sp, #4
 1630 00d8 2946     		mov	r1, r5
 1631 00da 608C     		ldrh	r0, [r4, #34]
 1632 00dc FFF7FEFF 		bl	encode_uint16
 1633              	.LVL256:
 1634              	.L128:
 523:encode.c      **** 	}
 524:encode.c      **** 
 525:encode.c      **** 	if (data->field_hdr & FRAME_FIELD_GYRO) {
 1635              		.loc 1 525 0
 1636 00e0 A378     		ldrb	r3, [r4, #2]	@ zero_extendqisi2
 1637 00e2 13F0040F 		tst	r3, #4
 1638 00e6 11D0     		beq	.L129
 526:encode.c      **** 		encode_uint16((uint16_t) data->gyro[0], enc, &i, &j);
 1639              		.loc 1 526 0
 1640 00e8 6B46     		mov	r3, sp
 1641 00ea 01AA     		add	r2, sp, #4
 1642 00ec 2946     		mov	r1, r5
 1643 00ee A08C     		ldrh	r0, [r4, #36]
 1644 00f0 FFF7FEFF 		bl	encode_uint16
 1645              	.LVL257:
 527:encode.c      **** 		encode_uint16((uint16_t) data->gyro[1], enc, &i, &j);
 1646              		.loc 1 527 0
 1647 00f4 6B46     		mov	r3, sp
 1648 00f6 01AA     		add	r2, sp, #4
 1649 00f8 2946     		mov	r1, r5
 1650 00fa E08C     		ldrh	r0, [r4, #38]
 1651 00fc FFF7FEFF 		bl	encode_uint16
 1652              	.LVL258:
 528:encode.c      **** 		encode_uint16((uint16_t) data->gyro[2], enc, &i, &j);
 1653              		.loc 1 528 0
 1654 0100 6B46     		mov	r3, sp
 1655 0102 01AA     		add	r2, sp, #4
 1656 0104 2946     		mov	r1, r5
 1657 0106 208D     		ldrh	r0, [r4, #40]
 1658 0108 FFF7FEFF 		bl	encode_uint16
 1659              	.LVL259:
 1660              	.L129:
 529:encode.c      **** 	}
 530:encode.c      **** 
 531:encode.c      **** 	if (data->field_hdr & FRAME_FIELD_SENTINEL) {
 1661              		.loc 1 531 0
 1662 010c A378     		ldrb	r3, [r4, #2]	@ zero_extendqisi2
 1663 010e 13F0020F 		tst	r3, #2
 1664 0112 31D0     		beq	.L130
 532:encode.c      **** 		/* Sentinel Fields
 533:encode.c      **** 		1.  uint32_t for the IR Led data
 534:encode.c      **** 		2.  uint32_t for the Red Led data
 535:encode.c      **** 		3.  uint32_t for the Green Led data
 536:encode.c      **** 		4.  uint16_t for the heart rate data
ARM GAS  C:\Users\codyg\AppData\Local\Temp\ccmSWLSY.s 			page 40


 537:encode.c      **** 		5.  uint16_t for the blood oxygen level
 538:encode.c      **** 		5.  uint8_t for the confidence level
 539:encode.c      **** 		6.  uint8_t for the finger detected status
 540:encode.c      **** 		 */
 541:encode.c      **** 		encode_uint32(data->led_ir, enc, &i, &j);
 1665              		.loc 1 541 0
 1666 0114 6B46     		mov	r3, sp
 1667 0116 01AA     		add	r2, sp, #4
 1668 0118 2946     		mov	r1, r5
 1669 011a E06A     		ldr	r0, [r4, #44]
 1670 011c FFF7FEFF 		bl	encode_uint32
 1671              	.LVL260:
 542:encode.c      **** 		encode_uint32(data->led_red, enc, &i, &j);
 1672              		.loc 1 542 0
 1673 0120 6B46     		mov	r3, sp
 1674 0122 01AA     		add	r2, sp, #4
 1675 0124 2946     		mov	r1, r5
 1676 0126 206B     		ldr	r0, [r4, #48]
 1677 0128 FFF7FEFF 		bl	encode_uint32
 1678              	.LVL261:
 543:encode.c      **** 		encode_uint32(data->led_green, enc, &i, &j);
 1679              		.loc 1 543 0
 1680 012c 6B46     		mov	r3, sp
 1681 012e 01AA     		add	r2, sp, #4
 1682 0130 2946     		mov	r1, r5
 1683 0132 606B     		ldr	r0, [r4, #52]
 1684 0134 FFF7FEFF 		bl	encode_uint32
 1685              	.LVL262:
 544:encode.c      **** 		encode_uint16(data->heart_rate, enc, &i, &j);
 1686              		.loc 1 544 0
 1687 0138 6B46     		mov	r3, sp
 1688 013a 01AA     		add	r2, sp, #4
 1689 013c 2946     		mov	r1, r5
 1690 013e 208F     		ldrh	r0, [r4, #56]
 1691 0140 FFF7FEFF 		bl	encode_uint16
 1692              	.LVL263:
 545:encode.c      **** 		encode_uint16(data->blood_oxygen_level, enc, &i, &j);
 1693              		.loc 1 545 0
 1694 0144 6B46     		mov	r3, sp
 1695 0146 01AA     		add	r2, sp, #4
 1696 0148 2946     		mov	r1, r5
 1697 014a 608F     		ldrh	r0, [r4, #58]
 1698 014c FFF7FEFF 		bl	encode_uint16
 1699              	.LVL264:
 546:encode.c      **** 		encode_uint8(data->confidence_level, enc, &i, &j);
 1700              		.loc 1 546 0
 1701 0150 6B46     		mov	r3, sp
 1702 0152 01AA     		add	r2, sp, #4
 1703 0154 2946     		mov	r1, r5
 1704 0156 94F83C00 		ldrb	r0, [r4, #60]	@ zero_extendqisi2
 1705 015a FFF7FEFF 		bl	encode_uint8
 1706              	.LVL265:
 547:encode.c      **** 		encode_uint8(data->finger_detected_status, enc, &i, &j);
 1707              		.loc 1 547 0
 1708 015e 6B46     		mov	r3, sp
 1709 0160 01AA     		add	r2, sp, #4
 1710 0162 2946     		mov	r1, r5
ARM GAS  C:\Users\codyg\AppData\Local\Temp\ccmSWLSY.s 			page 41


 1711 0164 94F83D00 		ldrb	r0, [r4, #61]	@ zero_extendqisi2
 1712 0168 FFF7FEFF 		bl	encode_uint8
 1713              	.LVL266:
 548:encode.c      **** 		encode_uint32(data->temperature, enc, &i, &j);
 1714              		.loc 1 548 0
 1715 016c 6B46     		mov	r3, sp
 1716 016e 01AA     		add	r2, sp, #4
 1717 0170 2946     		mov	r1, r5
 1718 0172 206C     		ldr	r0, [r4, #64]
 1719 0174 FFF7FEFF 		bl	encode_uint32
 1720              	.LVL267:
 1721              	.L130:
 549:encode.c      **** 
 550:encode.c      **** 	}
 551:encode.c      **** 
 552:encode.c      **** 	if (data->field_hdr & FRAME_FIELD_SYNC) {
 1722              		.loc 1 552 0
 1723 0178 A378     		ldrb	r3, [r4, #2]	@ zero_extendqisi2
 1724 017a 13F0010F 		tst	r3, #1
 1725 017e 06D0     		beq	.L131
 553:encode.c      **** 		encode_uint8(data->sync, enc, &i, &j);
 1726              		.loc 1 553 0
 1727 0180 6B46     		mov	r3, sp
 1728 0182 01AA     		add	r2, sp, #4
 1729 0184 2946     		mov	r1, r5
 1730 0186 94F84400 		ldrb	r0, [r4, #68]	@ zero_extendqisi2
 1731 018a FFF7FEFF 		bl	encode_uint8
 1732              	.LVL268:
 1733              	.L131:
 554:encode.c      **** 	}
 555:encode.c      **** 
 556:encode.c      **** 	if (bytes_parity(enc, i + 1)) {
 1734              		.loc 1 556 0
 1735 018e 0199     		ldr	r1, [sp, #4]
 1736 0190 0131     		adds	r1, r1, #1
 1737 0192 2846     		mov	r0, r5
 1738 0194 FFF7FEFF 		bl	bytes_parity
 1739              	.LVL269:
 1740 0198 18B1     		cbz	r0, .L132
 557:encode.c      **** 		enc[0] |= FRAME_CTRL_PARITY;
 1741              		.loc 1 557 0
 1742 019a 2B78     		ldrb	r3, [r5]	@ zero_extendqisi2
 1743 019c 63F07F03 		orn	r3, r3, #127
 1744 01a0 2B70     		strb	r3, [r5]
 1745              	.L132:
 558:encode.c      **** 	}
 559:encode.c      **** 
 560:encode.c      **** 	return i + 1;
 561:encode.c      **** }
 1746              		.loc 1 561 0
 1747 01a2 0198     		ldr	r0, [sp, #4]
 1748 01a4 0130     		adds	r0, r0, #1
 1749 01a6 03B0     		add	sp, sp, #12
 1750              		.cfi_def_cfa_offset 12
 1751              		@ sp needed
 1752 01a8 30BD     		pop	{r4, r5, pc}
 1753              		.cfi_endproc
ARM GAS  C:\Users\codyg\AppData\Local\Temp\ccmSWLSY.s 			page 42


 1754              	.LFE13:
 1755              		.size	encode_data_frame, .-encode_data_frame
 1756 01aa 00BF     		.section	.text.encode_delta_frame,"ax",%progbits
 1757              		.align	2
 1758              		.global	encode_delta_frame
 1759              		.thumb
 1760              		.thumb_func
 1761              		.type	encode_delta_frame, %function
 1762              	encode_delta_frame:
 1763              	.LFB14:
 562:encode.c      **** 
 563:encode.c      **** /**
 564:encode.c      ****  * @brief Decodes a delta-encoded RestEaZe data frame.
 565:encode.c      ****  * @param data_0 Data frame from the prior time step.
 566:encode.c      ****  * @param data_1 Data frame from the current time step.
 567:encode.c      ****  * @param dec Delta-encoded data frame.
 568:encode.c      ****  * @return Length of the delta-encoded frame in bytes.
 569:encode.c      ****  * @warning enc must be at least FRAME_MTU in length.
 570:encode.c      ****  */
 571:encode.c      **** size_t encode_delta_frame(const data_frame_t *data_checkpoint,
 572:encode.c      **** 		const data_frame_t *data, uint8_t *enc) {
 1764              		.loc 1 572 0
 1765              		.cfi_startproc
 1766              		@ args = 0, pretend = 0, frame = 72
 1767              		@ frame_needed = 0, uses_anonymous_args = 0
 1768              	.LVL270:
 1769 0000 70B5     		push	{r4, r5, r6, lr}
 1770              		.cfi_def_cfa_offset 16
 1771              		.cfi_offset 4, -16
 1772              		.cfi_offset 5, -12
 1773              		.cfi_offset 6, -8
 1774              		.cfi_offset 14, -4
 1775 0002 92B0     		sub	sp, sp, #72
 1776              		.cfi_def_cfa_offset 88
 1777 0004 1446     		mov	r4, r2
 573:encode.c      **** 	/* The sequence number of data_0 must be immediately prior (without overflow).
 574:encode.c      **** 	 */
 575:encode.c      **** 	assert(data_checkpoint->seq == data->seq - 1 || data_checkpoint->seq == UINT32_MAX && data->seq ==
 1778              		.loc 1 575 0
 1779 0006 4368     		ldr	r3, [r0, #4]
 1780 0008 4E68     		ldr	r6, [r1, #4]
 1781 000a 721E     		subs	r2, r6, #1
 1782              	.LVL271:
 1783 000c 9342     		cmp	r3, r2
 1784 000e 20D0     		beq	.L141
 1785              		.loc 1 575 0 is_stmt 0 discriminator 1
 1786 0010 B3F1FF3F 		cmp	r3, #-1
 1787 0014 00D1     		bne	.L136
 1788              		.loc 1 575 0 discriminator 3
 1789 0016 F6B1     		cbz	r6, .L142
 1790              	.L136:
 1791              		.loc 1 575 0 discriminator 4
 1792 0018 5D4B     		ldr	r3, .L144
 1793 001a 5E4A     		ldr	r2, .L144+4
 1794 001c 40F23F21 		movw	r1, #575
 1795              	.LVL272:
 1796 0020 5D48     		ldr	r0, .L144+8
ARM GAS  C:\Users\codyg\AppData\Local\Temp\ccmSWLSY.s 			page 43


 1797              	.LVL273:
 1798 0022 FFF7FEFF 		bl	__assert_func
 1799              	.LVL274:
 1800              	.L138:
 576:encode.c      **** 
 577:encode.c      **** #ifndef NDEBUG
 578:encode.c      **** 	/* The fields present in the new frame must be a subset of the fields in the
 579:encode.c      **** 	 * prior. */
 580:encode.c      **** 	size_t i;
 581:encode.c      **** 
 582:encode.c      **** 	for (i = 0; i < 8; i++) {
 583:encode.c      **** 		if (((data->field_hdr >> (7 - i)) & 0x01) &&
 1801              		.loc 1 583 0 is_stmt 1
 1802 0026 8A78     		ldrb	r2, [r1, #2]	@ zero_extendqisi2
 1803 0028 C3F10705 		rsb	r5, r3, #7
 1804 002c 2A41     		asrs	r2, r2, r5
 1805 002e 12F0010F 		tst	r2, #1
 1806 0032 0CD0     		beq	.L137
 584:encode.c      **** 				!((data_checkpoint->field_hdr >> (7 - i)) & 0x01)) {
 1807              		.loc 1 584 0 discriminator 1
 1808 0034 8278     		ldrb	r2, [r0, #2]	@ zero_extendqisi2
 1809 0036 42FA05F5 		asr	r5, r2, r5
 583:encode.c      **** 				!((data_checkpoint->field_hdr >> (7 - i)) & 0x01)) {
 1810              		.loc 1 583 0 discriminator 1
 1811 003a 15F0010F 		tst	r5, #1
 1812 003e 06D1     		bne	.L137
 585:encode.c      **** 			assert(false);
 1813              		.loc 1 585 0
 1814 0040 564B     		ldr	r3, .L144+12
 1815              	.LVL275:
 1816 0042 544A     		ldr	r2, .L144+4
 1817 0044 40F24921 		movw	r1, #585
 1818              	.LVL276:
 1819 0048 5348     		ldr	r0, .L144+8
 1820              	.LVL277:
 1821 004a FFF7FEFF 		bl	__assert_func
 1822              	.LVL278:
 1823              	.L137:
 582:encode.c      **** 		if (((data->field_hdr >> (7 - i)) & 0x01) &&
 1824              		.loc 1 582 0 discriminator 2
 1825 004e 0133     		adds	r3, r3, #1
 1826              	.LVL279:
 1827 0050 02E0     		b	.L135
 1828              	.LVL280:
 1829              	.L141:
 1830 0052 0023     		movs	r3, #0
 1831 0054 00E0     		b	.L135
 1832              	.L142:
 1833 0056 0023     		movs	r3, #0
 1834              	.L135:
 1835              	.LVL281:
 582:encode.c      **** 		if (((data->field_hdr >> (7 - i)) & 0x01) &&
 1836              		.loc 1 582 0 is_stmt 0 discriminator 1
 1837 0058 072B     		cmp	r3, #7
 1838 005a E4D9     		bls	.L138
 586:encode.c      **** 		}
 587:encode.c      **** 	}
ARM GAS  C:\Users\codyg\AppData\Local\Temp\ccmSWLSY.s 			page 44


 588:encode.c      **** #endif
 589:encode.c      **** 
 590:encode.c      **** 	/*
 591:encode.c      **** 	 * Hack to handle negative delta encoding of time_msec
 592:encode.c      **** 	 */
 593:encode.c      **** 
 594:encode.c      **** 	uint32_t delta_sec = data->time_sec - data_checkpoint->time_sec;
 1839              		.loc 1 594 0 is_stmt 1
 1840 005c CB68     		ldr	r3, [r1, #12]
 1841              	.LVL282:
 1842 005e C268     		ldr	r2, [r0, #12]
 1843 0060 9A1A     		subs	r2, r3, r2
 1844              	.LVL283:
 595:encode.c      **** 	int32_t delta_msec = data->time_msec - data_checkpoint->time_msec;
 1845              		.loc 1 595 0
 1846 0062 0B69     		ldr	r3, [r1, #16]
 1847 0064 0569     		ldr	r5, [r0, #16]
 1848 0066 5B1B     		subs	r3, r3, r5
 1849              	.LVL284:
 596:encode.c      **** 	while(delta_msec < 0){
 1850              		.loc 1 596 0
 1851 0068 02E0     		b	.L139
 1852              	.L140:
 597:encode.c      **** 		delta_msec += 1000;
 1853              		.loc 1 597 0
 1854 006a 03F57A73 		add	r3, r3, #1000
 1855              	.LVL285:
 598:encode.c      **** 		delta_sec -= 1;
 1856              		.loc 1 598 0
 1857 006e 013A     		subs	r2, r2, #1
 1858              	.LVL286:
 1859              	.L139:
 596:encode.c      **** 	while(delta_msec < 0){
 1860              		.loc 1 596 0
 1861 0070 002B     		cmp	r3, #0
 1862 0072 FADB     		blt	.L140
 599:encode.c      **** 	}
 600:encode.c      **** 
 601:encode.c      **** 	data_frame_t delta = {
 602:encode.c      **** 			.sensor_status = data->sensor_status,
 1863              		.loc 1 602 0
 1864 0074 0D78     		ldrb	r5, [r1]	@ zero_extendqisi2
 601:encode.c      **** 			.sensor_status = data->sensor_status,
 1865              		.loc 1 601 0
 1866 0076 8DF80050 		strb	r5, [sp]
 603:encode.c      **** 			.battery_status = data->battery_status,
 1867              		.loc 1 603 0
 1868 007a 4D78     		ldrb	r5, [r1, #1]	@ zero_extendqisi2
 601:encode.c      **** 			.sensor_status = data->sensor_status,
 1869              		.loc 1 601 0
 1870 007c 8DF80150 		strb	r5, [sp, #1]
 604:encode.c      **** 			.field_hdr = data->field_hdr,
 1871              		.loc 1 604 0
 1872 0080 8D78     		ldrb	r5, [r1, #2]	@ zero_extendqisi2
 601:encode.c      **** 			.sensor_status = data->sensor_status,
 1873              		.loc 1 601 0
 1874 0082 8DF80250 		strb	r5, [sp, #2]
ARM GAS  C:\Users\codyg\AppData\Local\Temp\ccmSWLSY.s 			page 45


 1875 0086 0196     		str	r6, [sp, #4]
 605:encode.c      **** 			.seq = data->seq,
 606:encode.c      **** 			.session = data->session,
 1876              		.loc 1 606 0
 1877 0088 0D7A     		ldrb	r5, [r1, #8]	@ zero_extendqisi2
 601:encode.c      **** 			.sensor_status = data->sensor_status,
 1878              		.loc 1 601 0
 1879 008a 8DF80850 		strb	r5, [sp, #8]
 1880 008e 0392     		str	r2, [sp, #12]
 1881 0090 0493     		str	r3, [sp, #16]
 607:encode.c      **** //			.time_sec = data->time_sec - data_checkpoint->time_sec,
 608:encode.c      **** //			.time_msec = data->time_msec - data_checkpoint->time_msec,
 609:encode.c      **** 			.time_sec = delta_sec,
 610:encode.c      **** 			.time_msec = (uint32_t)delta_msec,
 611:encode.c      **** 			.last_tick_usec = data->last_tick_usec - data_checkpoint->last_tick_usec,
 1882              		.loc 1 611 0
 1883 0092 8B8A     		ldrh	r3, [r1, #20]
 1884              	.LVL287:
 1885 0094 828A     		ldrh	r2, [r0, #20]
 1886              	.LVL288:
 601:encode.c      **** 			.sensor_status = data->sensor_status,
 1887              		.loc 1 601 0
 1888 0096 9B1A     		subs	r3, r3, r2
 1889 0098 ADF81430 		strh	r3, [sp, #20]	@ movhi
 612:encode.c      **** 			.fuel = data->fuel - data_checkpoint->fuel,
 1890              		.loc 1 612 0
 1891 009c CB8A     		ldrh	r3, [r1, #22]
 1892 009e C28A     		ldrh	r2, [r0, #22]
 601:encode.c      **** 			.sensor_status = data->sensor_status,
 1893              		.loc 1 601 0
 1894 00a0 9B1A     		subs	r3, r3, r2
 1895 00a2 ADF81630 		strh	r3, [sp, #22]	@ movhi
 613:encode.c      **** 			.cap = {
 614:encode.c      **** 					data->cap[0] - data_checkpoint->cap[0],
 1896              		.loc 1 614 0
 1897 00a6 0B8B     		ldrh	r3, [r1, #24]
 1898 00a8 028B     		ldrh	r2, [r0, #24]
 601:encode.c      **** 			.sensor_status = data->sensor_status,
 1899              		.loc 1 601 0
 1900 00aa 9B1A     		subs	r3, r3, r2
 1901 00ac ADF81830 		strh	r3, [sp, #24]	@ movhi
 615:encode.c      **** 					data->cap[1] - data_checkpoint->cap[1],
 1902              		.loc 1 615 0
 1903 00b0 4B8B     		ldrh	r3, [r1, #26]
 1904 00b2 428B     		ldrh	r2, [r0, #26]
 601:encode.c      **** 			.sensor_status = data->sensor_status,
 1905              		.loc 1 601 0
 1906 00b4 9B1A     		subs	r3, r3, r2
 1907 00b6 ADF81A30 		strh	r3, [sp, #26]	@ movhi
 616:encode.c      **** 					data->cap[2] - data_checkpoint->cap[2] },
 1908              		.loc 1 616 0
 1909 00ba 8B8B     		ldrh	r3, [r1, #28]
 1910 00bc 828B     		ldrh	r2, [r0, #28]
 601:encode.c      **** 			.sensor_status = data->sensor_status,
 1911              		.loc 1 601 0
 1912 00be 9B1A     		subs	r3, r3, r2
 1913 00c0 ADF81C30 		strh	r3, [sp, #28]	@ movhi
ARM GAS  C:\Users\codyg\AppData\Local\Temp\ccmSWLSY.s 			page 46


 617:encode.c      **** 			.accel = {
 618:encode.c      **** 					data->accel[0] - data_checkpoint->accel[0],
 1914              		.loc 1 618 0
 1915 00c4 B1F91E30 		ldrsh	r3, [r1, #30]
 1916 00c8 B0F91E20 		ldrsh	r2, [r0, #30]
 601:encode.c      **** 			.sensor_status = data->sensor_status,
 1917              		.loc 1 601 0
 1918 00cc 9B1A     		subs	r3, r3, r2
 1919 00ce ADF81E30 		strh	r3, [sp, #30]	@ movhi
 619:encode.c      **** 					data->accel[1] - data_checkpoint->accel[1],
 1920              		.loc 1 619 0
 1921 00d2 B1F92030 		ldrsh	r3, [r1, #32]
 1922 00d6 B0F92020 		ldrsh	r2, [r0, #32]
 601:encode.c      **** 			.sensor_status = data->sensor_status,
 1923              		.loc 1 601 0
 1924 00da 9B1A     		subs	r3, r3, r2
 1925 00dc ADF82030 		strh	r3, [sp, #32]	@ movhi
 620:encode.c      **** 					data->accel[2] - data_checkpoint->accel[2] },
 1926              		.loc 1 620 0
 1927 00e0 B1F92230 		ldrsh	r3, [r1, #34]
 1928 00e4 B0F92220 		ldrsh	r2, [r0, #34]
 601:encode.c      **** 			.sensor_status = data->sensor_status,
 1929              		.loc 1 601 0
 1930 00e8 9B1A     		subs	r3, r3, r2
 1931 00ea ADF82230 		strh	r3, [sp, #34]	@ movhi
 621:encode.c      **** 			.gyro = {
 622:encode.c      **** 					data->gyro[0] - data_checkpoint->gyro[0],
 1932              		.loc 1 622 0
 1933 00ee B1F92430 		ldrsh	r3, [r1, #36]
 1934 00f2 B0F92420 		ldrsh	r2, [r0, #36]
 601:encode.c      **** 			.sensor_status = data->sensor_status,
 1935              		.loc 1 601 0
 1936 00f6 9B1A     		subs	r3, r3, r2
 1937 00f8 ADF82430 		strh	r3, [sp, #36]	@ movhi
 623:encode.c      **** 					data->gyro[1] - data_checkpoint->gyro[1],
 1938              		.loc 1 623 0
 1939 00fc B1F92630 		ldrsh	r3, [r1, #38]
 1940 0100 B0F92620 		ldrsh	r2, [r0, #38]
 601:encode.c      **** 			.sensor_status = data->sensor_status,
 1941              		.loc 1 601 0
 1942 0104 9B1A     		subs	r3, r3, r2
 1943 0106 ADF82630 		strh	r3, [sp, #38]	@ movhi
 624:encode.c      **** 					data->gyro[2] - data_checkpoint->gyro[2] },
 1944              		.loc 1 624 0
 1945 010a B1F92830 		ldrsh	r3, [r1, #40]
 1946 010e B0F92820 		ldrsh	r2, [r0, #40]
 601:encode.c      **** 			.sensor_status = data->sensor_status,
 1947              		.loc 1 601 0
 1948 0112 9B1A     		subs	r3, r3, r2
 1949 0114 ADF82830 		strh	r3, [sp, #40]	@ movhi
 625:encode.c      **** //			.mag = {
 626:encode.c      **** //					data->mag[0] - data_checkpoint->mag[0],
 627:encode.c      **** //					data->mag[1] - data_checkpoint->mag[1],
 628:encode.c      **** //					data->mag[2] - data_checkpoint->mag[2] },
 629:encode.c      **** 
 630:encode.c      **** 			/* Sentinel Fields */
 631:encode.c      **** 			.led_ir = data->led_ir - data_checkpoint->led_ir,
ARM GAS  C:\Users\codyg\AppData\Local\Temp\ccmSWLSY.s 			page 47


 1950              		.loc 1 631 0
 1951 0118 CB6A     		ldr	r3, [r1, #44]
 1952 011a C26A     		ldr	r2, [r0, #44]
 1953 011c 9B1A     		subs	r3, r3, r2
 601:encode.c      **** 			.sensor_status = data->sensor_status,
 1954              		.loc 1 601 0
 1955 011e 0B93     		str	r3, [sp, #44]
 632:encode.c      **** 			.led_red = data->led_red - data_checkpoint->led_red,
 1956              		.loc 1 632 0
 1957 0120 0B6B     		ldr	r3, [r1, #48]
 1958 0122 026B     		ldr	r2, [r0, #48]
 1959 0124 9B1A     		subs	r3, r3, r2
 601:encode.c      **** 			.sensor_status = data->sensor_status,
 1960              		.loc 1 601 0
 1961 0126 0C93     		str	r3, [sp, #48]
 633:encode.c      **** 			.led_green = data->led_green - data_checkpoint->led_green,
 1962              		.loc 1 633 0
 1963 0128 4B6B     		ldr	r3, [r1, #52]
 1964 012a 426B     		ldr	r2, [r0, #52]
 1965 012c 9B1A     		subs	r3, r3, r2
 601:encode.c      **** 			.sensor_status = data->sensor_status,
 1966              		.loc 1 601 0
 1967 012e 0D93     		str	r3, [sp, #52]
 634:encode.c      **** 			.heart_rate = data->heart_rate - data_checkpoint->heart_rate,
 1968              		.loc 1 634 0
 1969 0130 0B8F     		ldrh	r3, [r1, #56]
 1970 0132 028F     		ldrh	r2, [r0, #56]
 601:encode.c      **** 			.sensor_status = data->sensor_status,
 1971              		.loc 1 601 0
 1972 0134 9B1A     		subs	r3, r3, r2
 1973 0136 ADF83830 		strh	r3, [sp, #56]	@ movhi
 635:encode.c      **** 			.blood_oxygen_level = data->blood_oxygen_level - data_checkpoint->blood_oxygen_level,
 1974              		.loc 1 635 0
 1975 013a 4B8F     		ldrh	r3, [r1, #58]
 1976 013c 428F     		ldrh	r2, [r0, #58]
 601:encode.c      **** 			.sensor_status = data->sensor_status,
 1977              		.loc 1 601 0
 1978 013e 9B1A     		subs	r3, r3, r2
 1979 0140 ADF83A30 		strh	r3, [sp, #58]	@ movhi
 636:encode.c      **** 			.confidence_level = data->confidence_level - data_checkpoint->confidence_level,
 1980              		.loc 1 636 0
 1981 0144 91F83C30 		ldrb	r3, [r1, #60]	@ zero_extendqisi2
 1982 0148 90F83C20 		ldrb	r2, [r0, #60]	@ zero_extendqisi2
 601:encode.c      **** 			.sensor_status = data->sensor_status,
 1983              		.loc 1 601 0
 1984 014c 9B1A     		subs	r3, r3, r2
 1985 014e 8DF83C30 		strb	r3, [sp, #60]
 637:encode.c      **** 			.finger_detected_status = data->finger_detected_status - data_checkpoint->finger_detected_status
 1986              		.loc 1 637 0
 1987 0152 91F83D30 		ldrb	r3, [r1, #61]	@ zero_extendqisi2
 1988 0156 90F83D20 		ldrb	r2, [r0, #61]	@ zero_extendqisi2
 601:encode.c      **** 			.sensor_status = data->sensor_status,
 1989              		.loc 1 601 0
 1990 015a 9B1A     		subs	r3, r3, r2
 1991 015c 8DF83D30 		strb	r3, [sp, #61]
 638:encode.c      **** 			.temperature = data->temperature - data_checkpoint->temperature,
 1992              		.loc 1 638 0
ARM GAS  C:\Users\codyg\AppData\Local\Temp\ccmSWLSY.s 			page 48


 1993 0160 0B6C     		ldr	r3, [r1, #64]
 1994 0162 026C     		ldr	r2, [r0, #64]
 1995 0164 9B1A     		subs	r3, r3, r2
 601:encode.c      **** 			.sensor_status = data->sensor_status,
 1996              		.loc 1 601 0
 1997 0166 1093     		str	r3, [sp, #64]
 639:encode.c      **** 			.sync = data->sync - data_checkpoint->sync, };
 1998              		.loc 1 639 0
 1999 0168 91F84430 		ldrb	r3, [r1, #68]	@ zero_extendqisi2
 2000 016c 90F84420 		ldrb	r2, [r0, #68]	@ zero_extendqisi2
 601:encode.c      **** 			.sensor_status = data->sensor_status,
 2001              		.loc 1 601 0
 2002 0170 9B1A     		subs	r3, r3, r2
 2003 0172 8DF84430 		strb	r3, [sp, #68]
 640:encode.c      **** 
 641:encode.c      **** 	size_t len = encode_data_frame(&delta, enc);
 2004              		.loc 1 641 0
 2005 0176 2146     		mov	r1, r4
 2006              	.LVL289:
 2007 0178 6846     		mov	r0, sp
 2008              	.LVL290:
 2009 017a FFF7FEFF 		bl	encode_data_frame
 2010              	.LVL291:
 642:encode.c      **** 
 643:encode.c      **** 	/* Set the delta bitfield */
 644:encode.c      **** 	enc[0] |= FRAME_CTRL_DATA_DELTA;
 2011              		.loc 1 644 0
 2012 017e 2378     		ldrb	r3, [r4]	@ zero_extendqisi2
 2013 0180 43F01003 		orr	r3, r3, #16
 645:encode.c      **** 
 646:encode.c      **** 	/* Flip the parity bit (to account for the delta bitfield being set) */
 647:encode.c      **** 	enc[0] ^= FRAME_CTRL_PARITY;
 2014              		.loc 1 647 0
 2015 0184 83F08003 		eor	r3, r3, #128
 2016 0188 2370     		strb	r3, [r4]
 648:encode.c      **** 
 649:encode.c      **** 	return len;
 650:encode.c      **** }
 2017              		.loc 1 650 0
 2018 018a 12B0     		add	sp, sp, #72
 2019              		.cfi_def_cfa_offset 16
 2020              		@ sp needed
 2021 018c 70BD     		pop	{r4, r5, r6, pc}
 2022              	.LVL292:
 2023              	.L145:
 2024 018e 00BF     		.align	2
 2025              	.L144:
 2026 0190 14000000 		.word	.LC2
 2027 0194 74000000 		.word	.LANCHOR0+116
 2028 0198 08000000 		.word	.LC1
 2029 019c 74000000 		.word	.LC3
 2030              		.cfi_endproc
 2031              	.LFE14:
 2032              		.size	encode_delta_frame, .-encode_delta_frame
 2033              		.section	.text.encode_command_frame,"ax",%progbits
 2034              		.align	2
 2035              		.global	encode_command_frame
ARM GAS  C:\Users\codyg\AppData\Local\Temp\ccmSWLSY.s 			page 49


 2036              		.thumb
 2037              		.thumb_func
 2038              		.type	encode_command_frame, %function
 2039              	encode_command_frame:
 2040              	.LFB15:
 651:encode.c      **** 
 652:encode.c      **** /**
 653:encode.c      ****  * @brief Encodes a RestEaZe command frame.
 654:encode.c      ****  * @param cmd Source command frame.
 655:encode.c      ****  * @param enc Encoded command frame.
 656:encode.c      ****  * @return Length of the encoded frame in bytes.
 657:encode.c      ****  * @warning enc must be at least FRAME_CMD_MTU in size.
 658:encode.c      ****  */
 659:encode.c      **** size_t encode_command_frame(const command_frame_t *cmd, uint8_t *enc) {
 2041              		.loc 1 659 0
 2042              		.cfi_startproc
 2043              		@ args = 0, pretend = 0, frame = 8
 2044              		@ frame_needed = 0, uses_anonymous_args = 0
 2045              	.LVL293:
 2046 0000 30B5     		push	{r4, r5, lr}
 2047              		.cfi_def_cfa_offset 12
 2048              		.cfi_offset 4, -12
 2049              		.cfi_offset 5, -8
 2050              		.cfi_offset 14, -4
 2051 0002 83B0     		sub	sp, sp, #12
 2052              		.cfi_def_cfa_offset 24
 2053 0004 0546     		mov	r5, r0
 2054 0006 0C46     		mov	r4, r1
 660:encode.c      **** 	size_t i = 0; /* Byte index */
 2055              		.loc 1 660 0
 2056 0008 0023     		movs	r3, #0
 661:encode.c      **** 	size_t j = 0; /* Bit index */
 2057              		.loc 1 661 0
 2058 000a 0093     		str	r3, [sp]
 662:encode.c      **** 
 663:encode.c      **** 	/* Frame header */
 664:encode.c      **** 	enc[i] = FRAME_TYPE_CMD;
 2059              		.loc 1 664 0
 2060 000c 2023     		movs	r3, #32
 2061 000e 0B70     		strb	r3, [r1]
 665:encode.c      **** 	enc[i] |= cmd->cmd & FRAME_CTRL_CMD;
 2062              		.loc 1 665 0
 2063 0010 0378     		ldrb	r3, [r0]	@ zero_extendqisi2
 2064 0012 03F01F03 		and	r3, r3, #31
 2065 0016 43F02003 		orr	r3, r3, #32
 2066 001a 0B70     		strb	r3, [r1]
 666:encode.c      **** 	i++;
 667:encode.c      **** 
 668:encode.c      **** 	enc[i] = cmd->var;
 2067              		.loc 1 668 0
 2068 001c 4378     		ldrb	r3, [r0, #1]	@ zero_extendqisi2
 2069 001e 4B70     		strb	r3, [r1, #1]
 669:encode.c      **** 	i++;
 2070              		.loc 1 669 0
 2071 0020 0223     		movs	r3, #2
 2072 0022 0193     		str	r3, [sp, #4]
 670:encode.c      **** 
ARM GAS  C:\Users\codyg\AppData\Local\Temp\ccmSWLSY.s 			page 50


 671:encode.c      **** 	encode_uint32(cmd->seq, enc, &i, &j);
 2073              		.loc 1 671 0
 2074 0024 6B46     		mov	r3, sp
 2075 0026 01AA     		add	r2, sp, #4
 2076 0028 4068     		ldr	r0, [r0, #4]
 2077              	.LVL294:
 2078 002a FFF7FEFF 		bl	encode_uint32
 2079              	.LVL295:
 672:encode.c      **** 	encode_uint32(cmd->val, enc, &i, &j);
 2080              		.loc 1 672 0
 2081 002e 6B46     		mov	r3, sp
 2082 0030 01AA     		add	r2, sp, #4
 2083 0032 2146     		mov	r1, r4
 2084 0034 A868     		ldr	r0, [r5, #8]
 2085 0036 FFF7FEFF 		bl	encode_uint32
 2086              	.LVL296:
 673:encode.c      **** 
 674:encode.c      **** 	if (bytes_parity(enc, i + 1)) {
 2087              		.loc 1 674 0
 2088 003a 0199     		ldr	r1, [sp, #4]
 2089 003c 0131     		adds	r1, r1, #1
 2090 003e 2046     		mov	r0, r4
 2091 0040 FFF7FEFF 		bl	bytes_parity
 2092              	.LVL297:
 2093 0044 18B1     		cbz	r0, .L147
 675:encode.c      **** 		enc[0] |= FRAME_CTRL_PARITY;
 2094              		.loc 1 675 0
 2095 0046 2378     		ldrb	r3, [r4]	@ zero_extendqisi2
 2096 0048 63F07F03 		orn	r3, r3, #127
 2097 004c 2370     		strb	r3, [r4]
 2098              	.L147:
 676:encode.c      **** 	}
 677:encode.c      **** 
 678:encode.c      **** 	return i + 1;
 679:encode.c      **** }
 2099              		.loc 1 679 0
 2100 004e 0198     		ldr	r0, [sp, #4]
 2101 0050 0130     		adds	r0, r0, #1
 2102 0052 03B0     		add	sp, sp, #12
 2103              		.cfi_def_cfa_offset 12
 2104              		@ sp needed
 2105 0054 30BD     		pop	{r4, r5, pc}
 2106              		.cfi_endproc
 2107              	.LFE15:
 2108              		.size	encode_command_frame, .-encode_command_frame
 2109 0056 00BF     		.section	.text.encode_response_frame,"ax",%progbits
 2110              		.align	2
 2111              		.global	encode_response_frame
 2112              		.thumb
 2113              		.thumb_func
 2114              		.type	encode_response_frame, %function
 2115              	encode_response_frame:
 2116              	.LFB16:
 680:encode.c      **** 
 681:encode.c      **** /**
 682:encode.c      ****  * @brief Encodes a RestEaZe response frame.
 683:encode.c      ****  * @param cmd Source response frame.
ARM GAS  C:\Users\codyg\AppData\Local\Temp\ccmSWLSY.s 			page 51


 684:encode.c      ****  * @param enc Encoded response frame.
 685:encode.c      ****  * @return Length of the encoded frame in bytes.
 686:encode.c      ****  * @warning enc must be at least FRAME_CMD_MTU in size.
 687:encode.c      ****  */
 688:encode.c      **** size_t encode_response_frame(const response_frame_t *resp, uint8_t *enc) {
 2117              		.loc 1 688 0
 2118              		.cfi_startproc
 2119              		@ args = 0, pretend = 0, frame = 8
 2120              		@ frame_needed = 0, uses_anonymous_args = 0
 2121              	.LVL298:
 2122 0000 30B5     		push	{r4, r5, lr}
 2123              		.cfi_def_cfa_offset 12
 2124              		.cfi_offset 4, -12
 2125              		.cfi_offset 5, -8
 2126              		.cfi_offset 14, -4
 2127 0002 83B0     		sub	sp, sp, #12
 2128              		.cfi_def_cfa_offset 24
 2129 0004 0546     		mov	r5, r0
 2130 0006 0C46     		mov	r4, r1
 689:encode.c      **** 	size_t i = 0; /* Byte index */
 2131              		.loc 1 689 0
 2132 0008 0023     		movs	r3, #0
 690:encode.c      **** 	size_t j = 0; /* Bit index */
 2133              		.loc 1 690 0
 2134 000a 0093     		str	r3, [sp]
 691:encode.c      **** 
 692:encode.c      **** 	/* Frame header */
 693:encode.c      **** 	enc[i] = FRAME_TYPE_RESP;
 2135              		.loc 1 693 0
 2136 000c 4023     		movs	r3, #64
 2137 000e 0B70     		strb	r3, [r1]
 694:encode.c      **** 	enc[i] |= resp->ret & FRAME_CTRL_RESP;
 2138              		.loc 1 694 0
 2139 0010 0378     		ldrb	r3, [r0]	@ zero_extendqisi2
 2140 0012 03F01F03 		and	r3, r3, #31
 2141 0016 43F04003 		orr	r3, r3, #64
 2142 001a 0B70     		strb	r3, [r1]
 695:encode.c      **** 	i++;
 696:encode.c      **** 
 697:encode.c      **** 	enc[i] = resp->var;
 2143              		.loc 1 697 0
 2144 001c 4378     		ldrb	r3, [r0, #1]	@ zero_extendqisi2
 2145 001e 4B70     		strb	r3, [r1, #1]
 698:encode.c      **** 	i++;
 2146              		.loc 1 698 0
 2147 0020 0223     		movs	r3, #2
 2148 0022 0193     		str	r3, [sp, #4]
 699:encode.c      **** 
 700:encode.c      **** 	encode_uint32(resp->seq, enc, &i, &j);
 2149              		.loc 1 700 0
 2150 0024 6B46     		mov	r3, sp
 2151 0026 01AA     		add	r2, sp, #4
 2152 0028 4068     		ldr	r0, [r0, #4]
 2153              	.LVL299:
 2154 002a FFF7FEFF 		bl	encode_uint32
 2155              	.LVL300:
 701:encode.c      **** 	encode_uint32(resp->val, enc, &i, &j);
ARM GAS  C:\Users\codyg\AppData\Local\Temp\ccmSWLSY.s 			page 52


 2156              		.loc 1 701 0
 2157 002e 6B46     		mov	r3, sp
 2158 0030 01AA     		add	r2, sp, #4
 2159 0032 2146     		mov	r1, r4
 2160 0034 A868     		ldr	r0, [r5, #8]
 2161 0036 FFF7FEFF 		bl	encode_uint32
 2162              	.LVL301:
 702:encode.c      **** 
 703:encode.c      **** 	if (bytes_parity(enc, i + 1)) {
 2163              		.loc 1 703 0
 2164 003a 0199     		ldr	r1, [sp, #4]
 2165 003c 0131     		adds	r1, r1, #1
 2166 003e 2046     		mov	r0, r4
 2167 0040 FFF7FEFF 		bl	bytes_parity
 2168              	.LVL302:
 2169 0044 18B1     		cbz	r0, .L150
 704:encode.c      **** 		enc[0] |= FRAME_CTRL_PARITY;
 2170              		.loc 1 704 0
 2171 0046 2378     		ldrb	r3, [r4]	@ zero_extendqisi2
 2172 0048 63F07F03 		orn	r3, r3, #127
 2173 004c 2370     		strb	r3, [r4]
 2174              	.L150:
 705:encode.c      **** 	}
 706:encode.c      **** 
 707:encode.c      **** 	return i + 1;
 708:encode.c      **** }
 2175              		.loc 1 708 0
 2176 004e 0198     		ldr	r0, [sp, #4]
 2177 0050 0130     		adds	r0, r0, #1
 2178 0052 03B0     		add	sp, sp, #12
 2179              		.cfi_def_cfa_offset 12
 2180              		@ sp needed
 2181 0054 30BD     		pop	{r4, r5, pc}
 2182              		.cfi_endproc
 2183              	.LFE16:
 2184              		.size	encode_response_frame, .-encode_response_frame
 2185 0056 00BF     		.section	.rodata
 2186              		.align	2
 2187              		.set	.LANCHOR0,. + 0
 2188              		.type	__func__.5045, %object
 2189              		.size	__func__.5045, 20
 2190              	__func__.5045:
 2191 0000 656E636F 		.ascii	"encode_prefix_uint8\000"
 2191      64655F70 
 2191      72656669 
 2191      785F7569 
 2191      6E743800 
 2192              		.type	__func__.5057, %object
 2193              		.size	__func__.5057, 21
 2194              	__func__.5057:
 2195 0014 656E636F 		.ascii	"encode_prefix_uint16\000"
 2195      64655F70 
 2195      72656669 
 2195      785F7569 
 2195      6E743136 
 2196 0029 000000   		.space	3
 2197              		.type	__func__.5069, %object
ARM GAS  C:\Users\codyg\AppData\Local\Temp\ccmSWLSY.s 			page 53


 2198              		.size	__func__.5069, 21
 2199              	__func__.5069:
 2200 002c 656E636F 		.ascii	"encode_prefix_uint32\000"
 2200      64655F70 
 2200      72656669 
 2200      785F7569 
 2200      6E743332 
 2201 0041 000000   		.space	3
 2202              		.type	__func__.5081, %object
 2203              		.size	__func__.5081, 13
 2204              	__func__.5081:
 2205 0044 656E636F 		.ascii	"encode_uint8\000"
 2205      64655F75 
 2205      696E7438 
 2205      00
 2206 0051 000000   		.space	3
 2207              		.type	__func__.5094, %object
 2208              		.size	__func__.5094, 14
 2209              	__func__.5094:
 2210 0054 656E636F 		.ascii	"encode_uint16\000"
 2210      64655F75 
 2210      696E7431 
 2210      3600
 2211 0062 0000     		.space	2
 2212              		.type	__func__.5107, %object
 2213              		.size	__func__.5107, 14
 2214              	__func__.5107:
 2215 0064 656E636F 		.ascii	"encode_uint32\000"
 2215      64655F75 
 2215      696E7433 
 2215      3200
 2216 0072 0000     		.space	2
 2217              		.type	__func__.5125, %object
 2218              		.size	__func__.5125, 19
 2219              	__func__.5125:
 2220 0074 656E636F 		.ascii	"encode_delta_frame\000"
 2220      64655F64 
 2220      656C7461 
 2220      5F667261 
 2220      6D6500
 2221              		.section	.rodata.str1.4,"aMS",%progbits,1
 2222              		.align	2
 2223              	.LC0:
 2224 0000 2A6A203C 		.ascii	"*j < 8\000"
 2224      203800
 2225 0007 00       		.space	1
 2226              	.LC1:
 2227 0008 656E636F 		.ascii	"encode.c\000"
 2227      64652E63 
 2227      00
 2228 0011 000000   		.space	3
 2229              	.LC2:
 2230 0014 64617461 		.ascii	"data_checkpoint->seq == data->seq - 1 || data_check"
 2230      5F636865 
 2230      636B706F 
 2230      696E742D 
 2230      3E736571 
ARM GAS  C:\Users\codyg\AppData\Local\Temp\ccmSWLSY.s 			page 54


 2231 0047 706F696E 		.ascii	"point->seq == UINT32_MAX && data->seq == 0\000"
 2231      742D3E73 
 2231      6571203D 
 2231      3D205549 
 2231      4E543332 
 2232 0072 0000     		.space	2
 2233              	.LC3:
 2234 0074 66616C73 		.ascii	"false\000"
 2234      6500
 2235              		.text
 2236              	.Letext0:
 2237              		.file 2 "c:\\program files (x86)\\cypress\\psoc creator\\4.2\\psoc creator\\import\\gnu\\arm\\5.4.
 2238              		.file 3 "c:\\program files (x86)\\cypress\\psoc creator\\4.2\\psoc creator\\import\\gnu\\arm\\5.4.
 2239              		.file 4 "c:\\program files (x86)\\cypress\\psoc creator\\4.2\\psoc creator\\import\\gnu\\arm\\5.4.
 2240              		.file 5 "frame.h"
 2241              		.file 6 "c:\\program files (x86)\\cypress\\psoc creator\\4.2\\psoc creator\\import\\gnu\\arm\\5.4.
 2242              		.section	.debug_info,"",%progbits
 2243              	.Ldebug_info0:
 2244 0000 19110000 		.4byte	0x1119
 2245 0004 0400     		.2byte	0x4
 2246 0006 00000000 		.4byte	.Ldebug_abbrev0
 2247 000a 04       		.byte	0x4
 2248 000b 01       		.uleb128 0x1
 2249 000c 68020000 		.4byte	.LASF80
 2250 0010 0C       		.byte	0xc
 2251 0011 28040000 		.4byte	.LASF81
 2252 0015 1B030000 		.4byte	.LASF82
 2253 0019 00000000 		.4byte	.Ldebug_ranges0+0
 2254 001d 00000000 		.4byte	0
 2255 0021 00000000 		.4byte	.Ldebug_line0
 2256 0025 02       		.uleb128 0x2
 2257 0026 01       		.byte	0x1
 2258 0027 06       		.byte	0x6
 2259 0028 A3000000 		.4byte	.LASF0
 2260 002c 03       		.uleb128 0x3
 2261 002d 35000000 		.4byte	.LASF2
 2262 0031 02       		.byte	0x2
 2263 0032 1D       		.byte	0x1d
 2264 0033 37000000 		.4byte	0x37
 2265 0037 02       		.uleb128 0x2
 2266 0038 01       		.byte	0x1
 2267 0039 08       		.byte	0x8
 2268 003a 98030000 		.4byte	.LASF1
 2269 003e 03       		.uleb128 0x3
 2270 003f 07010000 		.4byte	.LASF3
 2271 0043 02       		.byte	0x2
 2272 0044 29       		.byte	0x29
 2273 0045 49000000 		.4byte	0x49
 2274 0049 02       		.uleb128 0x2
 2275 004a 02       		.byte	0x2
 2276 004b 05       		.byte	0x5
 2277 004c C0030000 		.4byte	.LASF4
 2278 0050 03       		.uleb128 0x3
 2279 0051 4F040000 		.4byte	.LASF5
 2280 0055 02       		.byte	0x2
 2281 0056 2B       		.byte	0x2b
 2282 0057 5B000000 		.4byte	0x5b
ARM GAS  C:\Users\codyg\AppData\Local\Temp\ccmSWLSY.s 			page 55


 2283 005b 02       		.uleb128 0x2
 2284 005c 02       		.byte	0x2
 2285 005d 07       		.byte	0x7
 2286 005e 63010000 		.4byte	.LASF6
 2287 0062 03       		.uleb128 0x3
 2288 0063 5A040000 		.4byte	.LASF7
 2289 0067 02       		.byte	0x2
 2290 0068 3F       		.byte	0x3f
 2291 0069 6D000000 		.4byte	0x6d
 2292 006d 02       		.uleb128 0x2
 2293 006e 04       		.byte	0x4
 2294 006f 05       		.byte	0x5
 2295 0070 BC000000 		.4byte	.LASF8
 2296 0074 03       		.uleb128 0x3
 2297 0075 FC000000 		.4byte	.LASF9
 2298 0079 02       		.byte	0x2
 2299 007a 41       		.byte	0x41
 2300 007b 7F000000 		.4byte	0x7f
 2301 007f 02       		.uleb128 0x2
 2302 0080 04       		.byte	0x4
 2303 0081 07       		.byte	0x7
 2304 0082 4C010000 		.4byte	.LASF10
 2305 0086 02       		.uleb128 0x2
 2306 0087 08       		.byte	0x8
 2307 0088 05       		.byte	0x5
 2308 0089 95000000 		.4byte	.LASF11
 2309 008d 02       		.uleb128 0x2
 2310 008e 08       		.byte	0x8
 2311 008f 07       		.byte	0x7
 2312 0090 5A000000 		.4byte	.LASF12
 2313 0094 04       		.uleb128 0x4
 2314 0095 04       		.byte	0x4
 2315 0096 05       		.byte	0x5
 2316 0097 696E7400 		.ascii	"int\000"
 2317 009b 02       		.uleb128 0x2
 2318 009c 04       		.byte	0x4
 2319 009d 07       		.byte	0x7
 2320 009e 23010000 		.4byte	.LASF13
 2321 00a2 03       		.uleb128 0x3
 2322 00a3 A5040000 		.4byte	.LASF14
 2323 00a7 03       		.byte	0x3
 2324 00a8 18       		.byte	0x18
 2325 00a9 2C000000 		.4byte	0x2c
 2326 00ad 03       		.uleb128 0x3
 2327 00ae 8D000000 		.4byte	.LASF15
 2328 00b2 03       		.byte	0x3
 2329 00b3 20       		.byte	0x20
 2330 00b4 3E000000 		.4byte	0x3e
 2331 00b8 03       		.uleb128 0x3
 2332 00b9 E7000000 		.4byte	.LASF16
 2333 00bd 03       		.byte	0x3
 2334 00be 24       		.byte	0x24
 2335 00bf 50000000 		.4byte	0x50
 2336 00c3 03       		.uleb128 0x3
 2337 00c4 90030000 		.4byte	.LASF17
 2338 00c8 03       		.byte	0x3
 2339 00c9 2C       		.byte	0x2c
ARM GAS  C:\Users\codyg\AppData\Local\Temp\ccmSWLSY.s 			page 56


 2340 00ca 62000000 		.4byte	0x62
 2341 00ce 03       		.uleb128 0x3
 2342 00cf 0C040000 		.4byte	.LASF18
 2343 00d3 03       		.byte	0x3
 2344 00d4 30       		.byte	0x30
 2345 00d5 74000000 		.4byte	0x74
 2346 00d9 03       		.uleb128 0x3
 2347 00da 28000000 		.4byte	.LASF19
 2348 00de 04       		.byte	0x4
 2349 00df D8       		.byte	0xd8
 2350 00e0 9B000000 		.4byte	0x9b
 2351 00e4 02       		.uleb128 0x2
 2352 00e5 08       		.byte	0x8
 2353 00e6 04       		.byte	0x4
 2354 00e7 33020000 		.4byte	.LASF20
 2355 00eb 02       		.uleb128 0x2
 2356 00ec 04       		.byte	0x4
 2357 00ed 07       		.byte	0x7
 2358 00ee 20020000 		.4byte	.LASF21
 2359 00f2 02       		.uleb128 0x2
 2360 00f3 01       		.byte	0x1
 2361 00f4 08       		.byte	0x8
 2362 00f5 31040000 		.4byte	.LASF22
 2363 00f9 05       		.uleb128 0x5
 2364 00fa F2000000 		.4byte	0xf2
 2365 00fe 06       		.uleb128 0x6
 2366 00ff DD030000 		.4byte	.LASF43
 2367 0103 48       		.byte	0x48
 2368 0104 05       		.byte	0x5
 2369 0105 5D       		.byte	0x5d
 2370 0106 07020000 		.4byte	0x207
 2371 010a 07       		.uleb128 0x7
 2372 010b 4C000000 		.4byte	.LASF23
 2373 010f 05       		.byte	0x5
 2374 0110 5F       		.byte	0x5f
 2375 0111 A2000000 		.4byte	0xa2
 2376 0115 00       		.byte	0
 2377 0116 07       		.uleb128 0x7
 2378 0117 40040000 		.4byte	.LASF24
 2379 011b 05       		.byte	0x5
 2380 011c 60       		.byte	0x60
 2381 011d A2000000 		.4byte	0xa2
 2382 0121 01       		.byte	0x1
 2383 0122 07       		.uleb128 0x7
 2384 0123 29020000 		.4byte	.LASF25
 2385 0127 05       		.byte	0x5
 2386 0128 61       		.byte	0x61
 2387 0129 A2000000 		.4byte	0xa2
 2388 012d 02       		.byte	0x2
 2389 012e 08       		.uleb128 0x8
 2390 012f 73657100 		.ascii	"seq\000"
 2391 0133 05       		.byte	0x5
 2392 0134 62       		.byte	0x62
 2393 0135 CE000000 		.4byte	0xce
 2394 0139 04       		.byte	0x4
 2395 013a 07       		.uleb128 0x7
 2396 013b 60020000 		.4byte	.LASF26
ARM GAS  C:\Users\codyg\AppData\Local\Temp\ccmSWLSY.s 			page 57


 2397 013f 05       		.byte	0x5
 2398 0140 63       		.byte	0x63
 2399 0141 A2000000 		.4byte	0xa2
 2400 0145 08       		.byte	0x8
 2401 0146 07       		.uleb128 0x7
 2402 0147 43010000 		.4byte	.LASF27
 2403 014b 05       		.byte	0x5
 2404 014c 66       		.byte	0x66
 2405 014d CE000000 		.4byte	0xce
 2406 0151 0C       		.byte	0xc
 2407 0152 07       		.uleb128 0x7
 2408 0153 CA030000 		.4byte	.LASF28
 2409 0157 05       		.byte	0x5
 2410 0158 67       		.byte	0x67
 2411 0159 CE000000 		.4byte	0xce
 2412 015d 10       		.byte	0x10
 2413 015e 07       		.uleb128 0x7
 2414 015f 96040000 		.4byte	.LASF29
 2415 0163 05       		.byte	0x5
 2416 0164 68       		.byte	0x68
 2417 0165 B8000000 		.4byte	0xb8
 2418 0169 14       		.byte	0x14
 2419 016a 07       		.uleb128 0x7
 2420 016b 6D030000 		.4byte	.LASF30
 2421 016f 05       		.byte	0x5
 2422 0170 69       		.byte	0x69
 2423 0171 B8000000 		.4byte	0xb8
 2424 0175 16       		.byte	0x16
 2425 0176 08       		.uleb128 0x8
 2426 0177 63617000 		.ascii	"cap\000"
 2427 017b 05       		.byte	0x5
 2428 017c 6A       		.byte	0x6a
 2429 017d 07020000 		.4byte	0x207
 2430 0181 18       		.byte	0x18
 2431 0182 07       		.uleb128 0x7
 2432 0183 55020000 		.4byte	.LASF31
 2433 0187 05       		.byte	0x5
 2434 0188 6B       		.byte	0x6b
 2435 0189 17020000 		.4byte	0x217
 2436 018d 1E       		.byte	0x1e
 2437 018e 07       		.uleb128 0x7
 2438 018f E3010000 		.4byte	.LASF32
 2439 0193 05       		.byte	0x5
 2440 0194 6C       		.byte	0x6c
 2441 0195 17020000 		.4byte	0x217
 2442 0199 24       		.byte	0x24
 2443 019a 07       		.uleb128 0x7
 2444 019b 82040000 		.4byte	.LASF33
 2445 019f 05       		.byte	0x5
 2446 01a0 78       		.byte	0x78
 2447 01a1 CE000000 		.4byte	0xce
 2448 01a5 2C       		.byte	0x2c
 2449 01a6 07       		.uleb128 0x7
 2450 01a7 DB010000 		.4byte	.LASF34
 2451 01ab 05       		.byte	0x5
 2452 01ac 79       		.byte	0x79
 2453 01ad CE000000 		.4byte	0xce
ARM GAS  C:\Users\codyg\AppData\Local\Temp\ccmSWLSY.s 			page 58


 2454 01b1 30       		.byte	0x30
 2455 01b2 07       		.uleb128 0x7
 2456 01b3 36040000 		.4byte	.LASF35
 2457 01b7 05       		.byte	0x5
 2458 01b8 7A       		.byte	0x7a
 2459 01b9 CE000000 		.4byte	0xce
 2460 01bd 34       		.byte	0x34
 2461 01be 07       		.uleb128 0x7
 2462 01bf 9C010000 		.4byte	.LASF36
 2463 01c3 05       		.byte	0x5
 2464 01c4 7B       		.byte	0x7b
 2465 01c5 B8000000 		.4byte	0xb8
 2466 01c9 38       		.byte	0x38
 2467 01ca 07       		.uleb128 0x7
 2468 01cb 15040000 		.4byte	.LASF37
 2469 01cf 05       		.byte	0x5
 2470 01d0 7C       		.byte	0x7c
 2471 01d1 B8000000 		.4byte	0xb8
 2472 01d5 3A       		.byte	0x3a
 2473 01d6 07       		.uleb128 0x7
 2474 01d7 8B010000 		.4byte	.LASF38
 2475 01db 05       		.byte	0x5
 2476 01dc 7D       		.byte	0x7d
 2477 01dd A2000000 		.4byte	0xa2
 2478 01e1 3C       		.byte	0x3c
 2479 01e2 07       		.uleb128 0x7
 2480 01e3 FD010000 		.4byte	.LASF39
 2481 01e7 05       		.byte	0x5
 2482 01e8 7E       		.byte	0x7e
 2483 01e9 A2000000 		.4byte	0xa2
 2484 01ed 3D       		.byte	0x3d
 2485 01ee 07       		.uleb128 0x7
 2486 01ef F0000000 		.4byte	.LASF40
 2487 01f3 05       		.byte	0x5
 2488 01f4 7F       		.byte	0x7f
 2489 01f5 CE000000 		.4byte	0xce
 2490 01f9 40       		.byte	0x40
 2491 01fa 07       		.uleb128 0x7
 2492 01fb B8040000 		.4byte	.LASF41
 2493 01ff 05       		.byte	0x5
 2494 0200 81       		.byte	0x81
 2495 0201 A2000000 		.4byte	0xa2
 2496 0205 44       		.byte	0x44
 2497 0206 00       		.byte	0
 2498 0207 09       		.uleb128 0x9
 2499 0208 B8000000 		.4byte	0xb8
 2500 020c 17020000 		.4byte	0x217
 2501 0210 0A       		.uleb128 0xa
 2502 0211 EB000000 		.4byte	0xeb
 2503 0215 02       		.byte	0x2
 2504 0216 00       		.byte	0
 2505 0217 09       		.uleb128 0x9
 2506 0218 AD000000 		.4byte	0xad
 2507 021c 27020000 		.4byte	0x227
 2508 0220 0A       		.uleb128 0xa
 2509 0221 EB000000 		.4byte	0xeb
 2510 0225 02       		.byte	0x2
ARM GAS  C:\Users\codyg\AppData\Local\Temp\ccmSWLSY.s 			page 59


 2511 0226 00       		.byte	0
 2512 0227 03       		.uleb128 0x3
 2513 0228 C9040000 		.4byte	.LASF42
 2514 022c 05       		.byte	0x5
 2515 022d 82       		.byte	0x82
 2516 022e FE000000 		.4byte	0xfe
 2517 0232 06       		.uleb128 0x6
 2518 0233 EB030000 		.4byte	.LASF44
 2519 0237 0C       		.byte	0xc
 2520 0238 05       		.byte	0x5
 2521 0239 84       		.byte	0x84
 2522 023a 6F020000 		.4byte	0x26f
 2523 023e 08       		.uleb128 0x8
 2524 023f 636D6400 		.ascii	"cmd\000"
 2525 0243 05       		.byte	0x5
 2526 0244 85       		.byte	0x85
 2527 0245 A2000000 		.4byte	0xa2
 2528 0249 00       		.byte	0
 2529 024a 08       		.uleb128 0x8
 2530 024b 76617200 		.ascii	"var\000"
 2531 024f 05       		.byte	0x5
 2532 0250 86       		.byte	0x86
 2533 0251 A2000000 		.4byte	0xa2
 2534 0255 01       		.byte	0x1
 2535 0256 08       		.uleb128 0x8
 2536 0257 73657100 		.ascii	"seq\000"
 2537 025b 05       		.byte	0x5
 2538 025c 87       		.byte	0x87
 2539 025d CE000000 		.4byte	0xce
 2540 0261 04       		.byte	0x4
 2541 0262 08       		.uleb128 0x8
 2542 0263 76616C00 		.ascii	"val\000"
 2543 0267 05       		.byte	0x5
 2544 0268 88       		.byte	0x88
 2545 0269 CE000000 		.4byte	0xce
 2546 026d 08       		.byte	0x8
 2547 026e 00       		.byte	0
 2548 026f 03       		.uleb128 0x3
 2549 0270 80030000 		.4byte	.LASF45
 2550 0274 05       		.byte	0x5
 2551 0275 89       		.byte	0x89
 2552 0276 32020000 		.4byte	0x232
 2553 027a 06       		.uleb128 0x6
 2554 027b 71000000 		.4byte	.LASF46
 2555 027f 0C       		.byte	0xc
 2556 0280 05       		.byte	0x5
 2557 0281 8B       		.byte	0x8b
 2558 0282 B7020000 		.4byte	0x2b7
 2559 0286 08       		.uleb128 0x8
 2560 0287 72657400 		.ascii	"ret\000"
 2561 028b 05       		.byte	0x5
 2562 028c 8C       		.byte	0x8c
 2563 028d A2000000 		.4byte	0xa2
 2564 0291 00       		.byte	0
 2565 0292 08       		.uleb128 0x8
 2566 0293 76617200 		.ascii	"var\000"
 2567 0297 05       		.byte	0x5
ARM GAS  C:\Users\codyg\AppData\Local\Temp\ccmSWLSY.s 			page 60


 2568 0298 8D       		.byte	0x8d
 2569 0299 A2000000 		.4byte	0xa2
 2570 029d 01       		.byte	0x1
 2571 029e 08       		.uleb128 0x8
 2572 029f 73657100 		.ascii	"seq\000"
 2573 02a3 05       		.byte	0x5
 2574 02a4 8E       		.byte	0x8e
 2575 02a5 CE000000 		.4byte	0xce
 2576 02a9 04       		.byte	0x4
 2577 02aa 08       		.uleb128 0x8
 2578 02ab 76616C00 		.ascii	"val\000"
 2579 02af 05       		.byte	0x5
 2580 02b0 8F       		.byte	0x8f
 2581 02b1 CE000000 		.4byte	0xce
 2582 02b5 08       		.byte	0x8
 2583 02b6 00       		.byte	0
 2584 02b7 03       		.uleb128 0x3
 2585 02b8 CA010000 		.4byte	.LASF47
 2586 02bc 05       		.byte	0x5
 2587 02bd 90       		.byte	0x90
 2588 02be 7A020000 		.4byte	0x27a
 2589 02c2 0B       		.uleb128 0xb
 2590 02c3 76040000 		.4byte	.LASF50
 2591 02c7 01       		.byte	0x1
 2592 02c8 2E       		.byte	0x2e
 2593 02c9 D9000000 		.4byte	0xd9
 2594 02cd 00000000 		.4byte	.LFB0
 2595 02d1 3E000000 		.4byte	.LFE0-.LFB0
 2596 02d5 01       		.uleb128 0x1
 2597 02d6 9C       		.byte	0x9c
 2598 02d7 5A030000 		.4byte	0x35a
 2599 02db 0C       		.uleb128 0xc
 2600 02dc 64656300 		.ascii	"dec\000"
 2601 02e0 01       		.byte	0x1
 2602 02e1 2E       		.byte	0x2e
 2603 02e2 5A030000 		.4byte	0x35a
 2604 02e6 00000000 		.4byte	.LLST0
 2605 02ea 0C       		.uleb128 0xc
 2606 02eb 656E6300 		.ascii	"enc\000"
 2607 02ef 01       		.byte	0x1
 2608 02f0 2E       		.byte	0x2e
 2609 02f1 65030000 		.4byte	0x365
 2610 02f5 3F000000 		.4byte	.LLST1
 2611 02f9 0C       		.uleb128 0xc
 2612 02fa 6C656E00 		.ascii	"len\000"
 2613 02fe 01       		.byte	0x1
 2614 02ff 2E       		.byte	0x2e
 2615 0300 D9000000 		.4byte	0xd9
 2616 0304 8D000000 		.4byte	.LLST2
 2617 0308 0D       		.uleb128 0xd
 2618 0309 62656700 		.ascii	"beg\000"
 2619 030d 01       		.byte	0x1
 2620 030e 2F       		.byte	0x2f
 2621 030f 5A030000 		.4byte	0x35a
 2622 0313 01       		.uleb128 0x1
 2623 0314 51       		.byte	0x51
 2624 0315 0D       		.uleb128 0xd
ARM GAS  C:\Users\codyg\AppData\Local\Temp\ccmSWLSY.s 			page 61


 2625 0316 656E6400 		.ascii	"end\000"
 2626 031a 01       		.byte	0x1
 2627 031b 30       		.byte	0x30
 2628 031c 5A030000 		.4byte	0x35a
 2629 0320 01       		.uleb128 0x1
 2630 0321 52       		.byte	0x52
 2631 0322 0E       		.uleb128 0xe
 2632 0323 71040000 		.4byte	.LASF48
 2633 0327 01       		.byte	0x1
 2634 0328 32       		.byte	0x32
 2635 0329 65030000 		.4byte	0x365
 2636 032d AE000000 		.4byte	.LLST3
 2637 0331 0E       		.uleb128 0xe
 2638 0332 BB030000 		.4byte	.LASF49
 2639 0336 01       		.byte	0x1
 2640 0337 33       		.byte	0x33
 2641 0338 A2000000 		.4byte	0xa2
 2642 033c E2000000 		.4byte	.LLST4
 2643 0340 0F       		.uleb128 0xf
 2644 0341 10000000 		.4byte	.LBB2
 2645 0345 14000000 		.4byte	.LBE2-.LBB2
 2646 0349 10       		.uleb128 0x10
 2647 034a 746D7000 		.ascii	"tmp\000"
 2648 034e 01       		.byte	0x1
 2649 034f 3A       		.byte	0x3a
 2650 0350 A2000000 		.4byte	0xa2
 2651 0354 2F010000 		.4byte	.LLST5
 2652 0358 00       		.byte	0
 2653 0359 00       		.byte	0
 2654 035a 11       		.uleb128 0x11
 2655 035b 04       		.byte	0x4
 2656 035c 60030000 		.4byte	0x360
 2657 0360 05       		.uleb128 0x5
 2658 0361 A2000000 		.4byte	0xa2
 2659 0365 11       		.uleb128 0x11
 2660 0366 04       		.byte	0x4
 2661 0367 A2000000 		.4byte	0xa2
 2662 036b 0B       		.uleb128 0xb
 2663 036c BD040000 		.4byte	.LASF51
 2664 0370 01       		.byte	0x1
 2665 0371 53       		.byte	0x53
 2666 0372 A2000000 		.4byte	0xa2
 2667 0376 00000000 		.4byte	.LFB1
 2668 037a 2E000000 		.4byte	.LFE1-.LFB1
 2669 037e 01       		.uleb128 0x1
 2670 037f 9C       		.byte	0x9c
 2671 0380 A1030000 		.4byte	0x3a1
 2672 0384 12       		.uleb128 0x12
 2673 0385 5E010000 		.4byte	.LASF52
 2674 0389 01       		.byte	0x1
 2675 038a 53       		.byte	0x53
 2676 038b A2000000 		.4byte	0xa2
 2677 038f 42010000 		.4byte	.LLST6
 2678 0393 10       		.uleb128 0x10
 2679 0394 6E00     		.ascii	"n\000"
 2680 0396 01       		.byte	0x1
 2681 0397 54       		.byte	0x54
ARM GAS  C:\Users\codyg\AppData\Local\Temp\ccmSWLSY.s 			page 62


 2682 0398 A2000000 		.4byte	0xa2
 2683 039c 8C010000 		.4byte	.LLST7
 2684 03a0 00       		.byte	0
 2685 03a1 0B       		.uleb128 0xb
 2686 03a2 AF000000 		.4byte	.LASF53
 2687 03a6 01       		.byte	0x1
 2688 03a7 69       		.byte	0x69
 2689 03a8 A2000000 		.4byte	0xa2
 2690 03ac 00000000 		.4byte	.LFB2
 2691 03b0 3E000000 		.4byte	.LFE2-.LFB2
 2692 03b4 01       		.uleb128 0x1
 2693 03b5 9C       		.byte	0x9c
 2694 03b6 D7030000 		.4byte	0x3d7
 2695 03ba 12       		.uleb128 0x12
 2696 03bb 5E010000 		.4byte	.LASF52
 2697 03bf 01       		.byte	0x1
 2698 03c0 69       		.byte	0x69
 2699 03c1 B8000000 		.4byte	0xb8
 2700 03c5 DA010000 		.4byte	.LLST8
 2701 03c9 10       		.uleb128 0x10
 2702 03ca 6E00     		.ascii	"n\000"
 2703 03cc 01       		.byte	0x1
 2704 03cd 6A       		.byte	0x6a
 2705 03ce A2000000 		.4byte	0xa2
 2706 03d2 2F020000 		.4byte	.LLST9
 2707 03d6 00       		.byte	0
 2708 03d7 0B       		.uleb128 0xb
 2709 03d8 A7010000 		.4byte	.LASF54
 2710 03dc 01       		.byte	0x1
 2711 03dd 81       		.byte	0x81
 2712 03de A2000000 		.4byte	0xa2
 2713 03e2 00000000 		.4byte	.LFB3
 2714 03e6 40000000 		.4byte	.LFE3-.LFB3
 2715 03ea 01       		.uleb128 0x1
 2716 03eb 9C       		.byte	0x9c
 2717 03ec 0D040000 		.4byte	0x40d
 2718 03f0 12       		.uleb128 0x12
 2719 03f1 5E010000 		.4byte	.LASF52
 2720 03f5 01       		.byte	0x1
 2721 03f6 81       		.byte	0x81
 2722 03f7 CE000000 		.4byte	0xce
 2723 03fb 88020000 		.4byte	.LLST10
 2724 03ff 10       		.uleb128 0x10
 2725 0400 6E00     		.ascii	"n\000"
 2726 0402 01       		.byte	0x1
 2727 0403 82       		.byte	0x82
 2728 0404 A2000000 		.4byte	0xa2
 2729 0408 BC020000 		.4byte	.LLST11
 2730 040c 00       		.byte	0
 2731 040d 0B       		.uleb128 0xb
 2732 040e 14020000 		.4byte	.LASF55
 2733 0412 01       		.byte	0x1
 2734 0413 99       		.byte	0x99
 2735 0414 A2000000 		.4byte	0xa2
 2736 0418 00000000 		.4byte	.LFB4
 2737 041c 34000000 		.4byte	.LFE4-.LFB4
 2738 0420 01       		.uleb128 0x1
ARM GAS  C:\Users\codyg\AppData\Local\Temp\ccmSWLSY.s 			page 63


 2739 0421 9C       		.byte	0x9c
 2740 0422 43040000 		.4byte	0x443
 2741 0426 12       		.uleb128 0x12
 2742 0427 5E010000 		.4byte	.LASF52
 2743 042b 01       		.byte	0x1
 2744 042c 99       		.byte	0x99
 2745 042d A2000000 		.4byte	0xa2
 2746 0431 FE020000 		.4byte	.LLST12
 2747 0435 10       		.uleb128 0x10
 2748 0436 6E00     		.ascii	"n\000"
 2749 0438 01       		.byte	0x1
 2750 0439 9A       		.byte	0x9a
 2751 043a A2000000 		.4byte	0xa2
 2752 043e 4E030000 		.4byte	.LLST13
 2753 0442 00       		.byte	0
 2754 0443 0B       		.uleb128 0xb
 2755 0444 64040000 		.4byte	.LASF56
 2756 0448 01       		.byte	0x1
 2757 0449 B1       		.byte	0xb1
 2758 044a A2000000 		.4byte	0xa2
 2759 044e 00000000 		.4byte	.LFB5
 2760 0452 40000000 		.4byte	.LFE5-.LFB5
 2761 0456 01       		.uleb128 0x1
 2762 0457 9C       		.byte	0x9c
 2763 0458 79040000 		.4byte	0x479
 2764 045c 12       		.uleb128 0x12
 2765 045d 5E010000 		.4byte	.LASF52
 2766 0461 01       		.byte	0x1
 2767 0462 B1       		.byte	0xb1
 2768 0463 B8000000 		.4byte	0xb8
 2769 0467 9C030000 		.4byte	.LLST14
 2770 046b 10       		.uleb128 0x10
 2771 046c 6E00     		.ascii	"n\000"
 2772 046e 01       		.byte	0x1
 2773 046f B2       		.byte	0xb2
 2774 0470 A2000000 		.4byte	0xa2
 2775 0474 EC030000 		.4byte	.LLST15
 2776 0478 00       		.byte	0
 2777 0479 0B       		.uleb128 0xb
 2778 047a 3F000000 		.4byte	.LASF57
 2779 047e 01       		.byte	0x1
 2780 047f CB       		.byte	0xcb
 2781 0480 A2000000 		.4byte	0xa2
 2782 0484 00000000 		.4byte	.LFB6
 2783 0488 4A000000 		.4byte	.LFE6-.LFB6
 2784 048c 01       		.uleb128 0x1
 2785 048d 9C       		.byte	0x9c
 2786 048e AF040000 		.4byte	0x4af
 2787 0492 12       		.uleb128 0x12
 2788 0493 5E010000 		.4byte	.LASF52
 2789 0497 01       		.byte	0x1
 2790 0498 CB       		.byte	0xcb
 2791 0499 CE000000 		.4byte	0xce
 2792 049d 45040000 		.4byte	.LLST16
 2793 04a1 10       		.uleb128 0x10
 2794 04a2 6E00     		.ascii	"n\000"
 2795 04a4 01       		.byte	0x1
ARM GAS  C:\Users\codyg\AppData\Local\Temp\ccmSWLSY.s 			page 64


 2796 04a5 CC       		.byte	0xcc
 2797 04a6 A2000000 		.4byte	0xa2
 2798 04aa 95040000 		.4byte	.LLST17
 2799 04ae 00       		.byte	0
 2800 04af 0B       		.uleb128 0xb
 2801 04b0 00000000 		.4byte	.LASF58
 2802 04b4 01       		.byte	0x1
 2803 04b5 E8       		.byte	0xe8
 2804 04b6 A2000000 		.4byte	0xa2
 2805 04ba 00000000 		.4byte	.LFB7
 2806 04be E0000000 		.4byte	.LFE7-.LFB7
 2807 04c2 01       		.uleb128 0x1
 2808 04c3 9C       		.byte	0x9c
 2809 04c4 AE050000 		.4byte	0x5ae
 2810 04c8 0C       		.uleb128 0xc
 2811 04c9 72656D00 		.ascii	"rem\000"
 2812 04cd 01       		.byte	0x1
 2813 04ce E8       		.byte	0xe8
 2814 04cf 65030000 		.4byte	0x365
 2815 04d3 F9040000 		.4byte	.LLST18
 2816 04d7 0C       		.uleb128 0xc
 2817 04d8 656E6300 		.ascii	"enc\000"
 2818 04dc 01       		.byte	0x1
 2819 04dd E8       		.byte	0xe8
 2820 04de 65030000 		.4byte	0x365
 2821 04e2 3E050000 		.4byte	.LLST19
 2822 04e6 0C       		.uleb128 0xc
 2823 04e7 6900     		.ascii	"i\000"
 2824 04e9 01       		.byte	0x1
 2825 04ea E8       		.byte	0xe8
 2826 04eb AE050000 		.4byte	0x5ae
 2827 04ef 83050000 		.4byte	.LLST20
 2828 04f3 0C       		.uleb128 0xc
 2829 04f4 6A00     		.ascii	"j\000"
 2830 04f6 01       		.byte	0x1
 2831 04f7 E8       		.byte	0xe8
 2832 04f8 AE050000 		.4byte	0x5ae
 2833 04fc C8050000 		.4byte	.LLST21
 2834 0500 13       		.uleb128 0x13
 2835 0501 D4030000 		.4byte	.LASF64
 2836 0505 C4050000 		.4byte	0x5c4
 2837 0509 05       		.uleb128 0x5
 2838 050a 03       		.byte	0x3
 2839 050b 00000000 		.4byte	__func__.5045
 2840 050f 0E       		.uleb128 0xe
 2841 0510 C5000000 		.4byte	.LASF59
 2842 0514 01       		.byte	0x1
 2843 0515 EB       		.byte	0xeb
 2844 0516 A2000000 		.4byte	0xa2
 2845 051a F4050000 		.4byte	.LLST22
 2846 051e 0E       		.uleb128 0xe
 2847 051f BF010000 		.4byte	.LASF60
 2848 0523 01       		.byte	0x1
 2849 0524 EC       		.byte	0xec
 2850 0525 A2000000 		.4byte	0xa2
 2851 0529 2A060000 		.4byte	.LLST23
 2852 052d 0E       		.uleb128 0xe
ARM GAS  C:\Users\codyg\AppData\Local\Temp\ccmSWLSY.s 			page 65


 2853 052e B4010000 		.4byte	.LASF61
 2854 0532 01       		.byte	0x1
 2855 0533 ED       		.byte	0xed
 2856 0534 A2000000 		.4byte	0xa2
 2857 0538 3D060000 		.4byte	.LLST24
 2858 053c 0E       		.uleb128 0xe
 2859 053d BB030000 		.4byte	.LASF49
 2860 0541 01       		.byte	0x1
 2861 0542 FA       		.byte	0xfa
 2862 0543 A2000000 		.4byte	0xa2
 2863 0547 5B060000 		.4byte	.LLST25
 2864 054b 0E       		.uleb128 0xe
 2865 054c 22000000 		.4byte	.LASF62
 2866 0550 01       		.byte	0x1
 2867 0551 FB       		.byte	0xfb
 2868 0552 A2000000 		.4byte	0xa2
 2869 0556 90060000 		.4byte	.LLST26
 2870 055a 14       		.uleb128 0x14
 2871 055b 18000000 		.4byte	.LVL118
 2872 055f 06110000 		.4byte	0x1106
 2873 0563 89050000 		.4byte	0x589
 2874 0567 15       		.uleb128 0x15
 2875 0568 01       		.uleb128 0x1
 2876 0569 50       		.byte	0x50
 2877 056a 05       		.uleb128 0x5
 2878 056b 03       		.byte	0x3
 2879 056c 08000000 		.4byte	.LC1
 2880 0570 15       		.uleb128 0x15
 2881 0571 01       		.uleb128 0x1
 2882 0572 51       		.byte	0x51
 2883 0573 02       		.uleb128 0x2
 2884 0574 08       		.byte	0x8
 2885 0575 E9       		.byte	0xe9
 2886 0576 15       		.uleb128 0x15
 2887 0577 01       		.uleb128 0x1
 2888 0578 52       		.byte	0x52
 2889 0579 05       		.uleb128 0x5
 2890 057a 03       		.byte	0x3
 2891 057b 00000000 		.4byte	.LANCHOR0
 2892 057f 15       		.uleb128 0x15
 2893 0580 01       		.uleb128 0x1
 2894 0581 53       		.byte	0x53
 2895 0582 05       		.uleb128 0x5
 2896 0583 03       		.byte	0x3
 2897 0584 00000000 		.4byte	.LC0
 2898 0588 00       		.byte	0
 2899 0589 14       		.uleb128 0x14
 2900 058a 28000000 		.4byte	.LVL121
 2901 058e 6B030000 		.4byte	0x36b
 2902 0592 9D050000 		.4byte	0x59d
 2903 0596 15       		.uleb128 0x15
 2904 0597 01       		.uleb128 0x1
 2905 0598 50       		.byte	0x50
 2906 0599 02       		.uleb128 0x2
 2907 059a 79       		.byte	0x79
 2908 059b 00       		.sleb128 0
 2909 059c 00       		.byte	0
ARM GAS  C:\Users\codyg\AppData\Local\Temp\ccmSWLSY.s 			page 66


 2910 059d 16       		.uleb128 0x16
 2911 059e 30000000 		.4byte	.LVL123
 2912 05a2 0D040000 		.4byte	0x40d
 2913 05a6 15       		.uleb128 0x15
 2914 05a7 01       		.uleb128 0x1
 2915 05a8 50       		.byte	0x50
 2916 05a9 02       		.uleb128 0x2
 2917 05aa 79       		.byte	0x79
 2918 05ab 00       		.sleb128 0
 2919 05ac 00       		.byte	0
 2920 05ad 00       		.byte	0
 2921 05ae 11       		.uleb128 0x11
 2922 05af 04       		.byte	0x4
 2923 05b0 D9000000 		.4byte	0xd9
 2924 05b4 09       		.uleb128 0x9
 2925 05b5 F9000000 		.4byte	0xf9
 2926 05b9 C4050000 		.4byte	0x5c4
 2927 05bd 0A       		.uleb128 0xa
 2928 05be EB000000 		.4byte	0xeb
 2929 05c2 13       		.byte	0x13
 2930 05c3 00       		.byte	0
 2931 05c4 05       		.uleb128 0x5
 2932 05c5 B4050000 		.4byte	0x5b4
 2933 05c9 17       		.uleb128 0x17
 2934 05ca 76010000 		.4byte	.LASF63
 2935 05ce 01       		.byte	0x1
 2936 05cf 1D01     		.2byte	0x11d
 2937 05d1 A2000000 		.4byte	0xa2
 2938 05d5 00000000 		.4byte	.LFB8
 2939 05d9 E0000000 		.4byte	.LFE8-.LFB8
 2940 05dd 01       		.uleb128 0x1
 2941 05de 9C       		.byte	0x9c
 2942 05df D3060000 		.4byte	0x6d3
 2943 05e3 18       		.uleb128 0x18
 2944 05e4 72656D00 		.ascii	"rem\000"
 2945 05e8 01       		.byte	0x1
 2946 05e9 1D01     		.2byte	0x11d
 2947 05eb D3060000 		.4byte	0x6d3
 2948 05ef AE060000 		.4byte	.LLST27
 2949 05f3 18       		.uleb128 0x18
 2950 05f4 656E6300 		.ascii	"enc\000"
 2951 05f8 01       		.byte	0x1
 2952 05f9 1D01     		.2byte	0x11d
 2953 05fb 65030000 		.4byte	0x365
 2954 05ff F3060000 		.4byte	.LLST28
 2955 0603 18       		.uleb128 0x18
 2956 0604 6900     		.ascii	"i\000"
 2957 0606 01       		.byte	0x1
 2958 0607 1D01     		.2byte	0x11d
 2959 0609 AE050000 		.4byte	0x5ae
 2960 060d 38070000 		.4byte	.LLST29
 2961 0611 18       		.uleb128 0x18
 2962 0612 6A00     		.ascii	"j\000"
 2963 0614 01       		.byte	0x1
 2964 0615 1E01     		.2byte	0x11e
 2965 0617 AE050000 		.4byte	0x5ae
 2966 061b 7D070000 		.4byte	.LLST30
ARM GAS  C:\Users\codyg\AppData\Local\Temp\ccmSWLSY.s 			page 67


 2967 061f 13       		.uleb128 0x13
 2968 0620 D4030000 		.4byte	.LASF64
 2969 0624 E9060000 		.4byte	0x6e9
 2970 0628 05       		.uleb128 0x5
 2971 0629 03       		.byte	0x3
 2972 062a 14000000 		.4byte	__func__.5057
 2973 062e 19       		.uleb128 0x19
 2974 062f C5000000 		.4byte	.LASF59
 2975 0633 01       		.byte	0x1
 2976 0634 2101     		.2byte	0x121
 2977 0636 A2000000 		.4byte	0xa2
 2978 063a A9070000 		.4byte	.LLST31
 2979 063e 19       		.uleb128 0x19
 2980 063f BF010000 		.4byte	.LASF60
 2981 0643 01       		.byte	0x1
 2982 0644 2201     		.2byte	0x122
 2983 0646 A2000000 		.4byte	0xa2
 2984 064a DF070000 		.4byte	.LLST32
 2985 064e 19       		.uleb128 0x19
 2986 064f B4010000 		.4byte	.LASF61
 2987 0653 01       		.byte	0x1
 2988 0654 2301     		.2byte	0x123
 2989 0656 A2000000 		.4byte	0xa2
 2990 065a F2070000 		.4byte	.LLST33
 2991 065e 19       		.uleb128 0x19
 2992 065f 22000000 		.4byte	.LASF62
 2993 0663 01       		.byte	0x1
 2994 0664 3001     		.2byte	0x130
 2995 0666 A2000000 		.4byte	0xa2
 2996 066a 10080000 		.4byte	.LLST34
 2997 066e 19       		.uleb128 0x19
 2998 066f BB030000 		.4byte	.LASF49
 2999 0673 01       		.byte	0x1
 3000 0674 3101     		.2byte	0x131
 3001 0676 A2000000 		.4byte	0xa2
 3002 067a 2E080000 		.4byte	.LLST35
 3003 067e 14       		.uleb128 0x14
 3004 067f 1A000000 		.4byte	.LVL145
 3005 0683 06110000 		.4byte	0x1106
 3006 0687 AE060000 		.4byte	0x6ae
 3007 068b 15       		.uleb128 0x15
 3008 068c 01       		.uleb128 0x1
 3009 068d 50       		.byte	0x50
 3010 068e 05       		.uleb128 0x5
 3011 068f 03       		.byte	0x3
 3012 0690 08000000 		.4byte	.LC1
 3013 0694 15       		.uleb128 0x15
 3014 0695 01       		.uleb128 0x1
 3015 0696 51       		.byte	0x51
 3016 0697 03       		.uleb128 0x3
 3017 0698 0A       		.byte	0xa
 3018 0699 1F01     		.2byte	0x11f
 3019 069b 15       		.uleb128 0x15
 3020 069c 01       		.uleb128 0x1
 3021 069d 52       		.byte	0x52
 3022 069e 05       		.uleb128 0x5
 3023 069f 03       		.byte	0x3
ARM GAS  C:\Users\codyg\AppData\Local\Temp\ccmSWLSY.s 			page 68


 3024 06a0 14000000 		.4byte	.LANCHOR0+20
 3025 06a4 15       		.uleb128 0x15
 3026 06a5 01       		.uleb128 0x1
 3027 06a6 53       		.byte	0x53
 3028 06a7 05       		.uleb128 0x5
 3029 06a8 03       		.byte	0x3
 3030 06a9 00000000 		.4byte	.LC0
 3031 06ad 00       		.byte	0
 3032 06ae 14       		.uleb128 0x14
 3033 06af 2A000000 		.4byte	.LVL148
 3034 06b3 A1030000 		.4byte	0x3a1
 3035 06b7 C2060000 		.4byte	0x6c2
 3036 06bb 15       		.uleb128 0x15
 3037 06bc 01       		.uleb128 0x1
 3038 06bd 50       		.byte	0x50
 3039 06be 02       		.uleb128 0x2
 3040 06bf 79       		.byte	0x79
 3041 06c0 00       		.sleb128 0
 3042 06c1 00       		.byte	0
 3043 06c2 16       		.uleb128 0x16
 3044 06c3 32000000 		.4byte	.LVL150
 3045 06c7 43040000 		.4byte	0x443
 3046 06cb 15       		.uleb128 0x15
 3047 06cc 01       		.uleb128 0x1
 3048 06cd 50       		.byte	0x50
 3049 06ce 02       		.uleb128 0x2
 3050 06cf 79       		.byte	0x79
 3051 06d0 00       		.sleb128 0
 3052 06d1 00       		.byte	0
 3053 06d2 00       		.byte	0
 3054 06d3 11       		.uleb128 0x11
 3055 06d4 04       		.byte	0x4
 3056 06d5 B8000000 		.4byte	0xb8
 3057 06d9 09       		.uleb128 0x9
 3058 06da F9000000 		.4byte	0xf9
 3059 06de E9060000 		.4byte	0x6e9
 3060 06e2 0A       		.uleb128 0xa
 3061 06e3 EB000000 		.4byte	0xeb
 3062 06e7 14       		.byte	0x14
 3063 06e8 00       		.byte	0
 3064 06e9 05       		.uleb128 0x5
 3065 06ea D9060000 		.4byte	0x6d9
 3066 06ee 17       		.uleb128 0x17
 3067 06ef A6030000 		.4byte	.LASF65
 3068 06f3 01       		.byte	0x1
 3069 06f4 5301     		.2byte	0x153
 3070 06f6 A2000000 		.4byte	0xa2
 3071 06fa 00000000 		.4byte	.LFB9
 3072 06fe DC000000 		.4byte	.LFE9-.LFB9
 3073 0702 01       		.uleb128 0x1
 3074 0703 9C       		.byte	0x9c
 3075 0704 F8070000 		.4byte	0x7f8
 3076 0708 18       		.uleb128 0x18
 3077 0709 72656D00 		.ascii	"rem\000"
 3078 070d 01       		.byte	0x1
 3079 070e 5301     		.2byte	0x153
 3080 0710 F8070000 		.4byte	0x7f8
ARM GAS  C:\Users\codyg\AppData\Local\Temp\ccmSWLSY.s 			page 69


 3081 0714 63080000 		.4byte	.LLST36
 3082 0718 18       		.uleb128 0x18
 3083 0719 656E6300 		.ascii	"enc\000"
 3084 071d 01       		.byte	0x1
 3085 071e 5301     		.2byte	0x153
 3086 0720 65030000 		.4byte	0x365
 3087 0724 A8080000 		.4byte	.LLST37
 3088 0728 18       		.uleb128 0x18
 3089 0729 6900     		.ascii	"i\000"
 3090 072b 01       		.byte	0x1
 3091 072c 5301     		.2byte	0x153
 3092 072e AE050000 		.4byte	0x5ae
 3093 0732 ED080000 		.4byte	.LLST38
 3094 0736 18       		.uleb128 0x18
 3095 0737 6A00     		.ascii	"j\000"
 3096 0739 01       		.byte	0x1
 3097 073a 5401     		.2byte	0x154
 3098 073c AE050000 		.4byte	0x5ae
 3099 0740 32090000 		.4byte	.LLST39
 3100 0744 13       		.uleb128 0x13
 3101 0745 D4030000 		.4byte	.LASF64
 3102 0749 FE070000 		.4byte	0x7fe
 3103 074d 05       		.uleb128 0x5
 3104 074e 03       		.byte	0x3
 3105 074f 2C000000 		.4byte	__func__.5069
 3106 0753 19       		.uleb128 0x19
 3107 0754 C5000000 		.4byte	.LASF59
 3108 0758 01       		.byte	0x1
 3109 0759 5701     		.2byte	0x157
 3110 075b A2000000 		.4byte	0xa2
 3111 075f 5E090000 		.4byte	.LLST40
 3112 0763 19       		.uleb128 0x19
 3113 0764 BF010000 		.4byte	.LASF60
 3114 0768 01       		.byte	0x1
 3115 0769 5801     		.2byte	0x158
 3116 076b A2000000 		.4byte	0xa2
 3117 076f 96090000 		.4byte	.LLST41
 3118 0773 19       		.uleb128 0x19
 3119 0774 B4010000 		.4byte	.LASF61
 3120 0778 01       		.byte	0x1
 3121 0779 5901     		.2byte	0x159
 3122 077b A2000000 		.4byte	0xa2
 3123 077f A9090000 		.4byte	.LLST42
 3124 0783 19       		.uleb128 0x19
 3125 0784 22000000 		.4byte	.LASF62
 3126 0788 01       		.byte	0x1
 3127 0789 6601     		.2byte	0x166
 3128 078b A2000000 		.4byte	0xa2
 3129 078f C7090000 		.4byte	.LLST43
 3130 0793 19       		.uleb128 0x19
 3131 0794 BB030000 		.4byte	.LASF49
 3132 0798 01       		.byte	0x1
 3133 0799 6701     		.2byte	0x167
 3134 079b A2000000 		.4byte	0xa2
 3135 079f E5090000 		.4byte	.LLST44
 3136 07a3 14       		.uleb128 0x14
 3137 07a4 1A000000 		.4byte	.LVL172
ARM GAS  C:\Users\codyg\AppData\Local\Temp\ccmSWLSY.s 			page 70


 3138 07a8 06110000 		.4byte	0x1106
 3139 07ac D3070000 		.4byte	0x7d3
 3140 07b0 15       		.uleb128 0x15
 3141 07b1 01       		.uleb128 0x1
 3142 07b2 50       		.byte	0x50
 3143 07b3 05       		.uleb128 0x5
 3144 07b4 03       		.byte	0x3
 3145 07b5 08000000 		.4byte	.LC1
 3146 07b9 15       		.uleb128 0x15
 3147 07ba 01       		.uleb128 0x1
 3148 07bb 51       		.byte	0x51
 3149 07bc 03       		.uleb128 0x3
 3150 07bd 0A       		.byte	0xa
 3151 07be 5501     		.2byte	0x155
 3152 07c0 15       		.uleb128 0x15
 3153 07c1 01       		.uleb128 0x1
 3154 07c2 52       		.byte	0x52
 3155 07c3 05       		.uleb128 0x5
 3156 07c4 03       		.byte	0x3
 3157 07c5 2C000000 		.4byte	.LANCHOR0+44
 3158 07c9 15       		.uleb128 0x15
 3159 07ca 01       		.uleb128 0x1
 3160 07cb 53       		.byte	0x53
 3161 07cc 05       		.uleb128 0x5
 3162 07cd 03       		.byte	0x3
 3163 07ce 00000000 		.4byte	.LC0
 3164 07d2 00       		.byte	0
 3165 07d3 14       		.uleb128 0x14
 3166 07d4 2A000000 		.4byte	.LVL175
 3167 07d8 D7030000 		.4byte	0x3d7
 3168 07dc E7070000 		.4byte	0x7e7
 3169 07e0 15       		.uleb128 0x15
 3170 07e1 01       		.uleb128 0x1
 3171 07e2 50       		.byte	0x50
 3172 07e3 02       		.uleb128 0x2
 3173 07e4 79       		.byte	0x79
 3174 07e5 00       		.sleb128 0
 3175 07e6 00       		.byte	0
 3176 07e7 16       		.uleb128 0x16
 3177 07e8 32000000 		.4byte	.LVL177
 3178 07ec 79040000 		.4byte	0x479
 3179 07f0 15       		.uleb128 0x15
 3180 07f1 01       		.uleb128 0x1
 3181 07f2 50       		.byte	0x50
 3182 07f3 02       		.uleb128 0x2
 3183 07f4 79       		.byte	0x79
 3184 07f5 00       		.sleb128 0
 3185 07f6 00       		.byte	0
 3186 07f7 00       		.byte	0
 3187 07f8 11       		.uleb128 0x11
 3188 07f9 04       		.byte	0x4
 3189 07fa CE000000 		.4byte	0xce
 3190 07fe 05       		.uleb128 0x5
 3191 07ff D9060000 		.4byte	0x6d9
 3192 0803 1A       		.uleb128 0x1a
 3193 0804 89040000 		.4byte	.LASF66
 3194 0808 01       		.byte	0x1
ARM GAS  C:\Users\codyg\AppData\Local\Temp\ccmSWLSY.s 			page 71


 3195 0809 8801     		.2byte	0x188
 3196 080b 00000000 		.4byte	.LFB10
 3197 080f 94000000 		.4byte	.LFE10-.LFB10
 3198 0813 01       		.uleb128 0x1
 3199 0814 9C       		.byte	0x9c
 3200 0815 F4080000 		.4byte	0x8f4
 3201 0819 1B       		.uleb128 0x1b
 3202 081a 5E010000 		.4byte	.LASF52
 3203 081e 01       		.byte	0x1
 3204 081f 8801     		.2byte	0x188
 3205 0821 A2000000 		.4byte	0xa2
 3206 0825 1A0A0000 		.4byte	.LLST45
 3207 0829 18       		.uleb128 0x18
 3208 082a 656E6300 		.ascii	"enc\000"
 3209 082e 01       		.byte	0x1
 3210 082f 8801     		.2byte	0x188
 3211 0831 65030000 		.4byte	0x365
 3212 0835 540A0000 		.4byte	.LLST46
 3213 0839 18       		.uleb128 0x18
 3214 083a 6900     		.ascii	"i\000"
 3215 083c 01       		.byte	0x1
 3216 083d 8801     		.2byte	0x188
 3217 083f AE050000 		.4byte	0x5ae
 3218 0843 990A0000 		.4byte	.LLST47
 3219 0847 18       		.uleb128 0x18
 3220 0848 6A00     		.ascii	"j\000"
 3221 084a 01       		.byte	0x1
 3222 084b 8801     		.2byte	0x188
 3223 084d AE050000 		.4byte	0x5ae
 3224 0851 DE0A0000 		.4byte	.LLST48
 3225 0855 13       		.uleb128 0x13
 3226 0856 D4030000 		.4byte	.LASF64
 3227 085a 04090000 		.4byte	0x904
 3228 085e 05       		.uleb128 0x5
 3229 085f 03       		.byte	0x3
 3230 0860 44000000 		.4byte	__func__.5081
 3231 0864 1C       		.uleb128 0x1c
 3232 0865 72656D00 		.ascii	"rem\000"
 3233 0869 01       		.byte	0x1
 3234 086a 8B01     		.2byte	0x18b
 3235 086c A2000000 		.4byte	0xa2
 3236 0870 02       		.uleb128 0x2
 3237 0871 91       		.byte	0x91
 3238 0872 67       		.sleb128 -25
 3239 0873 19       		.uleb128 0x19
 3240 0874 22000000 		.4byte	.LASF62
 3241 0878 01       		.byte	0x1
 3242 0879 8C01     		.2byte	0x18c
 3243 087b A2000000 		.4byte	0xa2
 3244 087f 0A0B0000 		.4byte	.LLST49
 3245 0883 1D       		.uleb128 0x1d
 3246 0884 2E000000 		.4byte	.LBB3
 3247 0888 52000000 		.4byte	.LBE3-.LBB3
 3248 088c A1080000 		.4byte	0x8a1
 3249 0890 19       		.uleb128 0x19
 3250 0891 BB030000 		.4byte	.LASF49
 3251 0895 01       		.byte	0x1
ARM GAS  C:\Users\codyg\AppData\Local\Temp\ccmSWLSY.s 			page 72


 3252 0896 8F01     		.2byte	0x18f
 3253 0898 A2000000 		.4byte	0xa2
 3254 089c 3F0B0000 		.4byte	.LLST50
 3255 08a0 00       		.byte	0
 3256 08a1 14       		.uleb128 0x14
 3257 08a2 1A000000 		.4byte	.LVL199
 3258 08a6 06110000 		.4byte	0x1106
 3259 08aa D1080000 		.4byte	0x8d1
 3260 08ae 15       		.uleb128 0x15
 3261 08af 01       		.uleb128 0x1
 3262 08b0 50       		.byte	0x50
 3263 08b1 05       		.uleb128 0x5
 3264 08b2 03       		.byte	0x3
 3265 08b3 08000000 		.4byte	.LC1
 3266 08b7 15       		.uleb128 0x15
 3267 08b8 01       		.uleb128 0x1
 3268 08b9 51       		.byte	0x51
 3269 08ba 03       		.uleb128 0x3
 3270 08bb 0A       		.byte	0xa
 3271 08bc 8901     		.2byte	0x189
 3272 08be 15       		.uleb128 0x15
 3273 08bf 01       		.uleb128 0x1
 3274 08c0 52       		.byte	0x52
 3275 08c1 05       		.uleb128 0x5
 3276 08c2 03       		.byte	0x3
 3277 08c3 44000000 		.4byte	.LANCHOR0+68
 3278 08c7 15       		.uleb128 0x15
 3279 08c8 01       		.uleb128 0x1
 3280 08c9 53       		.byte	0x53
 3281 08ca 05       		.uleb128 0x5
 3282 08cb 03       		.byte	0x3
 3283 08cc 00000000 		.4byte	.LC0
 3284 08d0 00       		.byte	0
 3285 08d1 16       		.uleb128 0x16
 3286 08d2 2C000000 		.4byte	.LVL201
 3287 08d6 AF040000 		.4byte	0x4af
 3288 08da 15       		.uleb128 0x15
 3289 08db 01       		.uleb128 0x1
 3290 08dc 50       		.byte	0x50
 3291 08dd 02       		.uleb128 0x2
 3292 08de 91       		.byte	0x91
 3293 08df 67       		.sleb128 -25
 3294 08e0 15       		.uleb128 0x15
 3295 08e1 01       		.uleb128 0x1
 3296 08e2 51       		.byte	0x51
 3297 08e3 02       		.uleb128 0x2
 3298 08e4 75       		.byte	0x75
 3299 08e5 00       		.sleb128 0
 3300 08e6 15       		.uleb128 0x15
 3301 08e7 01       		.uleb128 0x1
 3302 08e8 52       		.byte	0x52
 3303 08e9 02       		.uleb128 0x2
 3304 08ea 76       		.byte	0x76
 3305 08eb 00       		.sleb128 0
 3306 08ec 15       		.uleb128 0x15
 3307 08ed 01       		.uleb128 0x1
 3308 08ee 53       		.byte	0x53
ARM GAS  C:\Users\codyg\AppData\Local\Temp\ccmSWLSY.s 			page 73


 3309 08ef 02       		.uleb128 0x2
 3310 08f0 74       		.byte	0x74
 3311 08f1 00       		.sleb128 0
 3312 08f2 00       		.byte	0
 3313 08f3 00       		.byte	0
 3314 08f4 09       		.uleb128 0x9
 3315 08f5 F9000000 		.4byte	0xf9
 3316 08f9 04090000 		.4byte	0x904
 3317 08fd 0A       		.uleb128 0xa
 3318 08fe EB000000 		.4byte	0xeb
 3319 0902 0C       		.byte	0xc
 3320 0903 00       		.byte	0
 3321 0904 05       		.uleb128 0x5
 3322 0905 F4080000 		.4byte	0x8f4
 3323 0909 1A       		.uleb128 0x1a
 3324 090a 72030000 		.4byte	.LASF67
 3325 090e 01       		.byte	0x1
 3326 090f A601     		.2byte	0x1a6
 3327 0911 00000000 		.4byte	.LFB11
 3328 0915 98000000 		.4byte	.LFE11-.LFB11
 3329 0919 01       		.uleb128 0x1
 3330 091a 9C       		.byte	0x9c
 3331 091b FA090000 		.4byte	0x9fa
 3332 091f 1B       		.uleb128 0x1b
 3333 0920 5E010000 		.4byte	.LASF52
 3334 0924 01       		.byte	0x1
 3335 0925 A601     		.2byte	0x1a6
 3336 0927 B8000000 		.4byte	0xb8
 3337 092b 520B0000 		.4byte	.LLST51
 3338 092f 18       		.uleb128 0x18
 3339 0930 656E6300 		.ascii	"enc\000"
 3340 0934 01       		.byte	0x1
 3341 0935 A601     		.2byte	0x1a6
 3342 0937 65030000 		.4byte	0x365
 3343 093b 8C0B0000 		.4byte	.LLST52
 3344 093f 18       		.uleb128 0x18
 3345 0940 6900     		.ascii	"i\000"
 3346 0942 01       		.byte	0x1
 3347 0943 A601     		.2byte	0x1a6
 3348 0945 AE050000 		.4byte	0x5ae
 3349 0949 D10B0000 		.4byte	.LLST53
 3350 094d 18       		.uleb128 0x18
 3351 094e 6A00     		.ascii	"j\000"
 3352 0950 01       		.byte	0x1
 3353 0951 A601     		.2byte	0x1a6
 3354 0953 AE050000 		.4byte	0x5ae
 3355 0957 160C0000 		.4byte	.LLST54
 3356 095b 13       		.uleb128 0x13
 3357 095c D4030000 		.4byte	.LASF64
 3358 0960 0A0A0000 		.4byte	0xa0a
 3359 0964 05       		.uleb128 0x5
 3360 0965 03       		.byte	0x3
 3361 0966 54000000 		.4byte	__func__.5094
 3362 096a 1C       		.uleb128 0x1c
 3363 096b 72656D00 		.ascii	"rem\000"
 3364 096f 01       		.byte	0x1
 3365 0970 A901     		.2byte	0x1a9
ARM GAS  C:\Users\codyg\AppData\Local\Temp\ccmSWLSY.s 			page 74


 3366 0972 B8000000 		.4byte	0xb8
 3367 0976 02       		.uleb128 0x2
 3368 0977 91       		.byte	0x91
 3369 0978 66       		.sleb128 -26
 3370 0979 19       		.uleb128 0x19
 3371 097a 22000000 		.4byte	.LASF62
 3372 097e 01       		.byte	0x1
 3373 097f AA01     		.2byte	0x1aa
 3374 0981 A2000000 		.4byte	0xa2
 3375 0985 420C0000 		.4byte	.LLST55
 3376 0989 1D       		.uleb128 0x1d
 3377 098a 2E000000 		.4byte	.LBB4
 3378 098e 54000000 		.4byte	.LBE4-.LBB4
 3379 0992 A7090000 		.4byte	0x9a7
 3380 0996 19       		.uleb128 0x19
 3381 0997 BB030000 		.4byte	.LASF49
 3382 099b 01       		.byte	0x1
 3383 099c AD01     		.2byte	0x1ad
 3384 099e A2000000 		.4byte	0xa2
 3385 09a2 770C0000 		.4byte	.LLST56
 3386 09a6 00       		.byte	0
 3387 09a7 14       		.uleb128 0x14
 3388 09a8 1A000000 		.4byte	.LVL215
 3389 09ac 06110000 		.4byte	0x1106
 3390 09b0 D7090000 		.4byte	0x9d7
 3391 09b4 15       		.uleb128 0x15
 3392 09b5 01       		.uleb128 0x1
 3393 09b6 50       		.byte	0x50
 3394 09b7 05       		.uleb128 0x5
 3395 09b8 03       		.byte	0x3
 3396 09b9 08000000 		.4byte	.LC1
 3397 09bd 15       		.uleb128 0x15
 3398 09be 01       		.uleb128 0x1
 3399 09bf 51       		.byte	0x51
 3400 09c0 03       		.uleb128 0x3
 3401 09c1 0A       		.byte	0xa
 3402 09c2 A701     		.2byte	0x1a7
 3403 09c4 15       		.uleb128 0x15
 3404 09c5 01       		.uleb128 0x1
 3405 09c6 52       		.byte	0x52
 3406 09c7 05       		.uleb128 0x5
 3407 09c8 03       		.byte	0x3
 3408 09c9 54000000 		.4byte	.LANCHOR0+84
 3409 09cd 15       		.uleb128 0x15
 3410 09ce 01       		.uleb128 0x1
 3411 09cf 53       		.byte	0x53
 3412 09d0 05       		.uleb128 0x5
 3413 09d1 03       		.byte	0x3
 3414 09d2 00000000 		.4byte	.LC0
 3415 09d6 00       		.byte	0
 3416 09d7 16       		.uleb128 0x16
 3417 09d8 2C000000 		.4byte	.LVL217
 3418 09dc C9050000 		.4byte	0x5c9
 3419 09e0 15       		.uleb128 0x15
 3420 09e1 01       		.uleb128 0x1
 3421 09e2 50       		.byte	0x50
 3422 09e3 02       		.uleb128 0x2
ARM GAS  C:\Users\codyg\AppData\Local\Temp\ccmSWLSY.s 			page 75


 3423 09e4 91       		.byte	0x91
 3424 09e5 66       		.sleb128 -26
 3425 09e6 15       		.uleb128 0x15
 3426 09e7 01       		.uleb128 0x1
 3427 09e8 51       		.byte	0x51
 3428 09e9 02       		.uleb128 0x2
 3429 09ea 75       		.byte	0x75
 3430 09eb 00       		.sleb128 0
 3431 09ec 15       		.uleb128 0x15
 3432 09ed 01       		.uleb128 0x1
 3433 09ee 52       		.byte	0x52
 3434 09ef 02       		.uleb128 0x2
 3435 09f0 76       		.byte	0x76
 3436 09f1 00       		.sleb128 0
 3437 09f2 15       		.uleb128 0x15
 3438 09f3 01       		.uleb128 0x1
 3439 09f4 53       		.byte	0x53
 3440 09f5 02       		.uleb128 0x2
 3441 09f6 74       		.byte	0x74
 3442 09f7 00       		.sleb128 0
 3443 09f8 00       		.byte	0
 3444 09f9 00       		.byte	0
 3445 09fa 09       		.uleb128 0x9
 3446 09fb F9000000 		.4byte	0xf9
 3447 09ff 0A0A0000 		.4byte	0xa0a
 3448 0a03 0A       		.uleb128 0xa
 3449 0a04 EB000000 		.4byte	0xeb
 3450 0a08 0D       		.byte	0xd
 3451 0a09 00       		.byte	0
 3452 0a0a 05       		.uleb128 0x5
 3453 0a0b FA090000 		.4byte	0x9fa
 3454 0a0f 1A       		.uleb128 0x1a
 3455 0a10 14000000 		.4byte	.LASF68
 3456 0a14 01       		.byte	0x1
 3457 0a15 C401     		.2byte	0x1c4
 3458 0a17 00000000 		.4byte	.LFB12
 3459 0a1b 90000000 		.4byte	.LFE12-.LFB12
 3460 0a1f 01       		.uleb128 0x1
 3461 0a20 9C       		.byte	0x9c
 3462 0a21 000B0000 		.4byte	0xb00
 3463 0a25 1B       		.uleb128 0x1b
 3464 0a26 5E010000 		.4byte	.LASF52
 3465 0a2a 01       		.byte	0x1
 3466 0a2b C401     		.2byte	0x1c4
 3467 0a2d CE000000 		.4byte	0xce
 3468 0a31 8A0C0000 		.4byte	.LLST57
 3469 0a35 18       		.uleb128 0x18
 3470 0a36 656E6300 		.ascii	"enc\000"
 3471 0a3a 01       		.byte	0x1
 3472 0a3b C401     		.2byte	0x1c4
 3473 0a3d 65030000 		.4byte	0x365
 3474 0a41 CF0C0000 		.4byte	.LLST58
 3475 0a45 18       		.uleb128 0x18
 3476 0a46 6900     		.ascii	"i\000"
 3477 0a48 01       		.byte	0x1
 3478 0a49 C401     		.2byte	0x1c4
 3479 0a4b AE050000 		.4byte	0x5ae
ARM GAS  C:\Users\codyg\AppData\Local\Temp\ccmSWLSY.s 			page 76


 3480 0a4f 140D0000 		.4byte	.LLST59
 3481 0a53 18       		.uleb128 0x18
 3482 0a54 6A00     		.ascii	"j\000"
 3483 0a56 01       		.byte	0x1
 3484 0a57 C401     		.2byte	0x1c4
 3485 0a59 AE050000 		.4byte	0x5ae
 3486 0a5d 590D0000 		.4byte	.LLST60
 3487 0a61 13       		.uleb128 0x13
 3488 0a62 D4030000 		.4byte	.LASF64
 3489 0a66 000B0000 		.4byte	0xb00
 3490 0a6a 05       		.uleb128 0x5
 3491 0a6b 03       		.byte	0x3
 3492 0a6c 64000000 		.4byte	__func__.5107
 3493 0a70 1C       		.uleb128 0x1c
 3494 0a71 72656D00 		.ascii	"rem\000"
 3495 0a75 01       		.byte	0x1
 3496 0a76 C701     		.2byte	0x1c7
 3497 0a78 CE000000 		.4byte	0xce
 3498 0a7c 02       		.uleb128 0x2
 3499 0a7d 91       		.byte	0x91
 3500 0a7e 64       		.sleb128 -28
 3501 0a7f 19       		.uleb128 0x19
 3502 0a80 22000000 		.4byte	.LASF62
 3503 0a84 01       		.byte	0x1
 3504 0a85 C801     		.2byte	0x1c8
 3505 0a87 A2000000 		.4byte	0xa2
 3506 0a8b 850D0000 		.4byte	.LLST61
 3507 0a8f 1D       		.uleb128 0x1d
 3508 0a90 2E000000 		.4byte	.LBB5
 3509 0a94 4E000000 		.4byte	.LBE5-.LBB5
 3510 0a98 AD0A0000 		.4byte	0xaad
 3511 0a9c 19       		.uleb128 0x19
 3512 0a9d BB030000 		.4byte	.LASF49
 3513 0aa1 01       		.byte	0x1
 3514 0aa2 CB01     		.2byte	0x1cb
 3515 0aa4 A2000000 		.4byte	0xa2
 3516 0aa8 BA0D0000 		.4byte	.LLST62
 3517 0aac 00       		.byte	0
 3518 0aad 14       		.uleb128 0x14
 3519 0aae 1A000000 		.4byte	.LVL231
 3520 0ab2 06110000 		.4byte	0x1106
 3521 0ab6 DD0A0000 		.4byte	0xadd
 3522 0aba 15       		.uleb128 0x15
 3523 0abb 01       		.uleb128 0x1
 3524 0abc 50       		.byte	0x50
 3525 0abd 05       		.uleb128 0x5
 3526 0abe 03       		.byte	0x3
 3527 0abf 08000000 		.4byte	.LC1
 3528 0ac3 15       		.uleb128 0x15
 3529 0ac4 01       		.uleb128 0x1
 3530 0ac5 51       		.byte	0x51
 3531 0ac6 03       		.uleb128 0x3
 3532 0ac7 0A       		.byte	0xa
 3533 0ac8 C501     		.2byte	0x1c5
 3534 0aca 15       		.uleb128 0x15
 3535 0acb 01       		.uleb128 0x1
 3536 0acc 52       		.byte	0x52
ARM GAS  C:\Users\codyg\AppData\Local\Temp\ccmSWLSY.s 			page 77


 3537 0acd 05       		.uleb128 0x5
 3538 0ace 03       		.byte	0x3
 3539 0acf 64000000 		.4byte	.LANCHOR0+100
 3540 0ad3 15       		.uleb128 0x15
 3541 0ad4 01       		.uleb128 0x1
 3542 0ad5 53       		.byte	0x53
 3543 0ad6 05       		.uleb128 0x5
 3544 0ad7 03       		.byte	0x3
 3545 0ad8 00000000 		.4byte	.LC0
 3546 0adc 00       		.byte	0
 3547 0add 16       		.uleb128 0x16
 3548 0ade 2C000000 		.4byte	.LVL233
 3549 0ae2 EE060000 		.4byte	0x6ee
 3550 0ae6 15       		.uleb128 0x15
 3551 0ae7 01       		.uleb128 0x1
 3552 0ae8 50       		.byte	0x50
 3553 0ae9 02       		.uleb128 0x2
 3554 0aea 91       		.byte	0x91
 3555 0aeb 64       		.sleb128 -28
 3556 0aec 15       		.uleb128 0x15
 3557 0aed 01       		.uleb128 0x1
 3558 0aee 51       		.byte	0x51
 3559 0aef 02       		.uleb128 0x2
 3560 0af0 75       		.byte	0x75
 3561 0af1 00       		.sleb128 0
 3562 0af2 15       		.uleb128 0x15
 3563 0af3 01       		.uleb128 0x1
 3564 0af4 52       		.byte	0x52
 3565 0af5 02       		.uleb128 0x2
 3566 0af6 76       		.byte	0x76
 3567 0af7 00       		.sleb128 0
 3568 0af8 15       		.uleb128 0x15
 3569 0af9 01       		.uleb128 0x1
 3570 0afa 53       		.byte	0x53
 3571 0afb 02       		.uleb128 0x2
 3572 0afc 74       		.byte	0x74
 3573 0afd 00       		.sleb128 0
 3574 0afe 00       		.byte	0
 3575 0aff 00       		.byte	0
 3576 0b00 05       		.uleb128 0x5
 3577 0b01 FA090000 		.4byte	0x9fa
 3578 0b05 17       		.uleb128 0x17
 3579 0b06 11010000 		.4byte	.LASF69
 3580 0b0a 01       		.byte	0x1
 3581 0b0b E201     		.2byte	0x1e2
 3582 0b0d D9000000 		.4byte	0xd9
 3583 0b11 00000000 		.4byte	.LFB13
 3584 0b15 AA010000 		.4byte	.LFE13-.LFB13
 3585 0b19 01       		.uleb128 0x1
 3586 0b1a 9C       		.byte	0x9c
 3587 0b1b 6A0E0000 		.4byte	0xe6a
 3588 0b1f 1B       		.uleb128 0x1b
 3589 0b20 5E010000 		.4byte	.LASF52
 3590 0b24 01       		.byte	0x1
 3591 0b25 E201     		.2byte	0x1e2
 3592 0b27 6A0E0000 		.4byte	0xe6a
 3593 0b2b CD0D0000 		.4byte	.LLST63
ARM GAS  C:\Users\codyg\AppData\Local\Temp\ccmSWLSY.s 			page 78


 3594 0b2f 18       		.uleb128 0x18
 3595 0b30 656E6300 		.ascii	"enc\000"
 3596 0b34 01       		.byte	0x1
 3597 0b35 E201     		.2byte	0x1e2
 3598 0b37 65030000 		.4byte	0x365
 3599 0b3b EB0D0000 		.4byte	.LLST64
 3600 0b3f 1C       		.uleb128 0x1c
 3601 0b40 6900     		.ascii	"i\000"
 3602 0b42 01       		.byte	0x1
 3603 0b43 E301     		.2byte	0x1e3
 3604 0b45 D9000000 		.4byte	0xd9
 3605 0b49 02       		.uleb128 0x2
 3606 0b4a 91       		.byte	0x91
 3607 0b4b 6C       		.sleb128 -20
 3608 0b4c 1C       		.uleb128 0x1c
 3609 0b4d 6A00     		.ascii	"j\000"
 3610 0b4f 01       		.byte	0x1
 3611 0b50 E401     		.2byte	0x1e4
 3612 0b52 D9000000 		.4byte	0xd9
 3613 0b56 02       		.uleb128 0x2
 3614 0b57 91       		.byte	0x91
 3615 0b58 68       		.sleb128 -24
 3616 0b59 14       		.uleb128 0x14
 3617 0b5a 34000000 		.4byte	.LVL245
 3618 0b5e 0F0A0000 		.4byte	0xa0f
 3619 0b62 790B0000 		.4byte	0xb79
 3620 0b66 15       		.uleb128 0x15
 3621 0b67 01       		.uleb128 0x1
 3622 0b68 51       		.byte	0x51
 3623 0b69 02       		.uleb128 0x2
 3624 0b6a 75       		.byte	0x75
 3625 0b6b 00       		.sleb128 0
 3626 0b6c 15       		.uleb128 0x15
 3627 0b6d 01       		.uleb128 0x1
 3628 0b6e 52       		.byte	0x52
 3629 0b6f 02       		.uleb128 0x2
 3630 0b70 91       		.byte	0x91
 3631 0b71 6C       		.sleb128 -20
 3632 0b72 15       		.uleb128 0x15
 3633 0b73 01       		.uleb128 0x1
 3634 0b74 53       		.byte	0x53
 3635 0b75 02       		.uleb128 0x2
 3636 0b76 7D       		.byte	0x7d
 3637 0b77 00       		.sleb128 0
 3638 0b78 00       		.byte	0
 3639 0b79 14       		.uleb128 0x14
 3640 0b7a 40000000 		.4byte	.LVL246
 3641 0b7e 03080000 		.4byte	0x803
 3642 0b82 990B0000 		.4byte	0xb99
 3643 0b86 15       		.uleb128 0x15
 3644 0b87 01       		.uleb128 0x1
 3645 0b88 51       		.byte	0x51
 3646 0b89 02       		.uleb128 0x2
 3647 0b8a 75       		.byte	0x75
 3648 0b8b 00       		.sleb128 0
 3649 0b8c 15       		.uleb128 0x15
 3650 0b8d 01       		.uleb128 0x1
ARM GAS  C:\Users\codyg\AppData\Local\Temp\ccmSWLSY.s 			page 79


 3651 0b8e 52       		.byte	0x52
 3652 0b8f 02       		.uleb128 0x2
 3653 0b90 91       		.byte	0x91
 3654 0b91 6C       		.sleb128 -20
 3655 0b92 15       		.uleb128 0x15
 3656 0b93 01       		.uleb128 0x1
 3657 0b94 53       		.byte	0x53
 3658 0b95 02       		.uleb128 0x2
 3659 0b96 7D       		.byte	0x7d
 3660 0b97 00       		.sleb128 0
 3661 0b98 00       		.byte	0
 3662 0b99 14       		.uleb128 0x14
 3663 0b9a 54000000 		.4byte	.LVL247
 3664 0b9e 0F0A0000 		.4byte	0xa0f
 3665 0ba2 B90B0000 		.4byte	0xbb9
 3666 0ba6 15       		.uleb128 0x15
 3667 0ba7 01       		.uleb128 0x1
 3668 0ba8 51       		.byte	0x51
 3669 0ba9 02       		.uleb128 0x2
 3670 0baa 75       		.byte	0x75
 3671 0bab 00       		.sleb128 0
 3672 0bac 15       		.uleb128 0x15
 3673 0bad 01       		.uleb128 0x1
 3674 0bae 52       		.byte	0x52
 3675 0baf 02       		.uleb128 0x2
 3676 0bb0 91       		.byte	0x91
 3677 0bb1 6C       		.sleb128 -20
 3678 0bb2 15       		.uleb128 0x15
 3679 0bb3 01       		.uleb128 0x1
 3680 0bb4 53       		.byte	0x53
 3681 0bb5 02       		.uleb128 0x2
 3682 0bb6 7D       		.byte	0x7d
 3683 0bb7 00       		.sleb128 0
 3684 0bb8 00       		.byte	0
 3685 0bb9 14       		.uleb128 0x14
 3686 0bba 60000000 		.4byte	.LVL248
 3687 0bbe 0F0A0000 		.4byte	0xa0f
 3688 0bc2 D90B0000 		.4byte	0xbd9
 3689 0bc6 15       		.uleb128 0x15
 3690 0bc7 01       		.uleb128 0x1
 3691 0bc8 51       		.byte	0x51
 3692 0bc9 02       		.uleb128 0x2
 3693 0bca 75       		.byte	0x75
 3694 0bcb 00       		.sleb128 0
 3695 0bcc 15       		.uleb128 0x15
 3696 0bcd 01       		.uleb128 0x1
 3697 0bce 52       		.byte	0x52
 3698 0bcf 02       		.uleb128 0x2
 3699 0bd0 91       		.byte	0x91
 3700 0bd1 6C       		.sleb128 -20
 3701 0bd2 15       		.uleb128 0x15
 3702 0bd3 01       		.uleb128 0x1
 3703 0bd4 53       		.byte	0x53
 3704 0bd5 02       		.uleb128 0x2
 3705 0bd6 7D       		.byte	0x7d
 3706 0bd7 00       		.sleb128 0
 3707 0bd8 00       		.byte	0
ARM GAS  C:\Users\codyg\AppData\Local\Temp\ccmSWLSY.s 			page 80


 3708 0bd9 14       		.uleb128 0x14
 3709 0bda 74000000 		.4byte	.LVL249
 3710 0bde 09090000 		.4byte	0x909
 3711 0be2 F90B0000 		.4byte	0xbf9
 3712 0be6 15       		.uleb128 0x15
 3713 0be7 01       		.uleb128 0x1
 3714 0be8 51       		.byte	0x51
 3715 0be9 02       		.uleb128 0x2
 3716 0bea 75       		.byte	0x75
 3717 0beb 00       		.sleb128 0
 3718 0bec 15       		.uleb128 0x15
 3719 0bed 01       		.uleb128 0x1
 3720 0bee 52       		.byte	0x52
 3721 0bef 02       		.uleb128 0x2
 3722 0bf0 91       		.byte	0x91
 3723 0bf1 6C       		.sleb128 -20
 3724 0bf2 15       		.uleb128 0x15
 3725 0bf3 01       		.uleb128 0x1
 3726 0bf4 53       		.byte	0x53
 3727 0bf5 02       		.uleb128 0x2
 3728 0bf6 7D       		.byte	0x7d
 3729 0bf7 00       		.sleb128 0
 3730 0bf8 00       		.byte	0
 3731 0bf9 14       		.uleb128 0x14
 3732 0bfa 88000000 		.4byte	.LVL250
 3733 0bfe 09090000 		.4byte	0x909
 3734 0c02 190C0000 		.4byte	0xc19
 3735 0c06 15       		.uleb128 0x15
 3736 0c07 01       		.uleb128 0x1
 3737 0c08 51       		.byte	0x51
 3738 0c09 02       		.uleb128 0x2
 3739 0c0a 75       		.byte	0x75
 3740 0c0b 00       		.sleb128 0
 3741 0c0c 15       		.uleb128 0x15
 3742 0c0d 01       		.uleb128 0x1
 3743 0c0e 52       		.byte	0x52
 3744 0c0f 02       		.uleb128 0x2
 3745 0c10 91       		.byte	0x91
 3746 0c11 6C       		.sleb128 -20
 3747 0c12 15       		.uleb128 0x15
 3748 0c13 01       		.uleb128 0x1
 3749 0c14 53       		.byte	0x53
 3750 0c15 02       		.uleb128 0x2
 3751 0c16 7D       		.byte	0x7d
 3752 0c17 00       		.sleb128 0
 3753 0c18 00       		.byte	0
 3754 0c19 14       		.uleb128 0x14
 3755 0c1a 9C000000 		.4byte	.LVL251
 3756 0c1e 09090000 		.4byte	0x909
 3757 0c22 390C0000 		.4byte	0xc39
 3758 0c26 15       		.uleb128 0x15
 3759 0c27 01       		.uleb128 0x1
 3760 0c28 51       		.byte	0x51
 3761 0c29 02       		.uleb128 0x2
 3762 0c2a 75       		.byte	0x75
 3763 0c2b 00       		.sleb128 0
 3764 0c2c 15       		.uleb128 0x15
ARM GAS  C:\Users\codyg\AppData\Local\Temp\ccmSWLSY.s 			page 81


 3765 0c2d 01       		.uleb128 0x1
 3766 0c2e 52       		.byte	0x52
 3767 0c2f 02       		.uleb128 0x2
 3768 0c30 91       		.byte	0x91
 3769 0c31 6C       		.sleb128 -20
 3770 0c32 15       		.uleb128 0x15
 3771 0c33 01       		.uleb128 0x1
 3772 0c34 53       		.byte	0x53
 3773 0c35 02       		.uleb128 0x2
 3774 0c36 7D       		.byte	0x7d
 3775 0c37 00       		.sleb128 0
 3776 0c38 00       		.byte	0
 3777 0c39 14       		.uleb128 0x14
 3778 0c3a A8000000 		.4byte	.LVL252
 3779 0c3e 09090000 		.4byte	0x909
 3780 0c42 590C0000 		.4byte	0xc59
 3781 0c46 15       		.uleb128 0x15
 3782 0c47 01       		.uleb128 0x1
 3783 0c48 51       		.byte	0x51
 3784 0c49 02       		.uleb128 0x2
 3785 0c4a 75       		.byte	0x75
 3786 0c4b 00       		.sleb128 0
 3787 0c4c 15       		.uleb128 0x15
 3788 0c4d 01       		.uleb128 0x1
 3789 0c4e 52       		.byte	0x52
 3790 0c4f 02       		.uleb128 0x2
 3791 0c50 91       		.byte	0x91
 3792 0c51 6C       		.sleb128 -20
 3793 0c52 15       		.uleb128 0x15
 3794 0c53 01       		.uleb128 0x1
 3795 0c54 53       		.byte	0x53
 3796 0c55 02       		.uleb128 0x2
 3797 0c56 7D       		.byte	0x7d
 3798 0c57 00       		.sleb128 0
 3799 0c58 00       		.byte	0
 3800 0c59 14       		.uleb128 0x14
 3801 0c5a B4000000 		.4byte	.LVL253
 3802 0c5e 09090000 		.4byte	0x909
 3803 0c62 790C0000 		.4byte	0xc79
 3804 0c66 15       		.uleb128 0x15
 3805 0c67 01       		.uleb128 0x1
 3806 0c68 51       		.byte	0x51
 3807 0c69 02       		.uleb128 0x2
 3808 0c6a 75       		.byte	0x75
 3809 0c6b 00       		.sleb128 0
 3810 0c6c 15       		.uleb128 0x15
 3811 0c6d 01       		.uleb128 0x1
 3812 0c6e 52       		.byte	0x52
 3813 0c6f 02       		.uleb128 0x2
 3814 0c70 91       		.byte	0x91
 3815 0c71 6C       		.sleb128 -20
 3816 0c72 15       		.uleb128 0x15
 3817 0c73 01       		.uleb128 0x1
 3818 0c74 53       		.byte	0x53
 3819 0c75 02       		.uleb128 0x2
 3820 0c76 7D       		.byte	0x7d
 3821 0c77 00       		.sleb128 0
ARM GAS  C:\Users\codyg\AppData\Local\Temp\ccmSWLSY.s 			page 82


 3822 0c78 00       		.byte	0
 3823 0c79 14       		.uleb128 0x14
 3824 0c7a C8000000 		.4byte	.LVL254
 3825 0c7e 09090000 		.4byte	0x909
 3826 0c82 990C0000 		.4byte	0xc99
 3827 0c86 15       		.uleb128 0x15
 3828 0c87 01       		.uleb128 0x1
 3829 0c88 51       		.byte	0x51
 3830 0c89 02       		.uleb128 0x2
 3831 0c8a 75       		.byte	0x75
 3832 0c8b 00       		.sleb128 0
 3833 0c8c 15       		.uleb128 0x15
 3834 0c8d 01       		.uleb128 0x1
 3835 0c8e 52       		.byte	0x52
 3836 0c8f 02       		.uleb128 0x2
 3837 0c90 91       		.byte	0x91
 3838 0c91 6C       		.sleb128 -20
 3839 0c92 15       		.uleb128 0x15
 3840 0c93 01       		.uleb128 0x1
 3841 0c94 53       		.byte	0x53
 3842 0c95 02       		.uleb128 0x2
 3843 0c96 7D       		.byte	0x7d
 3844 0c97 00       		.sleb128 0
 3845 0c98 00       		.byte	0
 3846 0c99 14       		.uleb128 0x14
 3847 0c9a D4000000 		.4byte	.LVL255
 3848 0c9e 09090000 		.4byte	0x909
 3849 0ca2 B90C0000 		.4byte	0xcb9
 3850 0ca6 15       		.uleb128 0x15
 3851 0ca7 01       		.uleb128 0x1
 3852 0ca8 51       		.byte	0x51
 3853 0ca9 02       		.uleb128 0x2
 3854 0caa 75       		.byte	0x75
 3855 0cab 00       		.sleb128 0
 3856 0cac 15       		.uleb128 0x15
 3857 0cad 01       		.uleb128 0x1
 3858 0cae 52       		.byte	0x52
 3859 0caf 02       		.uleb128 0x2
 3860 0cb0 91       		.byte	0x91
 3861 0cb1 6C       		.sleb128 -20
 3862 0cb2 15       		.uleb128 0x15
 3863 0cb3 01       		.uleb128 0x1
 3864 0cb4 53       		.byte	0x53
 3865 0cb5 02       		.uleb128 0x2
 3866 0cb6 7D       		.byte	0x7d
 3867 0cb7 00       		.sleb128 0
 3868 0cb8 00       		.byte	0
 3869 0cb9 14       		.uleb128 0x14
 3870 0cba E0000000 		.4byte	.LVL256
 3871 0cbe 09090000 		.4byte	0x909
 3872 0cc2 D90C0000 		.4byte	0xcd9
 3873 0cc6 15       		.uleb128 0x15
 3874 0cc7 01       		.uleb128 0x1
 3875 0cc8 51       		.byte	0x51
 3876 0cc9 02       		.uleb128 0x2
 3877 0cca 75       		.byte	0x75
 3878 0ccb 00       		.sleb128 0
ARM GAS  C:\Users\codyg\AppData\Local\Temp\ccmSWLSY.s 			page 83


 3879 0ccc 15       		.uleb128 0x15
 3880 0ccd 01       		.uleb128 0x1
 3881 0cce 52       		.byte	0x52
 3882 0ccf 02       		.uleb128 0x2
 3883 0cd0 91       		.byte	0x91
 3884 0cd1 6C       		.sleb128 -20
 3885 0cd2 15       		.uleb128 0x15
 3886 0cd3 01       		.uleb128 0x1
 3887 0cd4 53       		.byte	0x53
 3888 0cd5 02       		.uleb128 0x2
 3889 0cd6 7D       		.byte	0x7d
 3890 0cd7 00       		.sleb128 0
 3891 0cd8 00       		.byte	0
 3892 0cd9 14       		.uleb128 0x14
 3893 0cda F4000000 		.4byte	.LVL257
 3894 0cde 09090000 		.4byte	0x909
 3895 0ce2 F90C0000 		.4byte	0xcf9
 3896 0ce6 15       		.uleb128 0x15
 3897 0ce7 01       		.uleb128 0x1
 3898 0ce8 51       		.byte	0x51
 3899 0ce9 02       		.uleb128 0x2
 3900 0cea 75       		.byte	0x75
 3901 0ceb 00       		.sleb128 0
 3902 0cec 15       		.uleb128 0x15
 3903 0ced 01       		.uleb128 0x1
 3904 0cee 52       		.byte	0x52
 3905 0cef 02       		.uleb128 0x2
 3906 0cf0 91       		.byte	0x91
 3907 0cf1 6C       		.sleb128 -20
 3908 0cf2 15       		.uleb128 0x15
 3909 0cf3 01       		.uleb128 0x1
 3910 0cf4 53       		.byte	0x53
 3911 0cf5 02       		.uleb128 0x2
 3912 0cf6 7D       		.byte	0x7d
 3913 0cf7 00       		.sleb128 0
 3914 0cf8 00       		.byte	0
 3915 0cf9 14       		.uleb128 0x14
 3916 0cfa 00010000 		.4byte	.LVL258
 3917 0cfe 09090000 		.4byte	0x909
 3918 0d02 190D0000 		.4byte	0xd19
 3919 0d06 15       		.uleb128 0x15
 3920 0d07 01       		.uleb128 0x1
 3921 0d08 51       		.byte	0x51
 3922 0d09 02       		.uleb128 0x2
 3923 0d0a 75       		.byte	0x75
 3924 0d0b 00       		.sleb128 0
 3925 0d0c 15       		.uleb128 0x15
 3926 0d0d 01       		.uleb128 0x1
 3927 0d0e 52       		.byte	0x52
 3928 0d0f 02       		.uleb128 0x2
 3929 0d10 91       		.byte	0x91
 3930 0d11 6C       		.sleb128 -20
 3931 0d12 15       		.uleb128 0x15
 3932 0d13 01       		.uleb128 0x1
 3933 0d14 53       		.byte	0x53
 3934 0d15 02       		.uleb128 0x2
 3935 0d16 7D       		.byte	0x7d
ARM GAS  C:\Users\codyg\AppData\Local\Temp\ccmSWLSY.s 			page 84


 3936 0d17 00       		.sleb128 0
 3937 0d18 00       		.byte	0
 3938 0d19 14       		.uleb128 0x14
 3939 0d1a 0C010000 		.4byte	.LVL259
 3940 0d1e 09090000 		.4byte	0x909
 3941 0d22 390D0000 		.4byte	0xd39
 3942 0d26 15       		.uleb128 0x15
 3943 0d27 01       		.uleb128 0x1
 3944 0d28 51       		.byte	0x51
 3945 0d29 02       		.uleb128 0x2
 3946 0d2a 75       		.byte	0x75
 3947 0d2b 00       		.sleb128 0
 3948 0d2c 15       		.uleb128 0x15
 3949 0d2d 01       		.uleb128 0x1
 3950 0d2e 52       		.byte	0x52
 3951 0d2f 02       		.uleb128 0x2
 3952 0d30 91       		.byte	0x91
 3953 0d31 6C       		.sleb128 -20
 3954 0d32 15       		.uleb128 0x15
 3955 0d33 01       		.uleb128 0x1
 3956 0d34 53       		.byte	0x53
 3957 0d35 02       		.uleb128 0x2
 3958 0d36 7D       		.byte	0x7d
 3959 0d37 00       		.sleb128 0
 3960 0d38 00       		.byte	0
 3961 0d39 14       		.uleb128 0x14
 3962 0d3a 20010000 		.4byte	.LVL260
 3963 0d3e 0F0A0000 		.4byte	0xa0f
 3964 0d42 590D0000 		.4byte	0xd59
 3965 0d46 15       		.uleb128 0x15
 3966 0d47 01       		.uleb128 0x1
 3967 0d48 51       		.byte	0x51
 3968 0d49 02       		.uleb128 0x2
 3969 0d4a 75       		.byte	0x75
 3970 0d4b 00       		.sleb128 0
 3971 0d4c 15       		.uleb128 0x15
 3972 0d4d 01       		.uleb128 0x1
 3973 0d4e 52       		.byte	0x52
 3974 0d4f 02       		.uleb128 0x2
 3975 0d50 91       		.byte	0x91
 3976 0d51 6C       		.sleb128 -20
 3977 0d52 15       		.uleb128 0x15
 3978 0d53 01       		.uleb128 0x1
 3979 0d54 53       		.byte	0x53
 3980 0d55 02       		.uleb128 0x2
 3981 0d56 7D       		.byte	0x7d
 3982 0d57 00       		.sleb128 0
 3983 0d58 00       		.byte	0
 3984 0d59 14       		.uleb128 0x14
 3985 0d5a 2C010000 		.4byte	.LVL261
 3986 0d5e 0F0A0000 		.4byte	0xa0f
 3987 0d62 790D0000 		.4byte	0xd79
 3988 0d66 15       		.uleb128 0x15
 3989 0d67 01       		.uleb128 0x1
 3990 0d68 51       		.byte	0x51
 3991 0d69 02       		.uleb128 0x2
 3992 0d6a 75       		.byte	0x75
ARM GAS  C:\Users\codyg\AppData\Local\Temp\ccmSWLSY.s 			page 85


 3993 0d6b 00       		.sleb128 0
 3994 0d6c 15       		.uleb128 0x15
 3995 0d6d 01       		.uleb128 0x1
 3996 0d6e 52       		.byte	0x52
 3997 0d6f 02       		.uleb128 0x2
 3998 0d70 91       		.byte	0x91
 3999 0d71 6C       		.sleb128 -20
 4000 0d72 15       		.uleb128 0x15
 4001 0d73 01       		.uleb128 0x1
 4002 0d74 53       		.byte	0x53
 4003 0d75 02       		.uleb128 0x2
 4004 0d76 7D       		.byte	0x7d
 4005 0d77 00       		.sleb128 0
 4006 0d78 00       		.byte	0
 4007 0d79 14       		.uleb128 0x14
 4008 0d7a 38010000 		.4byte	.LVL262
 4009 0d7e 0F0A0000 		.4byte	0xa0f
 4010 0d82 990D0000 		.4byte	0xd99
 4011 0d86 15       		.uleb128 0x15
 4012 0d87 01       		.uleb128 0x1
 4013 0d88 51       		.byte	0x51
 4014 0d89 02       		.uleb128 0x2
 4015 0d8a 75       		.byte	0x75
 4016 0d8b 00       		.sleb128 0
 4017 0d8c 15       		.uleb128 0x15
 4018 0d8d 01       		.uleb128 0x1
 4019 0d8e 52       		.byte	0x52
 4020 0d8f 02       		.uleb128 0x2
 4021 0d90 91       		.byte	0x91
 4022 0d91 6C       		.sleb128 -20
 4023 0d92 15       		.uleb128 0x15
 4024 0d93 01       		.uleb128 0x1
 4025 0d94 53       		.byte	0x53
 4026 0d95 02       		.uleb128 0x2
 4027 0d96 7D       		.byte	0x7d
 4028 0d97 00       		.sleb128 0
 4029 0d98 00       		.byte	0
 4030 0d99 14       		.uleb128 0x14
 4031 0d9a 44010000 		.4byte	.LVL263
 4032 0d9e 09090000 		.4byte	0x909
 4033 0da2 B90D0000 		.4byte	0xdb9
 4034 0da6 15       		.uleb128 0x15
 4035 0da7 01       		.uleb128 0x1
 4036 0da8 51       		.byte	0x51
 4037 0da9 02       		.uleb128 0x2
 4038 0daa 75       		.byte	0x75
 4039 0dab 00       		.sleb128 0
 4040 0dac 15       		.uleb128 0x15
 4041 0dad 01       		.uleb128 0x1
 4042 0dae 52       		.byte	0x52
 4043 0daf 02       		.uleb128 0x2
 4044 0db0 91       		.byte	0x91
 4045 0db1 6C       		.sleb128 -20
 4046 0db2 15       		.uleb128 0x15
 4047 0db3 01       		.uleb128 0x1
 4048 0db4 53       		.byte	0x53
 4049 0db5 02       		.uleb128 0x2
ARM GAS  C:\Users\codyg\AppData\Local\Temp\ccmSWLSY.s 			page 86


 4050 0db6 7D       		.byte	0x7d
 4051 0db7 00       		.sleb128 0
 4052 0db8 00       		.byte	0
 4053 0db9 14       		.uleb128 0x14
 4054 0dba 50010000 		.4byte	.LVL264
 4055 0dbe 09090000 		.4byte	0x909
 4056 0dc2 D90D0000 		.4byte	0xdd9
 4057 0dc6 15       		.uleb128 0x15
 4058 0dc7 01       		.uleb128 0x1
 4059 0dc8 51       		.byte	0x51
 4060 0dc9 02       		.uleb128 0x2
 4061 0dca 75       		.byte	0x75
 4062 0dcb 00       		.sleb128 0
 4063 0dcc 15       		.uleb128 0x15
 4064 0dcd 01       		.uleb128 0x1
 4065 0dce 52       		.byte	0x52
 4066 0dcf 02       		.uleb128 0x2
 4067 0dd0 91       		.byte	0x91
 4068 0dd1 6C       		.sleb128 -20
 4069 0dd2 15       		.uleb128 0x15
 4070 0dd3 01       		.uleb128 0x1
 4071 0dd4 53       		.byte	0x53
 4072 0dd5 02       		.uleb128 0x2
 4073 0dd6 7D       		.byte	0x7d
 4074 0dd7 00       		.sleb128 0
 4075 0dd8 00       		.byte	0
 4076 0dd9 14       		.uleb128 0x14
 4077 0dda 5E010000 		.4byte	.LVL265
 4078 0dde 03080000 		.4byte	0x803
 4079 0de2 F90D0000 		.4byte	0xdf9
 4080 0de6 15       		.uleb128 0x15
 4081 0de7 01       		.uleb128 0x1
 4082 0de8 51       		.byte	0x51
 4083 0de9 02       		.uleb128 0x2
 4084 0dea 75       		.byte	0x75
 4085 0deb 00       		.sleb128 0
 4086 0dec 15       		.uleb128 0x15
 4087 0ded 01       		.uleb128 0x1
 4088 0dee 52       		.byte	0x52
 4089 0def 02       		.uleb128 0x2
 4090 0df0 91       		.byte	0x91
 4091 0df1 6C       		.sleb128 -20
 4092 0df2 15       		.uleb128 0x15
 4093 0df3 01       		.uleb128 0x1
 4094 0df4 53       		.byte	0x53
 4095 0df5 02       		.uleb128 0x2
 4096 0df6 7D       		.byte	0x7d
 4097 0df7 00       		.sleb128 0
 4098 0df8 00       		.byte	0
 4099 0df9 14       		.uleb128 0x14
 4100 0dfa 6C010000 		.4byte	.LVL266
 4101 0dfe 03080000 		.4byte	0x803
 4102 0e02 190E0000 		.4byte	0xe19
 4103 0e06 15       		.uleb128 0x15
 4104 0e07 01       		.uleb128 0x1
 4105 0e08 51       		.byte	0x51
 4106 0e09 02       		.uleb128 0x2
ARM GAS  C:\Users\codyg\AppData\Local\Temp\ccmSWLSY.s 			page 87


 4107 0e0a 75       		.byte	0x75
 4108 0e0b 00       		.sleb128 0
 4109 0e0c 15       		.uleb128 0x15
 4110 0e0d 01       		.uleb128 0x1
 4111 0e0e 52       		.byte	0x52
 4112 0e0f 02       		.uleb128 0x2
 4113 0e10 91       		.byte	0x91
 4114 0e11 6C       		.sleb128 -20
 4115 0e12 15       		.uleb128 0x15
 4116 0e13 01       		.uleb128 0x1
 4117 0e14 53       		.byte	0x53
 4118 0e15 02       		.uleb128 0x2
 4119 0e16 7D       		.byte	0x7d
 4120 0e17 00       		.sleb128 0
 4121 0e18 00       		.byte	0
 4122 0e19 14       		.uleb128 0x14
 4123 0e1a 78010000 		.4byte	.LVL267
 4124 0e1e 0F0A0000 		.4byte	0xa0f
 4125 0e22 390E0000 		.4byte	0xe39
 4126 0e26 15       		.uleb128 0x15
 4127 0e27 01       		.uleb128 0x1
 4128 0e28 51       		.byte	0x51
 4129 0e29 02       		.uleb128 0x2
 4130 0e2a 75       		.byte	0x75
 4131 0e2b 00       		.sleb128 0
 4132 0e2c 15       		.uleb128 0x15
 4133 0e2d 01       		.uleb128 0x1
 4134 0e2e 52       		.byte	0x52
 4135 0e2f 02       		.uleb128 0x2
 4136 0e30 91       		.byte	0x91
 4137 0e31 6C       		.sleb128 -20
 4138 0e32 15       		.uleb128 0x15
 4139 0e33 01       		.uleb128 0x1
 4140 0e34 53       		.byte	0x53
 4141 0e35 02       		.uleb128 0x2
 4142 0e36 7D       		.byte	0x7d
 4143 0e37 00       		.sleb128 0
 4144 0e38 00       		.byte	0
 4145 0e39 14       		.uleb128 0x14
 4146 0e3a 8E010000 		.4byte	.LVL268
 4147 0e3e 03080000 		.4byte	0x803
 4148 0e42 590E0000 		.4byte	0xe59
 4149 0e46 15       		.uleb128 0x15
 4150 0e47 01       		.uleb128 0x1
 4151 0e48 51       		.byte	0x51
 4152 0e49 02       		.uleb128 0x2
 4153 0e4a 75       		.byte	0x75
 4154 0e4b 00       		.sleb128 0
 4155 0e4c 15       		.uleb128 0x15
 4156 0e4d 01       		.uleb128 0x1
 4157 0e4e 52       		.byte	0x52
 4158 0e4f 02       		.uleb128 0x2
 4159 0e50 91       		.byte	0x91
 4160 0e51 6C       		.sleb128 -20
 4161 0e52 15       		.uleb128 0x15
 4162 0e53 01       		.uleb128 0x1
 4163 0e54 53       		.byte	0x53
ARM GAS  C:\Users\codyg\AppData\Local\Temp\ccmSWLSY.s 			page 88


 4164 0e55 02       		.uleb128 0x2
 4165 0e56 7D       		.byte	0x7d
 4166 0e57 00       		.sleb128 0
 4167 0e58 00       		.byte	0
 4168 0e59 16       		.uleb128 0x16
 4169 0e5a 98010000 		.4byte	.LVL269
 4170 0e5e 11110000 		.4byte	0x1111
 4171 0e62 15       		.uleb128 0x15
 4172 0e63 01       		.uleb128 0x1
 4173 0e64 50       		.byte	0x50
 4174 0e65 02       		.uleb128 0x2
 4175 0e66 75       		.byte	0x75
 4176 0e67 00       		.sleb128 0
 4177 0e68 00       		.byte	0
 4178 0e69 00       		.byte	0
 4179 0e6a 11       		.uleb128 0x11
 4180 0e6b 04       		.byte	0x4
 4181 0e6c 700E0000 		.4byte	0xe70
 4182 0e70 05       		.uleb128 0x5
 4183 0e71 27020000 		.4byte	0x227
 4184 0e75 17       		.uleb128 0x17
 4185 0e76 30010000 		.4byte	.LASF70
 4186 0e7a 01       		.byte	0x1
 4187 0e7b 3B02     		.2byte	0x23b
 4188 0e7d D9000000 		.4byte	0xd9
 4189 0e81 00000000 		.4byte	.LFB14
 4190 0e85 A0010000 		.4byte	.LFE14-.LFB14
 4191 0e89 01       		.uleb128 0x1
 4192 0e8a 9C       		.byte	0x9c
 4193 0e8b 910F0000 		.4byte	0xf91
 4194 0e8f 1B       		.uleb128 0x1b
 4195 0e90 FC030000 		.4byte	.LASF71
 4196 0e94 01       		.byte	0x1
 4197 0e95 3B02     		.2byte	0x23b
 4198 0e97 6A0E0000 		.4byte	0xe6a
 4199 0e9b 090E0000 		.4byte	.LLST65
 4200 0e9f 1B       		.uleb128 0x1b
 4201 0ea0 5E010000 		.4byte	.LASF52
 4202 0ea4 01       		.byte	0x1
 4203 0ea5 3C02     		.2byte	0x23c
 4204 0ea7 6A0E0000 		.4byte	0xe6a
 4205 0eab 5C0E0000 		.4byte	.LLST66
 4206 0eaf 18       		.uleb128 0x18
 4207 0eb0 656E6300 		.ascii	"enc\000"
 4208 0eb4 01       		.byte	0x1
 4209 0eb5 3C02     		.2byte	0x23c
 4210 0eb7 65030000 		.4byte	0x365
 4211 0ebb AF0E0000 		.4byte	.LLST67
 4212 0ebf 13       		.uleb128 0x13
 4213 0ec0 D4030000 		.4byte	.LASF64
 4214 0ec4 A10F0000 		.4byte	0xfa1
 4215 0ec8 05       		.uleb128 0x5
 4216 0ec9 03       		.byte	0x3
 4217 0eca 74000000 		.4byte	__func__.5125
 4218 0ece 1E       		.uleb128 0x1e
 4219 0ecf 6900     		.ascii	"i\000"
 4220 0ed1 01       		.byte	0x1
ARM GAS  C:\Users\codyg\AppData\Local\Temp\ccmSWLSY.s 			page 89


 4221 0ed2 4402     		.2byte	0x244
 4222 0ed4 D9000000 		.4byte	0xd9
 4223 0ed8 DB0E0000 		.4byte	.LLST68
 4224 0edc 19       		.uleb128 0x19
 4225 0edd 83000000 		.4byte	.LASF72
 4226 0ee1 01       		.byte	0x1
 4227 0ee2 5202     		.2byte	0x252
 4228 0ee4 CE000000 		.4byte	0xce
 4229 0ee8 040F0000 		.4byte	.LLST69
 4230 0eec 19       		.uleb128 0x19
 4231 0eed AD040000 		.4byte	.LASF73
 4232 0ef1 01       		.byte	0x1
 4233 0ef2 5302     		.2byte	0x253
 4234 0ef4 C3000000 		.4byte	0xc3
 4235 0ef8 240F0000 		.4byte	.LLST70
 4236 0efc 1F       		.uleb128 0x1f
 4237 0efd 2F000000 		.4byte	.LASF74
 4238 0f01 01       		.byte	0x1
 4239 0f02 5902     		.2byte	0x259
 4240 0f04 27020000 		.4byte	0x227
 4241 0f08 03       		.uleb128 0x3
 4242 0f09 91       		.byte	0x91
 4243 0f0a A87F     		.sleb128 -88
 4244 0f0c 1C       		.uleb128 0x1c
 4245 0f0d 6C656E00 		.ascii	"len\000"
 4246 0f11 01       		.byte	0x1
 4247 0f12 8102     		.2byte	0x281
 4248 0f14 D9000000 		.4byte	0xd9
 4249 0f18 01       		.uleb128 0x1
 4250 0f19 50       		.byte	0x50
 4251 0f1a 14       		.uleb128 0x14
 4252 0f1b 26000000 		.4byte	.LVL274
 4253 0f1f 06110000 		.4byte	0x1106
 4254 0f23 4A0F0000 		.4byte	0xf4a
 4255 0f27 15       		.uleb128 0x15
 4256 0f28 01       		.uleb128 0x1
 4257 0f29 50       		.byte	0x50
 4258 0f2a 05       		.uleb128 0x5
 4259 0f2b 03       		.byte	0x3
 4260 0f2c 08000000 		.4byte	.LC1
 4261 0f30 15       		.uleb128 0x15
 4262 0f31 01       		.uleb128 0x1
 4263 0f32 51       		.byte	0x51
 4264 0f33 03       		.uleb128 0x3
 4265 0f34 0A       		.byte	0xa
 4266 0f35 3F02     		.2byte	0x23f
 4267 0f37 15       		.uleb128 0x15
 4268 0f38 01       		.uleb128 0x1
 4269 0f39 52       		.byte	0x52
 4270 0f3a 05       		.uleb128 0x5
 4271 0f3b 03       		.byte	0x3
 4272 0f3c 74000000 		.4byte	.LANCHOR0+116
 4273 0f40 15       		.uleb128 0x15
 4274 0f41 01       		.uleb128 0x1
 4275 0f42 53       		.byte	0x53
 4276 0f43 05       		.uleb128 0x5
 4277 0f44 03       		.byte	0x3
ARM GAS  C:\Users\codyg\AppData\Local\Temp\ccmSWLSY.s 			page 90


 4278 0f45 14000000 		.4byte	.LC2
 4279 0f49 00       		.byte	0
 4280 0f4a 14       		.uleb128 0x14
 4281 0f4b 4E000000 		.4byte	.LVL278
 4282 0f4f 06110000 		.4byte	0x1106
 4283 0f53 7A0F0000 		.4byte	0xf7a
 4284 0f57 15       		.uleb128 0x15
 4285 0f58 01       		.uleb128 0x1
 4286 0f59 50       		.byte	0x50
 4287 0f5a 05       		.uleb128 0x5
 4288 0f5b 03       		.byte	0x3
 4289 0f5c 08000000 		.4byte	.LC1
 4290 0f60 15       		.uleb128 0x15
 4291 0f61 01       		.uleb128 0x1
 4292 0f62 51       		.byte	0x51
 4293 0f63 03       		.uleb128 0x3
 4294 0f64 0A       		.byte	0xa
 4295 0f65 4902     		.2byte	0x249
 4296 0f67 15       		.uleb128 0x15
 4297 0f68 01       		.uleb128 0x1
 4298 0f69 52       		.byte	0x52
 4299 0f6a 05       		.uleb128 0x5
 4300 0f6b 03       		.byte	0x3
 4301 0f6c 74000000 		.4byte	.LANCHOR0+116
 4302 0f70 15       		.uleb128 0x15
 4303 0f71 01       		.uleb128 0x1
 4304 0f72 53       		.byte	0x53
 4305 0f73 05       		.uleb128 0x5
 4306 0f74 03       		.byte	0x3
 4307 0f75 74000000 		.4byte	.LC3
 4308 0f79 00       		.byte	0
 4309 0f7a 16       		.uleb128 0x16
 4310 0f7b 7E010000 		.4byte	.LVL291
 4311 0f7f 050B0000 		.4byte	0xb05
 4312 0f83 15       		.uleb128 0x15
 4313 0f84 01       		.uleb128 0x1
 4314 0f85 50       		.byte	0x50
 4315 0f86 02       		.uleb128 0x2
 4316 0f87 7D       		.byte	0x7d
 4317 0f88 00       		.sleb128 0
 4318 0f89 15       		.uleb128 0x15
 4319 0f8a 01       		.uleb128 0x1
 4320 0f8b 51       		.byte	0x51
 4321 0f8c 02       		.uleb128 0x2
 4322 0f8d 74       		.byte	0x74
 4323 0f8e 00       		.sleb128 0
 4324 0f8f 00       		.byte	0
 4325 0f90 00       		.byte	0
 4326 0f91 09       		.uleb128 0x9
 4327 0f92 F9000000 		.4byte	0xf9
 4328 0f96 A10F0000 		.4byte	0xfa1
 4329 0f9a 0A       		.uleb128 0xa
 4330 0f9b EB000000 		.4byte	0xeb
 4331 0f9f 12       		.byte	0x12
 4332 0fa0 00       		.byte	0
 4333 0fa1 05       		.uleb128 0x5
 4334 0fa2 910F0000 		.4byte	0xf91
ARM GAS  C:\Users\codyg\AppData\Local\Temp\ccmSWLSY.s 			page 91


 4335 0fa6 17       		.uleb128 0x17
 4336 0fa7 E8010000 		.4byte	.LASF75
 4337 0fab 01       		.byte	0x1
 4338 0fac 9302     		.2byte	0x293
 4339 0fae D9000000 		.4byte	0xd9
 4340 0fb2 00000000 		.4byte	.LFB15
 4341 0fb6 56000000 		.4byte	.LFE15-.LFB15
 4342 0fba 01       		.uleb128 0x1
 4343 0fbb 9C       		.byte	0x9c
 4344 0fbc 4B100000 		.4byte	0x104b
 4345 0fc0 18       		.uleb128 0x18
 4346 0fc1 636D6400 		.ascii	"cmd\000"
 4347 0fc5 01       		.byte	0x1
 4348 0fc6 9302     		.2byte	0x293
 4349 0fc8 4B100000 		.4byte	0x104b
 4350 0fcc 440F0000 		.4byte	.LLST71
 4351 0fd0 18       		.uleb128 0x18
 4352 0fd1 656E6300 		.ascii	"enc\000"
 4353 0fd5 01       		.byte	0x1
 4354 0fd6 9302     		.2byte	0x293
 4355 0fd8 65030000 		.4byte	0x365
 4356 0fdc 620F0000 		.4byte	.LLST72
 4357 0fe0 1C       		.uleb128 0x1c
 4358 0fe1 6900     		.ascii	"i\000"
 4359 0fe3 01       		.byte	0x1
 4360 0fe4 9402     		.2byte	0x294
 4361 0fe6 D9000000 		.4byte	0xd9
 4362 0fea 02       		.uleb128 0x2
 4363 0feb 91       		.byte	0x91
 4364 0fec 6C       		.sleb128 -20
 4365 0fed 1C       		.uleb128 0x1c
 4366 0fee 6A00     		.ascii	"j\000"
 4367 0ff0 01       		.byte	0x1
 4368 0ff1 9502     		.2byte	0x295
 4369 0ff3 D9000000 		.4byte	0xd9
 4370 0ff7 02       		.uleb128 0x2
 4371 0ff8 91       		.byte	0x91
 4372 0ff9 68       		.sleb128 -24
 4373 0ffa 14       		.uleb128 0x14
 4374 0ffb 2E000000 		.4byte	.LVL295
 4375 0fff 0F0A0000 		.4byte	0xa0f
 4376 1003 1A100000 		.4byte	0x101a
 4377 1007 15       		.uleb128 0x15
 4378 1008 01       		.uleb128 0x1
 4379 1009 51       		.byte	0x51
 4380 100a 02       		.uleb128 0x2
 4381 100b 74       		.byte	0x74
 4382 100c 00       		.sleb128 0
 4383 100d 15       		.uleb128 0x15
 4384 100e 01       		.uleb128 0x1
 4385 100f 52       		.byte	0x52
 4386 1010 02       		.uleb128 0x2
 4387 1011 91       		.byte	0x91
 4388 1012 6C       		.sleb128 -20
 4389 1013 15       		.uleb128 0x15
 4390 1014 01       		.uleb128 0x1
 4391 1015 53       		.byte	0x53
ARM GAS  C:\Users\codyg\AppData\Local\Temp\ccmSWLSY.s 			page 92


 4392 1016 02       		.uleb128 0x2
 4393 1017 7D       		.byte	0x7d
 4394 1018 00       		.sleb128 0
 4395 1019 00       		.byte	0
 4396 101a 14       		.uleb128 0x14
 4397 101b 3A000000 		.4byte	.LVL296
 4398 101f 0F0A0000 		.4byte	0xa0f
 4399 1023 3A100000 		.4byte	0x103a
 4400 1027 15       		.uleb128 0x15
 4401 1028 01       		.uleb128 0x1
 4402 1029 51       		.byte	0x51
 4403 102a 02       		.uleb128 0x2
 4404 102b 74       		.byte	0x74
 4405 102c 00       		.sleb128 0
 4406 102d 15       		.uleb128 0x15
 4407 102e 01       		.uleb128 0x1
 4408 102f 52       		.byte	0x52
 4409 1030 02       		.uleb128 0x2
 4410 1031 91       		.byte	0x91
 4411 1032 6C       		.sleb128 -20
 4412 1033 15       		.uleb128 0x15
 4413 1034 01       		.uleb128 0x1
 4414 1035 53       		.byte	0x53
 4415 1036 02       		.uleb128 0x2
 4416 1037 7D       		.byte	0x7d
 4417 1038 00       		.sleb128 0
 4418 1039 00       		.byte	0
 4419 103a 16       		.uleb128 0x16
 4420 103b 44000000 		.4byte	.LVL297
 4421 103f 11110000 		.4byte	0x1111
 4422 1043 15       		.uleb128 0x15
 4423 1044 01       		.uleb128 0x1
 4424 1045 50       		.byte	0x50
 4425 1046 02       		.uleb128 0x2
 4426 1047 74       		.byte	0x74
 4427 1048 00       		.sleb128 0
 4428 1049 00       		.byte	0
 4429 104a 00       		.byte	0
 4430 104b 11       		.uleb128 0x11
 4431 104c 04       		.byte	0x4
 4432 104d 51100000 		.4byte	0x1051
 4433 1051 05       		.uleb128 0x5
 4434 1052 6F020000 		.4byte	0x26f
 4435 1056 17       		.uleb128 0x17
 4436 1057 3F020000 		.4byte	.LASF76
 4437 105b 01       		.byte	0x1
 4438 105c B002     		.2byte	0x2b0
 4439 105e D9000000 		.4byte	0xd9
 4440 1062 00000000 		.4byte	.LFB16
 4441 1066 56000000 		.4byte	.LFE16-.LFB16
 4442 106a 01       		.uleb128 0x1
 4443 106b 9C       		.byte	0x9c
 4444 106c FB100000 		.4byte	0x10fb
 4445 1070 1B       		.uleb128 0x1b
 4446 1071 5B020000 		.4byte	.LASF77
 4447 1075 01       		.byte	0x1
 4448 1076 B002     		.2byte	0x2b0
ARM GAS  C:\Users\codyg\AppData\Local\Temp\ccmSWLSY.s 			page 93


 4449 1078 FB100000 		.4byte	0x10fb
 4450 107c 800F0000 		.4byte	.LLST73
 4451 1080 18       		.uleb128 0x18
 4452 1081 656E6300 		.ascii	"enc\000"
 4453 1085 01       		.byte	0x1
 4454 1086 B002     		.2byte	0x2b0
 4455 1088 65030000 		.4byte	0x365
 4456 108c 9E0F0000 		.4byte	.LLST74
 4457 1090 1C       		.uleb128 0x1c
 4458 1091 6900     		.ascii	"i\000"
 4459 1093 01       		.byte	0x1
 4460 1094 B102     		.2byte	0x2b1
 4461 1096 D9000000 		.4byte	0xd9
 4462 109a 02       		.uleb128 0x2
 4463 109b 91       		.byte	0x91
 4464 109c 6C       		.sleb128 -20
 4465 109d 1C       		.uleb128 0x1c
 4466 109e 6A00     		.ascii	"j\000"
 4467 10a0 01       		.byte	0x1
 4468 10a1 B202     		.2byte	0x2b2
 4469 10a3 D9000000 		.4byte	0xd9
 4470 10a7 02       		.uleb128 0x2
 4471 10a8 91       		.byte	0x91
 4472 10a9 68       		.sleb128 -24
 4473 10aa 14       		.uleb128 0x14
 4474 10ab 2E000000 		.4byte	.LVL300
 4475 10af 0F0A0000 		.4byte	0xa0f
 4476 10b3 CA100000 		.4byte	0x10ca
 4477 10b7 15       		.uleb128 0x15
 4478 10b8 01       		.uleb128 0x1
 4479 10b9 51       		.byte	0x51
 4480 10ba 02       		.uleb128 0x2
 4481 10bb 74       		.byte	0x74
 4482 10bc 00       		.sleb128 0
 4483 10bd 15       		.uleb128 0x15
 4484 10be 01       		.uleb128 0x1
 4485 10bf 52       		.byte	0x52
 4486 10c0 02       		.uleb128 0x2
 4487 10c1 91       		.byte	0x91
 4488 10c2 6C       		.sleb128 -20
 4489 10c3 15       		.uleb128 0x15
 4490 10c4 01       		.uleb128 0x1
 4491 10c5 53       		.byte	0x53
 4492 10c6 02       		.uleb128 0x2
 4493 10c7 7D       		.byte	0x7d
 4494 10c8 00       		.sleb128 0
 4495 10c9 00       		.byte	0
 4496 10ca 14       		.uleb128 0x14
 4497 10cb 3A000000 		.4byte	.LVL301
 4498 10cf 0F0A0000 		.4byte	0xa0f
 4499 10d3 EA100000 		.4byte	0x10ea
 4500 10d7 15       		.uleb128 0x15
 4501 10d8 01       		.uleb128 0x1
 4502 10d9 51       		.byte	0x51
 4503 10da 02       		.uleb128 0x2
 4504 10db 74       		.byte	0x74
 4505 10dc 00       		.sleb128 0
ARM GAS  C:\Users\codyg\AppData\Local\Temp\ccmSWLSY.s 			page 94


 4506 10dd 15       		.uleb128 0x15
 4507 10de 01       		.uleb128 0x1
 4508 10df 52       		.byte	0x52
 4509 10e0 02       		.uleb128 0x2
 4510 10e1 91       		.byte	0x91
 4511 10e2 6C       		.sleb128 -20
 4512 10e3 15       		.uleb128 0x15
 4513 10e4 01       		.uleb128 0x1
 4514 10e5 53       		.byte	0x53
 4515 10e6 02       		.uleb128 0x2
 4516 10e7 7D       		.byte	0x7d
 4517 10e8 00       		.sleb128 0
 4518 10e9 00       		.byte	0
 4519 10ea 16       		.uleb128 0x16
 4520 10eb 44000000 		.4byte	.LVL302
 4521 10ef 11110000 		.4byte	0x1111
 4522 10f3 15       		.uleb128 0x15
 4523 10f4 01       		.uleb128 0x1
 4524 10f5 50       		.byte	0x50
 4525 10f6 02       		.uleb128 0x2
 4526 10f7 74       		.byte	0x74
 4527 10f8 00       		.sleb128 0
 4528 10f9 00       		.byte	0
 4529 10fa 00       		.byte	0
 4530 10fb 11       		.uleb128 0x11
 4531 10fc 04       		.byte	0x4
 4532 10fd 01110000 		.4byte	0x1101
 4533 1101 05       		.uleb128 0x5
 4534 1102 B7020000 		.4byte	0x2b7
 4535 1106 20       		.uleb128 0x20
 4536 1107 CC000000 		.4byte	.LASF78
 4537 110b CC000000 		.4byte	.LASF78
 4538 110f 06       		.byte	0x6
 4539 1110 29       		.byte	0x29
 4540 1111 20       		.uleb128 0x20
 4541 1112 DA000000 		.4byte	.LASF79
 4542 1116 DA000000 		.4byte	.LASF79
 4543 111a 05       		.byte	0x5
 4544 111b 9B       		.byte	0x9b
 4545 111c 00       		.byte	0
 4546              		.section	.debug_abbrev,"",%progbits
 4547              	.Ldebug_abbrev0:
 4548 0000 01       		.uleb128 0x1
 4549 0001 11       		.uleb128 0x11
 4550 0002 01       		.byte	0x1
 4551 0003 25       		.uleb128 0x25
 4552 0004 0E       		.uleb128 0xe
 4553 0005 13       		.uleb128 0x13
 4554 0006 0B       		.uleb128 0xb
 4555 0007 03       		.uleb128 0x3
 4556 0008 0E       		.uleb128 0xe
 4557 0009 1B       		.uleb128 0x1b
 4558 000a 0E       		.uleb128 0xe
 4559 000b 55       		.uleb128 0x55
 4560 000c 17       		.uleb128 0x17
 4561 000d 11       		.uleb128 0x11
 4562 000e 01       		.uleb128 0x1
ARM GAS  C:\Users\codyg\AppData\Local\Temp\ccmSWLSY.s 			page 95


 4563 000f 10       		.uleb128 0x10
 4564 0010 17       		.uleb128 0x17
 4565 0011 00       		.byte	0
 4566 0012 00       		.byte	0
 4567 0013 02       		.uleb128 0x2
 4568 0014 24       		.uleb128 0x24
 4569 0015 00       		.byte	0
 4570 0016 0B       		.uleb128 0xb
 4571 0017 0B       		.uleb128 0xb
 4572 0018 3E       		.uleb128 0x3e
 4573 0019 0B       		.uleb128 0xb
 4574 001a 03       		.uleb128 0x3
 4575 001b 0E       		.uleb128 0xe
 4576 001c 00       		.byte	0
 4577 001d 00       		.byte	0
 4578 001e 03       		.uleb128 0x3
 4579 001f 16       		.uleb128 0x16
 4580 0020 00       		.byte	0
 4581 0021 03       		.uleb128 0x3
 4582 0022 0E       		.uleb128 0xe
 4583 0023 3A       		.uleb128 0x3a
 4584 0024 0B       		.uleb128 0xb
 4585 0025 3B       		.uleb128 0x3b
 4586 0026 0B       		.uleb128 0xb
 4587 0027 49       		.uleb128 0x49
 4588 0028 13       		.uleb128 0x13
 4589 0029 00       		.byte	0
 4590 002a 00       		.byte	0
 4591 002b 04       		.uleb128 0x4
 4592 002c 24       		.uleb128 0x24
 4593 002d 00       		.byte	0
 4594 002e 0B       		.uleb128 0xb
 4595 002f 0B       		.uleb128 0xb
 4596 0030 3E       		.uleb128 0x3e
 4597 0031 0B       		.uleb128 0xb
 4598 0032 03       		.uleb128 0x3
 4599 0033 08       		.uleb128 0x8
 4600 0034 00       		.byte	0
 4601 0035 00       		.byte	0
 4602 0036 05       		.uleb128 0x5
 4603 0037 26       		.uleb128 0x26
 4604 0038 00       		.byte	0
 4605 0039 49       		.uleb128 0x49
 4606 003a 13       		.uleb128 0x13
 4607 003b 00       		.byte	0
 4608 003c 00       		.byte	0
 4609 003d 06       		.uleb128 0x6
 4610 003e 13       		.uleb128 0x13
 4611 003f 01       		.byte	0x1
 4612 0040 03       		.uleb128 0x3
 4613 0041 0E       		.uleb128 0xe
 4614 0042 0B       		.uleb128 0xb
 4615 0043 0B       		.uleb128 0xb
 4616 0044 3A       		.uleb128 0x3a
 4617 0045 0B       		.uleb128 0xb
 4618 0046 3B       		.uleb128 0x3b
 4619 0047 0B       		.uleb128 0xb
ARM GAS  C:\Users\codyg\AppData\Local\Temp\ccmSWLSY.s 			page 96


 4620 0048 01       		.uleb128 0x1
 4621 0049 13       		.uleb128 0x13
 4622 004a 00       		.byte	0
 4623 004b 00       		.byte	0
 4624 004c 07       		.uleb128 0x7
 4625 004d 0D       		.uleb128 0xd
 4626 004e 00       		.byte	0
 4627 004f 03       		.uleb128 0x3
 4628 0050 0E       		.uleb128 0xe
 4629 0051 3A       		.uleb128 0x3a
 4630 0052 0B       		.uleb128 0xb
 4631 0053 3B       		.uleb128 0x3b
 4632 0054 0B       		.uleb128 0xb
 4633 0055 49       		.uleb128 0x49
 4634 0056 13       		.uleb128 0x13
 4635 0057 38       		.uleb128 0x38
 4636 0058 0B       		.uleb128 0xb
 4637 0059 00       		.byte	0
 4638 005a 00       		.byte	0
 4639 005b 08       		.uleb128 0x8
 4640 005c 0D       		.uleb128 0xd
 4641 005d 00       		.byte	0
 4642 005e 03       		.uleb128 0x3
 4643 005f 08       		.uleb128 0x8
 4644 0060 3A       		.uleb128 0x3a
 4645 0061 0B       		.uleb128 0xb
 4646 0062 3B       		.uleb128 0x3b
 4647 0063 0B       		.uleb128 0xb
 4648 0064 49       		.uleb128 0x49
 4649 0065 13       		.uleb128 0x13
 4650 0066 38       		.uleb128 0x38
 4651 0067 0B       		.uleb128 0xb
 4652 0068 00       		.byte	0
 4653 0069 00       		.byte	0
 4654 006a 09       		.uleb128 0x9
 4655 006b 01       		.uleb128 0x1
 4656 006c 01       		.byte	0x1
 4657 006d 49       		.uleb128 0x49
 4658 006e 13       		.uleb128 0x13
 4659 006f 01       		.uleb128 0x1
 4660 0070 13       		.uleb128 0x13
 4661 0071 00       		.byte	0
 4662 0072 00       		.byte	0
 4663 0073 0A       		.uleb128 0xa
 4664 0074 21       		.uleb128 0x21
 4665 0075 00       		.byte	0
 4666 0076 49       		.uleb128 0x49
 4667 0077 13       		.uleb128 0x13
 4668 0078 2F       		.uleb128 0x2f
 4669 0079 0B       		.uleb128 0xb
 4670 007a 00       		.byte	0
 4671 007b 00       		.byte	0
 4672 007c 0B       		.uleb128 0xb
 4673 007d 2E       		.uleb128 0x2e
 4674 007e 01       		.byte	0x1
 4675 007f 3F       		.uleb128 0x3f
 4676 0080 19       		.uleb128 0x19
ARM GAS  C:\Users\codyg\AppData\Local\Temp\ccmSWLSY.s 			page 97


 4677 0081 03       		.uleb128 0x3
 4678 0082 0E       		.uleb128 0xe
 4679 0083 3A       		.uleb128 0x3a
 4680 0084 0B       		.uleb128 0xb
 4681 0085 3B       		.uleb128 0x3b
 4682 0086 0B       		.uleb128 0xb
 4683 0087 27       		.uleb128 0x27
 4684 0088 19       		.uleb128 0x19
 4685 0089 49       		.uleb128 0x49
 4686 008a 13       		.uleb128 0x13
 4687 008b 11       		.uleb128 0x11
 4688 008c 01       		.uleb128 0x1
 4689 008d 12       		.uleb128 0x12
 4690 008e 06       		.uleb128 0x6
 4691 008f 40       		.uleb128 0x40
 4692 0090 18       		.uleb128 0x18
 4693 0091 9742     		.uleb128 0x2117
 4694 0093 19       		.uleb128 0x19
 4695 0094 01       		.uleb128 0x1
 4696 0095 13       		.uleb128 0x13
 4697 0096 00       		.byte	0
 4698 0097 00       		.byte	0
 4699 0098 0C       		.uleb128 0xc
 4700 0099 05       		.uleb128 0x5
 4701 009a 00       		.byte	0
 4702 009b 03       		.uleb128 0x3
 4703 009c 08       		.uleb128 0x8
 4704 009d 3A       		.uleb128 0x3a
 4705 009e 0B       		.uleb128 0xb
 4706 009f 3B       		.uleb128 0x3b
 4707 00a0 0B       		.uleb128 0xb
 4708 00a1 49       		.uleb128 0x49
 4709 00a2 13       		.uleb128 0x13
 4710 00a3 02       		.uleb128 0x2
 4711 00a4 17       		.uleb128 0x17
 4712 00a5 00       		.byte	0
 4713 00a6 00       		.byte	0
 4714 00a7 0D       		.uleb128 0xd
 4715 00a8 34       		.uleb128 0x34
 4716 00a9 00       		.byte	0
 4717 00aa 03       		.uleb128 0x3
 4718 00ab 08       		.uleb128 0x8
 4719 00ac 3A       		.uleb128 0x3a
 4720 00ad 0B       		.uleb128 0xb
 4721 00ae 3B       		.uleb128 0x3b
 4722 00af 0B       		.uleb128 0xb
 4723 00b0 49       		.uleb128 0x49
 4724 00b1 13       		.uleb128 0x13
 4725 00b2 02       		.uleb128 0x2
 4726 00b3 18       		.uleb128 0x18
 4727 00b4 00       		.byte	0
 4728 00b5 00       		.byte	0
 4729 00b6 0E       		.uleb128 0xe
 4730 00b7 34       		.uleb128 0x34
 4731 00b8 00       		.byte	0
 4732 00b9 03       		.uleb128 0x3
 4733 00ba 0E       		.uleb128 0xe
ARM GAS  C:\Users\codyg\AppData\Local\Temp\ccmSWLSY.s 			page 98


 4734 00bb 3A       		.uleb128 0x3a
 4735 00bc 0B       		.uleb128 0xb
 4736 00bd 3B       		.uleb128 0x3b
 4737 00be 0B       		.uleb128 0xb
 4738 00bf 49       		.uleb128 0x49
 4739 00c0 13       		.uleb128 0x13
 4740 00c1 02       		.uleb128 0x2
 4741 00c2 17       		.uleb128 0x17
 4742 00c3 00       		.byte	0
 4743 00c4 00       		.byte	0
 4744 00c5 0F       		.uleb128 0xf
 4745 00c6 0B       		.uleb128 0xb
 4746 00c7 01       		.byte	0x1
 4747 00c8 11       		.uleb128 0x11
 4748 00c9 01       		.uleb128 0x1
 4749 00ca 12       		.uleb128 0x12
 4750 00cb 06       		.uleb128 0x6
 4751 00cc 00       		.byte	0
 4752 00cd 00       		.byte	0
 4753 00ce 10       		.uleb128 0x10
 4754 00cf 34       		.uleb128 0x34
 4755 00d0 00       		.byte	0
 4756 00d1 03       		.uleb128 0x3
 4757 00d2 08       		.uleb128 0x8
 4758 00d3 3A       		.uleb128 0x3a
 4759 00d4 0B       		.uleb128 0xb
 4760 00d5 3B       		.uleb128 0x3b
 4761 00d6 0B       		.uleb128 0xb
 4762 00d7 49       		.uleb128 0x49
 4763 00d8 13       		.uleb128 0x13
 4764 00d9 02       		.uleb128 0x2
 4765 00da 17       		.uleb128 0x17
 4766 00db 00       		.byte	0
 4767 00dc 00       		.byte	0
 4768 00dd 11       		.uleb128 0x11
 4769 00de 0F       		.uleb128 0xf
 4770 00df 00       		.byte	0
 4771 00e0 0B       		.uleb128 0xb
 4772 00e1 0B       		.uleb128 0xb
 4773 00e2 49       		.uleb128 0x49
 4774 00e3 13       		.uleb128 0x13
 4775 00e4 00       		.byte	0
 4776 00e5 00       		.byte	0
 4777 00e6 12       		.uleb128 0x12
 4778 00e7 05       		.uleb128 0x5
 4779 00e8 00       		.byte	0
 4780 00e9 03       		.uleb128 0x3
 4781 00ea 0E       		.uleb128 0xe
 4782 00eb 3A       		.uleb128 0x3a
 4783 00ec 0B       		.uleb128 0xb
 4784 00ed 3B       		.uleb128 0x3b
 4785 00ee 0B       		.uleb128 0xb
 4786 00ef 49       		.uleb128 0x49
 4787 00f0 13       		.uleb128 0x13
 4788 00f1 02       		.uleb128 0x2
 4789 00f2 17       		.uleb128 0x17
 4790 00f3 00       		.byte	0
ARM GAS  C:\Users\codyg\AppData\Local\Temp\ccmSWLSY.s 			page 99


 4791 00f4 00       		.byte	0
 4792 00f5 13       		.uleb128 0x13
 4793 00f6 34       		.uleb128 0x34
 4794 00f7 00       		.byte	0
 4795 00f8 03       		.uleb128 0x3
 4796 00f9 0E       		.uleb128 0xe
 4797 00fa 49       		.uleb128 0x49
 4798 00fb 13       		.uleb128 0x13
 4799 00fc 34       		.uleb128 0x34
 4800 00fd 19       		.uleb128 0x19
 4801 00fe 02       		.uleb128 0x2
 4802 00ff 18       		.uleb128 0x18
 4803 0100 00       		.byte	0
 4804 0101 00       		.byte	0
 4805 0102 14       		.uleb128 0x14
 4806 0103 898201   		.uleb128 0x4109
 4807 0106 01       		.byte	0x1
 4808 0107 11       		.uleb128 0x11
 4809 0108 01       		.uleb128 0x1
 4810 0109 31       		.uleb128 0x31
 4811 010a 13       		.uleb128 0x13
 4812 010b 01       		.uleb128 0x1
 4813 010c 13       		.uleb128 0x13
 4814 010d 00       		.byte	0
 4815 010e 00       		.byte	0
 4816 010f 15       		.uleb128 0x15
 4817 0110 8A8201   		.uleb128 0x410a
 4818 0113 00       		.byte	0
 4819 0114 02       		.uleb128 0x2
 4820 0115 18       		.uleb128 0x18
 4821 0116 9142     		.uleb128 0x2111
 4822 0118 18       		.uleb128 0x18
 4823 0119 00       		.byte	0
 4824 011a 00       		.byte	0
 4825 011b 16       		.uleb128 0x16
 4826 011c 898201   		.uleb128 0x4109
 4827 011f 01       		.byte	0x1
 4828 0120 11       		.uleb128 0x11
 4829 0121 01       		.uleb128 0x1
 4830 0122 31       		.uleb128 0x31
 4831 0123 13       		.uleb128 0x13
 4832 0124 00       		.byte	0
 4833 0125 00       		.byte	0
 4834 0126 17       		.uleb128 0x17
 4835 0127 2E       		.uleb128 0x2e
 4836 0128 01       		.byte	0x1
 4837 0129 3F       		.uleb128 0x3f
 4838 012a 19       		.uleb128 0x19
 4839 012b 03       		.uleb128 0x3
 4840 012c 0E       		.uleb128 0xe
 4841 012d 3A       		.uleb128 0x3a
 4842 012e 0B       		.uleb128 0xb
 4843 012f 3B       		.uleb128 0x3b
 4844 0130 05       		.uleb128 0x5
 4845 0131 27       		.uleb128 0x27
 4846 0132 19       		.uleb128 0x19
 4847 0133 49       		.uleb128 0x49
ARM GAS  C:\Users\codyg\AppData\Local\Temp\ccmSWLSY.s 			page 100


 4848 0134 13       		.uleb128 0x13
 4849 0135 11       		.uleb128 0x11
 4850 0136 01       		.uleb128 0x1
 4851 0137 12       		.uleb128 0x12
 4852 0138 06       		.uleb128 0x6
 4853 0139 40       		.uleb128 0x40
 4854 013a 18       		.uleb128 0x18
 4855 013b 9742     		.uleb128 0x2117
 4856 013d 19       		.uleb128 0x19
 4857 013e 01       		.uleb128 0x1
 4858 013f 13       		.uleb128 0x13
 4859 0140 00       		.byte	0
 4860 0141 00       		.byte	0
 4861 0142 18       		.uleb128 0x18
 4862 0143 05       		.uleb128 0x5
 4863 0144 00       		.byte	0
 4864 0145 03       		.uleb128 0x3
 4865 0146 08       		.uleb128 0x8
 4866 0147 3A       		.uleb128 0x3a
 4867 0148 0B       		.uleb128 0xb
 4868 0149 3B       		.uleb128 0x3b
 4869 014a 05       		.uleb128 0x5
 4870 014b 49       		.uleb128 0x49
 4871 014c 13       		.uleb128 0x13
 4872 014d 02       		.uleb128 0x2
 4873 014e 17       		.uleb128 0x17
 4874 014f 00       		.byte	0
 4875 0150 00       		.byte	0
 4876 0151 19       		.uleb128 0x19
 4877 0152 34       		.uleb128 0x34
 4878 0153 00       		.byte	0
 4879 0154 03       		.uleb128 0x3
 4880 0155 0E       		.uleb128 0xe
 4881 0156 3A       		.uleb128 0x3a
 4882 0157 0B       		.uleb128 0xb
 4883 0158 3B       		.uleb128 0x3b
 4884 0159 05       		.uleb128 0x5
 4885 015a 49       		.uleb128 0x49
 4886 015b 13       		.uleb128 0x13
 4887 015c 02       		.uleb128 0x2
 4888 015d 17       		.uleb128 0x17
 4889 015e 00       		.byte	0
 4890 015f 00       		.byte	0
 4891 0160 1A       		.uleb128 0x1a
 4892 0161 2E       		.uleb128 0x2e
 4893 0162 01       		.byte	0x1
 4894 0163 3F       		.uleb128 0x3f
 4895 0164 19       		.uleb128 0x19
 4896 0165 03       		.uleb128 0x3
 4897 0166 0E       		.uleb128 0xe
 4898 0167 3A       		.uleb128 0x3a
 4899 0168 0B       		.uleb128 0xb
 4900 0169 3B       		.uleb128 0x3b
 4901 016a 05       		.uleb128 0x5
 4902 016b 27       		.uleb128 0x27
 4903 016c 19       		.uleb128 0x19
 4904 016d 11       		.uleb128 0x11
ARM GAS  C:\Users\codyg\AppData\Local\Temp\ccmSWLSY.s 			page 101


 4905 016e 01       		.uleb128 0x1
 4906 016f 12       		.uleb128 0x12
 4907 0170 06       		.uleb128 0x6
 4908 0171 40       		.uleb128 0x40
 4909 0172 18       		.uleb128 0x18
 4910 0173 9742     		.uleb128 0x2117
 4911 0175 19       		.uleb128 0x19
 4912 0176 01       		.uleb128 0x1
 4913 0177 13       		.uleb128 0x13
 4914 0178 00       		.byte	0
 4915 0179 00       		.byte	0
 4916 017a 1B       		.uleb128 0x1b
 4917 017b 05       		.uleb128 0x5
 4918 017c 00       		.byte	0
 4919 017d 03       		.uleb128 0x3
 4920 017e 0E       		.uleb128 0xe
 4921 017f 3A       		.uleb128 0x3a
 4922 0180 0B       		.uleb128 0xb
 4923 0181 3B       		.uleb128 0x3b
 4924 0182 05       		.uleb128 0x5
 4925 0183 49       		.uleb128 0x49
 4926 0184 13       		.uleb128 0x13
 4927 0185 02       		.uleb128 0x2
 4928 0186 17       		.uleb128 0x17
 4929 0187 00       		.byte	0
 4930 0188 00       		.byte	0
 4931 0189 1C       		.uleb128 0x1c
 4932 018a 34       		.uleb128 0x34
 4933 018b 00       		.byte	0
 4934 018c 03       		.uleb128 0x3
 4935 018d 08       		.uleb128 0x8
 4936 018e 3A       		.uleb128 0x3a
 4937 018f 0B       		.uleb128 0xb
 4938 0190 3B       		.uleb128 0x3b
 4939 0191 05       		.uleb128 0x5
 4940 0192 49       		.uleb128 0x49
 4941 0193 13       		.uleb128 0x13
 4942 0194 02       		.uleb128 0x2
 4943 0195 18       		.uleb128 0x18
 4944 0196 00       		.byte	0
 4945 0197 00       		.byte	0
 4946 0198 1D       		.uleb128 0x1d
 4947 0199 0B       		.uleb128 0xb
 4948 019a 01       		.byte	0x1
 4949 019b 11       		.uleb128 0x11
 4950 019c 01       		.uleb128 0x1
 4951 019d 12       		.uleb128 0x12
 4952 019e 06       		.uleb128 0x6
 4953 019f 01       		.uleb128 0x1
 4954 01a0 13       		.uleb128 0x13
 4955 01a1 00       		.byte	0
 4956 01a2 00       		.byte	0
 4957 01a3 1E       		.uleb128 0x1e
 4958 01a4 34       		.uleb128 0x34
 4959 01a5 00       		.byte	0
 4960 01a6 03       		.uleb128 0x3
 4961 01a7 08       		.uleb128 0x8
ARM GAS  C:\Users\codyg\AppData\Local\Temp\ccmSWLSY.s 			page 102


 4962 01a8 3A       		.uleb128 0x3a
 4963 01a9 0B       		.uleb128 0xb
 4964 01aa 3B       		.uleb128 0x3b
 4965 01ab 05       		.uleb128 0x5
 4966 01ac 49       		.uleb128 0x49
 4967 01ad 13       		.uleb128 0x13
 4968 01ae 02       		.uleb128 0x2
 4969 01af 17       		.uleb128 0x17
 4970 01b0 00       		.byte	0
 4971 01b1 00       		.byte	0
 4972 01b2 1F       		.uleb128 0x1f
 4973 01b3 34       		.uleb128 0x34
 4974 01b4 00       		.byte	0
 4975 01b5 03       		.uleb128 0x3
 4976 01b6 0E       		.uleb128 0xe
 4977 01b7 3A       		.uleb128 0x3a
 4978 01b8 0B       		.uleb128 0xb
 4979 01b9 3B       		.uleb128 0x3b
 4980 01ba 05       		.uleb128 0x5
 4981 01bb 49       		.uleb128 0x49
 4982 01bc 13       		.uleb128 0x13
 4983 01bd 02       		.uleb128 0x2
 4984 01be 18       		.uleb128 0x18
 4985 01bf 00       		.byte	0
 4986 01c0 00       		.byte	0
 4987 01c1 20       		.uleb128 0x20
 4988 01c2 2E       		.uleb128 0x2e
 4989 01c3 00       		.byte	0
 4990 01c4 3F       		.uleb128 0x3f
 4991 01c5 19       		.uleb128 0x19
 4992 01c6 3C       		.uleb128 0x3c
 4993 01c7 19       		.uleb128 0x19
 4994 01c8 6E       		.uleb128 0x6e
 4995 01c9 0E       		.uleb128 0xe
 4996 01ca 03       		.uleb128 0x3
 4997 01cb 0E       		.uleb128 0xe
 4998 01cc 3A       		.uleb128 0x3a
 4999 01cd 0B       		.uleb128 0xb
 5000 01ce 3B       		.uleb128 0x3b
 5001 01cf 0B       		.uleb128 0xb
 5002 01d0 00       		.byte	0
 5003 01d1 00       		.byte	0
 5004 01d2 00       		.byte	0
 5005              		.section	.debug_loc,"",%progbits
 5006              	.Ldebug_loc0:
 5007              	.LLST0:
 5008 0000 00000000 		.4byte	.LVL0
 5009 0004 12000000 		.4byte	.LVL5
 5010 0008 0100     		.2byte	0x1
 5011 000a 50       		.byte	0x50
 5012 000b 12000000 		.4byte	.LVL5
 5013 000f 22000000 		.4byte	.LVL11
 5014 0013 0100     		.2byte	0x1
 5015 0015 55       		.byte	0x55
 5016 0016 22000000 		.4byte	.LVL11
 5017 001a 24000000 		.4byte	.LVL12
 5018 001e 0100     		.2byte	0x1
ARM GAS  C:\Users\codyg\AppData\Local\Temp\ccmSWLSY.s 			page 103


 5019 0020 50       		.byte	0x50
 5020 0021 24000000 		.4byte	.LVL12
 5021 0025 2E000000 		.4byte	.LVL15
 5022 0029 0100     		.2byte	0x1
 5023 002b 55       		.byte	0x55
 5024 002c 2E000000 		.4byte	.LVL15
 5025 0030 3A000000 		.4byte	.LVL18
 5026 0034 0100     		.2byte	0x1
 5027 0036 50       		.byte	0x50
 5028 0037 00000000 		.4byte	0
 5029 003b 00000000 		.4byte	0
 5030              	.LLST1:
 5031 003f 00000000 		.4byte	.LVL0
 5032 0043 06000000 		.4byte	.LVL3
 5033 0047 0100     		.2byte	0x1
 5034 0049 51       		.byte	0x51
 5035 004a 06000000 		.4byte	.LVL3
 5036 004e 16000000 		.4byte	.LVL7
 5037 0052 0100     		.2byte	0x1
 5038 0054 54       		.byte	0x54
 5039 0055 16000000 		.4byte	.LVL7
 5040 0059 1E000000 		.4byte	.LVL10
 5041 005d 0300     		.2byte	0x3
 5042 005f 74       		.byte	0x74
 5043 0060 01       		.sleb128 1
 5044 0061 9F       		.byte	0x9f
 5045 0062 1E000000 		.4byte	.LVL10
 5046 0066 26000000 		.4byte	.LVL13
 5047 006a 0100     		.2byte	0x1
 5048 006c 54       		.byte	0x54
 5049 006d 26000000 		.4byte	.LVL13
 5050 0071 2A000000 		.4byte	.LVL14
 5051 0075 0300     		.2byte	0x3
 5052 0077 74       		.byte	0x74
 5053 0078 01       		.sleb128 1
 5054 0079 9F       		.byte	0x9f
 5055 007a 2A000000 		.4byte	.LVL14
 5056 007e 3C000000 		.4byte	.LVL19
 5057 0082 0100     		.2byte	0x1
 5058 0084 54       		.byte	0x54
 5059 0085 00000000 		.4byte	0
 5060 0089 00000000 		.4byte	0
 5061              	.LLST2:
 5062 008d 00000000 		.4byte	.LVL0
 5063 0091 04000000 		.4byte	.LVL2
 5064 0095 0100     		.2byte	0x1
 5065 0097 52       		.byte	0x52
 5066 0098 04000000 		.4byte	.LVL2
 5067 009c 3E000000 		.4byte	.LFE0
 5068 00a0 0400     		.2byte	0x4
 5069 00a2 F3       		.byte	0xf3
 5070 00a3 01       		.uleb128 0x1
 5071 00a4 52       		.byte	0x52
 5072 00a5 9F       		.byte	0x9f
 5073 00a6 00000000 		.4byte	0
 5074 00aa 00000000 		.4byte	0
 5075              	.LLST3:
ARM GAS  C:\Users\codyg\AppData\Local\Temp\ccmSWLSY.s 			page 104


 5076 00ae 06000000 		.4byte	.LVL3
 5077 00b2 0C000000 		.4byte	.LVL4
 5078 00b6 0100     		.2byte	0x1
 5079 00b8 51       		.byte	0x51
 5080 00b9 0C000000 		.4byte	.LVL4
 5081 00bd 26000000 		.4byte	.LVL13
 5082 00c1 0100     		.2byte	0x1
 5083 00c3 57       		.byte	0x57
 5084 00c4 26000000 		.4byte	.LVL13
 5085 00c8 2A000000 		.4byte	.LVL14
 5086 00cc 0100     		.2byte	0x1
 5087 00ce 54       		.byte	0x54
 5088 00cf 2A000000 		.4byte	.LVL14
 5089 00d3 3C000000 		.4byte	.LVL19
 5090 00d7 0100     		.2byte	0x1
 5091 00d9 57       		.byte	0x57
 5092 00da 00000000 		.4byte	0
 5093 00de 00000000 		.4byte	0
 5094              	.LLST4:
 5095 00e2 06000000 		.4byte	.LVL3
 5096 00e6 0C000000 		.4byte	.LVL4
 5097 00ea 0200     		.2byte	0x2
 5098 00ec 31       		.byte	0x31
 5099 00ed 9F       		.byte	0x9f
 5100 00ee 0C000000 		.4byte	.LVL4
 5101 00f2 1A000000 		.4byte	.LVL8
 5102 00f6 0100     		.2byte	0x1
 5103 00f8 53       		.byte	0x53
 5104 00f9 1C000000 		.4byte	.LVL9
 5105 00fd 26000000 		.4byte	.LVL13
 5106 0101 0100     		.2byte	0x1
 5107 0103 53       		.byte	0x53
 5108 0104 26000000 		.4byte	.LVL13
 5109 0108 2E000000 		.4byte	.LVL15
 5110 010c 0200     		.2byte	0x2
 5111 010e 31       		.byte	0x31
 5112 010f 9F       		.byte	0x9f
 5113 0110 2E000000 		.4byte	.LVL15
 5114 0114 36000000 		.4byte	.LVL16
 5115 0118 0100     		.2byte	0x1
 5116 011a 53       		.byte	0x53
 5117 011b 36000000 		.4byte	.LVL16
 5118 011f 38000000 		.4byte	.LVL17
 5119 0123 0200     		.2byte	0x2
 5120 0125 77       		.byte	0x77
 5121 0126 00       		.sleb128 0
 5122 0127 00000000 		.4byte	0
 5123 012b 00000000 		.4byte	0
 5124              	.LLST5:
 5125 012f 14000000 		.4byte	.LVL6
 5126 0133 22000000 		.4byte	.LVL11
 5127 0137 0100     		.2byte	0x1
 5128 0139 56       		.byte	0x56
 5129 013a 00000000 		.4byte	0
 5130 013e 00000000 		.4byte	0
 5131              	.LLST6:
 5132 0142 00000000 		.4byte	.LVL20
ARM GAS  C:\Users\codyg\AppData\Local\Temp\ccmSWLSY.s 			page 105


 5133 0146 0C000000 		.4byte	.LVL22
 5134 014a 0100     		.2byte	0x1
 5135 014c 50       		.byte	0x50
 5136 014d 0C000000 		.4byte	.LVL22
 5137 0151 10000000 		.4byte	.LVL23
 5138 0155 0100     		.2byte	0x1
 5139 0157 53       		.byte	0x53
 5140 0158 10000000 		.4byte	.LVL23
 5141 015c 12000000 		.4byte	.LVL24
 5142 0160 0100     		.2byte	0x1
 5143 0162 50       		.byte	0x50
 5144 0163 12000000 		.4byte	.LVL24
 5145 0167 1C000000 		.4byte	.LVL27
 5146 016b 0100     		.2byte	0x1
 5147 016d 53       		.byte	0x53
 5148 016e 1E000000 		.4byte	.LVL28
 5149 0172 2A000000 		.4byte	.LVL30
 5150 0176 0100     		.2byte	0x1
 5151 0178 53       		.byte	0x53
 5152 0179 2A000000 		.4byte	.LVL30
 5153 017d 2C000000 		.4byte	.LVL31
 5154 0181 0100     		.2byte	0x1
 5155 0183 50       		.byte	0x50
 5156 0184 00000000 		.4byte	0
 5157 0188 00000000 		.4byte	0
 5158              	.LLST7:
 5159 018c 00000000 		.4byte	.LVL20
 5160 0190 08000000 		.4byte	.LVL21
 5161 0194 0200     		.2byte	0x2
 5162 0196 30       		.byte	0x30
 5163 0197 9F       		.byte	0x9f
 5164 0198 08000000 		.4byte	.LVL21
 5165 019c 10000000 		.4byte	.LVL23
 5166 01a0 0200     		.2byte	0x2
 5167 01a2 34       		.byte	0x34
 5168 01a3 9F       		.byte	0x9f
 5169 01a4 10000000 		.4byte	.LVL23
 5170 01a8 12000000 		.4byte	.LVL24
 5171 01ac 0200     		.2byte	0x2
 5172 01ae 30       		.byte	0x30
 5173 01af 9F       		.byte	0x9f
 5174 01b0 12000000 		.4byte	.LVL24
 5175 01b4 18000000 		.4byte	.LVL25
 5176 01b8 0100     		.2byte	0x1
 5177 01ba 50       		.byte	0x50
 5178 01bb 1A000000 		.4byte	.LVL26
 5179 01bf 26000000 		.4byte	.LVL29
 5180 01c3 0100     		.2byte	0x1
 5181 01c5 50       		.byte	0x50
 5182 01c6 2A000000 		.4byte	.LVL30
 5183 01ca 2C000000 		.4byte	.LVL31
 5184 01ce 0200     		.2byte	0x2
 5185 01d0 30       		.byte	0x30
 5186 01d1 9F       		.byte	0x9f
 5187 01d2 00000000 		.4byte	0
 5188 01d6 00000000 		.4byte	0
 5189              	.LLST8:
ARM GAS  C:\Users\codyg\AppData\Local\Temp\ccmSWLSY.s 			page 106


 5190 01da 00000000 		.4byte	.LVL32
 5191 01de 0C000000 		.4byte	.LVL34
 5192 01e2 0100     		.2byte	0x1
 5193 01e4 50       		.byte	0x50
 5194 01e5 0C000000 		.4byte	.LVL34
 5195 01e9 10000000 		.4byte	.LVL35
 5196 01ed 0100     		.2byte	0x1
 5197 01ef 53       		.byte	0x53
 5198 01f0 10000000 		.4byte	.LVL35
 5199 01f4 12000000 		.4byte	.LVL36
 5200 01f8 0100     		.2byte	0x1
 5201 01fa 50       		.byte	0x50
 5202 01fb 12000000 		.4byte	.LVL36
 5203 01ff 1E000000 		.4byte	.LVL39
 5204 0203 0100     		.2byte	0x1
 5205 0205 53       		.byte	0x53
 5206 0206 20000000 		.4byte	.LVL40
 5207 020a 2C000000 		.4byte	.LVL43
 5208 020e 0100     		.2byte	0x1
 5209 0210 53       		.byte	0x53
 5210 0211 2E000000 		.4byte	.LVL44
 5211 0215 3A000000 		.4byte	.LVL46
 5212 0219 0100     		.2byte	0x1
 5213 021b 53       		.byte	0x53
 5214 021c 3A000000 		.4byte	.LVL46
 5215 0220 3C000000 		.4byte	.LVL47
 5216 0224 0100     		.2byte	0x1
 5217 0226 50       		.byte	0x50
 5218 0227 00000000 		.4byte	0
 5219 022b 00000000 		.4byte	0
 5220              	.LLST9:
 5221 022f 00000000 		.4byte	.LVL32
 5222 0233 08000000 		.4byte	.LVL33
 5223 0237 0200     		.2byte	0x2
 5224 0239 30       		.byte	0x30
 5225 023a 9F       		.byte	0x9f
 5226 023b 08000000 		.4byte	.LVL33
 5227 023f 10000000 		.4byte	.LVL35
 5228 0243 0200     		.2byte	0x2
 5229 0245 38       		.byte	0x38
 5230 0246 9F       		.byte	0x9f
 5231 0247 10000000 		.4byte	.LVL35
 5232 024b 12000000 		.4byte	.LVL36
 5233 024f 0200     		.2byte	0x2
 5234 0251 30       		.byte	0x30
 5235 0252 9F       		.byte	0x9f
 5236 0253 12000000 		.4byte	.LVL36
 5237 0257 1A000000 		.4byte	.LVL37
 5238 025b 0100     		.2byte	0x1
 5239 025d 50       		.byte	0x50
 5240 025e 1C000000 		.4byte	.LVL38
 5241 0262 28000000 		.4byte	.LVL41
 5242 0266 0100     		.2byte	0x1
 5243 0268 50       		.byte	0x50
 5244 0269 2A000000 		.4byte	.LVL42
 5245 026d 36000000 		.4byte	.LVL45
 5246 0271 0100     		.2byte	0x1
ARM GAS  C:\Users\codyg\AppData\Local\Temp\ccmSWLSY.s 			page 107


 5247 0273 50       		.byte	0x50
 5248 0274 3A000000 		.4byte	.LVL46
 5249 0278 3C000000 		.4byte	.LVL47
 5250 027c 0200     		.2byte	0x2
 5251 027e 30       		.byte	0x30
 5252 027f 9F       		.byte	0x9f
 5253 0280 00000000 		.4byte	0
 5254 0284 00000000 		.4byte	0
 5255              	.LLST10:
 5256 0288 00000000 		.4byte	.LVL48
 5257 028c 0A000000 		.4byte	.LVL51
 5258 0290 0100     		.2byte	0x1
 5259 0292 50       		.byte	0x50
 5260 0293 0A000000 		.4byte	.LVL51
 5261 0297 0E000000 		.4byte	.LVL52
 5262 029b 0100     		.2byte	0x1
 5263 029d 52       		.byte	0x52
 5264 029e 0E000000 		.4byte	.LVL52
 5265 02a2 10000000 		.4byte	.LVL53
 5266 02a6 0100     		.2byte	0x1
 5267 02a8 50       		.byte	0x50
 5268 02a9 10000000 		.4byte	.LVL53
 5269 02ad 40000000 		.4byte	.LFE3
 5270 02b1 0100     		.2byte	0x1
 5271 02b3 52       		.byte	0x52
 5272 02b4 00000000 		.4byte	0
 5273 02b8 00000000 		.4byte	0
 5274              	.LLST11:
 5275 02bc 02000000 		.4byte	.LVL49
 5276 02c0 08000000 		.4byte	.LVL50
 5277 02c4 0200     		.2byte	0x2
 5278 02c6 30       		.byte	0x30
 5279 02c7 9F       		.byte	0x9f
 5280 02c8 08000000 		.4byte	.LVL50
 5281 02cc 0E000000 		.4byte	.LVL52
 5282 02d0 0200     		.2byte	0x2
 5283 02d2 40       		.byte	0x40
 5284 02d3 9F       		.byte	0x9f
 5285 02d4 0E000000 		.4byte	.LVL52
 5286 02d8 10000000 		.4byte	.LVL53
 5287 02dc 0200     		.2byte	0x2
 5288 02de 30       		.byte	0x30
 5289 02df 9F       		.byte	0x9f
 5290 02e0 10000000 		.4byte	.LVL53
 5291 02e4 3C000000 		.4byte	.LVL60
 5292 02e8 0100     		.2byte	0x1
 5293 02ea 50       		.byte	0x50
 5294 02eb 3E000000 		.4byte	.LVL61
 5295 02ef 40000000 		.4byte	.LFE3
 5296 02f3 0100     		.2byte	0x1
 5297 02f5 50       		.byte	0x50
 5298 02f6 00000000 		.4byte	0
 5299 02fa 00000000 		.4byte	0
 5300              	.LLST12:
 5301 02fe 00000000 		.4byte	.LVL62
 5302 0302 10000000 		.4byte	.LVL64
 5303 0306 0100     		.2byte	0x1
ARM GAS  C:\Users\codyg\AppData\Local\Temp\ccmSWLSY.s 			page 108


 5304 0308 50       		.byte	0x50
 5305 0309 10000000 		.4byte	.LVL64
 5306 030d 26000000 		.4byte	.LVL70
 5307 0311 0100     		.2byte	0x1
 5308 0313 50       		.byte	0x50
 5309 0314 2C000000 		.4byte	.LVL72
 5310 0318 2E000000 		.4byte	.LVL73
 5311 031c 0100     		.2byte	0x1
 5312 031e 50       		.byte	0x50
 5313 031f 2E000000 		.4byte	.LVL73
 5314 0323 30000000 		.4byte	.LVL74
 5315 0327 0400     		.2byte	0x4
 5316 0329 F3       		.byte	0xf3
 5317 032a 01       		.uleb128 0x1
 5318 032b 50       		.byte	0x50
 5319 032c 9F       		.byte	0x9f
 5320 032d 30000000 		.4byte	.LVL74
 5321 0331 32000000 		.4byte	.LVL75
 5322 0335 0100     		.2byte	0x1
 5323 0337 50       		.byte	0x50
 5324 0338 32000000 		.4byte	.LVL75
 5325 033c 34000000 		.4byte	.LFE4
 5326 0340 0400     		.2byte	0x4
 5327 0342 F3       		.byte	0xf3
 5328 0343 01       		.uleb128 0x1
 5329 0344 50       		.byte	0x50
 5330 0345 9F       		.byte	0x9f
 5331 0346 00000000 		.4byte	0
 5332 034a 00000000 		.4byte	0
 5333              	.LLST13:
 5334 034e 00000000 		.4byte	.LVL62
 5335 0352 0E000000 		.4byte	.LVL63
 5336 0356 0200     		.2byte	0x2
 5337 0358 31       		.byte	0x31
 5338 0359 9F       		.byte	0x9f
 5339 035a 0E000000 		.4byte	.LVL63
 5340 035e 14000000 		.4byte	.LVL65
 5341 0362 0200     		.2byte	0x2
 5342 0364 35       		.byte	0x35
 5343 0365 9F       		.byte	0x9f
 5344 0366 14000000 		.4byte	.LVL65
 5345 036a 16000000 		.4byte	.LVL66
 5346 036e 0200     		.2byte	0x2
 5347 0370 31       		.byte	0x31
 5348 0371 9F       		.byte	0x9f
 5349 0372 16000000 		.4byte	.LVL66
 5350 0376 1E000000 		.4byte	.LVL67
 5351 037a 0100     		.2byte	0x1
 5352 037c 53       		.byte	0x53
 5353 037d 20000000 		.4byte	.LVL68
 5354 0381 2A000000 		.4byte	.LVL71
 5355 0385 0100     		.2byte	0x1
 5356 0387 53       		.byte	0x53
 5357 0388 2C000000 		.4byte	.LVL72
 5358 038c 34000000 		.4byte	.LFE4
 5359 0390 0200     		.2byte	0x2
 5360 0392 31       		.byte	0x31
ARM GAS  C:\Users\codyg\AppData\Local\Temp\ccmSWLSY.s 			page 109


 5361 0393 9F       		.byte	0x9f
 5362 0394 00000000 		.4byte	0
 5363 0398 00000000 		.4byte	0
 5364              	.LLST14:
 5365 039c 00000000 		.4byte	.LVL76
 5366 03a0 10000000 		.4byte	.LVL78
 5367 03a4 0100     		.2byte	0x1
 5368 03a6 50       		.byte	0x50
 5369 03a7 10000000 		.4byte	.LVL78
 5370 03ab 32000000 		.4byte	.LVL87
 5371 03af 0100     		.2byte	0x1
 5372 03b1 50       		.byte	0x50
 5373 03b2 38000000 		.4byte	.LVL89
 5374 03b6 3A000000 		.4byte	.LVL90
 5375 03ba 0100     		.2byte	0x1
 5376 03bc 50       		.byte	0x50
 5377 03bd 3A000000 		.4byte	.LVL90
 5378 03c1 3C000000 		.4byte	.LVL91
 5379 03c5 0400     		.2byte	0x4
 5380 03c7 F3       		.byte	0xf3
 5381 03c8 01       		.uleb128 0x1
 5382 03c9 50       		.byte	0x50
 5383 03ca 9F       		.byte	0x9f
 5384 03cb 3C000000 		.4byte	.LVL91
 5385 03cf 3E000000 		.4byte	.LVL92
 5386 03d3 0100     		.2byte	0x1
 5387 03d5 50       		.byte	0x50
 5388 03d6 3E000000 		.4byte	.LVL92
 5389 03da 40000000 		.4byte	.LFE5
 5390 03de 0400     		.2byte	0x4
 5391 03e0 F3       		.byte	0xf3
 5392 03e1 01       		.uleb128 0x1
 5393 03e2 50       		.byte	0x50
 5394 03e3 9F       		.byte	0x9f
 5395 03e4 00000000 		.4byte	0
 5396 03e8 00000000 		.4byte	0
 5397              	.LLST15:
 5398 03ec 00000000 		.4byte	.LVL76
 5399 03f0 0E000000 		.4byte	.LVL77
 5400 03f4 0200     		.2byte	0x2
 5401 03f6 31       		.byte	0x31
 5402 03f7 9F       		.byte	0x9f
 5403 03f8 0E000000 		.4byte	.LVL77
 5404 03fc 14000000 		.4byte	.LVL79
 5405 0400 0200     		.2byte	0x2
 5406 0402 39       		.byte	0x39
 5407 0403 9F       		.byte	0x9f
 5408 0404 14000000 		.4byte	.LVL79
 5409 0408 16000000 		.4byte	.LVL80
 5410 040c 0200     		.2byte	0x2
 5411 040e 31       		.byte	0x31
 5412 040f 9F       		.byte	0x9f
 5413 0410 16000000 		.4byte	.LVL80
 5414 0414 1E000000 		.4byte	.LVL81
 5415 0418 0100     		.2byte	0x1
 5416 041a 53       		.byte	0x53
 5417 041b 20000000 		.4byte	.LVL82
ARM GAS  C:\Users\codyg\AppData\Local\Temp\ccmSWLSY.s 			page 110


 5418 041f 2A000000 		.4byte	.LVL84
 5419 0423 0100     		.2byte	0x1
 5420 0425 53       		.byte	0x53
 5421 0426 2C000000 		.4byte	.LVL85
 5422 042a 36000000 		.4byte	.LVL88
 5423 042e 0100     		.2byte	0x1
 5424 0430 53       		.byte	0x53
 5425 0431 38000000 		.4byte	.LVL89
 5426 0435 40000000 		.4byte	.LFE5
 5427 0439 0200     		.2byte	0x2
 5428 043b 31       		.byte	0x31
 5429 043c 9F       		.byte	0x9f
 5430 043d 00000000 		.4byte	0
 5431 0441 00000000 		.4byte	0
 5432              	.LLST16:
 5433 0445 00000000 		.4byte	.LVL93
 5434 0449 0E000000 		.4byte	.LVL95
 5435 044d 0100     		.2byte	0x1
 5436 044f 50       		.byte	0x50
 5437 0450 0E000000 		.4byte	.LVL95
 5438 0454 3C000000 		.4byte	.LVL107
 5439 0458 0100     		.2byte	0x1
 5440 045a 50       		.byte	0x50
 5441 045b 42000000 		.4byte	.LVL109
 5442 045f 44000000 		.4byte	.LVL110
 5443 0463 0100     		.2byte	0x1
 5444 0465 50       		.byte	0x50
 5445 0466 44000000 		.4byte	.LVL110
 5446 046a 46000000 		.4byte	.LVL111
 5447 046e 0400     		.2byte	0x4
 5448 0470 F3       		.byte	0xf3
 5449 0471 01       		.uleb128 0x1
 5450 0472 50       		.byte	0x50
 5451 0473 9F       		.byte	0x9f
 5452 0474 46000000 		.4byte	.LVL111
 5453 0478 48000000 		.4byte	.LVL112
 5454 047c 0100     		.2byte	0x1
 5455 047e 50       		.byte	0x50
 5456 047f 48000000 		.4byte	.LVL112
 5457 0483 4A000000 		.4byte	.LFE6
 5458 0487 0400     		.2byte	0x4
 5459 0489 F3       		.byte	0xf3
 5460 048a 01       		.uleb128 0x1
 5461 048b 50       		.byte	0x50
 5462 048c 9F       		.byte	0x9f
 5463 048d 00000000 		.4byte	0
 5464 0491 00000000 		.4byte	0
 5465              	.LLST17:
 5466 0495 00000000 		.4byte	.LVL93
 5467 0499 0C000000 		.4byte	.LVL94
 5468 049d 0200     		.2byte	0x2
 5469 049f 31       		.byte	0x31
 5470 04a0 9F       		.byte	0x9f
 5471 04a1 0C000000 		.4byte	.LVL94
 5472 04a5 12000000 		.4byte	.LVL96
 5473 04a9 0200     		.2byte	0x2
 5474 04ab 41       		.byte	0x41
ARM GAS  C:\Users\codyg\AppData\Local\Temp\ccmSWLSY.s 			page 111


 5475 04ac 9F       		.byte	0x9f
 5476 04ad 12000000 		.4byte	.LVL96
 5477 04b1 14000000 		.4byte	.LVL97
 5478 04b5 0200     		.2byte	0x2
 5479 04b7 31       		.byte	0x31
 5480 04b8 9F       		.byte	0x9f
 5481 04b9 14000000 		.4byte	.LVL97
 5482 04bd 1C000000 		.4byte	.LVL98
 5483 04c1 0100     		.2byte	0x1
 5484 04c3 53       		.byte	0x53
 5485 04c4 1E000000 		.4byte	.LVL99
 5486 04c8 28000000 		.4byte	.LVL101
 5487 04cc 0100     		.2byte	0x1
 5488 04ce 53       		.byte	0x53
 5489 04cf 2A000000 		.4byte	.LVL102
 5490 04d3 34000000 		.4byte	.LVL104
 5491 04d7 0100     		.2byte	0x1
 5492 04d9 53       		.byte	0x53
 5493 04da 36000000 		.4byte	.LVL105
 5494 04de 40000000 		.4byte	.LVL108
 5495 04e2 0100     		.2byte	0x1
 5496 04e4 53       		.byte	0x53
 5497 04e5 42000000 		.4byte	.LVL109
 5498 04e9 4A000000 		.4byte	.LFE6
 5499 04ed 0200     		.2byte	0x2
 5500 04ef 31       		.byte	0x31
 5501 04f0 9F       		.byte	0x9f
 5502 04f1 00000000 		.4byte	0
 5503 04f5 00000000 		.4byte	0
 5504              	.LLST18:
 5505 04f9 00000000 		.4byte	.LVL113
 5506 04fd 14000000 		.4byte	.LVL117
 5507 0501 0100     		.2byte	0x1
 5508 0503 50       		.byte	0x50
 5509 0504 14000000 		.4byte	.LVL117
 5510 0508 18000000 		.4byte	.LVL118
 5511 050c 0400     		.2byte	0x4
 5512 050e F3       		.byte	0xf3
 5513 050f 01       		.uleb128 0x1
 5514 0510 50       		.byte	0x50
 5515 0511 9F       		.byte	0x9f
 5516 0512 18000000 		.4byte	.LVL118
 5517 0516 24000000 		.4byte	.LVL120
 5518 051a 0100     		.2byte	0x1
 5519 051c 50       		.byte	0x50
 5520 051d 24000000 		.4byte	.LVL120
 5521 0521 8E000000 		.4byte	.LVL136
 5522 0525 0100     		.2byte	0x1
 5523 0527 57       		.byte	0x57
 5524 0528 8E000000 		.4byte	.LVL136
 5525 052c E0000000 		.4byte	.LFE7
 5526 0530 0400     		.2byte	0x4
 5527 0532 F3       		.byte	0xf3
 5528 0533 01       		.uleb128 0x1
 5529 0534 50       		.byte	0x50
 5530 0535 9F       		.byte	0x9f
 5531 0536 00000000 		.4byte	0
ARM GAS  C:\Users\codyg\AppData\Local\Temp\ccmSWLSY.s 			page 112


 5532 053a 00000000 		.4byte	0
 5533              	.LLST19:
 5534 053e 00000000 		.4byte	.LVL113
 5535 0542 12000000 		.4byte	.LVL116
 5536 0546 0100     		.2byte	0x1
 5537 0548 51       		.byte	0x51
 5538 0549 12000000 		.4byte	.LVL116
 5539 054d 18000000 		.4byte	.LVL118
 5540 0551 0400     		.2byte	0x4
 5541 0553 F3       		.byte	0xf3
 5542 0554 01       		.uleb128 0x1
 5543 0555 51       		.byte	0x51
 5544 0556 9F       		.byte	0x9f
 5545 0557 18000000 		.4byte	.LVL118
 5546 055b 27000000 		.4byte	.LVL121-1
 5547 055f 0100     		.2byte	0x1
 5548 0561 51       		.byte	0x51
 5549 0562 27000000 		.4byte	.LVL121-1
 5550 0566 D2000000 		.4byte	.LVL139
 5551 056a 0100     		.2byte	0x1
 5552 056c 55       		.byte	0x55
 5553 056d D2000000 		.4byte	.LVL139
 5554 0571 E0000000 		.4byte	.LFE7
 5555 0575 0400     		.2byte	0x4
 5556 0577 F3       		.byte	0xf3
 5557 0578 01       		.uleb128 0x1
 5558 0579 51       		.byte	0x51
 5559 057a 9F       		.byte	0x9f
 5560 057b 00000000 		.4byte	0
 5561 057f 00000000 		.4byte	0
 5562              	.LLST20:
 5563 0583 00000000 		.4byte	.LVL113
 5564 0587 10000000 		.4byte	.LVL115
 5565 058b 0100     		.2byte	0x1
 5566 058d 52       		.byte	0x52
 5567 058e 10000000 		.4byte	.LVL115
 5568 0592 18000000 		.4byte	.LVL118
 5569 0596 0400     		.2byte	0x4
 5570 0598 F3       		.byte	0xf3
 5571 0599 01       		.uleb128 0x1
 5572 059a 52       		.byte	0x52
 5573 059b 9F       		.byte	0x9f
 5574 059c 18000000 		.4byte	.LVL118
 5575 05a0 27000000 		.4byte	.LVL121-1
 5576 05a4 0100     		.2byte	0x1
 5577 05a6 52       		.byte	0x52
 5578 05a7 27000000 		.4byte	.LVL121-1
 5579 05ab B4000000 		.4byte	.LVL137
 5580 05af 0100     		.2byte	0x1
 5581 05b1 56       		.byte	0x56
 5582 05b2 B4000000 		.4byte	.LVL137
 5583 05b6 E0000000 		.4byte	.LFE7
 5584 05ba 0400     		.2byte	0x4
 5585 05bc F3       		.byte	0xf3
 5586 05bd 01       		.uleb128 0x1
 5587 05be 52       		.byte	0x52
 5588 05bf 9F       		.byte	0x9f
ARM GAS  C:\Users\codyg\AppData\Local\Temp\ccmSWLSY.s 			page 113


 5589 05c0 00000000 		.4byte	0
 5590 05c4 00000000 		.4byte	0
 5591              	.LLST21:
 5592 05c8 00000000 		.4byte	.LVL113
 5593 05cc 08000000 		.4byte	.LVL114
 5594 05d0 0100     		.2byte	0x1
 5595 05d2 53       		.byte	0x53
 5596 05d3 08000000 		.4byte	.LVL114
 5597 05d7 D2000000 		.4byte	.LVL139
 5598 05db 0100     		.2byte	0x1
 5599 05dd 54       		.byte	0x54
 5600 05de D2000000 		.4byte	.LVL139
 5601 05e2 E0000000 		.4byte	.LFE7
 5602 05e6 0400     		.2byte	0x4
 5603 05e8 F3       		.byte	0xf3
 5604 05e9 01       		.uleb128 0x1
 5605 05ea 53       		.byte	0x53
 5606 05eb 9F       		.byte	0x9f
 5607 05ec 00000000 		.4byte	0
 5608 05f0 00000000 		.4byte	0
 5609              	.LLST22:
 5610 05f4 1E000000 		.4byte	.LVL119
 5611 05f8 4A000000 		.4byte	.LVL126
 5612 05fc 0200     		.2byte	0x2
 5613 05fe 38       		.byte	0x38
 5614 05ff 9F       		.byte	0x9f
 5615 0600 4A000000 		.4byte	.LVL126
 5616 0604 54000000 		.4byte	.LVL127
 5617 0608 0100     		.2byte	0x1
 5618 060a 51       		.byte	0x51
 5619 060b 54000000 		.4byte	.LVL127
 5620 060f 5A000000 		.4byte	.LVL128
 5621 0613 0200     		.2byte	0x2
 5622 0615 38       		.byte	0x38
 5623 0616 9F       		.byte	0x9f
 5624 0617 5A000000 		.4byte	.LVL128
 5625 061b E0000000 		.4byte	.LFE7
 5626 061f 0100     		.2byte	0x1
 5627 0621 51       		.byte	0x51
 5628 0622 00000000 		.4byte	0
 5629 0626 00000000 		.4byte	0
 5630              	.LLST23:
 5631 062a 2A000000 		.4byte	.LVL122
 5632 062e D2000000 		.4byte	.LVL139
 5633 0632 0100     		.2byte	0x1
 5634 0634 58       		.byte	0x58
 5635 0635 00000000 		.4byte	0
 5636 0639 00000000 		.4byte	0
 5637              	.LLST24:
 5638 063d 30000000 		.4byte	.LVL123
 5639 0641 7E000000 		.4byte	.LVL133
 5640 0645 0100     		.2byte	0x1
 5641 0647 50       		.byte	0x50
 5642 0648 82000000 		.4byte	.LVL134
 5643 064c 84000000 		.4byte	.LVL135
 5644 0650 0100     		.2byte	0x1
 5645 0652 50       		.byte	0x50
ARM GAS  C:\Users\codyg\AppData\Local\Temp\ccmSWLSY.s 			page 114


 5646 0653 00000000 		.4byte	0
 5647 0657 00000000 		.4byte	0
 5648              	.LLST25:
 5649 065b 5A000000 		.4byte	.LVL128
 5650 065f 64000000 		.4byte	.LVL129
 5651 0663 0200     		.2byte	0x2
 5652 0665 30       		.byte	0x30
 5653 0666 9F       		.byte	0x9f
 5654 0667 64000000 		.4byte	.LVL129
 5655 066b 6C000000 		.4byte	.LVL130
 5656 066f 0100     		.2byte	0x1
 5657 0671 52       		.byte	0x52
 5658 0672 70000000 		.4byte	.LVL131
 5659 0676 78000000 		.4byte	.LVL132
 5660 067a 0100     		.2byte	0x1
 5661 067c 52       		.byte	0x52
 5662 067d 78000000 		.4byte	.LVL132
 5663 0681 BA000000 		.4byte	.LVL138
 5664 0685 0100     		.2byte	0x1
 5665 0687 53       		.byte	0x53
 5666 0688 00000000 		.4byte	0
 5667 068c 00000000 		.4byte	0
 5668              	.LLST26:
 5669 0690 5A000000 		.4byte	.LVL128
 5670 0694 84000000 		.4byte	.LVL135
 5671 0698 0100     		.2byte	0x1
 5672 069a 51       		.byte	0x51
 5673 069b 84000000 		.4byte	.LVL135
 5674 069f E0000000 		.4byte	.LFE7
 5675 06a3 0100     		.2byte	0x1
 5676 06a5 50       		.byte	0x50
 5677 06a6 00000000 		.4byte	0
 5678 06aa 00000000 		.4byte	0
 5679              	.LLST27:
 5680 06ae 00000000 		.4byte	.LVL140
 5681 06b2 16000000 		.4byte	.LVL144
 5682 06b6 0100     		.2byte	0x1
 5683 06b8 50       		.byte	0x50
 5684 06b9 16000000 		.4byte	.LVL144
 5685 06bd 1A000000 		.4byte	.LVL145
 5686 06c1 0400     		.2byte	0x4
 5687 06c3 F3       		.byte	0xf3
 5688 06c4 01       		.uleb128 0x1
 5689 06c5 50       		.byte	0x50
 5690 06c6 9F       		.byte	0x9f
 5691 06c7 1A000000 		.4byte	.LVL145
 5692 06cb 26000000 		.4byte	.LVL147
 5693 06cf 0100     		.2byte	0x1
 5694 06d1 50       		.byte	0x50
 5695 06d2 26000000 		.4byte	.LVL147
 5696 06d6 90000000 		.4byte	.LVL164
 5697 06da 0100     		.2byte	0x1
 5698 06dc 55       		.byte	0x55
 5699 06dd 90000000 		.4byte	.LVL164
 5700 06e1 E0000000 		.4byte	.LFE8
 5701 06e5 0400     		.2byte	0x4
 5702 06e7 F3       		.byte	0xf3
ARM GAS  C:\Users\codyg\AppData\Local\Temp\ccmSWLSY.s 			page 115


 5703 06e8 01       		.uleb128 0x1
 5704 06e9 50       		.byte	0x50
 5705 06ea 9F       		.byte	0x9f
 5706 06eb 00000000 		.4byte	0
 5707 06ef 00000000 		.4byte	0
 5708              	.LLST28:
 5709 06f3 00000000 		.4byte	.LVL140
 5710 06f7 14000000 		.4byte	.LVL143
 5711 06fb 0100     		.2byte	0x1
 5712 06fd 51       		.byte	0x51
 5713 06fe 14000000 		.4byte	.LVL143
 5714 0702 1A000000 		.4byte	.LVL145
 5715 0706 0400     		.2byte	0x4
 5716 0708 F3       		.byte	0xf3
 5717 0709 01       		.uleb128 0x1
 5718 070a 51       		.byte	0x51
 5719 070b 9F       		.byte	0x9f
 5720 070c 1A000000 		.4byte	.LVL145
 5721 0710 29000000 		.4byte	.LVL148-1
 5722 0714 0100     		.2byte	0x1
 5723 0716 51       		.byte	0x51
 5724 0717 29000000 		.4byte	.LVL148-1
 5725 071b D4000000 		.4byte	.LVL166
 5726 071f 0100     		.2byte	0x1
 5727 0721 56       		.byte	0x56
 5728 0722 D4000000 		.4byte	.LVL166
 5729 0726 E0000000 		.4byte	.LFE8
 5730 072a 0400     		.2byte	0x4
 5731 072c F3       		.byte	0xf3
 5732 072d 01       		.uleb128 0x1
 5733 072e 51       		.byte	0x51
 5734 072f 9F       		.byte	0x9f
 5735 0730 00000000 		.4byte	0
 5736 0734 00000000 		.4byte	0
 5737              	.LLST29:
 5738 0738 00000000 		.4byte	.LVL140
 5739 073c 10000000 		.4byte	.LVL142
 5740 0740 0100     		.2byte	0x1
 5741 0742 52       		.byte	0x52
 5742 0743 10000000 		.4byte	.LVL142
 5743 0747 1A000000 		.4byte	.LVL145
 5744 074b 0400     		.2byte	0x4
 5745 074d F3       		.byte	0xf3
 5746 074e 01       		.uleb128 0x1
 5747 074f 52       		.byte	0x52
 5748 0750 9F       		.byte	0x9f
 5749 0751 1A000000 		.4byte	.LVL145
 5750 0755 29000000 		.4byte	.LVL148-1
 5751 0759 0100     		.2byte	0x1
 5752 075b 52       		.byte	0x52
 5753 075c 29000000 		.4byte	.LVL148-1
 5754 0760 D4000000 		.4byte	.LVL166
 5755 0764 0100     		.2byte	0x1
 5756 0766 57       		.byte	0x57
 5757 0767 D4000000 		.4byte	.LVL166
 5758 076b E0000000 		.4byte	.LFE8
 5759 076f 0400     		.2byte	0x4
ARM GAS  C:\Users\codyg\AppData\Local\Temp\ccmSWLSY.s 			page 116


 5760 0771 F3       		.byte	0xf3
 5761 0772 01       		.uleb128 0x1
 5762 0773 52       		.byte	0x52
 5763 0774 9F       		.byte	0x9f
 5764 0775 00000000 		.4byte	0
 5765 0779 00000000 		.4byte	0
 5766              	.LLST30:
 5767 077d 00000000 		.4byte	.LVL140
 5768 0781 08000000 		.4byte	.LVL141
 5769 0785 0100     		.2byte	0x1
 5770 0787 53       		.byte	0x53
 5771 0788 08000000 		.4byte	.LVL141
 5772 078c D4000000 		.4byte	.LVL166
 5773 0790 0100     		.2byte	0x1
 5774 0792 54       		.byte	0x54
 5775 0793 D4000000 		.4byte	.LVL166
 5776 0797 E0000000 		.4byte	.LFE8
 5777 079b 0400     		.2byte	0x4
 5778 079d F3       		.byte	0xf3
 5779 079e 01       		.uleb128 0x1
 5780 079f 53       		.byte	0x53
 5781 07a0 9F       		.byte	0x9f
 5782 07a1 00000000 		.4byte	0
 5783 07a5 00000000 		.4byte	0
 5784              	.LLST31:
 5785 07a9 20000000 		.4byte	.LVL146
 5786 07ad 4C000000 		.4byte	.LVL153
 5787 07b1 0200     		.2byte	0x2
 5788 07b3 40       		.byte	0x40
 5789 07b4 9F       		.byte	0x9f
 5790 07b5 4C000000 		.4byte	.LVL153
 5791 07b9 56000000 		.4byte	.LVL154
 5792 07bd 0100     		.2byte	0x1
 5793 07bf 51       		.byte	0x51
 5794 07c0 56000000 		.4byte	.LVL154
 5795 07c4 5C000000 		.4byte	.LVL155
 5796 07c8 0200     		.2byte	0x2
 5797 07ca 40       		.byte	0x40
 5798 07cb 9F       		.byte	0x9f
 5799 07cc 5C000000 		.4byte	.LVL155
 5800 07d0 E0000000 		.4byte	.LFE8
 5801 07d4 0100     		.2byte	0x1
 5802 07d6 51       		.byte	0x51
 5803 07d7 00000000 		.4byte	0
 5804 07db 00000000 		.4byte	0
 5805              	.LLST32:
 5806 07df 2C000000 		.4byte	.LVL149
 5807 07e3 D4000000 		.4byte	.LVL166
 5808 07e7 0100     		.2byte	0x1
 5809 07e9 58       		.byte	0x58
 5810 07ea 00000000 		.4byte	0
 5811 07ee 00000000 		.4byte	0
 5812              	.LLST33:
 5813 07f2 32000000 		.4byte	.LVL150
 5814 07f6 80000000 		.4byte	.LVL161
 5815 07fa 0100     		.2byte	0x1
 5816 07fc 50       		.byte	0x50
ARM GAS  C:\Users\codyg\AppData\Local\Temp\ccmSWLSY.s 			page 117


 5817 07fd 84000000 		.4byte	.LVL162
 5818 0801 86000000 		.4byte	.LVL163
 5819 0805 0100     		.2byte	0x1
 5820 0807 50       		.byte	0x50
 5821 0808 00000000 		.4byte	0
 5822 080c 00000000 		.4byte	0
 5823              	.LLST34:
 5824 0810 5C000000 		.4byte	.LVL155
 5825 0814 86000000 		.4byte	.LVL163
 5826 0818 0100     		.2byte	0x1
 5827 081a 51       		.byte	0x51
 5828 081b 86000000 		.4byte	.LVL163
 5829 081f E0000000 		.4byte	.LFE8
 5830 0823 0100     		.2byte	0x1
 5831 0825 50       		.byte	0x50
 5832 0826 00000000 		.4byte	0
 5833 082a 00000000 		.4byte	0
 5834              	.LLST35:
 5835 082e 5C000000 		.4byte	.LVL155
 5836 0832 66000000 		.4byte	.LVL156
 5837 0836 0200     		.2byte	0x2
 5838 0838 30       		.byte	0x30
 5839 0839 9F       		.byte	0x9f
 5840 083a 66000000 		.4byte	.LVL156
 5841 083e 6E000000 		.4byte	.LVL157
 5842 0842 0100     		.2byte	0x1
 5843 0844 52       		.byte	0x52
 5844 0845 70000000 		.4byte	.LVL158
 5845 0849 78000000 		.4byte	.LVL159
 5846 084d 0100     		.2byte	0x1
 5847 084f 52       		.byte	0x52
 5848 0850 7A000000 		.4byte	.LVL160
 5849 0854 BC000000 		.4byte	.LVL165
 5850 0858 0100     		.2byte	0x1
 5851 085a 53       		.byte	0x53
 5852 085b 00000000 		.4byte	0
 5853 085f 00000000 		.4byte	0
 5854              	.LLST36:
 5855 0863 00000000 		.4byte	.LVL167
 5856 0867 16000000 		.4byte	.LVL171
 5857 086b 0100     		.2byte	0x1
 5858 086d 50       		.byte	0x50
 5859 086e 16000000 		.4byte	.LVL171
 5860 0872 1A000000 		.4byte	.LVL172
 5861 0876 0400     		.2byte	0x4
 5862 0878 F3       		.byte	0xf3
 5863 0879 01       		.uleb128 0x1
 5864 087a 50       		.byte	0x50
 5865 087b 9F       		.byte	0x9f
 5866 087c 1A000000 		.4byte	.LVL172
 5867 0880 26000000 		.4byte	.LVL174
 5868 0884 0100     		.2byte	0x1
 5869 0886 50       		.byte	0x50
 5870 0887 26000000 		.4byte	.LVL174
 5871 088b 8C000000 		.4byte	.LVL191
 5872 088f 0100     		.2byte	0x1
 5873 0891 55       		.byte	0x55
ARM GAS  C:\Users\codyg\AppData\Local\Temp\ccmSWLSY.s 			page 118


 5874 0892 8C000000 		.4byte	.LVL191
 5875 0896 DC000000 		.4byte	.LFE9
 5876 089a 0400     		.2byte	0x4
 5877 089c F3       		.byte	0xf3
 5878 089d 01       		.uleb128 0x1
 5879 089e 50       		.byte	0x50
 5880 089f 9F       		.byte	0x9f
 5881 08a0 00000000 		.4byte	0
 5882 08a4 00000000 		.4byte	0
 5883              	.LLST37:
 5884 08a8 00000000 		.4byte	.LVL167
 5885 08ac 14000000 		.4byte	.LVL170
 5886 08b0 0100     		.2byte	0x1
 5887 08b2 51       		.byte	0x51
 5888 08b3 14000000 		.4byte	.LVL170
 5889 08b7 1A000000 		.4byte	.LVL172
 5890 08bb 0400     		.2byte	0x4
 5891 08bd F3       		.byte	0xf3
 5892 08be 01       		.uleb128 0x1
 5893 08bf 51       		.byte	0x51
 5894 08c0 9F       		.byte	0x9f
 5895 08c1 1A000000 		.4byte	.LVL172
 5896 08c5 29000000 		.4byte	.LVL175-1
 5897 08c9 0100     		.2byte	0x1
 5898 08cb 51       		.byte	0x51
 5899 08cc 29000000 		.4byte	.LVL175-1
 5900 08d0 D0000000 		.4byte	.LVL193
 5901 08d4 0100     		.2byte	0x1
 5902 08d6 56       		.byte	0x56
 5903 08d7 D0000000 		.4byte	.LVL193
 5904 08db DC000000 		.4byte	.LFE9
 5905 08df 0400     		.2byte	0x4
 5906 08e1 F3       		.byte	0xf3
 5907 08e2 01       		.uleb128 0x1
 5908 08e3 51       		.byte	0x51
 5909 08e4 9F       		.byte	0x9f
 5910 08e5 00000000 		.4byte	0
 5911 08e9 00000000 		.4byte	0
 5912              	.LLST38:
 5913 08ed 00000000 		.4byte	.LVL167
 5914 08f1 10000000 		.4byte	.LVL169
 5915 08f5 0100     		.2byte	0x1
 5916 08f7 52       		.byte	0x52
 5917 08f8 10000000 		.4byte	.LVL169
 5918 08fc 1A000000 		.4byte	.LVL172
 5919 0900 0400     		.2byte	0x4
 5920 0902 F3       		.byte	0xf3
 5921 0903 01       		.uleb128 0x1
 5922 0904 52       		.byte	0x52
 5923 0905 9F       		.byte	0x9f
 5924 0906 1A000000 		.4byte	.LVL172
 5925 090a 29000000 		.4byte	.LVL175-1
 5926 090e 0100     		.2byte	0x1
 5927 0910 52       		.byte	0x52
 5928 0911 29000000 		.4byte	.LVL175-1
 5929 0915 D0000000 		.4byte	.LVL193
 5930 0919 0100     		.2byte	0x1
ARM GAS  C:\Users\codyg\AppData\Local\Temp\ccmSWLSY.s 			page 119


 5931 091b 57       		.byte	0x57
 5932 091c D0000000 		.4byte	.LVL193
 5933 0920 DC000000 		.4byte	.LFE9
 5934 0924 0400     		.2byte	0x4
 5935 0926 F3       		.byte	0xf3
 5936 0927 01       		.uleb128 0x1
 5937 0928 52       		.byte	0x52
 5938 0929 9F       		.byte	0x9f
 5939 092a 00000000 		.4byte	0
 5940 092e 00000000 		.4byte	0
 5941              	.LLST39:
 5942 0932 00000000 		.4byte	.LVL167
 5943 0936 08000000 		.4byte	.LVL168
 5944 093a 0100     		.2byte	0x1
 5945 093c 53       		.byte	0x53
 5946 093d 08000000 		.4byte	.LVL168
 5947 0941 D0000000 		.4byte	.LVL193
 5948 0945 0100     		.2byte	0x1
 5949 0947 54       		.byte	0x54
 5950 0948 D0000000 		.4byte	.LVL193
 5951 094c DC000000 		.4byte	.LFE9
 5952 0950 0400     		.2byte	0x4
 5953 0952 F3       		.byte	0xf3
 5954 0953 01       		.uleb128 0x1
 5955 0954 53       		.byte	0x53
 5956 0955 9F       		.byte	0x9f
 5957 0956 00000000 		.4byte	0
 5958 095a 00000000 		.4byte	0
 5959              	.LLST40:
 5960 095e 20000000 		.4byte	.LVL173
 5961 0962 4C000000 		.4byte	.LVL180
 5962 0966 0300     		.2byte	0x3
 5963 0968 08       		.byte	0x8
 5964 0969 20       		.byte	0x20
 5965 096a 9F       		.byte	0x9f
 5966 096b 4C000000 		.4byte	.LVL180
 5967 096f 54000000 		.4byte	.LVL181
 5968 0973 0100     		.2byte	0x1
 5969 0975 51       		.byte	0x51
 5970 0976 54000000 		.4byte	.LVL181
 5971 097a 5A000000 		.4byte	.LVL182
 5972 097e 0300     		.2byte	0x3
 5973 0980 08       		.byte	0x8
 5974 0981 20       		.byte	0x20
 5975 0982 9F       		.byte	0x9f
 5976 0983 5A000000 		.4byte	.LVL182
 5977 0987 DC000000 		.4byte	.LFE9
 5978 098b 0100     		.2byte	0x1
 5979 098d 51       		.byte	0x51
 5980 098e 00000000 		.4byte	0
 5981 0992 00000000 		.4byte	0
 5982              	.LLST41:
 5983 0996 2C000000 		.4byte	.LVL176
 5984 099a D0000000 		.4byte	.LVL193
 5985 099e 0100     		.2byte	0x1
 5986 09a0 58       		.byte	0x58
 5987 09a1 00000000 		.4byte	0
ARM GAS  C:\Users\codyg\AppData\Local\Temp\ccmSWLSY.s 			page 120


 5988 09a5 00000000 		.4byte	0
 5989              	.LLST42:
 5990 09a9 32000000 		.4byte	.LVL177
 5991 09ad 7E000000 		.4byte	.LVL188
 5992 09b1 0100     		.2byte	0x1
 5993 09b3 50       		.byte	0x50
 5994 09b4 82000000 		.4byte	.LVL189
 5995 09b8 84000000 		.4byte	.LVL190
 5996 09bc 0100     		.2byte	0x1
 5997 09be 50       		.byte	0x50
 5998 09bf 00000000 		.4byte	0
 5999 09c3 00000000 		.4byte	0
 6000              	.LLST43:
 6001 09c7 5A000000 		.4byte	.LVL182
 6002 09cb 84000000 		.4byte	.LVL190
 6003 09cf 0100     		.2byte	0x1
 6004 09d1 51       		.byte	0x51
 6005 09d2 84000000 		.4byte	.LVL190
 6006 09d6 DC000000 		.4byte	.LFE9
 6007 09da 0100     		.2byte	0x1
 6008 09dc 50       		.byte	0x50
 6009 09dd 00000000 		.4byte	0
 6010 09e1 00000000 		.4byte	0
 6011              	.LLST44:
 6012 09e5 5A000000 		.4byte	.LVL182
 6013 09e9 64000000 		.4byte	.LVL183
 6014 09ed 0200     		.2byte	0x2
 6015 09ef 30       		.byte	0x30
 6016 09f0 9F       		.byte	0x9f
 6017 09f1 64000000 		.4byte	.LVL183
 6018 09f5 6C000000 		.4byte	.LVL184
 6019 09f9 0100     		.2byte	0x1
 6020 09fb 52       		.byte	0x52
 6021 09fc 6E000000 		.4byte	.LVL185
 6022 0a00 76000000 		.4byte	.LVL186
 6023 0a04 0100     		.2byte	0x1
 6024 0a06 52       		.byte	0x52
 6025 0a07 78000000 		.4byte	.LVL187
 6026 0a0b B8000000 		.4byte	.LVL192
 6027 0a0f 0100     		.2byte	0x1
 6028 0a11 53       		.byte	0x53
 6029 0a12 00000000 		.4byte	0
 6030 0a16 00000000 		.4byte	0
 6031              	.LLST45:
 6032 0a1a 00000000 		.4byte	.LVL194
 6033 0a1e 16000000 		.4byte	.LVL198
 6034 0a22 0100     		.2byte	0x1
 6035 0a24 50       		.byte	0x50
 6036 0a25 16000000 		.4byte	.LVL198
 6037 0a29 1A000000 		.4byte	.LVL199
 6038 0a2d 0400     		.2byte	0x4
 6039 0a2f F3       		.byte	0xf3
 6040 0a30 01       		.uleb128 0x1
 6041 0a31 50       		.byte	0x50
 6042 0a32 9F       		.byte	0x9f
 6043 0a33 1A000000 		.4byte	.LVL199
 6044 0a37 22000000 		.4byte	.LVL200
ARM GAS  C:\Users\codyg\AppData\Local\Temp\ccmSWLSY.s 			page 121


 6045 0a3b 0100     		.2byte	0x1
 6046 0a3d 50       		.byte	0x50
 6047 0a3e 22000000 		.4byte	.LVL200
 6048 0a42 94000000 		.4byte	.LFE10
 6049 0a46 0400     		.2byte	0x4
 6050 0a48 F3       		.byte	0xf3
 6051 0a49 01       		.uleb128 0x1
 6052 0a4a 50       		.byte	0x50
 6053 0a4b 9F       		.byte	0x9f
 6054 0a4c 00000000 		.4byte	0
 6055 0a50 00000000 		.4byte	0
 6056              	.LLST46:
 6057 0a54 00000000 		.4byte	.LVL194
 6058 0a58 14000000 		.4byte	.LVL197
 6059 0a5c 0100     		.2byte	0x1
 6060 0a5e 51       		.byte	0x51
 6061 0a5f 14000000 		.4byte	.LVL197
 6062 0a63 1A000000 		.4byte	.LVL199
 6063 0a67 0400     		.2byte	0x4
 6064 0a69 F3       		.byte	0xf3
 6065 0a6a 01       		.uleb128 0x1
 6066 0a6b 51       		.byte	0x51
 6067 0a6c 9F       		.byte	0x9f
 6068 0a6d 1A000000 		.4byte	.LVL199
 6069 0a71 2B000000 		.4byte	.LVL201-1
 6070 0a75 0100     		.2byte	0x1
 6071 0a77 51       		.byte	0x51
 6072 0a78 2B000000 		.4byte	.LVL201-1
 6073 0a7c 88000000 		.4byte	.LVL209
 6074 0a80 0100     		.2byte	0x1
 6075 0a82 55       		.byte	0x55
 6076 0a83 88000000 		.4byte	.LVL209
 6077 0a87 94000000 		.4byte	.LFE10
 6078 0a8b 0400     		.2byte	0x4
 6079 0a8d F3       		.byte	0xf3
 6080 0a8e 01       		.uleb128 0x1
 6081 0a8f 51       		.byte	0x51
 6082 0a90 9F       		.byte	0x9f
 6083 0a91 00000000 		.4byte	0
 6084 0a95 00000000 		.4byte	0
 6085              	.LLST47:
 6086 0a99 00000000 		.4byte	.LVL194
 6087 0a9d 10000000 		.4byte	.LVL196
 6088 0aa1 0100     		.2byte	0x1
 6089 0aa3 52       		.byte	0x52
 6090 0aa4 10000000 		.4byte	.LVL196
 6091 0aa8 1A000000 		.4byte	.LVL199
 6092 0aac 0400     		.2byte	0x4
 6093 0aae F3       		.byte	0xf3
 6094 0aaf 01       		.uleb128 0x1
 6095 0ab0 52       		.byte	0x52
 6096 0ab1 9F       		.byte	0x9f
 6097 0ab2 1A000000 		.4byte	.LVL199
 6098 0ab6 2B000000 		.4byte	.LVL201-1
 6099 0aba 0100     		.2byte	0x1
 6100 0abc 52       		.byte	0x52
 6101 0abd 2B000000 		.4byte	.LVL201-1
ARM GAS  C:\Users\codyg\AppData\Local\Temp\ccmSWLSY.s 			page 122


 6102 0ac1 88000000 		.4byte	.LVL209
 6103 0ac5 0100     		.2byte	0x1
 6104 0ac7 56       		.byte	0x56
 6105 0ac8 88000000 		.4byte	.LVL209
 6106 0acc 94000000 		.4byte	.LFE10
 6107 0ad0 0400     		.2byte	0x4
 6108 0ad2 F3       		.byte	0xf3
 6109 0ad3 01       		.uleb128 0x1
 6110 0ad4 52       		.byte	0x52
 6111 0ad5 9F       		.byte	0x9f
 6112 0ad6 00000000 		.4byte	0
 6113 0ada 00000000 		.4byte	0
 6114              	.LLST48:
 6115 0ade 00000000 		.4byte	.LVL194
 6116 0ae2 08000000 		.4byte	.LVL195
 6117 0ae6 0100     		.2byte	0x1
 6118 0ae8 53       		.byte	0x53
 6119 0ae9 08000000 		.4byte	.LVL195
 6120 0aed 88000000 		.4byte	.LVL209
 6121 0af1 0100     		.2byte	0x1
 6122 0af3 54       		.byte	0x54
 6123 0af4 88000000 		.4byte	.LVL209
 6124 0af8 94000000 		.4byte	.LFE10
 6125 0afc 0400     		.2byte	0x4
 6126 0afe F3       		.byte	0xf3
 6127 0aff 01       		.uleb128 0x1
 6128 0b00 53       		.byte	0x53
 6129 0b01 9F       		.byte	0x9f
 6130 0b02 00000000 		.4byte	0
 6131 0b06 00000000 		.4byte	0
 6132              	.LLST49:
 6133 0b0a 2C000000 		.4byte	.LVL201
 6134 0b0e 4A000000 		.4byte	.LVL203
 6135 0b12 0100     		.2byte	0x1
 6136 0b14 50       		.byte	0x50
 6137 0b15 4A000000 		.4byte	.LVL203
 6138 0b19 4E000000 		.4byte	.LVL204
 6139 0b1d 0200     		.2byte	0x2
 6140 0b1f 30       		.byte	0x30
 6141 0b20 9F       		.byte	0x9f
 6142 0b21 4E000000 		.4byte	.LVL204
 6143 0b25 66000000 		.4byte	.LVL206
 6144 0b29 0100     		.2byte	0x1
 6145 0b2b 50       		.byte	0x50
 6146 0b2c 6C000000 		.4byte	.LVL207
 6147 0b30 94000000 		.4byte	.LFE10
 6148 0b34 0100     		.2byte	0x1
 6149 0b36 50       		.byte	0x50
 6150 0b37 00000000 		.4byte	0
 6151 0b3b 00000000 		.4byte	0
 6152              	.LLST50:
 6153 0b3f 32000000 		.4byte	.LVL202
 6154 0b43 5C000000 		.4byte	.LVL205
 6155 0b47 0100     		.2byte	0x1
 6156 0b49 52       		.byte	0x52
 6157 0b4a 00000000 		.4byte	0
 6158 0b4e 00000000 		.4byte	0
ARM GAS  C:\Users\codyg\AppData\Local\Temp\ccmSWLSY.s 			page 123


 6159              	.LLST51:
 6160 0b52 00000000 		.4byte	.LVL210
 6161 0b56 16000000 		.4byte	.LVL214
 6162 0b5a 0100     		.2byte	0x1
 6163 0b5c 50       		.byte	0x50
 6164 0b5d 16000000 		.4byte	.LVL214
 6165 0b61 1A000000 		.4byte	.LVL215
 6166 0b65 0400     		.2byte	0x4
 6167 0b67 F3       		.byte	0xf3
 6168 0b68 01       		.uleb128 0x1
 6169 0b69 50       		.byte	0x50
 6170 0b6a 9F       		.byte	0x9f
 6171 0b6b 1A000000 		.4byte	.LVL215
 6172 0b6f 22000000 		.4byte	.LVL216
 6173 0b73 0100     		.2byte	0x1
 6174 0b75 50       		.byte	0x50
 6175 0b76 22000000 		.4byte	.LVL216
 6176 0b7a 98000000 		.4byte	.LFE11
 6177 0b7e 0400     		.2byte	0x4
 6178 0b80 F3       		.byte	0xf3
 6179 0b81 01       		.uleb128 0x1
 6180 0b82 50       		.byte	0x50
 6181 0b83 9F       		.byte	0x9f
 6182 0b84 00000000 		.4byte	0
 6183 0b88 00000000 		.4byte	0
 6184              	.LLST52:
 6185 0b8c 00000000 		.4byte	.LVL210
 6186 0b90 14000000 		.4byte	.LVL213
 6187 0b94 0100     		.2byte	0x1
 6188 0b96 51       		.byte	0x51
 6189 0b97 14000000 		.4byte	.LVL213
 6190 0b9b 1A000000 		.4byte	.LVL215
 6191 0b9f 0400     		.2byte	0x4
 6192 0ba1 F3       		.byte	0xf3
 6193 0ba2 01       		.uleb128 0x1
 6194 0ba3 51       		.byte	0x51
 6195 0ba4 9F       		.byte	0x9f
 6196 0ba5 1A000000 		.4byte	.LVL215
 6197 0ba9 2B000000 		.4byte	.LVL217-1
 6198 0bad 0100     		.2byte	0x1
 6199 0baf 51       		.byte	0x51
 6200 0bb0 2B000000 		.4byte	.LVL217-1
 6201 0bb4 8A000000 		.4byte	.LVL225
 6202 0bb8 0100     		.2byte	0x1
 6203 0bba 55       		.byte	0x55
 6204 0bbb 8A000000 		.4byte	.LVL225
 6205 0bbf 98000000 		.4byte	.LFE11
 6206 0bc3 0400     		.2byte	0x4
 6207 0bc5 F3       		.byte	0xf3
 6208 0bc6 01       		.uleb128 0x1
 6209 0bc7 51       		.byte	0x51
 6210 0bc8 9F       		.byte	0x9f
 6211 0bc9 00000000 		.4byte	0
 6212 0bcd 00000000 		.4byte	0
 6213              	.LLST53:
 6214 0bd1 00000000 		.4byte	.LVL210
 6215 0bd5 10000000 		.4byte	.LVL212
ARM GAS  C:\Users\codyg\AppData\Local\Temp\ccmSWLSY.s 			page 124


 6216 0bd9 0100     		.2byte	0x1
 6217 0bdb 52       		.byte	0x52
 6218 0bdc 10000000 		.4byte	.LVL212
 6219 0be0 1A000000 		.4byte	.LVL215
 6220 0be4 0400     		.2byte	0x4
 6221 0be6 F3       		.byte	0xf3
 6222 0be7 01       		.uleb128 0x1
 6223 0be8 52       		.byte	0x52
 6224 0be9 9F       		.byte	0x9f
 6225 0bea 1A000000 		.4byte	.LVL215
 6226 0bee 2B000000 		.4byte	.LVL217-1
 6227 0bf2 0100     		.2byte	0x1
 6228 0bf4 52       		.byte	0x52
 6229 0bf5 2B000000 		.4byte	.LVL217-1
 6230 0bf9 8A000000 		.4byte	.LVL225
 6231 0bfd 0100     		.2byte	0x1
 6232 0bff 56       		.byte	0x56
 6233 0c00 8A000000 		.4byte	.LVL225
 6234 0c04 98000000 		.4byte	.LFE11
 6235 0c08 0400     		.2byte	0x4
 6236 0c0a F3       		.byte	0xf3
 6237 0c0b 01       		.uleb128 0x1
 6238 0c0c 52       		.byte	0x52
 6239 0c0d 9F       		.byte	0x9f
 6240 0c0e 00000000 		.4byte	0
 6241 0c12 00000000 		.4byte	0
 6242              	.LLST54:
 6243 0c16 00000000 		.4byte	.LVL210
 6244 0c1a 08000000 		.4byte	.LVL211
 6245 0c1e 0100     		.2byte	0x1
 6246 0c20 53       		.byte	0x53
 6247 0c21 08000000 		.4byte	.LVL211
 6248 0c25 8A000000 		.4byte	.LVL225
 6249 0c29 0100     		.2byte	0x1
 6250 0c2b 54       		.byte	0x54
 6251 0c2c 8A000000 		.4byte	.LVL225
 6252 0c30 98000000 		.4byte	.LFE11
 6253 0c34 0400     		.2byte	0x4
 6254 0c36 F3       		.byte	0xf3
 6255 0c37 01       		.uleb128 0x1
 6256 0c38 53       		.byte	0x53
 6257 0c39 9F       		.byte	0x9f
 6258 0c3a 00000000 		.4byte	0
 6259 0c3e 00000000 		.4byte	0
 6260              	.LLST55:
 6261 0c42 2C000000 		.4byte	.LVL217
 6262 0c46 4C000000 		.4byte	.LVL219
 6263 0c4a 0100     		.2byte	0x1
 6264 0c4c 50       		.byte	0x50
 6265 0c4d 4C000000 		.4byte	.LVL219
 6266 0c51 50000000 		.4byte	.LVL220
 6267 0c55 0200     		.2byte	0x2
 6268 0c57 30       		.byte	0x30
 6269 0c58 9F       		.byte	0x9f
 6270 0c59 50000000 		.4byte	.LVL220
 6271 0c5d 68000000 		.4byte	.LVL222
 6272 0c61 0100     		.2byte	0x1
ARM GAS  C:\Users\codyg\AppData\Local\Temp\ccmSWLSY.s 			page 125


 6273 0c63 50       		.byte	0x50
 6274 0c64 6E000000 		.4byte	.LVL223
 6275 0c68 98000000 		.4byte	.LFE11
 6276 0c6c 0100     		.2byte	0x1
 6277 0c6e 50       		.byte	0x50
 6278 0c6f 00000000 		.4byte	0
 6279 0c73 00000000 		.4byte	0
 6280              	.LLST56:
 6281 0c77 34000000 		.4byte	.LVL218
 6282 0c7b 5E000000 		.4byte	.LVL221
 6283 0c7f 0100     		.2byte	0x1
 6284 0c81 53       		.byte	0x53
 6285 0c82 00000000 		.4byte	0
 6286 0c86 00000000 		.4byte	0
 6287              	.LLST57:
 6288 0c8a 00000000 		.4byte	.LVL226
 6289 0c8e 16000000 		.4byte	.LVL230
 6290 0c92 0100     		.2byte	0x1
 6291 0c94 50       		.byte	0x50
 6292 0c95 16000000 		.4byte	.LVL230
 6293 0c99 1A000000 		.4byte	.LVL231
 6294 0c9d 0400     		.2byte	0x4
 6295 0c9f F3       		.byte	0xf3
 6296 0ca0 01       		.uleb128 0x1
 6297 0ca1 50       		.byte	0x50
 6298 0ca2 9F       		.byte	0x9f
 6299 0ca3 1A000000 		.4byte	.LVL231
 6300 0ca7 22000000 		.4byte	.LVL232
 6301 0cab 0100     		.2byte	0x1
 6302 0cad 50       		.byte	0x50
 6303 0cae 22000000 		.4byte	.LVL232
 6304 0cb2 2E000000 		.4byte	.LVL234
 6305 0cb6 0100     		.2byte	0x1
 6306 0cb8 57       		.byte	0x57
 6307 0cb9 2E000000 		.4byte	.LVL234
 6308 0cbd 90000000 		.4byte	.LFE12
 6309 0cc1 0400     		.2byte	0x4
 6310 0cc3 F3       		.byte	0xf3
 6311 0cc4 01       		.uleb128 0x1
 6312 0cc5 50       		.byte	0x50
 6313 0cc6 9F       		.byte	0x9f
 6314 0cc7 00000000 		.4byte	0
 6315 0ccb 00000000 		.4byte	0
 6316              	.LLST58:
 6317 0ccf 00000000 		.4byte	.LVL226
 6318 0cd3 14000000 		.4byte	.LVL229
 6319 0cd7 0100     		.2byte	0x1
 6320 0cd9 51       		.byte	0x51
 6321 0cda 14000000 		.4byte	.LVL229
 6322 0cde 1A000000 		.4byte	.LVL231
 6323 0ce2 0400     		.2byte	0x4
 6324 0ce4 F3       		.byte	0xf3
 6325 0ce5 01       		.uleb128 0x1
 6326 0ce6 51       		.byte	0x51
 6327 0ce7 9F       		.byte	0x9f
 6328 0ce8 1A000000 		.4byte	.LVL231
 6329 0cec 2B000000 		.4byte	.LVL233-1
ARM GAS  C:\Users\codyg\AppData\Local\Temp\ccmSWLSY.s 			page 126


 6330 0cf0 0100     		.2byte	0x1
 6331 0cf2 51       		.byte	0x51
 6332 0cf3 2B000000 		.4byte	.LVL233-1
 6333 0cf7 84000000 		.4byte	.LVL242
 6334 0cfb 0100     		.2byte	0x1
 6335 0cfd 55       		.byte	0x55
 6336 0cfe 84000000 		.4byte	.LVL242
 6337 0d02 90000000 		.4byte	.LFE12
 6338 0d06 0400     		.2byte	0x4
 6339 0d08 F3       		.byte	0xf3
 6340 0d09 01       		.uleb128 0x1
 6341 0d0a 51       		.byte	0x51
 6342 0d0b 9F       		.byte	0x9f
 6343 0d0c 00000000 		.4byte	0
 6344 0d10 00000000 		.4byte	0
 6345              	.LLST59:
 6346 0d14 00000000 		.4byte	.LVL226
 6347 0d18 10000000 		.4byte	.LVL228
 6348 0d1c 0100     		.2byte	0x1
 6349 0d1e 52       		.byte	0x52
 6350 0d1f 10000000 		.4byte	.LVL228
 6351 0d23 1A000000 		.4byte	.LVL231
 6352 0d27 0400     		.2byte	0x4
 6353 0d29 F3       		.byte	0xf3
 6354 0d2a 01       		.uleb128 0x1
 6355 0d2b 52       		.byte	0x52
 6356 0d2c 9F       		.byte	0x9f
 6357 0d2d 1A000000 		.4byte	.LVL231
 6358 0d31 2B000000 		.4byte	.LVL233-1
 6359 0d35 0100     		.2byte	0x1
 6360 0d37 52       		.byte	0x52
 6361 0d38 2B000000 		.4byte	.LVL233-1
 6362 0d3c 84000000 		.4byte	.LVL242
 6363 0d40 0100     		.2byte	0x1
 6364 0d42 56       		.byte	0x56
 6365 0d43 84000000 		.4byte	.LVL242
 6366 0d47 90000000 		.4byte	.LFE12
 6367 0d4b 0400     		.2byte	0x4
 6368 0d4d F3       		.byte	0xf3
 6369 0d4e 01       		.uleb128 0x1
 6370 0d4f 52       		.byte	0x52
 6371 0d50 9F       		.byte	0x9f
 6372 0d51 00000000 		.4byte	0
 6373 0d55 00000000 		.4byte	0
 6374              	.LLST60:
 6375 0d59 00000000 		.4byte	.LVL226
 6376 0d5d 08000000 		.4byte	.LVL227
 6377 0d61 0100     		.2byte	0x1
 6378 0d63 53       		.byte	0x53
 6379 0d64 08000000 		.4byte	.LVL227
 6380 0d68 84000000 		.4byte	.LVL242
 6381 0d6c 0100     		.2byte	0x1
 6382 0d6e 54       		.byte	0x54
 6383 0d6f 84000000 		.4byte	.LVL242
 6384 0d73 90000000 		.4byte	.LFE12
 6385 0d77 0400     		.2byte	0x4
 6386 0d79 F3       		.byte	0xf3
ARM GAS  C:\Users\codyg\AppData\Local\Temp\ccmSWLSY.s 			page 127


 6387 0d7a 01       		.uleb128 0x1
 6388 0d7b 53       		.byte	0x53
 6389 0d7c 9F       		.byte	0x9f
 6390 0d7d 00000000 		.4byte	0
 6391 0d81 00000000 		.4byte	0
 6392              	.LLST61:
 6393 0d85 2C000000 		.4byte	.LVL233
 6394 0d89 4A000000 		.4byte	.LVL236
 6395 0d8d 0100     		.2byte	0x1
 6396 0d8f 50       		.byte	0x50
 6397 0d90 4A000000 		.4byte	.LVL236
 6398 0d94 4E000000 		.4byte	.LVL237
 6399 0d98 0200     		.2byte	0x2
 6400 0d9a 30       		.byte	0x30
 6401 0d9b 9F       		.byte	0x9f
 6402 0d9c 4E000000 		.4byte	.LVL237
 6403 0da0 66000000 		.4byte	.LVL239
 6404 0da4 0100     		.2byte	0x1
 6405 0da6 50       		.byte	0x50
 6406 0da7 6C000000 		.4byte	.LVL240
 6407 0dab 90000000 		.4byte	.LFE12
 6408 0daf 0100     		.2byte	0x1
 6409 0db1 50       		.byte	0x50
 6410 0db2 00000000 		.4byte	0
 6411 0db6 00000000 		.4byte	0
 6412              	.LLST62:
 6413 0dba 32000000 		.4byte	.LVL235
 6414 0dbe 5C000000 		.4byte	.LVL238
 6415 0dc2 0100     		.2byte	0x1
 6416 0dc4 52       		.byte	0x52
 6417 0dc5 00000000 		.4byte	0
 6418 0dc9 00000000 		.4byte	0
 6419              	.LLST63:
 6420 0dcd 00000000 		.4byte	.LVL243
 6421 0dd1 30000000 		.4byte	.LVL244
 6422 0dd5 0100     		.2byte	0x1
 6423 0dd7 50       		.byte	0x50
 6424 0dd8 30000000 		.4byte	.LVL244
 6425 0ddc AA010000 		.4byte	.LFE13
 6426 0de0 0100     		.2byte	0x1
 6427 0de2 54       		.byte	0x54
 6428 0de3 00000000 		.4byte	0
 6429 0de7 00000000 		.4byte	0
 6430              	.LLST64:
 6431 0deb 00000000 		.4byte	.LVL243
 6432 0def 33000000 		.4byte	.LVL245-1
 6433 0df3 0100     		.2byte	0x1
 6434 0df5 51       		.byte	0x51
 6435 0df6 33000000 		.4byte	.LVL245-1
 6436 0dfa AA010000 		.4byte	.LFE13
 6437 0dfe 0100     		.2byte	0x1
 6438 0e00 55       		.byte	0x55
 6439 0e01 00000000 		.4byte	0
 6440 0e05 00000000 		.4byte	0
 6441              	.LLST65:
 6442 0e09 00000000 		.4byte	.LVL270
 6443 0e0d 22000000 		.4byte	.LVL273
ARM GAS  C:\Users\codyg\AppData\Local\Temp\ccmSWLSY.s 			page 128


 6444 0e11 0100     		.2byte	0x1
 6445 0e13 50       		.byte	0x50
 6446 0e14 22000000 		.4byte	.LVL273
 6447 0e18 26000000 		.4byte	.LVL274
 6448 0e1c 0400     		.2byte	0x4
 6449 0e1e F3       		.byte	0xf3
 6450 0e1f 01       		.uleb128 0x1
 6451 0e20 50       		.byte	0x50
 6452 0e21 9F       		.byte	0x9f
 6453 0e22 26000000 		.4byte	.LVL274
 6454 0e26 4A000000 		.4byte	.LVL277
 6455 0e2a 0100     		.2byte	0x1
 6456 0e2c 50       		.byte	0x50
 6457 0e2d 4A000000 		.4byte	.LVL277
 6458 0e31 4E000000 		.4byte	.LVL278
 6459 0e35 0400     		.2byte	0x4
 6460 0e37 F3       		.byte	0xf3
 6461 0e38 01       		.uleb128 0x1
 6462 0e39 50       		.byte	0x50
 6463 0e3a 9F       		.byte	0x9f
 6464 0e3b 4E000000 		.4byte	.LVL278
 6465 0e3f 7A010000 		.4byte	.LVL290
 6466 0e43 0100     		.2byte	0x1
 6467 0e45 50       		.byte	0x50
 6468 0e46 7A010000 		.4byte	.LVL290
 6469 0e4a A0010000 		.4byte	.LFE14
 6470 0e4e 0400     		.2byte	0x4
 6471 0e50 F3       		.byte	0xf3
 6472 0e51 01       		.uleb128 0x1
 6473 0e52 50       		.byte	0x50
 6474 0e53 9F       		.byte	0x9f
 6475 0e54 00000000 		.4byte	0
 6476 0e58 00000000 		.4byte	0
 6477              	.LLST66:
 6478 0e5c 00000000 		.4byte	.LVL270
 6479 0e60 20000000 		.4byte	.LVL272
 6480 0e64 0100     		.2byte	0x1
 6481 0e66 51       		.byte	0x51
 6482 0e67 20000000 		.4byte	.LVL272
 6483 0e6b 26000000 		.4byte	.LVL274
 6484 0e6f 0400     		.2byte	0x4
 6485 0e71 F3       		.byte	0xf3
 6486 0e72 01       		.uleb128 0x1
 6487 0e73 51       		.byte	0x51
 6488 0e74 9F       		.byte	0x9f
 6489 0e75 26000000 		.4byte	.LVL274
 6490 0e79 48000000 		.4byte	.LVL276
 6491 0e7d 0100     		.2byte	0x1
 6492 0e7f 51       		.byte	0x51
 6493 0e80 48000000 		.4byte	.LVL276
 6494 0e84 4E000000 		.4byte	.LVL278
 6495 0e88 0400     		.2byte	0x4
 6496 0e8a F3       		.byte	0xf3
 6497 0e8b 01       		.uleb128 0x1
 6498 0e8c 51       		.byte	0x51
 6499 0e8d 9F       		.byte	0x9f
 6500 0e8e 4E000000 		.4byte	.LVL278
ARM GAS  C:\Users\codyg\AppData\Local\Temp\ccmSWLSY.s 			page 129


 6501 0e92 78010000 		.4byte	.LVL289
 6502 0e96 0100     		.2byte	0x1
 6503 0e98 51       		.byte	0x51
 6504 0e99 78010000 		.4byte	.LVL289
 6505 0e9d A0010000 		.4byte	.LFE14
 6506 0ea1 0400     		.2byte	0x4
 6507 0ea3 F3       		.byte	0xf3
 6508 0ea4 01       		.uleb128 0x1
 6509 0ea5 51       		.byte	0x51
 6510 0ea6 9F       		.byte	0x9f
 6511 0ea7 00000000 		.4byte	0
 6512 0eab 00000000 		.4byte	0
 6513              	.LLST67:
 6514 0eaf 00000000 		.4byte	.LVL270
 6515 0eb3 0C000000 		.4byte	.LVL271
 6516 0eb7 0100     		.2byte	0x1
 6517 0eb9 52       		.byte	0x52
 6518 0eba 0C000000 		.4byte	.LVL271
 6519 0ebe 8E010000 		.4byte	.LVL292
 6520 0ec2 0100     		.2byte	0x1
 6521 0ec4 54       		.byte	0x54
 6522 0ec5 8E010000 		.4byte	.LVL292
 6523 0ec9 A0010000 		.4byte	.LFE14
 6524 0ecd 0400     		.2byte	0x4
 6525 0ecf F3       		.byte	0xf3
 6526 0ed0 01       		.uleb128 0x1
 6527 0ed1 52       		.byte	0x52
 6528 0ed2 9F       		.byte	0x9f
 6529 0ed3 00000000 		.4byte	0
 6530 0ed7 00000000 		.4byte	0
 6531              	.LLST68:
 6532 0edb 26000000 		.4byte	.LVL274
 6533 0edf 42000000 		.4byte	.LVL275
 6534 0ee3 0100     		.2byte	0x1
 6535 0ee5 53       		.byte	0x53
 6536 0ee6 4E000000 		.4byte	.LVL278
 6537 0eea 52000000 		.4byte	.LVL280
 6538 0eee 0100     		.2byte	0x1
 6539 0ef0 53       		.byte	0x53
 6540 0ef1 58000000 		.4byte	.LVL281
 6541 0ef5 5E000000 		.4byte	.LVL282
 6542 0ef9 0100     		.2byte	0x1
 6543 0efb 53       		.byte	0x53
 6544 0efc 00000000 		.4byte	0
 6545 0f00 00000000 		.4byte	0
 6546              	.LLST69:
 6547 0f04 62000000 		.4byte	.LVL283
 6548 0f08 96000000 		.4byte	.LVL288
 6549 0f0c 0100     		.2byte	0x1
 6550 0f0e 52       		.byte	0x52
 6551 0f0f 96000000 		.4byte	.LVL288
 6552 0f13 7D010000 		.4byte	.LVL291-1
 6553 0f17 0300     		.2byte	0x3
 6554 0f19 91       		.byte	0x91
 6555 0f1a B47F     		.sleb128 -76
 6556 0f1c 00000000 		.4byte	0
 6557 0f20 00000000 		.4byte	0
ARM GAS  C:\Users\codyg\AppData\Local\Temp\ccmSWLSY.s 			page 130


 6558              	.LLST70:
 6559 0f24 68000000 		.4byte	.LVL284
 6560 0f28 94000000 		.4byte	.LVL287
 6561 0f2c 0100     		.2byte	0x1
 6562 0f2e 53       		.byte	0x53
 6563 0f2f 94000000 		.4byte	.LVL287
 6564 0f33 7D010000 		.4byte	.LVL291-1
 6565 0f37 0300     		.2byte	0x3
 6566 0f39 91       		.byte	0x91
 6567 0f3a B87F     		.sleb128 -72
 6568 0f3c 00000000 		.4byte	0
 6569 0f40 00000000 		.4byte	0
 6570              	.LLST71:
 6571 0f44 00000000 		.4byte	.LVL293
 6572 0f48 2A000000 		.4byte	.LVL294
 6573 0f4c 0100     		.2byte	0x1
 6574 0f4e 50       		.byte	0x50
 6575 0f4f 2A000000 		.4byte	.LVL294
 6576 0f53 56000000 		.4byte	.LFE15
 6577 0f57 0100     		.2byte	0x1
 6578 0f59 55       		.byte	0x55
 6579 0f5a 00000000 		.4byte	0
 6580 0f5e 00000000 		.4byte	0
 6581              	.LLST72:
 6582 0f62 00000000 		.4byte	.LVL293
 6583 0f66 2D000000 		.4byte	.LVL295-1
 6584 0f6a 0100     		.2byte	0x1
 6585 0f6c 51       		.byte	0x51
 6586 0f6d 2D000000 		.4byte	.LVL295-1
 6587 0f71 56000000 		.4byte	.LFE15
 6588 0f75 0100     		.2byte	0x1
 6589 0f77 54       		.byte	0x54
 6590 0f78 00000000 		.4byte	0
 6591 0f7c 00000000 		.4byte	0
 6592              	.LLST73:
 6593 0f80 00000000 		.4byte	.LVL298
 6594 0f84 2A000000 		.4byte	.LVL299
 6595 0f88 0100     		.2byte	0x1
 6596 0f8a 50       		.byte	0x50
 6597 0f8b 2A000000 		.4byte	.LVL299
 6598 0f8f 56000000 		.4byte	.LFE16
 6599 0f93 0100     		.2byte	0x1
 6600 0f95 55       		.byte	0x55
 6601 0f96 00000000 		.4byte	0
 6602 0f9a 00000000 		.4byte	0
 6603              	.LLST74:
 6604 0f9e 00000000 		.4byte	.LVL298
 6605 0fa2 2D000000 		.4byte	.LVL300-1
 6606 0fa6 0100     		.2byte	0x1
 6607 0fa8 51       		.byte	0x51
 6608 0fa9 2D000000 		.4byte	.LVL300-1
 6609 0fad 56000000 		.4byte	.LFE16
 6610 0fb1 0100     		.2byte	0x1
 6611 0fb3 54       		.byte	0x54
 6612 0fb4 00000000 		.4byte	0
 6613 0fb8 00000000 		.4byte	0
 6614              		.section	.debug_aranges,"",%progbits
ARM GAS  C:\Users\codyg\AppData\Local\Temp\ccmSWLSY.s 			page 131


 6615 0000 9C000000 		.4byte	0x9c
 6616 0004 0200     		.2byte	0x2
 6617 0006 00000000 		.4byte	.Ldebug_info0
 6618 000a 04       		.byte	0x4
 6619 000b 00       		.byte	0
 6620 000c 0000     		.2byte	0
 6621 000e 0000     		.2byte	0
 6622 0010 00000000 		.4byte	.LFB0
 6623 0014 3E000000 		.4byte	.LFE0-.LFB0
 6624 0018 00000000 		.4byte	.LFB1
 6625 001c 2E000000 		.4byte	.LFE1-.LFB1
 6626 0020 00000000 		.4byte	.LFB2
 6627 0024 3E000000 		.4byte	.LFE2-.LFB2
 6628 0028 00000000 		.4byte	.LFB3
 6629 002c 40000000 		.4byte	.LFE3-.LFB3
 6630 0030 00000000 		.4byte	.LFB4
 6631 0034 34000000 		.4byte	.LFE4-.LFB4
 6632 0038 00000000 		.4byte	.LFB5
 6633 003c 40000000 		.4byte	.LFE5-.LFB5
 6634 0040 00000000 		.4byte	.LFB6
 6635 0044 4A000000 		.4byte	.LFE6-.LFB6
 6636 0048 00000000 		.4byte	.LFB7
 6637 004c E0000000 		.4byte	.LFE7-.LFB7
 6638 0050 00000000 		.4byte	.LFB8
 6639 0054 E0000000 		.4byte	.LFE8-.LFB8
 6640 0058 00000000 		.4byte	.LFB9
 6641 005c DC000000 		.4byte	.LFE9-.LFB9
 6642 0060 00000000 		.4byte	.LFB10
 6643 0064 94000000 		.4byte	.LFE10-.LFB10
 6644 0068 00000000 		.4byte	.LFB11
 6645 006c 98000000 		.4byte	.LFE11-.LFB11
 6646 0070 00000000 		.4byte	.LFB12
 6647 0074 90000000 		.4byte	.LFE12-.LFB12
 6648 0078 00000000 		.4byte	.LFB13
 6649 007c AA010000 		.4byte	.LFE13-.LFB13
 6650 0080 00000000 		.4byte	.LFB14
 6651 0084 A0010000 		.4byte	.LFE14-.LFB14
 6652 0088 00000000 		.4byte	.LFB15
 6653 008c 56000000 		.4byte	.LFE15-.LFB15
 6654 0090 00000000 		.4byte	.LFB16
 6655 0094 56000000 		.4byte	.LFE16-.LFB16
 6656 0098 00000000 		.4byte	0
 6657 009c 00000000 		.4byte	0
 6658              		.section	.debug_ranges,"",%progbits
 6659              	.Ldebug_ranges0:
 6660 0000 00000000 		.4byte	.LFB0
 6661 0004 3E000000 		.4byte	.LFE0
 6662 0008 00000000 		.4byte	.LFB1
 6663 000c 2E000000 		.4byte	.LFE1
 6664 0010 00000000 		.4byte	.LFB2
 6665 0014 3E000000 		.4byte	.LFE2
 6666 0018 00000000 		.4byte	.LFB3
 6667 001c 40000000 		.4byte	.LFE3
 6668 0020 00000000 		.4byte	.LFB4
 6669 0024 34000000 		.4byte	.LFE4
 6670 0028 00000000 		.4byte	.LFB5
 6671 002c 40000000 		.4byte	.LFE5
ARM GAS  C:\Users\codyg\AppData\Local\Temp\ccmSWLSY.s 			page 132


 6672 0030 00000000 		.4byte	.LFB6
 6673 0034 4A000000 		.4byte	.LFE6
 6674 0038 00000000 		.4byte	.LFB7
 6675 003c E0000000 		.4byte	.LFE7
 6676 0040 00000000 		.4byte	.LFB8
 6677 0044 E0000000 		.4byte	.LFE8
 6678 0048 00000000 		.4byte	.LFB9
 6679 004c DC000000 		.4byte	.LFE9
 6680 0050 00000000 		.4byte	.LFB10
 6681 0054 94000000 		.4byte	.LFE10
 6682 0058 00000000 		.4byte	.LFB11
 6683 005c 98000000 		.4byte	.LFE11
 6684 0060 00000000 		.4byte	.LFB12
 6685 0064 90000000 		.4byte	.LFE12
 6686 0068 00000000 		.4byte	.LFB13
 6687 006c AA010000 		.4byte	.LFE13
 6688 0070 00000000 		.4byte	.LFB14
 6689 0074 A0010000 		.4byte	.LFE14
 6690 0078 00000000 		.4byte	.LFB15
 6691 007c 56000000 		.4byte	.LFE15
 6692 0080 00000000 		.4byte	.LFB16
 6693 0084 56000000 		.4byte	.LFE16
 6694 0088 00000000 		.4byte	0
 6695 008c 00000000 		.4byte	0
 6696              		.section	.debug_line,"",%progbits
 6697              	.Ldebug_line0:
 6698 0000 AE050000 		.section	.debug_str,"MS",%progbits,1
 6698      02001D02 
 6698      00000201 
 6698      FB0E0D00 
 6698      01010101 
 6699              	.LASF58:
 6700 0000 656E636F 		.ascii	"encode_prefix_uint8\000"
 6700      64655F70 
 6700      72656669 
 6700      785F7569 
 6700      6E743800 
 6701              	.LASF68:
 6702 0014 656E636F 		.ascii	"encode_uint32\000"
 6702      64655F75 
 6702      696E7433 
 6702      3200
 6703              	.LASF62:
 6704 0022 6E5F7265 		.ascii	"n_rem\000"
 6704      6D00
 6705              	.LASF19:
 6706 0028 73697A65 		.ascii	"size_t\000"
 6706      5F7400
 6707              	.LASF74:
 6708 002f 64656C74 		.ascii	"delta\000"
 6708      6100
 6709              	.LASF2:
 6710 0035 5F5F7569 		.ascii	"__uint8_t\000"
 6710      6E74385F 
 6710      7400
 6711              	.LASF57:
 6712 003f 6C73625F 		.ascii	"lsb_offset32\000"
ARM GAS  C:\Users\codyg\AppData\Local\Temp\ccmSWLSY.s 			page 133


 6712      6F666673 
 6712      65743332 
 6712      00
 6713              	.LASF23:
 6714 004c 73656E73 		.ascii	"sensor_status\000"
 6714      6F725F73 
 6714      74617475 
 6714      7300
 6715              	.LASF12:
 6716 005a 6C6F6E67 		.ascii	"long long unsigned int\000"
 6716      206C6F6E 
 6716      6720756E 
 6716      7369676E 
 6716      65642069 
 6717              	.LASF46:
 6718 0071 5F726573 		.ascii	"_response_frame_t\000"
 6718      706F6E73 
 6718      655F6672 
 6718      616D655F 
 6718      7400
 6719              	.LASF72:
 6720 0083 64656C74 		.ascii	"delta_sec\000"
 6720      615F7365 
 6720      6300
 6721              	.LASF15:
 6722 008d 696E7431 		.ascii	"int16_t\000"
 6722      365F7400 
 6723              	.LASF11:
 6724 0095 6C6F6E67 		.ascii	"long long int\000"
 6724      206C6F6E 
 6724      6720696E 
 6724      7400
 6725              	.LASF0:
 6726 00a3 7369676E 		.ascii	"signed char\000"
 6726      65642063 
 6726      68617200 
 6727              	.LASF53:
 6728 00af 6D73625F 		.ascii	"msb_offset16\000"
 6728      6F666673 
 6728      65743136 
 6728      00
 6729              	.LASF8:
 6730 00bc 6C6F6E67 		.ascii	"long int\000"
 6730      20696E74 
 6730      00
 6731              	.LASF59:
 6732 00c5 6E5F6269 		.ascii	"n_bits\000"
 6732      747300
 6733              	.LASF78:
 6734 00cc 5F5F6173 		.ascii	"__assert_func\000"
 6734      73657274 
 6734      5F66756E 
 6734      6300
 6735              	.LASF79:
 6736 00da 62797465 		.ascii	"bytes_parity\000"
 6736      735F7061 
 6736      72697479 
ARM GAS  C:\Users\codyg\AppData\Local\Temp\ccmSWLSY.s 			page 134


 6736      00
 6737              	.LASF16:
 6738 00e7 75696E74 		.ascii	"uint16_t\000"
 6738      31365F74 
 6738      00
 6739              	.LASF40:
 6740 00f0 74656D70 		.ascii	"temperature\000"
 6740      65726174 
 6740      75726500 
 6741              	.LASF9:
 6742 00fc 5F5F7569 		.ascii	"__uint32_t\000"
 6742      6E743332 
 6742      5F7400
 6743              	.LASF3:
 6744 0107 5F5F696E 		.ascii	"__int16_t\000"
 6744      7431365F 
 6744      7400
 6745              	.LASF69:
 6746 0111 656E636F 		.ascii	"encode_data_frame\000"
 6746      64655F64 
 6746      6174615F 
 6746      6672616D 
 6746      6500
 6747              	.LASF13:
 6748 0123 756E7369 		.ascii	"unsigned int\000"
 6748      676E6564 
 6748      20696E74 
 6748      00
 6749              	.LASF70:
 6750 0130 656E636F 		.ascii	"encode_delta_frame\000"
 6750      64655F64 
 6750      656C7461 
 6750      5F667261 
 6750      6D6500
 6751              	.LASF27:
 6752 0143 74696D65 		.ascii	"time_sec\000"
 6752      5F736563 
 6752      00
 6753              	.LASF10:
 6754 014c 6C6F6E67 		.ascii	"long unsigned int\000"
 6754      20756E73 
 6754      69676E65 
 6754      6420696E 
 6754      7400
 6755              	.LASF52:
 6756 015e 64617461 		.ascii	"data\000"
 6756      00
 6757              	.LASF6:
 6758 0163 73686F72 		.ascii	"short unsigned int\000"
 6758      7420756E 
 6758      7369676E 
 6758      65642069 
 6758      6E7400
 6759              	.LASF63:
 6760 0176 656E636F 		.ascii	"encode_prefix_uint16\000"
 6760      64655F70 
 6760      72656669 
ARM GAS  C:\Users\codyg\AppData\Local\Temp\ccmSWLSY.s 			page 135


 6760      785F7569 
 6760      6E743136 
 6761              	.LASF38:
 6762 018b 636F6E66 		.ascii	"confidence_level\000"
 6762      6964656E 
 6762      63655F6C 
 6762      6576656C 
 6762      00
 6763              	.LASF36:
 6764 019c 68656172 		.ascii	"heart_rate\000"
 6764      745F7261 
 6764      746500
 6765              	.LASF54:
 6766 01a7 6D73625F 		.ascii	"msb_offset32\000"
 6766      6F666673 
 6766      65743332 
 6766      00
 6767              	.LASF61:
 6768 01b4 6C73625F 		.ascii	"lsb_offset\000"
 6768      6F666673 
 6768      657400
 6769              	.LASF60:
 6770 01bf 6D73625F 		.ascii	"msb_offset\000"
 6770      6F666673 
 6770      657400
 6771              	.LASF47:
 6772 01ca 72657370 		.ascii	"response_frame_t\000"
 6772      6F6E7365 
 6772      5F667261 
 6772      6D655F74 
 6772      00
 6773              	.LASF34:
 6774 01db 6C65645F 		.ascii	"led_red\000"
 6774      72656400 
 6775              	.LASF32:
 6776 01e3 6779726F 		.ascii	"gyro\000"
 6776      00
 6777              	.LASF75:
 6778 01e8 656E636F 		.ascii	"encode_command_frame\000"
 6778      64655F63 
 6778      6F6D6D61 
 6778      6E645F66 
 6778      72616D65 
 6779              	.LASF39:
 6780 01fd 66696E67 		.ascii	"finger_detected_status\000"
 6780      65725F64 
 6780      65746563 
 6780      7465645F 
 6780      73746174 
 6781              	.LASF55:
 6782 0214 6C73625F 		.ascii	"lsb_offset8\000"
 6782      6F666673 
 6782      65743800 
 6783              	.LASF21:
 6784 0220 73697A65 		.ascii	"sizetype\000"
 6784      74797065 
 6784      00
ARM GAS  C:\Users\codyg\AppData\Local\Temp\ccmSWLSY.s 			page 136


 6785              	.LASF25:
 6786 0229 6669656C 		.ascii	"field_hdr\000"
 6786      645F6864 
 6786      7200
 6787              	.LASF20:
 6788 0233 6C6F6E67 		.ascii	"long double\000"
 6788      20646F75 
 6788      626C6500 
 6789              	.LASF76:
 6790 023f 656E636F 		.ascii	"encode_response_frame\000"
 6790      64655F72 
 6790      6573706F 
 6790      6E73655F 
 6790      6672616D 
 6791              	.LASF31:
 6792 0255 61636365 		.ascii	"accel\000"
 6792      6C00
 6793              	.LASF77:
 6794 025b 72657370 		.ascii	"resp\000"
 6794      00
 6795              	.LASF26:
 6796 0260 73657373 		.ascii	"session\000"
 6796      696F6E00 
 6797              	.LASF80:
 6798 0268 474E5520 		.ascii	"GNU C11 5.4.1 20160609 (release) [ARM/embedded-5-br"
 6798      43313120 
 6798      352E342E 
 6798      31203230 
 6798      31363036 
 6799 029b 616E6368 		.ascii	"anch revision 237715] -mcpu=cortex-m4 -mfloat-abi=s"
 6799      20726576 
 6799      6973696F 
 6799      6E203233 
 6799      37373135 
 6800 02ce 6F667466 		.ascii	"oftfp -mfpu=fpv4-sp-d16 -mthumb -g -Og -ffunction-s"
 6800      70202D6D 
 6800      6670753D 
 6800      66707634 
 6800      2D73702D 
 6801 0301 65637469 		.ascii	"ections -ffat-lto-objects\000"
 6801      6F6E7320 
 6801      2D666661 
 6801      742D6C74 
 6801      6F2D6F62 
 6802              	.LASF82:
 6803 031b 433A5C55 		.ascii	"C:\\Users\\codyg\\git\\psoc6-realtime-processing\\B"
 6803      73657273 
 6803      5C636F64 
 6803      79675C67 
 6803      69745C70 
 6804 0349 4C455F52 		.ascii	"LE_RTC_IMU.cydsn\\RestEaze_BLE.cydsn\000"
 6804      54435F49 
 6804      4D552E63 
 6804      7964736E 
 6804      5C526573 
 6805              	.LASF30:
 6806 036d 6675656C 		.ascii	"fuel\000"
ARM GAS  C:\Users\codyg\AppData\Local\Temp\ccmSWLSY.s 			page 137


 6806      00
 6807              	.LASF67:
 6808 0372 656E636F 		.ascii	"encode_uint16\000"
 6808      64655F75 
 6808      696E7431 
 6808      3600
 6809              	.LASF45:
 6810 0380 636F6D6D 		.ascii	"command_frame_t\000"
 6810      616E645F 
 6810      6672616D 
 6810      655F7400 
 6811              	.LASF17:
 6812 0390 696E7433 		.ascii	"int32_t\000"
 6812      325F7400 
 6813              	.LASF1:
 6814 0398 756E7369 		.ascii	"unsigned char\000"
 6814      676E6564 
 6814      20636861 
 6814      7200
 6815              	.LASF65:
 6816 03a6 656E636F 		.ascii	"encode_prefix_uint32\000"
 6816      64655F70 
 6816      72656669 
 6816      785F7569 
 6816      6E743332 
 6817              	.LASF49:
 6818 03bb 63757273 		.ascii	"curs\000"
 6818      00
 6819              	.LASF4:
 6820 03c0 73686F72 		.ascii	"short int\000"
 6820      7420696E 
 6820      7400
 6821              	.LASF28:
 6822 03ca 74696D65 		.ascii	"time_msec\000"
 6822      5F6D7365 
 6822      6300
 6823              	.LASF64:
 6824 03d4 5F5F6675 		.ascii	"__func__\000"
 6824      6E635F5F 
 6824      00
 6825              	.LASF43:
 6826 03dd 5F646174 		.ascii	"_data_frame_t\000"
 6826      615F6672 
 6826      616D655F 
 6826      7400
 6827              	.LASF44:
 6828 03eb 5F636F6D 		.ascii	"_command_frame_t\000"
 6828      6D616E64 
 6828      5F667261 
 6828      6D655F74 
 6828      00
 6829              	.LASF71:
 6830 03fc 64617461 		.ascii	"data_checkpoint\000"
 6830      5F636865 
 6830      636B706F 
 6830      696E7400 
 6831              	.LASF18:
ARM GAS  C:\Users\codyg\AppData\Local\Temp\ccmSWLSY.s 			page 138


 6832 040c 75696E74 		.ascii	"uint32_t\000"
 6832      33325F74 
 6832      00
 6833              	.LASF37:
 6834 0415 626C6F6F 		.ascii	"blood_oxygen_level\000"
 6834      645F6F78 
 6834      7967656E 
 6834      5F6C6576 
 6834      656C00
 6835              	.LASF81:
 6836 0428 656E636F 		.ascii	"encode.c\000"
 6836      64652E63 
 6836      00
 6837              	.LASF22:
 6838 0431 63686172 		.ascii	"char\000"
 6838      00
 6839              	.LASF35:
 6840 0436 6C65645F 		.ascii	"led_green\000"
 6840      67726565 
 6840      6E00
 6841              	.LASF24:
 6842 0440 62617474 		.ascii	"battery_status\000"
 6842      6572795F 
 6842      73746174 
 6842      757300
 6843              	.LASF5:
 6844 044f 5F5F7569 		.ascii	"__uint16_t\000"
 6844      6E743136 
 6844      5F7400
 6845              	.LASF7:
 6846 045a 5F5F696E 		.ascii	"__int32_t\000"
 6846      7433325F 
 6846      7400
 6847              	.LASF56:
 6848 0464 6C73625F 		.ascii	"lsb_offset16\000"
 6848      6F666673 
 6848      65743136 
 6848      00
 6849              	.LASF48:
 6850 0471 636F6465 		.ascii	"code\000"
 6850      00
 6851              	.LASF50:
 6852 0476 656E636F 		.ascii	"encode_cobs\000"
 6852      64655F63 
 6852      6F627300 
 6853              	.LASF33:
 6854 0482 6C65645F 		.ascii	"led_ir\000"
 6854      697200
 6855              	.LASF66:
 6856 0489 656E636F 		.ascii	"encode_uint8\000"
 6856      64655F75 
 6856      696E7438 
 6856      00
 6857              	.LASF29:
 6858 0496 6C617374 		.ascii	"last_tick_usec\000"
 6858      5F746963 
 6858      6B5F7573 
ARM GAS  C:\Users\codyg\AppData\Local\Temp\ccmSWLSY.s 			page 139


 6858      656300
 6859              	.LASF14:
 6860 04a5 75696E74 		.ascii	"uint8_t\000"
 6860      385F7400 
 6861              	.LASF73:
 6862 04ad 64656C74 		.ascii	"delta_msec\000"
 6862      615F6D73 
 6862      656300
 6863              	.LASF41:
 6864 04b8 73796E63 		.ascii	"sync\000"
 6864      00
 6865              	.LASF51:
 6866 04bd 6D73625F 		.ascii	"msb_offset8\000"
 6866      6F666673 
 6866      65743800 
 6867              	.LASF42:
 6868 04c9 64617461 		.ascii	"data_frame_t\000"
 6868      5F667261 
 6868      6D655F74 
 6868      00
 6869              		.ident	"GCC: (GNU Tools for ARM Embedded Processors) 5.4.1 20160609 (release) [ARM/embedded-5-bran
