ARM GAS  C:\Users\codyg\AppData\Local\Temp\cc52IIus.s 			page 1


   1              		.syntax unified
   2              		.cpu cortex-m4
   3              		.eabi_attribute 27, 1
   4              		.fpu fpv4-sp-d16
   5              		.eabi_attribute 20, 1
   6              		.eabi_attribute 21, 1
   7              		.eabi_attribute 23, 3
   8              		.eabi_attribute 24, 1
   9              		.eabi_attribute 25, 1
  10              		.eabi_attribute 26, 1
  11              		.eabi_attribute 30, 1
  12              		.eabi_attribute 34, 1
  13              		.eabi_attribute 18, 4
  14              		.thumb
  15              		.syntax unified
  16              		.file	"status_led_task.c"
  17              		.text
  18              	.Ltext0:
  19              		.cfi_sections	.debug_frame
  20              		.section	.text.StatusLedRedTimerStart,"ax",%progbits
  21              		.align	2
  22              		.thumb
  23              		.thumb_func
  24              		.type	StatusLedRedTimerStart, %function
  25              	StatusLedRedTimerStart:
  26              	.LFB719:
  27              		.file 1 "status_led_task.c"
   1:status_led_task.c **** /******************************************************************************
   2:status_led_task.c **** * File Name: status_led_task.c
   3:status_led_task.c **** *
   4:status_led_task.c **** * Version: 1.00
   5:status_led_task.c **** *
   6:status_led_task.c **** * Description: This file contains the task that that controls the status LEDs
   7:status_led_task.c **** *
   8:status_led_task.c **** * Related Document: CE218138_BLE_Thermometer_RTOS.pdf
   9:status_led_task.c **** *
  10:status_led_task.c **** * Hardware Dependency: CY8CKIT-062-BLE PSoC 6 BLE Pioneer Kit
  11:status_led_task.c **** *
  12:status_led_task.c **** *******************************************************************************
  13:status_led_task.c **** * Copyright (2018), Cypress Semiconductor Corporation. All rights reserved.
  14:status_led_task.c **** *******************************************************************************
  15:status_led_task.c **** * This software, including source code, documentation and related materials
  16:status_led_task.c **** * (“Software”), is owned by Cypress Semiconductor Corporation or one of its
  17:status_led_task.c **** * subsidiaries (“Cypress”) and is protected by and subject to worldwide patent
  18:status_led_task.c **** * protection (United States and foreign), United States copyright laws and
  19:status_led_task.c **** * international treaty provisions. Therefore, you may use this Software only
  20:status_led_task.c **** * as provided in the license agreement accompanying the software package from
  21:status_led_task.c **** * which you obtained this Software (“EULA”).
  22:status_led_task.c **** *
  23:status_led_task.c **** * If no EULA applies, Cypress hereby grants you a personal, nonexclusive,
  24:status_led_task.c **** * non-transferable license to copy, modify, and compile the Software source
  25:status_led_task.c **** * code solely for use in connection with Cypress’s integrated circuit products.
  26:status_led_task.c **** * Any reproduction, modification, translation, compilation, or representation
  27:status_led_task.c **** * of this Software except as specified above is prohibited without the express
  28:status_led_task.c **** * written permission of Cypress.
  29:status_led_task.c **** *
  30:status_led_task.c **** * Disclaimer: THIS SOFTWARE IS PROVIDED AS-IS, WITH NO WARRANTY OF ANY KIND, 
ARM GAS  C:\Users\codyg\AppData\Local\Temp\cc52IIus.s 			page 2


  31:status_led_task.c **** * EXPRESS OR IMPLIED, INCLUDING, BUT NOT LIMITED TO, NONINFRINGEMENT, IMPLIED 
  32:status_led_task.c **** * WARRANTIES OF MERCHANTABILITY AND FITNESS FOR A PARTICULAR PURPOSE. Cypress 
  33:status_led_task.c **** * reserves the right to make changes to the Software without notice. Cypress 
  34:status_led_task.c **** * does not assume any liability arising out of the application or use of the 
  35:status_led_task.c **** * Software or any product or circuit described in the Software. Cypress does 
  36:status_led_task.c **** * not authorize its products for use in any products where a malfunction or 
  37:status_led_task.c **** * failure of the Cypress product may reasonably be expected to result in 
  38:status_led_task.c **** * significant property damage, injury or death (“High Risk Product”). By 
  39:status_led_task.c **** * including Cypress’s product in a High Risk Product, the manufacturer of such 
  40:status_led_task.c **** * system or application assumes all risk of such use and in doing so agrees to 
  41:status_led_task.c **** * indemnify Cypress against all liability.
  42:status_led_task.c **** *******************************************************************************/
  43:status_led_task.c **** /******************************************************************************
  44:status_led_task.c **** * This file contains the tasks that that control the status LEDs
  45:status_led_task.c **** *******************************************************************************/
  46:status_led_task.c **** 
  47:status_led_task.c **** /* Header file includes */
  48:status_led_task.c **** #include "status_led_task.h"
  49:status_led_task.c **** #include "uart_debug.h"
  50:status_led_task.c **** #include "uart_debug.h"
  51:status_led_task.c **** #include "task.h"  
  52:status_led_task.c **** #include "timers.h" 
  53:status_led_task.c **** 
  54:status_led_task.c **** /* LED refresh interval of 500ms is used when continuously toggling a 
  55:status_led_task.c ****    status LED */
  56:status_led_task.c **** #define STATUS_LED_TOGGLE_INTERVAL (pdMS_TO_TICKS(500u))
  57:status_led_task.c **** /* LED refresh interval of 4s is used for blinking a status LED once */
  58:status_led_task.c **** #define STATUS_LED_BLINK_INTERVAL  (pdMS_TO_TICKS(4000u))
  59:status_led_task.c **** /* Idle interval is used for static LED states or when no LEDs are ON */
  60:status_led_task.c **** #define STATUS_LED_IDLE_INTERVAL   (portMAX_DELAY)
  61:status_led_task.c **** 
  62:status_led_task.c **** /* Queue handle used for commands to Task_StatusLed */
  63:status_led_task.c **** QueueHandle_t statusLedDataQ;
  64:status_led_task.c **** 
  65:status_led_task.c **** /* Timer handles used to control LED blink / toggle intervals */
  66:status_led_task.c **** TimerHandle_t xTimer_StatusLedRed;
  67:status_led_task.c **** TimerHandle_t xTimer_StatusLedOrange;
  68:status_led_task.c **** 
  69:status_led_task.c **** /* Functions that start and control the timers used for LED blink / toggle
  70:status_led_task.c ****    intervals */
  71:status_led_task.c **** void static StatusLedRedTimerStart(void);
  72:status_led_task.c **** void static StatusLedOrangeTimerStart(void);
  73:status_led_task.c **** void static StatusLedRedTimerUpdate(TickType_t period);
  74:status_led_task.c **** void static StatusLedOrangeTimerUpdate(TickType_t period);
  75:status_led_task.c **** 
  76:status_led_task.c **** /*******************************************************************************
  77:status_led_task.c **** * Function Name: void Task_StatusLed(void *pvParameters)
  78:status_led_task.c **** ********************************************************************************
  79:status_led_task.c **** * Summary:
  80:status_led_task.c **** *  Task that controls the Orange and Red status LEDs  
  81:status_led_task.c **** *
  82:status_led_task.c **** * Parameters:
  83:status_led_task.c **** *  void *pvParameters : Task parameter defined during task creation (unused)                       
  84:status_led_task.c **** *
  85:status_led_task.c **** * Return:
  86:status_led_task.c **** *  void
  87:status_led_task.c **** *
ARM GAS  C:\Users\codyg\AppData\Local\Temp\cc52IIus.s 			page 3


  88:status_led_task.c **** *******************************************************************************/
  89:status_led_task.c **** void Task_StatusLed(void *pvParameters)
  90:status_led_task.c **** { 
  91:status_led_task.c ****     /* Variable that stores the data recieved received over queue */
  92:status_led_task.c ****     status_led_data_t statusLedData;
  93:status_led_task.c **** 
  94:status_led_task.c ****     /* Variables used to detect changes to the LED states */
  95:status_led_task.c ****     status_led_command_t static redLedState    = LED_TURN_OFF;
  96:status_led_task.c ****     status_led_command_t static orangeLedState = LED_TURN_OFF;
  97:status_led_task.c ****     
  98:status_led_task.c ****     /* Variable used to store the return values of RTOS APIs */
  99:status_led_task.c ****     BaseType_t rtosApiResult;
 100:status_led_task.c ****     
 101:status_led_task.c ****     /* Remove warning for unused parameter */
 102:status_led_task.c ****     (void)pvParameters ;
 103:status_led_task.c ****     
 104:status_led_task.c ****     /* Start the timers that control LED blink / toggle intervals */
 105:status_led_task.c ****     StatusLedRedTimerStart();
 106:status_led_task.c ****     StatusLedOrangeTimerStart();
 107:status_led_task.c ****     
 108:status_led_task.c ****     /* Repeatedly running part of the task */
 109:status_led_task.c ****     for(;;)
 110:status_led_task.c ****     {
 111:status_led_task.c ****         /* Block until a command has been received over statusLedDataQ */
 112:status_led_task.c ****         rtosApiResult = xQueueReceive(statusLedDataQ, &statusLedData,
 113:status_led_task.c ****                          portMAX_DELAY);
 114:status_led_task.c ****         /* Command has been received from statusLedDataQ */
 115:status_led_task.c ****         if(rtosApiResult == pdTRUE)
 116:status_led_task.c ****         {
 117:status_led_task.c ****             /* Take an action based on the command received for Orange LED */
 118:status_led_task.c ****             switch(statusLedData.orangeLed)
 119:status_led_task.c ****             {
 120:status_led_task.c ****                 /* No change to the LED state */
 121:status_led_task.c ****                 case LED_NO_CHANGE:
 122:status_led_task.c ****                     break;
 123:status_led_task.c ****                 /* Turn ON the LED */
 124:status_led_task.c ****                 case LED_TURN_ON:
 125:status_led_task.c ****                     Cy_GPIO_Clr(Pin_LED_Orange_0_PORT, Pin_LED_Orange_0_NUM);
 126:status_led_task.c ****                     /* Set the timer to idle mode */
 127:status_led_task.c ****                     StatusLedOrangeTimerUpdate(STATUS_LED_IDLE_INTERVAL);
 128:status_led_task.c ****                     orangeLedState = LED_TURN_ON;
 129:status_led_task.c ****                     break;
 130:status_led_task.c ****                 /* Turn OFF the LED */    
 131:status_led_task.c ****                 case LED_TURN_OFF:
 132:status_led_task.c ****                     Cy_GPIO_Set(Pin_LED_Orange_0_PORT, Pin_LED_Orange_0_NUM);
 133:status_led_task.c ****                     /* Set the timer to idle mode */
 134:status_led_task.c ****                     StatusLedOrangeTimerUpdate(STATUS_LED_IDLE_INTERVAL);
 135:status_led_task.c ****                     orangeLedState = LED_TURN_OFF;
 136:status_led_task.c ****                     break;
 137:status_led_task.c ****                 /* Continuously toggle the LED */
 138:status_led_task.c ****                 case LED_TOGGLE_EN:
 139:status_led_task.c ****                     /* Update the timer period to toggle interval */
 140:status_led_task.c ****                     StatusLedOrangeTimerUpdate(STATUS_LED_TOGGLE_INTERVAL);
 141:status_led_task.c ****                     orangeLedState = LED_TOGGLE_EN;
 142:status_led_task.c ****                     break;
 143:status_led_task.c ****                 /* Blink the LED once */    
 144:status_led_task.c ****                 case LED_BLINK_ONCE:
ARM GAS  C:\Users\codyg\AppData\Local\Temp\cc52IIus.s 			page 4


 145:status_led_task.c ****                     Cy_GPIO_Clr(Pin_LED_Orange_0_PORT, Pin_LED_Orange_0_NUM);
 146:status_led_task.c ****                     /* Update the timer period to blink interval */
 147:status_led_task.c ****                     StatusLedOrangeTimerUpdate(STATUS_LED_BLINK_INTERVAL);
 148:status_led_task.c ****                     orangeLedState = LED_BLINK_ONCE;
 149:status_led_task.c ****                     break;
 150:status_led_task.c ****                 /* Refresh the LED based on the current state */     
 151:status_led_task.c ****                 case LED_TIMER_EXPIRED:
 152:status_led_task.c ****                     if(orangeLedState == LED_TOGGLE_EN)
 153:status_led_task.c ****                     {
 154:status_led_task.c ****                         /* Toggle the LED */
 155:status_led_task.c ****                         Cy_GPIO_Inv(Pin_LED_Orange_0_PORT,
 156:status_led_task.c ****                                     Pin_LED_Orange_0_NUM);
 157:status_led_task.c ****                     }
 158:status_led_task.c ****                     else if (orangeLedState == LED_BLINK_ONCE)
 159:status_led_task.c ****                     {
 160:status_led_task.c ****                         /* Turn off the LED */
 161:status_led_task.c ****                         Cy_GPIO_Set(Pin_LED_Orange_0_PORT,
 162:status_led_task.c ****                                     Pin_LED_Orange_0_NUM);
 163:status_led_task.c ****                         /* Set the timer to idle mode */
 164:status_led_task.c ****                         StatusLedOrangeTimerUpdate(STATUS_LED_IDLE_INTERVAL);
 165:status_led_task.c ****                         orangeLedState = LED_TURN_OFF;
 166:status_led_task.c ****                     }
 167:status_led_task.c ****                     else
 168:status_led_task.c ****                     {
 169:status_led_task.c ****                         Task_DebugPrintf("Error!   : Status LED - refresh "\
 170:status_led_task.c ****                                          "command for Red LED during invalid"\
 171:status_led_task.c ****                                          "state", 0u);   
 172:status_led_task.c ****                     }
 173:status_led_task.c ****                     break;
 174:status_led_task.c ****                 /* Invalid command received */    
 175:status_led_task.c ****                 default:
 176:status_led_task.c ****                     Task_DebugPrintf("Error!   : Status LED - Invalid  command"\
 177:status_led_task.c ****                                      " for Red LED received. Error Code:",
 178:status_led_task.c ****                                       statusLedData.orangeLed);
 179:status_led_task.c ****                     break;
 180:status_led_task.c ****             }
 181:status_led_task.c ****             
 182:status_led_task.c ****             /* Take an action based on the command received for Red LED */
 183:status_led_task.c ****             switch(statusLedData.redLed)
 184:status_led_task.c ****             {
 185:status_led_task.c ****                 /* No change to the LED state */
 186:status_led_task.c ****                 case LED_NO_CHANGE:
 187:status_led_task.c ****                     break;
 188:status_led_task.c ****                 /* Turn ON the LED */
 189:status_led_task.c ****                 case LED_TURN_ON:
 190:status_led_task.c ****                     Cy_GPIO_Clr(Pin_LED_Red_0_PORT,Pin_LED_Red_0_NUM);
 191:status_led_task.c ****                     /* Set the timer to idle mode */
 192:status_led_task.c ****                     StatusLedRedTimerUpdate(STATUS_LED_IDLE_INTERVAL);
 193:status_led_task.c ****                     redLedState = LED_TURN_ON;
 194:status_led_task.c ****                     break;
 195:status_led_task.c ****                 /* Turn OFF the LED */        
 196:status_led_task.c ****                 case LED_TURN_OFF:
 197:status_led_task.c ****                     Cy_GPIO_Set(Pin_LED_Red_0_PORT,Pin_LED_Red_0_NUM);
 198:status_led_task.c ****                     /* Set the timer to idle mode */
 199:status_led_task.c ****                     StatusLedRedTimerUpdate(STATUS_LED_IDLE_INTERVAL);
 200:status_led_task.c ****                     redLedState = LED_TURN_OFF;
 201:status_led_task.c ****                     break;
ARM GAS  C:\Users\codyg\AppData\Local\Temp\cc52IIus.s 			page 5


 202:status_led_task.c ****                 /* Continuously toggle the LED */
 203:status_led_task.c ****                 case LED_TOGGLE_EN:
 204:status_led_task.c ****                     /* Update the timer period to toggle interval */
 205:status_led_task.c ****                     StatusLedRedTimerUpdate(STATUS_LED_TOGGLE_INTERVAL);
 206:status_led_task.c ****                     redLedState = LED_TOGGLE_EN;
 207:status_led_task.c ****                     break;
 208:status_led_task.c ****                 /* Blink the LED once */        
 209:status_led_task.c ****                 case LED_BLINK_ONCE:
 210:status_led_task.c ****                     Cy_GPIO_Clr(Pin_LED_Red_0_PORT,Pin_LED_Red_0_NUM);
 211:status_led_task.c ****                     /* Update the timer period to blink interval */
 212:status_led_task.c ****                     StatusLedRedTimerUpdate(STATUS_LED_BLINK_INTERVAL);
 213:status_led_task.c ****                     redLedState = LED_BLINK_ONCE;
 214:status_led_task.c ****                     break;
 215:status_led_task.c ****                 /* Refresh the LED based on the current state */         
 216:status_led_task.c ****                 case LED_TIMER_EXPIRED:
 217:status_led_task.c ****                     if(redLedState == LED_TOGGLE_EN)
 218:status_led_task.c ****                     {
 219:status_led_task.c ****                         /* Toggle the LED */
 220:status_led_task.c ****                         Cy_GPIO_Inv(Pin_LED_Red_0_PORT,
 221:status_led_task.c ****                                     Pin_LED_Red_0_NUM);
 222:status_led_task.c ****                     }
 223:status_led_task.c ****                     else if (redLedState == LED_BLINK_ONCE)
 224:status_led_task.c ****                     {
 225:status_led_task.c ****                         /* Turn off the LED */
 226:status_led_task.c ****                         Cy_GPIO_Set(Pin_LED_Red_0_PORT,
 227:status_led_task.c ****                                     Pin_LED_Red_0_NUM);
 228:status_led_task.c ****                         /* Set the timer to idle mode */
 229:status_led_task.c ****                         StatusLedRedTimerUpdate(STATUS_LED_IDLE_INTERVAL);                        
 230:status_led_task.c ****                         redLedState = LED_TURN_OFF;
 231:status_led_task.c ****                     }
 232:status_led_task.c ****                     else
 233:status_led_task.c ****                     {
 234:status_led_task.c ****                          Task_DebugPrintf("Error!   : Status LED - refresh "\
 235:status_led_task.c ****                                           "command for Orange LED during"\
 236:status_led_task.c ****                                           "invalid state",0u);   
 237:status_led_task.c ****                     }
 238:status_led_task.c ****                     break;
 239:status_led_task.c ****                 /* Invalid command received */      
 240:status_led_task.c ****                 default:
 241:status_led_task.c ****                     Task_DebugPrintf("Error!   : Status LED - Invalid command"
 242:status_led_task.c ****                                      "for Red LED received. Error Code:",
 243:status_led_task.c ****                                       statusLedData.orangeLed);
 244:status_led_task.c ****                     break;
 245:status_led_task.c ****             }            
 246:status_led_task.c ****         }
 247:status_led_task.c ****         /* Task has timed out and received no commands during an interval of 
 248:status_led_task.c ****            portMAXDELAY ticks */
 249:status_led_task.c ****         else
 250:status_led_task.c ****         {
 251:status_led_task.c ****             Task_DebugPrintf("Warning! : Status LED - Task Timed out ", 0u);   
 252:status_led_task.c ****         }
 253:status_led_task.c ****     }
 254:status_led_task.c **** }
 255:status_led_task.c **** 
 256:status_led_task.c **** /*******************************************************************************
 257:status_led_task.c **** * Function Name: void static StatusLedOrangeTimerCallback(TimerHandle_t xTimer)                    
 258:status_led_task.c **** ********************************************************************************
ARM GAS  C:\Users\codyg\AppData\Local\Temp\cc52IIus.s 			page 6


 259:status_led_task.c **** * Summary:
 260:status_led_task.c **** *  This function is called when the Orange LED Timer expires
 261:status_led_task.c **** *
 262:status_led_task.c **** * Parameters:
 263:status_led_task.c **** *  TimerHandle_t xTimer :  Current timer value (unused)
 264:status_led_task.c **** *
 265:status_led_task.c **** * Return:
 266:status_led_task.c **** *  void
 267:status_led_task.c **** *
 268:status_led_task.c **** *******************************************************************************/
 269:status_led_task.c **** void static StatusLedOrangeTimerCallback(TimerHandle_t xTimer)
 270:status_led_task.c **** {
 271:status_led_task.c ****     /* Variable used to store the return values of RTOS APIs */
 272:status_led_task.c ****     BaseType_t rtosApiResult;
 273:status_led_task.c ****     
 274:status_led_task.c ****     /* Remove warning for unused parameter */
 275:status_led_task.c ****     (void)xTimer;
 276:status_led_task.c ****     
 277:status_led_task.c ****     /* Send command to refresh the LED state */
 278:status_led_task.c ****     
 279:status_led_task.c ****     status_led_data_t ledRefreshData = 
 280:status_led_task.c ****     {   .redLed     = LED_NO_CHANGE,
 281:status_led_task.c ****         .orangeLed  = LED_TIMER_EXPIRED 
 282:status_led_task.c ****     };
 283:status_led_task.c ****     rtosApiResult = xQueueSend(statusLedDataQ, &ledRefreshData,0u);
 284:status_led_task.c ****     
 285:status_led_task.c ****     /* Check if the operation has been successful */
 286:status_led_task.c ****     if(rtosApiResult != pdTRUE)
 287:status_led_task.c ****     {
 288:status_led_task.c ****         Task_DebugPrintf("Failure! : Status LED - Sending data to Status LED "\
 289:status_led_task.c ****                          "queue",0u);      
 290:status_led_task.c ****     }
 291:status_led_task.c **** }
 292:status_led_task.c **** 
 293:status_led_task.c **** /*******************************************************************************
 294:status_led_task.c **** * Function Name: void static StatusLedOrangeTimerStart(void)                 
 295:status_led_task.c **** ********************************************************************************
 296:status_led_task.c **** * Summary:
 297:status_led_task.c **** *  This function starts the timer that provides timing to Orange LED 
 298:status_led_task.c **** *  toggle / blink
 299:status_led_task.c **** *
 300:status_led_task.c **** * Parameters:
 301:status_led_task.c **** *  void
 302:status_led_task.c **** *
 303:status_led_task.c **** * Return:
 304:status_led_task.c **** *  void
 305:status_led_task.c **** *
 306:status_led_task.c **** *******************************************************************************/
 307:status_led_task.c **** void static StatusLedOrangeTimerStart(void)
 308:status_led_task.c **** {
 309:status_led_task.c ****     /* Variable used to store the return values of RTOS APIs */
 310:status_led_task.c ****     BaseType_t rtosApiResult;
 311:status_led_task.c ****     
 312:status_led_task.c ****     /* Create an RTOS timer */
 313:status_led_task.c ****     xTimer_StatusLedOrange =  xTimerCreate ("Orange Status LED Timer",
 314:status_led_task.c ****                                             STATUS_LED_IDLE_INTERVAL, pdTRUE, 
 315:status_led_task.c ****                                             NULL, StatusLedOrangeTimerCallback); 
ARM GAS  C:\Users\codyg\AppData\Local\Temp\cc52IIus.s 			page 7


 316:status_led_task.c ****     
 317:status_led_task.c ****     /* Make sure that timer handle is valid */
 318:status_led_task.c ****     if (xTimer_StatusLedOrange != NULL)
 319:status_led_task.c ****     {
 320:status_led_task.c ****         /* Start the timer */
 321:status_led_task.c ****         rtosApiResult = xTimerStart(xTimer_StatusLedOrange,0u);
 322:status_led_task.c ****         
 323:status_led_task.c ****         /* Check if the operation has been successful */
 324:status_led_task.c ****         if(rtosApiResult  != pdPASS)
 325:status_led_task.c ****         {
 326:status_led_task.c ****             Task_DebugPrintf("Failure! : Status LED  - Orange LED Timer "\
 327:status_led_task.c ****                              "initialization", 0u);    
 328:status_led_task.c ****         }
 329:status_led_task.c ****     }
 330:status_led_task.c ****     else
 331:status_led_task.c ****     {
 332:status_led_task.c ****         Task_DebugPrintf("Failure! : Status LED  - Orange LED Timer creation",
 333:status_led_task.c ****                           0u); 
 334:status_led_task.c ****     }  
 335:status_led_task.c **** }
 336:status_led_task.c **** 
 337:status_led_task.c **** /*******************************************************************************
 338:status_led_task.c **** * Function Name: void static StatusLedOrangeTimerUpdate(TickType_t period)                
 339:status_led_task.c **** ********************************************************************************
 340:status_led_task.c **** * Summary:
 341:status_led_task.c **** *  This function updates the timer period per the parameter
 342:status_led_task.c **** *
 343:status_led_task.c **** * Parameters:
 344:status_led_task.c **** *  TickType_t period :  Period of the timer in ticks
 345:status_led_task.c **** *
 346:status_led_task.c **** * Return:
 347:status_led_task.c **** *  void
 348:status_led_task.c **** *
 349:status_led_task.c **** *******************************************************************************/
 350:status_led_task.c **** void static StatusLedOrangeTimerUpdate(TickType_t period)
 351:status_led_task.c **** {
 352:status_led_task.c ****     /* Variable used to store the return values of RTOS APIs */
 353:status_led_task.c ****     BaseType_t rtosApiResult;
 354:status_led_task.c ****     
 355:status_led_task.c ****     /* Change the timer period */
 356:status_led_task.c ****     rtosApiResult = xTimerChangePeriod(xTimer_StatusLedOrange, period, 0u);
 357:status_led_task.c ****     
 358:status_led_task.c ****     /* Check if the operation has been successful */
 359:status_led_task.c ****     if(rtosApiResult != pdPASS)
 360:status_led_task.c ****     {
 361:status_led_task.c ****         Task_DebugPrintf("Failure! : Status LED - Orange LED Timer update ",
 362:status_led_task.c ****                           0u);   
 363:status_led_task.c ****     }
 364:status_led_task.c **** }
 365:status_led_task.c **** 
 366:status_led_task.c **** /*******************************************************************************
 367:status_led_task.c **** * Function Name: void static StatusLedRedTimerCallback(TimerHandle_t xTimer)                       
 368:status_led_task.c **** ********************************************************************************
 369:status_led_task.c **** * Summary:
 370:status_led_task.c **** *  This function is called when the Red LED Timer expires
 371:status_led_task.c **** *
 372:status_led_task.c **** * Parameters:
ARM GAS  C:\Users\codyg\AppData\Local\Temp\cc52IIus.s 			page 8


 373:status_led_task.c **** *  TimerHandle_t xTimer :  Current timer value (unused)
 374:status_led_task.c **** *
 375:status_led_task.c **** * Return:
 376:status_led_task.c **** *  void
 377:status_led_task.c **** *
 378:status_led_task.c **** *******************************************************************************/
 379:status_led_task.c **** void static StatusLedRedTimerCallback(TimerHandle_t xTimer)
 380:status_led_task.c **** {
 381:status_led_task.c ****     /* Variable used to store the return values of RTOS APIs */
 382:status_led_task.c ****     BaseType_t rtosApiResult;
 383:status_led_task.c ****     
 384:status_led_task.c ****     /* Remove warning for unused parameter */
 385:status_led_task.c ****     (void)xTimer;
 386:status_led_task.c ****     
 387:status_led_task.c ****     /* Send command to refresh the LED state */
 388:status_led_task.c ****     status_led_data_t ledRefreshData = 
 389:status_led_task.c ****     {   .redLed     = LED_TIMER_EXPIRED,
 390:status_led_task.c ****         .orangeLed  = LED_NO_CHANGE 
 391:status_led_task.c ****     };
 392:status_led_task.c ****     rtosApiResult = xQueueSend(statusLedDataQ, &ledRefreshData,0u);
 393:status_led_task.c ****     
 394:status_led_task.c ****     /* Check if the operation has been successful */
 395:status_led_task.c ****     if(rtosApiResult != pdTRUE)
 396:status_led_task.c ****     {
 397:status_led_task.c ****         Task_DebugPrintf("Failure! : Status LED - Sending data to Status LED "\
 398:status_led_task.c ****                          "queue",0u);    
 399:status_led_task.c ****     }
 400:status_led_task.c **** }
 401:status_led_task.c **** 
 402:status_led_task.c **** /*******************************************************************************
 403:status_led_task.c **** * Function Name: void static StatusLedRedTimerStart(void)                   
 404:status_led_task.c **** ********************************************************************************
 405:status_led_task.c **** * Summary:
 406:status_led_task.c **** *  This function starts the timer that provides timing to Red LED toggle / blink
 407:status_led_task.c **** *
 408:status_led_task.c **** * Parameters:
 409:status_led_task.c **** *  void
 410:status_led_task.c **** *
 411:status_led_task.c **** * Return:
 412:status_led_task.c **** *  void
 413:status_led_task.c **** *
 414:status_led_task.c **** *******************************************************************************/
 415:status_led_task.c **** void static StatusLedRedTimerStart(void)
 416:status_led_task.c **** {   
  28              		.loc 1 416 0
  29              		.cfi_startproc
  30              		@ args = 0, pretend = 0, frame = 8
  31              		@ frame_needed = 0, uses_anonymous_args = 0
  32 0000 10B5     		push	{r4, lr}
  33              		.cfi_def_cfa_offset 8
  34              		.cfi_offset 4, -8
  35              		.cfi_offset 14, -4
  36 0002 84B0     		sub	sp, sp, #16
  37              		.cfi_def_cfa_offset 24
 417:status_led_task.c ****     /* Variable used to store the return values of RTOS APIs */
 418:status_led_task.c ****     BaseType_t rtosApiResult;
 419:status_led_task.c ****     
ARM GAS  C:\Users\codyg\AppData\Local\Temp\cc52IIus.s 			page 9


 420:status_led_task.c ****     /* Create an RTOS timer */
 421:status_led_task.c ****     xTimer_StatusLedRed    =  xTimerCreate ("Red Status LED Timer",
  38              		.loc 1 421 0
  39 0004 174B     		ldr	r3, .L5
  40 0006 0093     		str	r3, [sp]
  41 0008 0023     		movs	r3, #0
  42 000a 0122     		movs	r2, #1
  43 000c 4FF0FF31 		mov	r1, #-1
  44 0010 1548     		ldr	r0, .L5+4
  45 0012 FFF7FEFF 		bl	xTimerCreate
  46              	.LVL0:
  47 0016 154B     		ldr	r3, .L5+8
  48 0018 1860     		str	r0, [r3]
 422:status_led_task.c ****                                             STATUS_LED_IDLE_INTERVAL, pdTRUE,
 423:status_led_task.c ****                                             NULL, StatusLedRedTimerCallback);
 424:status_led_task.c ****     
 425:status_led_task.c ****     /* Make sure that timer handle is valid */
 426:status_led_task.c ****     if (xTimer_StatusLedRed != NULL)
  49              		.loc 1 426 0
  50 001a B0B1     		cbz	r0, .L2
  51 001c 0446     		mov	r4, r0
 427:status_led_task.c ****     {
 428:status_led_task.c ****         /* Start the timer */
 429:status_led_task.c ****         rtosApiResult = xTimerStart(xTimer_StatusLedRed,0u);
  52              		.loc 1 429 0
  53 001e FFF7FEFF 		bl	xTaskGetTickCount
  54              	.LVL1:
  55 0022 0023     		movs	r3, #0
  56 0024 0093     		str	r3, [sp]
  57 0026 0246     		mov	r2, r0
  58 0028 0121     		movs	r1, #1
  59 002a 2046     		mov	r0, r4
  60 002c FFF7FEFF 		bl	xTimerGenericCommand
  61              	.LVL2:
 430:status_led_task.c ****         
 431:status_led_task.c ****         /* Check if the operation has been successful */
 432:status_led_task.c ****         if(rtosApiResult != pdPASS)
  62              		.loc 1 432 0
  63 0030 0128     		cmp	r0, #1
  64 0032 14D0     		beq	.L1
  65              	.LVL3:
  66              	.LBB48:
  67              	.LBB49:
  68              		.file 2 "uart_debug.h"
   1:uart_debug.h  **** /******************************************************************************
   2:uart_debug.h  **** * File Name: uart_debug.h
   3:uart_debug.h  **** *
   4:uart_debug.h  **** * Version: 1.00
   5:uart_debug.h  **** *
   6:uart_debug.h  **** * Description: This file contains the macros that are used for UART based 
   7:uart_debug.h  **** *              debug
   8:uart_debug.h  **** *
   9:uart_debug.h  **** * Related Document: CE218138_BLE_Thermometer_RTOS.pdf
  10:uart_debug.h  **** *
  11:uart_debug.h  **** * Hardware Dependency: CY8CKIT-062-BLE PSoC 6 BLE Pioneer Kit
  12:uart_debug.h  **** *                      CY8CKIT-028-EPD E-INK Display Shield
  13:uart_debug.h  **** *
ARM GAS  C:\Users\codyg\AppData\Local\Temp\cc52IIus.s 			page 10


  14:uart_debug.h  **** *******************************************************************************
  15:uart_debug.h  **** * Copyright (2018), Cypress Semiconductor Corporation. All rights reserved.
  16:uart_debug.h  **** *******************************************************************************
  17:uart_debug.h  **** * This software, including source code, documentation and related materials
  18:uart_debug.h  **** * (“Software”), is owned by Cypress Semiconductor Corporation or one of its
  19:uart_debug.h  **** * subsidiaries (“Cypress”) and is protected by and subject to worldwide patent
  20:uart_debug.h  **** * protection (United States and foreign), United States copyright laws and
  21:uart_debug.h  **** * international treaty provisions. Therefore, you may use this Software only
  22:uart_debug.h  **** * as provided in the license agreement accompanying the software package from
  23:uart_debug.h  **** * which you obtained this Software (“EULA”).
  24:uart_debug.h  **** *
  25:uart_debug.h  **** * If no EULA applies, Cypress hereby grants you a personal, nonexclusive,
  26:uart_debug.h  **** * non-transferable license to copy, modify, and compile the Software source
  27:uart_debug.h  **** * code solely for use in connection with Cypress’s integrated circuit products.
  28:uart_debug.h  **** * Any reproduction, modification, translation, compilation, or representation
  29:uart_debug.h  **** * of this Software except as specified above is prohibited without the express
  30:uart_debug.h  **** * written permission of Cypress.
  31:uart_debug.h  **** *
  32:uart_debug.h  **** * Disclaimer: THIS SOFTWARE IS PROVIDED AS-IS, WITH NO WARRANTY OF ANY KIND, 
  33:uart_debug.h  **** * EXPRESS OR IMPLIED, INCLUDING, BUT NOT LIMITED TO, NONINFRINGEMENT, IMPLIED 
  34:uart_debug.h  **** * WARRANTIES OF MERCHANTABILITY AND FITNESS FOR A PARTICULAR PURPOSE. Cypress 
  35:uart_debug.h  **** * reserves the right to make changes to the Software without notice. Cypress 
  36:uart_debug.h  **** * does not assume any liability arising out of the application or use of the 
  37:uart_debug.h  **** * Software or any product or circuit described in the Software. Cypress does 
  38:uart_debug.h  **** * not authorize its products for use in any products where a malfunction or 
  39:uart_debug.h  **** * failure of the Cypress product may reasonably be expected to result in 
  40:uart_debug.h  **** * significant property damage, injury or death (“High Risk Product”). By 
  41:uart_debug.h  **** * including Cypress’s product in a High Risk Product, the manufacturer of such 
  42:uart_debug.h  **** * system or application assumes all risk of such use and in doing so agrees to 
  43:uart_debug.h  **** * indemnify Cypress against all liability.
  44:uart_debug.h  **** *******************************************************************************/
  45:uart_debug.h  **** /******************************************************************************
  46:uart_debug.h  **** * This file contains the macros that are used for UART based debug. Note that 
  47:uart_debug.h  **** * enabling debug reduces performance and power efficiency. It also increases 
  48:uart_debug.h  **** * the code size.
  49:uart_debug.h  **** *
  50:uart_debug.h  **** * If the debug is enabled, you should set up a serial port terminal emulator 
  51:uart_debug.h  **** * such as Tera Term, or Hyperterminal with these settings to view the debug
  52:uart_debug.h  **** * information :
  53:uart_debug.h  **** *
  54:uart_debug.h  **** *   Baud rate     :  115200
  55:uart_debug.h  **** *   Data size     :  8-bit
  56:uart_debug.h  **** *   Parity        :  None
  57:uart_debug.h  **** *   Stop          :  1-bit
  58:uart_debug.h  **** *   Flow Control  :  None  
  59:uart_debug.h  **** *******************************************************************************/
  60:uart_debug.h  **** 
  61:uart_debug.h  **** /* Include guard */
  62:uart_debug.h  **** #ifndef UART_DEBUG_H
  63:uart_debug.h  **** #define UART_DEBUG_H
  64:uart_debug.h  **** 
  65:uart_debug.h  **** /* Header file includes */     
  66:uart_debug.h  **** #include "project.h"    
  67:uart_debug.h  **** #include <stdio.h>
  68:uart_debug.h  **** #include <stdlib.h>
  69:uart_debug.h  **** #include <string.h>
  70:uart_debug.h  **** #include <inttypes.h> 
ARM GAS  C:\Users\codyg\AppData\Local\Temp\cc52IIus.s 			page 11


  71:uart_debug.h  ****     
  72:uart_debug.h  **** #if CY_CPU_CORTEX_M4
  73:uart_debug.h  ****     #include "FreeRTOS.h"
  74:uart_debug.h  ****     #include "task.h"
  75:uart_debug.h  ****     #include "queue.h"   
  76:uart_debug.h  **** #endif /* CY_CPU_CORTEX_M4 */
  77:uart_debug.h  ****   
  78:uart_debug.h  **** /* (true) enables UART based debug and (false) disables it. Note that 
  79:uart_debug.h  ****    enabling debug reduces performance, power efficiency and increases 
  80:uart_debug.h  ****    code size. Make sure to enable the UART_DEBUG component in TopDesign 
  81:uart_debug.h  ****    schematic if debug is enabled */    
  82:uart_debug.h  **** #define UART_DEBUG_ENABLE    (true)
  83:uart_debug.h  ****     
  84:uart_debug.h  **** /* Declare the macros used for UART based debug. Make sure to enable the
  85:uart_debug.h  ****     UART_DEBUG component in TopDesign schematic if debug is enabled */    
  86:uart_debug.h  **** #if (UART_DEBUG_ENABLE)
  87:uart_debug.h  ****     /* UART component used for STDIO functions */
  88:uart_debug.h  ****     #define UART_STDIO          (DEBUG_UART_HW)
  89:uart_debug.h  ****     
  90:uart_debug.h  ****     /* Following macros are not RTOS thread-safe, therefore, should not be
  91:uart_debug.h  ****        called from RTOS Tasks */
  92:uart_debug.h  ****     
  93:uart_debug.h  ****     /* Initializes the UART component used for STDIO functions */
  94:uart_debug.h  ****     #define DebugPrintfInit()  (DEBUG_UART_Start())
  95:uart_debug.h  ****     /* Function macro that sends formatted output to STDOUT */
  96:uart_debug.h  ****     #define DebugPrintf(...)     (printf(__VA_ARGS__))
  97:uart_debug.h  ****     
  98:uart_debug.h  **** #if CY_CPU_CORTEX_M4    
  99:uart_debug.h  **** 	/* RTOS thread-safe macros for initializing and printing debug 
 100:uart_debug.h  **** 	   information from RTOS Tasks */
 101:uart_debug.h  **** 	
 102:uart_debug.h  **** 	/* Initializes the underlying Task and Queue used for printing debug 
 103:uart_debug.h  **** 	   messages */
 104:uart_debug.h  **** 	#define Task_DebugInit()   (InitDebugPrintf())
 105:uart_debug.h  **** 
 106:uart_debug.h  **** 	/* Prints a constant string and an optional error code from a separate 
 107:uart_debug.h  **** 	   Task */
 108:uart_debug.h  **** 	#define Task_DebugPrintf(constString, errorCode) (SendToDebugPrintTask(         \
 109:uart_debug.h  **** 													(char*)constString,        \
 110:uart_debug.h  **** 													(uint32_t)errorCode))
 111:uart_debug.h  **** 	
 112:uart_debug.h  **** 	/* Definition of internal macros, datatypes and the inline functions 
 113:uart_debug.h  **** 	   used by the RTOS thread-safe macros for initializing and printing debug 
 114:uart_debug.h  **** 	   information from RTOS Tasks */
 115:uart_debug.h  **** 			
 116:uart_debug.h  **** 	/* Maximum number of debug messages that can be queued */
 117:uart_debug.h  **** 	#define DEBUG_QUEUE_SIZE    16u
 118:uart_debug.h  **** 	
 119:uart_debug.h  **** 	/* Datatype used for debug queue */
 120:uart_debug.h  **** 	typedef struct
 121:uart_debug.h  **** 	{
 122:uart_debug.h  **** 		char* stringPointer;
 123:uart_debug.h  **** 		uint32_t errorCode;
 124:uart_debug.h  **** 	}   debug_print_data_t;
 125:uart_debug.h  **** 	
 126:uart_debug.h  **** 	/* Queue handle for debug message Queue */
 127:uart_debug.h  **** 	extern QueueHandle_t debugMessageQ;
ARM GAS  C:\Users\codyg\AppData\Local\Temp\cc52IIus.s 			page 12


 128:uart_debug.h  **** 	
 129:uart_debug.h  **** 	/* Task that performs thread safe debug message printing */
 130:uart_debug.h  **** 	void Task_Debug(void *pvParameters);
 131:uart_debug.h  **** 	
 132:uart_debug.h  **** 	/* Inline function that creates the underlying Task and Queue  */
 133:uart_debug.h  **** 	void inline static InitDebugPrintf()
 134:uart_debug.h  **** 	{
 135:uart_debug.h  **** 		debugMessageQ = xQueueCreate(DEBUG_QUEUE_SIZE,
 136:uart_debug.h  **** 										sizeof(debug_print_data_t));
 137:uart_debug.h  **** 		xTaskCreate(Task_Debug, "Debug Task", configMINIMAL_STACK_SIZE, NULL,
 138:uart_debug.h  **** 					(tskIDLE_PRIORITY+1u), NULL);
 139:uart_debug.h  **** 	}        
 140:uart_debug.h  **** 	
 141:uart_debug.h  **** 	/* Inline function that sends messages to the debug Queue */
 142:uart_debug.h  **** 	void inline static SendToDebugPrintTask(char* stringPtr, uint32_t errCode)
 143:uart_debug.h  **** 	{
 144:uart_debug.h  **** 		debug_print_data_t printData = {.stringPointer = stringPtr, 
  69              		.loc 2 144 0
  70 0034 0E4B     		ldr	r3, .L5+12
  71 0036 0293     		str	r3, [sp, #8]
  72 0038 0022     		movs	r2, #0
  73 003a 0392     		str	r2, [sp, #12]
 145:uart_debug.h  **** 										.errorCode     = errCode};
 146:uart_debug.h  **** 		xQueueSend(debugMessageQ, &printData,0u);
  74              		.loc 2 146 0
  75 003c 1346     		mov	r3, r2
  76 003e 02A9     		add	r1, sp, #8
  77 0040 0C48     		ldr	r0, .L5+16
  78              	.LVL4:
  79 0042 0068     		ldr	r0, [r0]
  80 0044 FFF7FEFF 		bl	xQueueGenericSend
  81              	.LVL5:
  82 0048 09E0     		b	.L1
  83              	.LVL6:
  84              	.L2:
  85              	.LBE49:
  86              	.LBE48:
  87              	.LBB50:
  88              	.LBB51:
 144:uart_debug.h  **** 										.errorCode     = errCode};
  89              		.loc 2 144 0
  90 004a 0B4B     		ldr	r3, .L5+20
  91 004c 0293     		str	r3, [sp, #8]
  92 004e 0022     		movs	r2, #0
  93 0050 0392     		str	r2, [sp, #12]
  94              		.loc 2 146 0
  95 0052 1346     		mov	r3, r2
  96 0054 02A9     		add	r1, sp, #8
  97 0056 0748     		ldr	r0, .L5+16
  98 0058 0068     		ldr	r0, [r0]
  99 005a FFF7FEFF 		bl	xQueueGenericSend
 100              	.LVL7:
 101              	.L1:
 102              	.LBE51:
 103              	.LBE50:
 433:status_led_task.c ****         {
 434:status_led_task.c ****             Task_DebugPrintf("Failure! : Status LED  - Red LED Timer "\
ARM GAS  C:\Users\codyg\AppData\Local\Temp\cc52IIus.s 			page 13


 435:status_led_task.c ****                              "initialization", 0u);    
 436:status_led_task.c ****         }
 437:status_led_task.c ****     }
 438:status_led_task.c ****     else
 439:status_led_task.c ****     {
 440:status_led_task.c ****         Task_DebugPrintf("Failure! : Status LED  - Red LED Timer creation", 0u); 
 441:status_led_task.c ****     }
 442:status_led_task.c **** }
 104              		.loc 1 442 0
 105 005e 04B0     		add	sp, sp, #16
 106              		.cfi_def_cfa_offset 8
 107              		@ sp needed
 108 0060 10BD     		pop	{r4, pc}
 109              	.L6:
 110 0062 00BF     		.align	2
 111              	.L5:
 112 0064 00000000 		.word	StatusLedRedTimerCallback
 113 0068 00000000 		.word	.LC0
 114 006c 00000000 		.word	xTimer_StatusLedRed
 115 0070 18000000 		.word	.LC1
 116 0074 00000000 		.word	debugMessageQ
 117 0078 50000000 		.word	.LC2
 118              		.cfi_endproc
 119              	.LFE719:
 120              		.size	StatusLedRedTimerStart, .-StatusLedRedTimerStart
 121              		.section	.text.StatusLedRedTimerCallback,"ax",%progbits
 122              		.align	2
 123              		.thumb
 124              		.thumb_func
 125              		.type	StatusLedRedTimerCallback, %function
 126              	StatusLedRedTimerCallback:
 127              	.LFB718:
 380:status_led_task.c ****     /* Variable used to store the return values of RTOS APIs */
 128              		.loc 1 380 0
 129              		.cfi_startproc
 130              		@ args = 0, pretend = 0, frame = 16
 131              		@ frame_needed = 0, uses_anonymous_args = 0
 132              	.LVL8:
 133 0000 00B5     		push	{lr}
 134              		.cfi_def_cfa_offset 4
 135              		.cfi_offset 14, -4
 136 0002 85B0     		sub	sp, sp, #20
 137              		.cfi_def_cfa_offset 24
 388:status_led_task.c ****     {   .redLed     = LED_TIMER_EXPIRED,
 138              		.loc 1 388 0
 139 0004 0523     		movs	r3, #5
 140 0006 8DF80C30 		strb	r3, [sp, #12]
 141 000a 0022     		movs	r2, #0
 142 000c 8DF80D20 		strb	r2, [sp, #13]
 392:status_led_task.c ****     
 143              		.loc 1 392 0
 144 0010 1346     		mov	r3, r2
 145 0012 03A9     		add	r1, sp, #12
 146 0014 0948     		ldr	r0, .L10
 147              	.LVL9:
 148 0016 0068     		ldr	r0, [r0]
 149 0018 FFF7FEFF 		bl	xQueueGenericSend
ARM GAS  C:\Users\codyg\AppData\Local\Temp\cc52IIus.s 			page 14


 150              	.LVL10:
 395:status_led_task.c ****     {
 151              		.loc 1 395 0
 152 001c 0128     		cmp	r0, #1
 153 001e 09D0     		beq	.L7
 154              	.LVL11:
 155              	.LBB52:
 156              	.LBB53:
 144:uart_debug.h  **** 										.errorCode     = errCode};
 157              		.loc 2 144 0
 158 0020 074B     		ldr	r3, .L10+4
 159 0022 0193     		str	r3, [sp, #4]
 160 0024 0022     		movs	r2, #0
 161 0026 0292     		str	r2, [sp, #8]
 162              		.loc 2 146 0
 163 0028 1346     		mov	r3, r2
 164 002a 01A9     		add	r1, sp, #4
 165 002c 0548     		ldr	r0, .L10+8
 166              	.LVL12:
 167 002e 0068     		ldr	r0, [r0]
 168 0030 FFF7FEFF 		bl	xQueueGenericSend
 169              	.LVL13:
 170              	.L7:
 171              	.LBE53:
 172              	.LBE52:
 400:status_led_task.c **** 
 173              		.loc 1 400 0
 174 0034 05B0     		add	sp, sp, #20
 175              		.cfi_def_cfa_offset 4
 176              		@ sp needed
 177 0036 5DF804FB 		ldr	pc, [sp], #4
 178              	.L11:
 179 003a 00BF     		.align	2
 180              	.L10:
 181 003c 00000000 		.word	statusLedDataQ
 182 0040 80000000 		.word	.LC3
 183 0044 00000000 		.word	debugMessageQ
 184              		.cfi_endproc
 185              	.LFE718:
 186              		.size	StatusLedRedTimerCallback, .-StatusLedRedTimerCallback
 187              		.section	.text.StatusLedOrangeTimerStart,"ax",%progbits
 188              		.align	2
 189              		.thumb
 190              		.thumb_func
 191              		.type	StatusLedOrangeTimerStart, %function
 192              	StatusLedOrangeTimerStart:
 193              	.LFB716:
 308:status_led_task.c ****     /* Variable used to store the return values of RTOS APIs */
 194              		.loc 1 308 0
 195              		.cfi_startproc
 196              		@ args = 0, pretend = 0, frame = 8
 197              		@ frame_needed = 0, uses_anonymous_args = 0
 198 0000 10B5     		push	{r4, lr}
 199              		.cfi_def_cfa_offset 8
 200              		.cfi_offset 4, -8
 201              		.cfi_offset 14, -4
 202 0002 84B0     		sub	sp, sp, #16
ARM GAS  C:\Users\codyg\AppData\Local\Temp\cc52IIus.s 			page 15


 203              		.cfi_def_cfa_offset 24
 313:status_led_task.c ****                                             STATUS_LED_IDLE_INTERVAL, pdTRUE, 
 204              		.loc 1 313 0
 205 0004 174B     		ldr	r3, .L16
 206 0006 0093     		str	r3, [sp]
 207 0008 0023     		movs	r3, #0
 208 000a 0122     		movs	r2, #1
 209 000c 4FF0FF31 		mov	r1, #-1
 210 0010 1548     		ldr	r0, .L16+4
 211 0012 FFF7FEFF 		bl	xTimerCreate
 212              	.LVL14:
 213 0016 154B     		ldr	r3, .L16+8
 214 0018 1860     		str	r0, [r3]
 318:status_led_task.c ****     {
 215              		.loc 1 318 0
 216 001a B0B1     		cbz	r0, .L13
 217 001c 0446     		mov	r4, r0
 321:status_led_task.c ****         
 218              		.loc 1 321 0
 219 001e FFF7FEFF 		bl	xTaskGetTickCount
 220              	.LVL15:
 221 0022 0023     		movs	r3, #0
 222 0024 0093     		str	r3, [sp]
 223 0026 0246     		mov	r2, r0
 224 0028 0121     		movs	r1, #1
 225 002a 2046     		mov	r0, r4
 226 002c FFF7FEFF 		bl	xTimerGenericCommand
 227              	.LVL16:
 324:status_led_task.c ****         {
 228              		.loc 1 324 0
 229 0030 0128     		cmp	r0, #1
 230 0032 14D0     		beq	.L12
 231              	.LVL17:
 232              	.LBB54:
 233              	.LBB55:
 144:uart_debug.h  **** 										.errorCode     = errCode};
 234              		.loc 2 144 0
 235 0034 0E4B     		ldr	r3, .L16+12
 236 0036 0293     		str	r3, [sp, #8]
 237 0038 0022     		movs	r2, #0
 238 003a 0392     		str	r2, [sp, #12]
 239              		.loc 2 146 0
 240 003c 1346     		mov	r3, r2
 241 003e 02A9     		add	r1, sp, #8
 242 0040 0C48     		ldr	r0, .L16+16
 243              	.LVL18:
 244 0042 0068     		ldr	r0, [r0]
 245 0044 FFF7FEFF 		bl	xQueueGenericSend
 246              	.LVL19:
 247 0048 09E0     		b	.L12
 248              	.LVL20:
 249              	.L13:
 250              	.LBE55:
 251              	.LBE54:
 252              	.LBB56:
 253              	.LBB57:
 144:uart_debug.h  **** 										.errorCode     = errCode};
ARM GAS  C:\Users\codyg\AppData\Local\Temp\cc52IIus.s 			page 16


 254              		.loc 2 144 0
 255 004a 0B4B     		ldr	r3, .L16+20
 256 004c 0293     		str	r3, [sp, #8]
 257 004e 0022     		movs	r2, #0
 258 0050 0392     		str	r2, [sp, #12]
 259              		.loc 2 146 0
 260 0052 1346     		mov	r3, r2
 261 0054 02A9     		add	r1, sp, #8
 262 0056 0748     		ldr	r0, .L16+16
 263 0058 0068     		ldr	r0, [r0]
 264 005a FFF7FEFF 		bl	xQueueGenericSend
 265              	.LVL21:
 266              	.L12:
 267              	.LBE57:
 268              	.LBE56:
 335:status_led_task.c **** 
 269              		.loc 1 335 0
 270 005e 04B0     		add	sp, sp, #16
 271              		.cfi_def_cfa_offset 8
 272              		@ sp needed
 273 0060 10BD     		pop	{r4, pc}
 274              	.L17:
 275 0062 00BF     		.align	2
 276              	.L16:
 277 0064 00000000 		.word	StatusLedOrangeTimerCallback
 278 0068 BC000000 		.word	.LC4
 279 006c 00000000 		.word	xTimer_StatusLedOrange
 280 0070 D4000000 		.word	.LC5
 281 0074 00000000 		.word	debugMessageQ
 282 0078 10010000 		.word	.LC6
 283              		.cfi_endproc
 284              	.LFE716:
 285              		.size	StatusLedOrangeTimerStart, .-StatusLedOrangeTimerStart
 286              		.section	.text.StatusLedOrangeTimerCallback,"ax",%progbits
 287              		.align	2
 288              		.thumb
 289              		.thumb_func
 290              		.type	StatusLedOrangeTimerCallback, %function
 291              	StatusLedOrangeTimerCallback:
 292              	.LFB715:
 270:status_led_task.c ****     /* Variable used to store the return values of RTOS APIs */
 293              		.loc 1 270 0
 294              		.cfi_startproc
 295              		@ args = 0, pretend = 0, frame = 16
 296              		@ frame_needed = 0, uses_anonymous_args = 0
 297              	.LVL22:
 298 0000 00B5     		push	{lr}
 299              		.cfi_def_cfa_offset 4
 300              		.cfi_offset 14, -4
 301 0002 85B0     		sub	sp, sp, #20
 302              		.cfi_def_cfa_offset 24
 279:status_led_task.c ****     {   .redLed     = LED_NO_CHANGE,
 303              		.loc 1 279 0
 304 0004 0022     		movs	r2, #0
 305 0006 8DF80C20 		strb	r2, [sp, #12]
 306 000a 0523     		movs	r3, #5
 307 000c 8DF80D30 		strb	r3, [sp, #13]
ARM GAS  C:\Users\codyg\AppData\Local\Temp\cc52IIus.s 			page 17


 283:status_led_task.c ****     
 308              		.loc 1 283 0
 309 0010 1346     		mov	r3, r2
 310 0012 03A9     		add	r1, sp, #12
 311 0014 0948     		ldr	r0, .L21
 312              	.LVL23:
 313 0016 0068     		ldr	r0, [r0]
 314 0018 FFF7FEFF 		bl	xQueueGenericSend
 315              	.LVL24:
 286:status_led_task.c ****     {
 316              		.loc 1 286 0
 317 001c 0128     		cmp	r0, #1
 318 001e 09D0     		beq	.L18
 319              	.LVL25:
 320              	.LBB58:
 321              	.LBB59:
 144:uart_debug.h  **** 										.errorCode     = errCode};
 322              		.loc 2 144 0
 323 0020 074B     		ldr	r3, .L21+4
 324 0022 0193     		str	r3, [sp, #4]
 325 0024 0022     		movs	r2, #0
 326 0026 0292     		str	r2, [sp, #8]
 327              		.loc 2 146 0
 328 0028 1346     		mov	r3, r2
 329 002a 01A9     		add	r1, sp, #4
 330 002c 0548     		ldr	r0, .L21+8
 331              	.LVL26:
 332 002e 0068     		ldr	r0, [r0]
 333 0030 FFF7FEFF 		bl	xQueueGenericSend
 334              	.LVL27:
 335              	.L18:
 336              	.LBE59:
 337              	.LBE58:
 291:status_led_task.c **** 
 338              		.loc 1 291 0
 339 0034 05B0     		add	sp, sp, #20
 340              		.cfi_def_cfa_offset 4
 341              		@ sp needed
 342 0036 5DF804FB 		ldr	pc, [sp], #4
 343              	.L22:
 344 003a 00BF     		.align	2
 345              	.L21:
 346 003c 00000000 		.word	statusLedDataQ
 347 0040 80000000 		.word	.LC3
 348 0044 00000000 		.word	debugMessageQ
 349              		.cfi_endproc
 350              	.LFE715:
 351              		.size	StatusLedOrangeTimerCallback, .-StatusLedOrangeTimerCallback
 352              		.section	.text.StatusLedOrangeTimerUpdate,"ax",%progbits
 353              		.align	2
 354              		.thumb
 355              		.thumb_func
 356              		.type	StatusLedOrangeTimerUpdate, %function
 357              	StatusLedOrangeTimerUpdate:
 358              	.LFB717:
 351:status_led_task.c ****     /* Variable used to store the return values of RTOS APIs */
 359              		.loc 1 351 0
ARM GAS  C:\Users\codyg\AppData\Local\Temp\cc52IIus.s 			page 18


 360              		.cfi_startproc
 361              		@ args = 0, pretend = 0, frame = 8
 362              		@ frame_needed = 0, uses_anonymous_args = 0
 363              	.LVL28:
 364 0000 10B5     		push	{r4, lr}
 365              		.cfi_def_cfa_offset 8
 366              		.cfi_offset 4, -8
 367              		.cfi_offset 14, -4
 368 0002 84B0     		sub	sp, sp, #16
 369              		.cfi_def_cfa_offset 24
 356:status_led_task.c ****     
 370              		.loc 1 356 0
 371 0004 0B4B     		ldr	r3, .L26
 372 0006 1C68     		ldr	r4, [r3]
 373 0008 0023     		movs	r3, #0
 374 000a 0093     		str	r3, [sp]
 375 000c 0246     		mov	r2, r0
 376 000e 0421     		movs	r1, #4
 377 0010 2046     		mov	r0, r4
 378              	.LVL29:
 379 0012 FFF7FEFF 		bl	xTimerGenericCommand
 380              	.LVL30:
 359:status_led_task.c ****     {
 381              		.loc 1 359 0
 382 0016 0128     		cmp	r0, #1
 383 0018 09D0     		beq	.L23
 384              	.LVL31:
 385              	.LBB60:
 386              	.LBB61:
 144:uart_debug.h  **** 										.errorCode     = errCode};
 387              		.loc 2 144 0
 388 001a 074B     		ldr	r3, .L26+4
 389 001c 0293     		str	r3, [sp, #8]
 390 001e 0022     		movs	r2, #0
 391 0020 0392     		str	r2, [sp, #12]
 392              		.loc 2 146 0
 393 0022 1346     		mov	r3, r2
 394 0024 02A9     		add	r1, sp, #8
 395 0026 0548     		ldr	r0, .L26+8
 396              	.LVL32:
 397 0028 0068     		ldr	r0, [r0]
 398 002a FFF7FEFF 		bl	xQueueGenericSend
 399              	.LVL33:
 400              	.L23:
 401              	.LBE61:
 402              	.LBE60:
 364:status_led_task.c **** 
 403              		.loc 1 364 0
 404 002e 04B0     		add	sp, sp, #16
 405              		.cfi_def_cfa_offset 8
 406              		@ sp needed
 407 0030 10BD     		pop	{r4, pc}
 408              	.L27:
 409 0032 00BF     		.align	2
 410              	.L26:
 411 0034 00000000 		.word	xTimer_StatusLedOrange
 412 0038 44010000 		.word	.LC7
ARM GAS  C:\Users\codyg\AppData\Local\Temp\cc52IIus.s 			page 19


 413 003c 00000000 		.word	debugMessageQ
 414              		.cfi_endproc
 415              	.LFE717:
 416              		.size	StatusLedOrangeTimerUpdate, .-StatusLedOrangeTimerUpdate
 417              		.section	.text.StatusLedRedTimerUpdate,"ax",%progbits
 418              		.align	2
 419              		.thumb
 420              		.thumb_func
 421              		.type	StatusLedRedTimerUpdate, %function
 422              	StatusLedRedTimerUpdate:
 423              	.LFB720:
 443:status_led_task.c **** 
 444:status_led_task.c **** /*******************************************************************************
 445:status_led_task.c **** * Function Name: void static StatusLedRedTimerUpdate(TickType_t period)                 
 446:status_led_task.c **** ********************************************************************************
 447:status_led_task.c **** * Summary:
 448:status_led_task.c **** *  This function updates the timer period per the parameter
 449:status_led_task.c **** *
 450:status_led_task.c **** * Parameters:
 451:status_led_task.c **** *  TickType_t period :  Period of the timer in ticks
 452:status_led_task.c **** *
 453:status_led_task.c **** * Return:
 454:status_led_task.c **** *  void
 455:status_led_task.c **** *
 456:status_led_task.c **** *******************************************************************************/
 457:status_led_task.c **** void static StatusLedRedTimerUpdate(TickType_t period)
 458:status_led_task.c **** {
 424              		.loc 1 458 0
 425              		.cfi_startproc
 426              		@ args = 0, pretend = 0, frame = 8
 427              		@ frame_needed = 0, uses_anonymous_args = 0
 428              	.LVL34:
 429 0000 10B5     		push	{r4, lr}
 430              		.cfi_def_cfa_offset 8
 431              		.cfi_offset 4, -8
 432              		.cfi_offset 14, -4
 433 0002 84B0     		sub	sp, sp, #16
 434              		.cfi_def_cfa_offset 24
 459:status_led_task.c ****     /* Variable used to store the return values of RTOS APIs */
 460:status_led_task.c ****     BaseType_t rtosApiResult;
 461:status_led_task.c ****     
 462:status_led_task.c ****     /* Change the timer period */
 463:status_led_task.c ****     rtosApiResult = xTimerChangePeriod(xTimer_StatusLedRed, period, 0u);
 435              		.loc 1 463 0
 436 0004 0B4B     		ldr	r3, .L31
 437 0006 1C68     		ldr	r4, [r3]
 438 0008 0023     		movs	r3, #0
 439 000a 0093     		str	r3, [sp]
 440 000c 0246     		mov	r2, r0
 441 000e 0421     		movs	r1, #4
 442 0010 2046     		mov	r0, r4
 443              	.LVL35:
 444 0012 FFF7FEFF 		bl	xTimerGenericCommand
 445              	.LVL36:
 464:status_led_task.c ****     
 465:status_led_task.c ****     /* Check if the operation has been successful */
 466:status_led_task.c ****     if(rtosApiResult != pdPASS)
ARM GAS  C:\Users\codyg\AppData\Local\Temp\cc52IIus.s 			page 20


 446              		.loc 1 466 0
 447 0016 0128     		cmp	r0, #1
 448 0018 09D0     		beq	.L28
 449              	.LVL37:
 450              	.LBB62:
 451              	.LBB63:
 144:uart_debug.h  **** 										.errorCode     = errCode};
 452              		.loc 2 144 0
 453 001a 074B     		ldr	r3, .L31+4
 454 001c 0293     		str	r3, [sp, #8]
 455 001e 0022     		movs	r2, #0
 456 0020 0392     		str	r2, [sp, #12]
 457              		.loc 2 146 0
 458 0022 1346     		mov	r3, r2
 459 0024 02A9     		add	r1, sp, #8
 460 0026 0548     		ldr	r0, .L31+8
 461              	.LVL38:
 462 0028 0068     		ldr	r0, [r0]
 463 002a FFF7FEFF 		bl	xQueueGenericSend
 464              	.LVL39:
 465              	.L28:
 466              	.LBE63:
 467              	.LBE62:
 467:status_led_task.c ****     {
 468:status_led_task.c ****         Task_DebugPrintf("Failure! : Status LED - Red LED Timer update ", 0u);   
 469:status_led_task.c ****     }
 470:status_led_task.c **** }
 468              		.loc 1 470 0
 469 002e 04B0     		add	sp, sp, #16
 470              		.cfi_def_cfa_offset 8
 471              		@ sp needed
 472 0030 10BD     		pop	{r4, pc}
 473              	.L32:
 474 0032 00BF     		.align	2
 475              	.L31:
 476 0034 00000000 		.word	xTimer_StatusLedRed
 477 0038 78010000 		.word	.LC8
 478 003c 00000000 		.word	debugMessageQ
 479              		.cfi_endproc
 480              	.LFE720:
 481              		.size	StatusLedRedTimerUpdate, .-StatusLedRedTimerUpdate
 482              		.section	.text.Task_StatusLed,"ax",%progbits
 483              		.align	2
 484              		.global	Task_StatusLed
 485              		.thumb
 486              		.thumb_func
 487              		.type	Task_StatusLed, %function
 488              	Task_StatusLed:
 489              	.LFB714:
  90:status_led_task.c ****     /* Variable that stores the data recieved received over queue */
 490              		.loc 1 90 0
 491              		.cfi_startproc
 492              		@ args = 0, pretend = 0, frame = 16
 493              		@ frame_needed = 0, uses_anonymous_args = 0
 494              	.LVL40:
 495 0000 00B5     		push	{lr}
 496              		.cfi_def_cfa_offset 4
ARM GAS  C:\Users\codyg\AppData\Local\Temp\cc52IIus.s 			page 21


 497              		.cfi_offset 14, -4
 498 0002 85B0     		sub	sp, sp, #20
 499              		.cfi_def_cfa_offset 24
 105:status_led_task.c ****     StatusLedOrangeTimerStart();
 500              		.loc 1 105 0
 501 0004 FFF7FEFF 		bl	StatusLedRedTimerStart
 502              	.LVL41:
 106:status_led_task.c ****     
 503              		.loc 1 106 0
 504 0008 FFF7FEFF 		bl	StatusLedOrangeTimerStart
 505              	.LVL42:
 506              	.L34:
 112:status_led_task.c ****                          portMAX_DELAY);
 507              		.loc 1 112 0
 508 000c 0023     		movs	r3, #0
 509 000e 4FF0FF32 		mov	r2, #-1
 510 0012 03A9     		add	r1, sp, #12
 511 0014 6B48     		ldr	r0, .L57
 512 0016 0068     		ldr	r0, [r0]
 513 0018 FFF7FEFF 		bl	xQueueGenericReceive
 514              	.LVL43:
 115:status_led_task.c ****         {
 515              		.loc 1 115 0
 516 001c 0128     		cmp	r0, #1
 517 001e 40F0C580 		bne	.L36
 118:status_led_task.c ****             {
 518              		.loc 1 118 0
 519 0022 9DF80D30 		ldrb	r3, [sp, #13]	@ zero_extendqisi2
 520 0026 052B     		cmp	r3, #5
 521 0028 4DD8     		bhi	.L37
 522 002a DFE803F0 		tbb	[pc, r3]
 523              	.L39:
 524 002e 56       		.byte	(.L38-.L39)/2
 525 002f 03       		.byte	(.L40-.L39)/2
 526 0030 0E       		.byte	(.L41-.L39)/2
 527 0031 19       		.byte	(.L42-.L39)/2
 528 0032 21       		.byte	(.L43-.L39)/2
 529 0033 2C       		.byte	(.L44-.L39)/2
 530              		.p2align 1
 531              	.L40:
 532              	.LVL44:
 533              	.LBB64:
 534              	.LBB65:
 535              		.file 3 "Generated_Source\\PSoC6\\pdl\\drivers/peripheral/gpio/cy_gpio.h"
   1:Generated_Source\PSoC6\pdl\drivers/peripheral/gpio/cy_gpio.h **** /***************************************************************************//**
   2:Generated_Source\PSoC6\pdl\drivers/peripheral/gpio/cy_gpio.h **** * \file cy_gpio.h
   3:Generated_Source\PSoC6\pdl\drivers/peripheral/gpio/cy_gpio.h **** * \version 1.10.1
   4:Generated_Source\PSoC6\pdl\drivers/peripheral/gpio/cy_gpio.h **** *
   5:Generated_Source\PSoC6\pdl\drivers/peripheral/gpio/cy_gpio.h **** * \brief
   6:Generated_Source\PSoC6\pdl\drivers/peripheral/gpio/cy_gpio.h **** * Provides an API declaration of the GPIO driver
   7:Generated_Source\PSoC6\pdl\drivers/peripheral/gpio/cy_gpio.h **** *
   8:Generated_Source\PSoC6\pdl\drivers/peripheral/gpio/cy_gpio.h **** ********************************************************************************
   9:Generated_Source\PSoC6\pdl\drivers/peripheral/gpio/cy_gpio.h **** * \copyright
  10:Generated_Source\PSoC6\pdl\drivers/peripheral/gpio/cy_gpio.h **** * Copyright 2016-2018, Cypress Semiconductor Corporation. All rights reserved.
  11:Generated_Source\PSoC6\pdl\drivers/peripheral/gpio/cy_gpio.h **** * You may use this file only in accordance with the license, terms, conditions,
  12:Generated_Source\PSoC6\pdl\drivers/peripheral/gpio/cy_gpio.h **** * disclaimers, and limitations in the end user license agreement accompanying
  13:Generated_Source\PSoC6\pdl\drivers/peripheral/gpio/cy_gpio.h **** * the software package with which this file was provided.
ARM GAS  C:\Users\codyg\AppData\Local\Temp\cc52IIus.s 			page 22


  14:Generated_Source\PSoC6\pdl\drivers/peripheral/gpio/cy_gpio.h **** *******************************************************************************/
  15:Generated_Source\PSoC6\pdl\drivers/peripheral/gpio/cy_gpio.h **** 
  16:Generated_Source\PSoC6\pdl\drivers/peripheral/gpio/cy_gpio.h **** /**
  17:Generated_Source\PSoC6\pdl\drivers/peripheral/gpio/cy_gpio.h **** * \defgroup group_gpio General Purpose Input Output (GPIO)
  18:Generated_Source\PSoC6\pdl\drivers/peripheral/gpio/cy_gpio.h **** * \{
  19:Generated_Source\PSoC6\pdl\drivers/peripheral/gpio/cy_gpio.h **** * The GPIO driver provides an API to configure and access device Input/Output pins.
  20:Generated_Source\PSoC6\pdl\drivers/peripheral/gpio/cy_gpio.h **** * IO pins include all general purpose types such as GPIO, SIO, HSIO, AUXIO, and
  21:Generated_Source\PSoC6\pdl\drivers/peripheral/gpio/cy_gpio.h **** * their variants.
  22:Generated_Source\PSoC6\pdl\drivers/peripheral/gpio/cy_gpio.h **** *
  23:Generated_Source\PSoC6\pdl\drivers/peripheral/gpio/cy_gpio.h **** * Initialization can be performed either at the port level or by configuring the
  24:Generated_Source\PSoC6\pdl\drivers/peripheral/gpio/cy_gpio.h **** * individual pins. For efficient use of code space, port
  25:Generated_Source\PSoC6\pdl\drivers/peripheral/gpio/cy_gpio.h **** * configuration should be used in the field. Refer to the product device header files 
  26:Generated_Source\PSoC6\pdl\drivers/peripheral/gpio/cy_gpio.h **** * for the list of supported ports and pins.
  27:Generated_Source\PSoC6\pdl\drivers/peripheral/gpio/cy_gpio.h **** * 
  28:Generated_Source\PSoC6\pdl\drivers/peripheral/gpio/cy_gpio.h **** * - Single pin configuration is performed by using \ref Cy_GPIO_Pin_FastInit 
  29:Generated_Source\PSoC6\pdl\drivers/peripheral/gpio/cy_gpio.h **** *   (provide specific values) or \ref Cy_GPIO_Pin_Init (provide a filled
  30:Generated_Source\PSoC6\pdl\drivers/peripheral/gpio/cy_gpio.h **** *   cy_stc_gpio_pin_config_t structure).
  31:Generated_Source\PSoC6\pdl\drivers/peripheral/gpio/cy_gpio.h **** * - An entire port can be configured using \ref Cy_GPIO_Port_Init. Provide a filled 
  32:Generated_Source\PSoC6\pdl\drivers/peripheral/gpio/cy_gpio.h **** *   cy_stc_gpio_prt_config_t structure. The values in the structure are 
  33:Generated_Source\PSoC6\pdl\drivers/peripheral/gpio/cy_gpio.h **** *   bitfields representing the desired value for each pin in the port.
  34:Generated_Source\PSoC6\pdl\drivers/peripheral/gpio/cy_gpio.h **** * - Pin configuration and management is based on the port address and pin number.
  35:Generated_Source\PSoC6\pdl\drivers/peripheral/gpio/cy_gpio.h **** *   \ref Cy_GPIO_PortToAddr function can optionally be used to calculate the port
  36:Generated_Source\PSoC6\pdl\drivers/peripheral/gpio/cy_gpio.h **** *   address from the port number at run-time.
  37:Generated_Source\PSoC6\pdl\drivers/peripheral/gpio/cy_gpio.h **** *
  38:Generated_Source\PSoC6\pdl\drivers/peripheral/gpio/cy_gpio.h **** * Once the pin/port initialization is complete, each pin can be accessed by 
  39:Generated_Source\PSoC6\pdl\drivers/peripheral/gpio/cy_gpio.h **** * specifying the port (GPIO_PRT_Type) and the pin (0-7) in the provided API 
  40:Generated_Source\PSoC6\pdl\drivers/peripheral/gpio/cy_gpio.h **** * functions.
  41:Generated_Source\PSoC6\pdl\drivers/peripheral/gpio/cy_gpio.h **** *
  42:Generated_Source\PSoC6\pdl\drivers/peripheral/gpio/cy_gpio.h **** * \section group_gpio_configuration Configuration Considerations
  43:Generated_Source\PSoC6\pdl\drivers/peripheral/gpio/cy_gpio.h **** *
  44:Generated_Source\PSoC6\pdl\drivers/peripheral/gpio/cy_gpio.h **** * 1. Pin multiplexing is controlled through the High-Speed IO Matrix (HSIOM) selection.
  45:Generated_Source\PSoC6\pdl\drivers/peripheral/gpio/cy_gpio.h **** *    This allows the pin to connect to signal sources/sinks throughout the device,
  46:Generated_Source\PSoC6\pdl\drivers/peripheral/gpio/cy_gpio.h **** *    as defined by the pin HSIOM selection options (en_hsiom_sel_t).
  47:Generated_Source\PSoC6\pdl\drivers/peripheral/gpio/cy_gpio.h **** * 2. All pins are initialized to High-Z drive mode with HSIOM connected to CPU (SW
  48:Generated_Source\PSoC6\pdl\drivers/peripheral/gpio/cy_gpio.h **** *    control digital pin only) at Power-On-Reset(POR).
  49:Generated_Source\PSoC6\pdl\drivers/peripheral/gpio/cy_gpio.h **** * 3. Some API functions perform read-modify-write operations on shared port
  50:Generated_Source\PSoC6\pdl\drivers/peripheral/gpio/cy_gpio.h **** *    registers. These functions are not thread safe and care must be taken when
  51:Generated_Source\PSoC6\pdl\drivers/peripheral/gpio/cy_gpio.h **** *    called by the application.
  52:Generated_Source\PSoC6\pdl\drivers/peripheral/gpio/cy_gpio.h **** *
  53:Generated_Source\PSoC6\pdl\drivers/peripheral/gpio/cy_gpio.h **** * Multiple pins on a port can be updated using direct port register writes with an
  54:Generated_Source\PSoC6\pdl\drivers/peripheral/gpio/cy_gpio.h **** * appropriate port mask. An example is shown below, highlighting the different ways of 
  55:Generated_Source\PSoC6\pdl\drivers/peripheral/gpio/cy_gpio.h **** * configuring Port 1 pins using,
  56:Generated_Source\PSoC6\pdl\drivers/peripheral/gpio/cy_gpio.h **** * 
  57:Generated_Source\PSoC6\pdl\drivers/peripheral/gpio/cy_gpio.h **** * - Port output data register
  58:Generated_Source\PSoC6\pdl\drivers/peripheral/gpio/cy_gpio.h **** * - Port output data set register
  59:Generated_Source\PSoC6\pdl\drivers/peripheral/gpio/cy_gpio.h **** * - Port output data clear register
  60:Generated_Source\PSoC6\pdl\drivers/peripheral/gpio/cy_gpio.h **** *
  61:Generated_Source\PSoC6\pdl\drivers/peripheral/gpio/cy_gpio.h **** * \snippet gpio/gpio_v1_10_sut_01.cydsn/main_cm4.c Cy_GPIO_Snippet
  62:Generated_Source\PSoC6\pdl\drivers/peripheral/gpio/cy_gpio.h **** *
  63:Generated_Source\PSoC6\pdl\drivers/peripheral/gpio/cy_gpio.h **** * \section group_gpio_more_information More Information
  64:Generated_Source\PSoC6\pdl\drivers/peripheral/gpio/cy_gpio.h **** *
  65:Generated_Source\PSoC6\pdl\drivers/peripheral/gpio/cy_gpio.h **** * Refer to the technical reference manual (TRM) and the device datasheet.
  66:Generated_Source\PSoC6\pdl\drivers/peripheral/gpio/cy_gpio.h **** *
  67:Generated_Source\PSoC6\pdl\drivers/peripheral/gpio/cy_gpio.h **** * \section group_gpio_MISRA MISRA-C Compliance]
  68:Generated_Source\PSoC6\pdl\drivers/peripheral/gpio/cy_gpio.h **** * <table class="doxtable">
  69:Generated_Source\PSoC6\pdl\drivers/peripheral/gpio/cy_gpio.h **** *   <tr>
  70:Generated_Source\PSoC6\pdl\drivers/peripheral/gpio/cy_gpio.h **** *     <th>MISRA Rule</th>
ARM GAS  C:\Users\codyg\AppData\Local\Temp\cc52IIus.s 			page 23


  71:Generated_Source\PSoC6\pdl\drivers/peripheral/gpio/cy_gpio.h **** *     <th>Rule Class (Required/Advisory)</th>
  72:Generated_Source\PSoC6\pdl\drivers/peripheral/gpio/cy_gpio.h **** *     <th>Rule Description</th>
  73:Generated_Source\PSoC6\pdl\drivers/peripheral/gpio/cy_gpio.h **** *     <th>Description of Deviation(s)</th>
  74:Generated_Source\PSoC6\pdl\drivers/peripheral/gpio/cy_gpio.h **** *   </tr>
  75:Generated_Source\PSoC6\pdl\drivers/peripheral/gpio/cy_gpio.h **** *   <tr>
  76:Generated_Source\PSoC6\pdl\drivers/peripheral/gpio/cy_gpio.h **** *     <td>16.7</td>
  77:Generated_Source\PSoC6\pdl\drivers/peripheral/gpio/cy_gpio.h **** *     <td>A</td>
  78:Generated_Source\PSoC6\pdl\drivers/peripheral/gpio/cy_gpio.h **** *     <td>A pointer parameter in a function prototype should be declared as pointer 
  79:Generated_Source\PSoC6\pdl\drivers/peripheral/gpio/cy_gpio.h **** *         to const if the pointer is not used to modify the addressed object.</td>
  80:Generated_Source\PSoC6\pdl\drivers/peripheral/gpio/cy_gpio.h **** *     <td>The objects pointed to by the base addresses of the GPIO port are not always modified.
  81:Generated_Source\PSoC6\pdl\drivers/peripheral/gpio/cy_gpio.h **** *         While a const qualifier can be used in select scenarios, it brings little benefit
  82:Generated_Source\PSoC6\pdl\drivers/peripheral/gpio/cy_gpio.h **** *         in adding this to the affected functions. </td>
  83:Generated_Source\PSoC6\pdl\drivers/peripheral/gpio/cy_gpio.h **** *   </tr>
  84:Generated_Source\PSoC6\pdl\drivers/peripheral/gpio/cy_gpio.h **** * </table>
  85:Generated_Source\PSoC6\pdl\drivers/peripheral/gpio/cy_gpio.h **** *
  86:Generated_Source\PSoC6\pdl\drivers/peripheral/gpio/cy_gpio.h **** * \section group_gpio_changelog Changelog
  87:Generated_Source\PSoC6\pdl\drivers/peripheral/gpio/cy_gpio.h **** * <table class="doxtable">
  88:Generated_Source\PSoC6\pdl\drivers/peripheral/gpio/cy_gpio.h **** *   <tr><th>Version</th><th>Changes</th><th>Reason for Change</th></tr>
  89:Generated_Source\PSoC6\pdl\drivers/peripheral/gpio/cy_gpio.h **** *   <tr>
  90:Generated_Source\PSoC6\pdl\drivers/peripheral/gpio/cy_gpio.h **** *     <td>1.10.1</td>
  91:Generated_Source\PSoC6\pdl\drivers/peripheral/gpio/cy_gpio.h **** *     <td>Updated description for the functions: \ref Cy_GPIO_GetInterruptStatus, 
  92:Generated_Source\PSoC6\pdl\drivers/peripheral/gpio/cy_gpio.h **** *         \ref Cy_GPIO_GetInterruptMask, \ref Cy_GPIO_GetInterruptStatusMasked.
  93:Generated_Source\PSoC6\pdl\drivers/peripheral/gpio/cy_gpio.h **** *         Minor documentation edits.
  94:Generated_Source\PSoC6\pdl\drivers/peripheral/gpio/cy_gpio.h **** *     </td>
  95:Generated_Source\PSoC6\pdl\drivers/peripheral/gpio/cy_gpio.h **** *     <td>Documentation update and clarification</td>
  96:Generated_Source\PSoC6\pdl\drivers/peripheral/gpio/cy_gpio.h **** *   </tr>
  97:Generated_Source\PSoC6\pdl\drivers/peripheral/gpio/cy_gpio.h **** *   <tr>
  98:Generated_Source\PSoC6\pdl\drivers/peripheral/gpio/cy_gpio.h **** *     <td>1.10</td>
  99:Generated_Source\PSoC6\pdl\drivers/peripheral/gpio/cy_gpio.h **** *     <td>Added input parameter validation to the API functions</td>
 100:Generated_Source\PSoC6\pdl\drivers/peripheral/gpio/cy_gpio.h **** *     <td></td>
 101:Generated_Source\PSoC6\pdl\drivers/peripheral/gpio/cy_gpio.h **** *   </tr>
 102:Generated_Source\PSoC6\pdl\drivers/peripheral/gpio/cy_gpio.h **** *   <tr>
 103:Generated_Source\PSoC6\pdl\drivers/peripheral/gpio/cy_gpio.h **** *     <td>1.0</td>
 104:Generated_Source\PSoC6\pdl\drivers/peripheral/gpio/cy_gpio.h **** *     <td>Initial version</td>
 105:Generated_Source\PSoC6\pdl\drivers/peripheral/gpio/cy_gpio.h **** *     <td></td>
 106:Generated_Source\PSoC6\pdl\drivers/peripheral/gpio/cy_gpio.h **** *   </tr>
 107:Generated_Source\PSoC6\pdl\drivers/peripheral/gpio/cy_gpio.h **** * </table>
 108:Generated_Source\PSoC6\pdl\drivers/peripheral/gpio/cy_gpio.h **** *
 109:Generated_Source\PSoC6\pdl\drivers/peripheral/gpio/cy_gpio.h **** * \defgroup group_gpio_macros Macros
 110:Generated_Source\PSoC6\pdl\drivers/peripheral/gpio/cy_gpio.h **** * \defgroup group_gpio_functions Functions
 111:Generated_Source\PSoC6\pdl\drivers/peripheral/gpio/cy_gpio.h **** * \{
 112:Generated_Source\PSoC6\pdl\drivers/peripheral/gpio/cy_gpio.h **** *   \defgroup group_gpio_functions_init       Initialization Functions
 113:Generated_Source\PSoC6\pdl\drivers/peripheral/gpio/cy_gpio.h **** *   \defgroup group_gpio_functions_gpio       GPIO Functions
 114:Generated_Source\PSoC6\pdl\drivers/peripheral/gpio/cy_gpio.h **** *   \defgroup group_gpio_functions_sio        SIO Functions
 115:Generated_Source\PSoC6\pdl\drivers/peripheral/gpio/cy_gpio.h **** *   \defgroup group_gpio_functions_interrupt  Port Interrupt Functions
 116:Generated_Source\PSoC6\pdl\drivers/peripheral/gpio/cy_gpio.h **** * \}
 117:Generated_Source\PSoC6\pdl\drivers/peripheral/gpio/cy_gpio.h **** * \defgroup group_gpio_data_structures Data Structures
 118:Generated_Source\PSoC6\pdl\drivers/peripheral/gpio/cy_gpio.h **** * \defgroup group_gpio_enums Enumerated Types
 119:Generated_Source\PSoC6\pdl\drivers/peripheral/gpio/cy_gpio.h **** */
 120:Generated_Source\PSoC6\pdl\drivers/peripheral/gpio/cy_gpio.h **** 
 121:Generated_Source\PSoC6\pdl\drivers/peripheral/gpio/cy_gpio.h **** #if !defined(CY_GPIO_H)
 122:Generated_Source\PSoC6\pdl\drivers/peripheral/gpio/cy_gpio.h **** #define CY_GPIO_H
 123:Generated_Source\PSoC6\pdl\drivers/peripheral/gpio/cy_gpio.h **** 
 124:Generated_Source\PSoC6\pdl\drivers/peripheral/gpio/cy_gpio.h **** #include <stddef.h>
 125:Generated_Source\PSoC6\pdl\drivers/peripheral/gpio/cy_gpio.h **** #include "syslib/cy_syslib.h"
 126:Generated_Source\PSoC6\pdl\drivers/peripheral/gpio/cy_gpio.h **** #include "cy_device_headers.h"
 127:Generated_Source\PSoC6\pdl\drivers/peripheral/gpio/cy_gpio.h **** 
ARM GAS  C:\Users\codyg\AppData\Local\Temp\cc52IIus.s 			page 24


 128:Generated_Source\PSoC6\pdl\drivers/peripheral/gpio/cy_gpio.h **** #if defined(__cplusplus)
 129:Generated_Source\PSoC6\pdl\drivers/peripheral/gpio/cy_gpio.h **** extern "C" {
 130:Generated_Source\PSoC6\pdl\drivers/peripheral/gpio/cy_gpio.h **** #endif
 131:Generated_Source\PSoC6\pdl\drivers/peripheral/gpio/cy_gpio.h **** 
 132:Generated_Source\PSoC6\pdl\drivers/peripheral/gpio/cy_gpio.h **** /** \addtogroup group_gpio_macros
 133:Generated_Source\PSoC6\pdl\drivers/peripheral/gpio/cy_gpio.h **** * \{
 134:Generated_Source\PSoC6\pdl\drivers/peripheral/gpio/cy_gpio.h **** */
 135:Generated_Source\PSoC6\pdl\drivers/peripheral/gpio/cy_gpio.h **** 
 136:Generated_Source\PSoC6\pdl\drivers/peripheral/gpio/cy_gpio.h **** /** Driver major version */
 137:Generated_Source\PSoC6\pdl\drivers/peripheral/gpio/cy_gpio.h **** #define CY_GPIO_DRV_VERSION_MAJOR       1
 138:Generated_Source\PSoC6\pdl\drivers/peripheral/gpio/cy_gpio.h **** 
 139:Generated_Source\PSoC6\pdl\drivers/peripheral/gpio/cy_gpio.h **** /** Driver minor version */
 140:Generated_Source\PSoC6\pdl\drivers/peripheral/gpio/cy_gpio.h **** #define CY_GPIO_DRV_VERSION_MINOR       10
 141:Generated_Source\PSoC6\pdl\drivers/peripheral/gpio/cy_gpio.h **** 
 142:Generated_Source\PSoC6\pdl\drivers/peripheral/gpio/cy_gpio.h **** /** GPIO driver ID */
 143:Generated_Source\PSoC6\pdl\drivers/peripheral/gpio/cy_gpio.h **** #define CY_GPIO_ID CY_PDL_DRV_ID(0x16u)
 144:Generated_Source\PSoC6\pdl\drivers/peripheral/gpio/cy_gpio.h **** 
 145:Generated_Source\PSoC6\pdl\drivers/peripheral/gpio/cy_gpio.h **** /** \} group_gpio_macros */
 146:Generated_Source\PSoC6\pdl\drivers/peripheral/gpio/cy_gpio.h **** 
 147:Generated_Source\PSoC6\pdl\drivers/peripheral/gpio/cy_gpio.h **** 
 148:Generated_Source\PSoC6\pdl\drivers/peripheral/gpio/cy_gpio.h **** /***************************************
 149:Generated_Source\PSoC6\pdl\drivers/peripheral/gpio/cy_gpio.h **** *       Enumerations
 150:Generated_Source\PSoC6\pdl\drivers/peripheral/gpio/cy_gpio.h **** ***************************************/
 151:Generated_Source\PSoC6\pdl\drivers/peripheral/gpio/cy_gpio.h **** /**
 152:Generated_Source\PSoC6\pdl\drivers/peripheral/gpio/cy_gpio.h **** * \addtogroup group_gpio_enums
 153:Generated_Source\PSoC6\pdl\drivers/peripheral/gpio/cy_gpio.h **** * \{
 154:Generated_Source\PSoC6\pdl\drivers/peripheral/gpio/cy_gpio.h **** */
 155:Generated_Source\PSoC6\pdl\drivers/peripheral/gpio/cy_gpio.h **** 
 156:Generated_Source\PSoC6\pdl\drivers/peripheral/gpio/cy_gpio.h **** /**
 157:Generated_Source\PSoC6\pdl\drivers/peripheral/gpio/cy_gpio.h **** * GPIO Driver error codes
 158:Generated_Source\PSoC6\pdl\drivers/peripheral/gpio/cy_gpio.h **** */
 159:Generated_Source\PSoC6\pdl\drivers/peripheral/gpio/cy_gpio.h **** typedef enum 
 160:Generated_Source\PSoC6\pdl\drivers/peripheral/gpio/cy_gpio.h **** {
 161:Generated_Source\PSoC6\pdl\drivers/peripheral/gpio/cy_gpio.h ****     CY_GPIO_SUCCESS   = 0x00u,                                    /**< Returned successful */
 162:Generated_Source\PSoC6\pdl\drivers/peripheral/gpio/cy_gpio.h ****     CY_GPIO_BAD_PARAM = CY_GPIO_ID | CY_PDL_STATUS_ERROR | 0x01u, /**< Bad parameter was passed */
 163:Generated_Source\PSoC6\pdl\drivers/peripheral/gpio/cy_gpio.h **** } cy_en_gpio_status_t;
 164:Generated_Source\PSoC6\pdl\drivers/peripheral/gpio/cy_gpio.h **** 
 165:Generated_Source\PSoC6\pdl\drivers/peripheral/gpio/cy_gpio.h **** /** \} group_gpio_enums */
 166:Generated_Source\PSoC6\pdl\drivers/peripheral/gpio/cy_gpio.h **** 
 167:Generated_Source\PSoC6\pdl\drivers/peripheral/gpio/cy_gpio.h **** 
 168:Generated_Source\PSoC6\pdl\drivers/peripheral/gpio/cy_gpio.h **** /***************************************
 169:Generated_Source\PSoC6\pdl\drivers/peripheral/gpio/cy_gpio.h **** *       Configuration Structures
 170:Generated_Source\PSoC6\pdl\drivers/peripheral/gpio/cy_gpio.h **** ***************************************/
 171:Generated_Source\PSoC6\pdl\drivers/peripheral/gpio/cy_gpio.h **** 
 172:Generated_Source\PSoC6\pdl\drivers/peripheral/gpio/cy_gpio.h **** /**
 173:Generated_Source\PSoC6\pdl\drivers/peripheral/gpio/cy_gpio.h **** * \addtogroup group_gpio_data_structures
 174:Generated_Source\PSoC6\pdl\drivers/peripheral/gpio/cy_gpio.h **** * \{
 175:Generated_Source\PSoC6\pdl\drivers/peripheral/gpio/cy_gpio.h **** */
 176:Generated_Source\PSoC6\pdl\drivers/peripheral/gpio/cy_gpio.h **** 
 177:Generated_Source\PSoC6\pdl\drivers/peripheral/gpio/cy_gpio.h **** /** This structure is used to initialize a port of GPIO pins */
 178:Generated_Source\PSoC6\pdl\drivers/peripheral/gpio/cy_gpio.h **** typedef struct {
 179:Generated_Source\PSoC6\pdl\drivers/peripheral/gpio/cy_gpio.h ****     uint32_t out;           /**< Initial output data for the IO pins in the port */
 180:Generated_Source\PSoC6\pdl\drivers/peripheral/gpio/cy_gpio.h ****     uint32_t intrMask;      /**< Interrupt enable mask for the port interrupt */
 181:Generated_Source\PSoC6\pdl\drivers/peripheral/gpio/cy_gpio.h ****     uint32_t intrCfg;       /**< Port pin interrupt edge detection configuration */
 182:Generated_Source\PSoC6\pdl\drivers/peripheral/gpio/cy_gpio.h ****     uint32_t cfg;           /**< Port pin drive modes and input buffer enable configuration */
 183:Generated_Source\PSoC6\pdl\drivers/peripheral/gpio/cy_gpio.h ****     uint32_t cfgIn;         /**< Port pin input buffer configuration */
 184:Generated_Source\PSoC6\pdl\drivers/peripheral/gpio/cy_gpio.h ****     uint32_t cfgOut;        /**< Port pin output buffer configuration */
ARM GAS  C:\Users\codyg\AppData\Local\Temp\cc52IIus.s 			page 25


 185:Generated_Source\PSoC6\pdl\drivers/peripheral/gpio/cy_gpio.h ****     uint32_t cfgSIO;        /**< Port SIO pins configuration */
 186:Generated_Source\PSoC6\pdl\drivers/peripheral/gpio/cy_gpio.h ****     uint32_t sel0Active;    /**< HSIOM selection for port pins 0,1,2,3 */
 187:Generated_Source\PSoC6\pdl\drivers/peripheral/gpio/cy_gpio.h ****     uint32_t sel1Active;    /**< HSIOM selection for port pins 4,5,6,7 */
 188:Generated_Source\PSoC6\pdl\drivers/peripheral/gpio/cy_gpio.h **** } cy_stc_gpio_prt_config_t;
 189:Generated_Source\PSoC6\pdl\drivers/peripheral/gpio/cy_gpio.h **** 
 190:Generated_Source\PSoC6\pdl\drivers/peripheral/gpio/cy_gpio.h **** /** This structure is used to initialize a single GPIO pin */
 191:Generated_Source\PSoC6\pdl\drivers/peripheral/gpio/cy_gpio.h **** typedef struct {
 192:Generated_Source\PSoC6\pdl\drivers/peripheral/gpio/cy_gpio.h ****     uint32_t outVal;         /**< Pin output state */
 193:Generated_Source\PSoC6\pdl\drivers/peripheral/gpio/cy_gpio.h ****     uint32_t driveMode;      /**< Drive mode */
 194:Generated_Source\PSoC6\pdl\drivers/peripheral/gpio/cy_gpio.h ****     en_hsiom_sel_t hsiom;   /**< HSIOM selection */
 195:Generated_Source\PSoC6\pdl\drivers/peripheral/gpio/cy_gpio.h ****     uint32_t intEdge;        /**< Interrupt Edge type */
 196:Generated_Source\PSoC6\pdl\drivers/peripheral/gpio/cy_gpio.h ****     uint32_t intMask;        /**< Interrupt enable mask */
 197:Generated_Source\PSoC6\pdl\drivers/peripheral/gpio/cy_gpio.h ****     uint32_t vtrip;          /**< Input buffer voltage trip type */
 198:Generated_Source\PSoC6\pdl\drivers/peripheral/gpio/cy_gpio.h ****     uint32_t slewRate;       /**< Output buffer slew rate */
 199:Generated_Source\PSoC6\pdl\drivers/peripheral/gpio/cy_gpio.h ****     uint32_t driveSel;       /**< Drive strength */
 200:Generated_Source\PSoC6\pdl\drivers/peripheral/gpio/cy_gpio.h ****     uint32_t vregEn;         /**< SIO pair output buffer mode */
 201:Generated_Source\PSoC6\pdl\drivers/peripheral/gpio/cy_gpio.h ****     uint32_t ibufMode;       /**< SIO pair input buffer mode */
 202:Generated_Source\PSoC6\pdl\drivers/peripheral/gpio/cy_gpio.h ****     uint32_t vtripSel;       /**< SIO pair input buffer trip point */
 203:Generated_Source\PSoC6\pdl\drivers/peripheral/gpio/cy_gpio.h ****     uint32_t vrefSel;        /**< SIO pair reference voltage for input buffer trip point */
 204:Generated_Source\PSoC6\pdl\drivers/peripheral/gpio/cy_gpio.h ****     uint32_t vohSel;         /**< SIO pair regulated voltage output level */
 205:Generated_Source\PSoC6\pdl\drivers/peripheral/gpio/cy_gpio.h **** } cy_stc_gpio_pin_config_t;
 206:Generated_Source\PSoC6\pdl\drivers/peripheral/gpio/cy_gpio.h **** 
 207:Generated_Source\PSoC6\pdl\drivers/peripheral/gpio/cy_gpio.h **** /** \} group_gpio_data_structures */
 208:Generated_Source\PSoC6\pdl\drivers/peripheral/gpio/cy_gpio.h **** 
 209:Generated_Source\PSoC6\pdl\drivers/peripheral/gpio/cy_gpio.h **** /***************************************
 210:Generated_Source\PSoC6\pdl\drivers/peripheral/gpio/cy_gpio.h **** *        Constants
 211:Generated_Source\PSoC6\pdl\drivers/peripheral/gpio/cy_gpio.h **** ***************************************/
 212:Generated_Source\PSoC6\pdl\drivers/peripheral/gpio/cy_gpio.h **** 
 213:Generated_Source\PSoC6\pdl\drivers/peripheral/gpio/cy_gpio.h **** /** \cond INTERNAL */
 214:Generated_Source\PSoC6\pdl\drivers/peripheral/gpio/cy_gpio.h **** 
 215:Generated_Source\PSoC6\pdl\drivers/peripheral/gpio/cy_gpio.h **** /* General Constants */
 216:Generated_Source\PSoC6\pdl\drivers/peripheral/gpio/cy_gpio.h **** #define CY_GPIO_PRT_HALF                       (4UL)      /**< Half-way point of a GPIO port */
 217:Generated_Source\PSoC6\pdl\drivers/peripheral/gpio/cy_gpio.h **** #define CY_GPIO_PRT_DEINIT                     (0UL)      /**< De-init value for port registers */
 218:Generated_Source\PSoC6\pdl\drivers/peripheral/gpio/cy_gpio.h **** 
 219:Generated_Source\PSoC6\pdl\drivers/peripheral/gpio/cy_gpio.h **** /* GPIO Masks */
 220:Generated_Source\PSoC6\pdl\drivers/peripheral/gpio/cy_gpio.h **** #define CY_GPIO_HSIOM_MASK                     (0x1FUL)   /**< HSIOM selection mask */
 221:Generated_Source\PSoC6\pdl\drivers/peripheral/gpio/cy_gpio.h **** #define CY_GPIO_OUT_MASK                       (0x01UL)   /**< Single pin mask for OUT register */
 222:Generated_Source\PSoC6\pdl\drivers/peripheral/gpio/cy_gpio.h **** #define CY_GPIO_IN_MASK                        (0x01UL)   /**< Single pin mask for IN register */
 223:Generated_Source\PSoC6\pdl\drivers/peripheral/gpio/cy_gpio.h **** #define CY_GPIO_CFG_DM_MASK                    (0x0FUL)   /**< Single pin mask for drive mode in CF
 224:Generated_Source\PSoC6\pdl\drivers/peripheral/gpio/cy_gpio.h **** #define CY_GPIO_CFG_IN_VTRIP_SEL_MASK          (0x01UL)   /**< Single pin mask for VTRIP selection 
 225:Generated_Source\PSoC6\pdl\drivers/peripheral/gpio/cy_gpio.h **** #define CY_GPIO_CFG_OUT_SLOW_MASK              (0x01UL)   /**< Single pin mask for slew rate in CFG
 226:Generated_Source\PSoC6\pdl\drivers/peripheral/gpio/cy_gpio.h **** #define CY_GPIO_CFG_OUT_DRIVE_SEL_MASK         (0x03UL)   /**< Single pin mask for drive strength i
 227:Generated_Source\PSoC6\pdl\drivers/peripheral/gpio/cy_gpio.h **** #define CY_GPIO_INTR_STATUS_MASK               (0x01UL)   /**< Single pin mask for interrupt status
 228:Generated_Source\PSoC6\pdl\drivers/peripheral/gpio/cy_gpio.h **** #define CY_GPIO_INTR_EN_MASK                   (0x01UL)   /**< Single pin mask for interrupt status
 229:Generated_Source\PSoC6\pdl\drivers/peripheral/gpio/cy_gpio.h **** #define CY_GPIO_INTR_MASKED_MASK               (0x01UL)   /**< Single pin mask for masked interrupt
 230:Generated_Source\PSoC6\pdl\drivers/peripheral/gpio/cy_gpio.h **** #define CY_GPIO_INTR_SET_MASK                  (0x01UL)   /**< Single pin mask for setting the inte
 231:Generated_Source\PSoC6\pdl\drivers/peripheral/gpio/cy_gpio.h **** #define CY_GPIO_INTR_EDGE_MASK                 (0x03UL)   /**< Single pin mask for interrupt edge t
 232:Generated_Source\PSoC6\pdl\drivers/peripheral/gpio/cy_gpio.h **** #define CY_GPIO_INTR_FLT_EDGE_MASK             (0x07UL)   /**< Single pin mask for setting filtered
 233:Generated_Source\PSoC6\pdl\drivers/peripheral/gpio/cy_gpio.h **** 
 234:Generated_Source\PSoC6\pdl\drivers/peripheral/gpio/cy_gpio.h **** /* SIO Masks */
 235:Generated_Source\PSoC6\pdl\drivers/peripheral/gpio/cy_gpio.h **** #define CY_GPIO_VREG_EN_MASK                   (0x01UL)   /**< Single SIO pin mask for voltage regu
 236:Generated_Source\PSoC6\pdl\drivers/peripheral/gpio/cy_gpio.h **** #define CY_GPIO_IBUF_MASK                      (0x01UL)   /**< Single SIO pin mask for input buffer
 237:Generated_Source\PSoC6\pdl\drivers/peripheral/gpio/cy_gpio.h **** #define CY_GPIO_IBUF_SHIFT                     (0x01UL)   /**< Single SIO pin shift for input buffe
 238:Generated_Source\PSoC6\pdl\drivers/peripheral/gpio/cy_gpio.h **** #define CY_GPIO_VTRIP_SEL_MASK                 (0x01UL)   /**< Single SIO pin mask for the input bu
 239:Generated_Source\PSoC6\pdl\drivers/peripheral/gpio/cy_gpio.h **** #define CY_GPIO_VTRIP_SEL_SHIFT                (0x02UL)   /**< Single SIO pin shift for the input b
 240:Generated_Source\PSoC6\pdl\drivers/peripheral/gpio/cy_gpio.h **** #define CY_GPIO_VREF_SEL_MASK                  (0x03UL)   /**< Single SIO pin mask for voltage refe
 241:Generated_Source\PSoC6\pdl\drivers/peripheral/gpio/cy_gpio.h **** #define CY_GPIO_VREF_SEL_SHIFT                 (0x03UL)   /**< Single SIO pin shift for voltage ref
ARM GAS  C:\Users\codyg\AppData\Local\Temp\cc52IIus.s 			page 26


 242:Generated_Source\PSoC6\pdl\drivers/peripheral/gpio/cy_gpio.h **** #define CY_GPIO_VOH_SEL_MASK                   (0x07UL)   /**< Single SIO pin mask for VOH */
 243:Generated_Source\PSoC6\pdl\drivers/peripheral/gpio/cy_gpio.h **** #define CY_GPIO_VOH_SEL_SHIFT                  (0x05UL)   /**< Single SIO pin shift for VOH */
 244:Generated_Source\PSoC6\pdl\drivers/peripheral/gpio/cy_gpio.h **** 
 245:Generated_Source\PSoC6\pdl\drivers/peripheral/gpio/cy_gpio.h **** /* Special mask for SIO pin pair setting */
 246:Generated_Source\PSoC6\pdl\drivers/peripheral/gpio/cy_gpio.h **** #define CY_GPIO_SIO_ODD_PIN_MASK               (0x00FEUL) /**< SIO pin pair selection mask */
 247:Generated_Source\PSoC6\pdl\drivers/peripheral/gpio/cy_gpio.h **** #define CY_GPIO_SIO_PIN_MASK                   (0x00FFUL) /**< SIO pin pair mask */
 248:Generated_Source\PSoC6\pdl\drivers/peripheral/gpio/cy_gpio.h **** 
 249:Generated_Source\PSoC6\pdl\drivers/peripheral/gpio/cy_gpio.h **** /* Offsets */
 250:Generated_Source\PSoC6\pdl\drivers/peripheral/gpio/cy_gpio.h **** #define CY_GPIO_HSIOM_OFFSET                   (3UL)      /**< Offset for HSIOM */
 251:Generated_Source\PSoC6\pdl\drivers/peripheral/gpio/cy_gpio.h **** #define CY_GPIO_DRIVE_MODE_OFFSET              (2UL)      /**< Offset for Drive mode */
 252:Generated_Source\PSoC6\pdl\drivers/peripheral/gpio/cy_gpio.h **** #define CY_GPIO_INBUF_OFFSET                   (3UL)      /**< Offset for input buffer */
 253:Generated_Source\PSoC6\pdl\drivers/peripheral/gpio/cy_gpio.h **** #define CY_GPIO_CFG_OUT_DRIVE_OFFSET           (16UL)     /**< Offset for drive strength */
 254:Generated_Source\PSoC6\pdl\drivers/peripheral/gpio/cy_gpio.h **** #define CY_GPIO_INTR_CFG_OFFSET                (1UL)      /**< Offset for interrupt config */
 255:Generated_Source\PSoC6\pdl\drivers/peripheral/gpio/cy_gpio.h **** #define CY_GPIO_INTR_FILT_OFFSET               (18UL)     /**< Offset for filtered interrupt config
 256:Generated_Source\PSoC6\pdl\drivers/peripheral/gpio/cy_gpio.h **** #define CY_GPIO_CFG_SIO_OFFSET                 (2UL)      /**< Offset for SIO config */
 257:Generated_Source\PSoC6\pdl\drivers/peripheral/gpio/cy_gpio.h **** 
 258:Generated_Source\PSoC6\pdl\drivers/peripheral/gpio/cy_gpio.h **** /* Parameter validation constants */
 259:Generated_Source\PSoC6\pdl\drivers/peripheral/gpio/cy_gpio.h **** #define CY_GPIO_PINS_MAX                       (8UL)      /**< Number of pins in the port */
 260:Generated_Source\PSoC6\pdl\drivers/peripheral/gpio/cy_gpio.h **** #define CY_GPIO_PRT_PINS_MASK                  (0x0000000FFUL)
 261:Generated_Source\PSoC6\pdl\drivers/peripheral/gpio/cy_gpio.h **** #define CY_GPIO_PRT_INTR_CFG_EDGE_SEL_MASK     (GPIO_PRT_INTR_CFG_EDGE0_SEL_Msk | \
 262:Generated_Source\PSoC6\pdl\drivers/peripheral/gpio/cy_gpio.h ****                                                 GPIO_PRT_INTR_CFG_EDGE1_SEL_Msk | \
 263:Generated_Source\PSoC6\pdl\drivers/peripheral/gpio/cy_gpio.h ****                                                 GPIO_PRT_INTR_CFG_EDGE2_SEL_Msk | \
 264:Generated_Source\PSoC6\pdl\drivers/peripheral/gpio/cy_gpio.h ****                                                 GPIO_PRT_INTR_CFG_EDGE3_SEL_Msk | \
 265:Generated_Source\PSoC6\pdl\drivers/peripheral/gpio/cy_gpio.h ****                                                 GPIO_PRT_INTR_CFG_EDGE4_SEL_Msk | \
 266:Generated_Source\PSoC6\pdl\drivers/peripheral/gpio/cy_gpio.h ****                                                 GPIO_PRT_INTR_CFG_EDGE5_SEL_Msk | \
 267:Generated_Source\PSoC6\pdl\drivers/peripheral/gpio/cy_gpio.h ****                                                 GPIO_PRT_INTR_CFG_EDGE6_SEL_Msk | \
 268:Generated_Source\PSoC6\pdl\drivers/peripheral/gpio/cy_gpio.h ****                                                 GPIO_PRT_INTR_CFG_EDGE7_SEL_Msk)            
 269:Generated_Source\PSoC6\pdl\drivers/peripheral/gpio/cy_gpio.h **** #define CY_GPIO_PRT_INTR_CFG_RANGE_MASK        (CY_GPIO_PRT_INTR_CFG_EDGE_SEL_MASK | \
 270:Generated_Source\PSoC6\pdl\drivers/peripheral/gpio/cy_gpio.h ****                                                 GPIO_PRT_INTR_CFG_FLT_EDGE_SEL_Msk | \
 271:Generated_Source\PSoC6\pdl\drivers/peripheral/gpio/cy_gpio.h ****                                                 GPIO_PRT_INTR_CFG_FLT_SEL_Msk)
 272:Generated_Source\PSoC6\pdl\drivers/peripheral/gpio/cy_gpio.h **** #define CY_GPIO_PRT_INT_MASK_MASK              (0x0000001FFUL)
 273:Generated_Source\PSoC6\pdl\drivers/peripheral/gpio/cy_gpio.h **** #define CY_GPIO_PRT_SEL_ACTIVE_MASK            (0x1FFFFFFFUL)
 274:Generated_Source\PSoC6\pdl\drivers/peripheral/gpio/cy_gpio.h **** 
 275:Generated_Source\PSoC6\pdl\drivers/peripheral/gpio/cy_gpio.h **** /* Parameter validation macros */
 276:Generated_Source\PSoC6\pdl\drivers/peripheral/gpio/cy_gpio.h **** #define CY_GPIO_IS_PIN_VALID(pinNum)           (CY_GPIO_PINS_MAX > (pinNum))
 277:Generated_Source\PSoC6\pdl\drivers/peripheral/gpio/cy_gpio.h **** #define CY_GPIO_IS_FILTER_PIN_VALID(pinNum)    (CY_GPIO_PINS_MAX >= (pinNum))
 278:Generated_Source\PSoC6\pdl\drivers/peripheral/gpio/cy_gpio.h **** #define CY_GPIO_IS_VALUE_VALID(outVal)         (1UL >= (outVal))
 279:Generated_Source\PSoC6\pdl\drivers/peripheral/gpio/cy_gpio.h **** #define CY_GPIO_IS_DM_VALID(driveMode)         (0U == ((driveMode) & (uint32_t)~CY_GPIO_CFG_DM_MASK
 280:Generated_Source\PSoC6\pdl\drivers/peripheral/gpio/cy_gpio.h **** 
 281:Generated_Source\PSoC6\pdl\drivers/peripheral/gpio/cy_gpio.h **** #define CY_GPIO_IS_HSIOM_VALID(hsiom)          (0U == ((hsiom) & (uint32_t)~CY_GPIO_HSIOM_MASK))
 282:Generated_Source\PSoC6\pdl\drivers/peripheral/gpio/cy_gpio.h **** 
 283:Generated_Source\PSoC6\pdl\drivers/peripheral/gpio/cy_gpio.h **** #define CY_GPIO_IS_INT_EDGE_VALID(intEdge)     ((CY_GPIO_INTR_DISABLE  == (intEdge)) || \
 284:Generated_Source\PSoC6\pdl\drivers/peripheral/gpio/cy_gpio.h ****                                                 (CY_GPIO_INTR_RISING   == (intEdge)) || \
 285:Generated_Source\PSoC6\pdl\drivers/peripheral/gpio/cy_gpio.h ****                                                 (CY_GPIO_INTR_FALLING  == (intEdge)) || \
 286:Generated_Source\PSoC6\pdl\drivers/peripheral/gpio/cy_gpio.h ****                                                 (CY_GPIO_INTR_BOTH     == (intEdge)))
 287:Generated_Source\PSoC6\pdl\drivers/peripheral/gpio/cy_gpio.h **** 
 288:Generated_Source\PSoC6\pdl\drivers/peripheral/gpio/cy_gpio.h **** #define CY_GPIO_IS_DRIVE_SEL_VALID(driveSel)   ((CY_GPIO_DRIVE_FULL    == (driveSel)) || \
 289:Generated_Source\PSoC6\pdl\drivers/peripheral/gpio/cy_gpio.h ****                                                 (CY_GPIO_DRIVE_1_2     == (driveSel)) || \
 290:Generated_Source\PSoC6\pdl\drivers/peripheral/gpio/cy_gpio.h ****                                                 (CY_GPIO_DRIVE_1_4     == (driveSel)) || \
 291:Generated_Source\PSoC6\pdl\drivers/peripheral/gpio/cy_gpio.h ****                                                 (CY_GPIO_DRIVE_1_8     == (driveSel)))
 292:Generated_Source\PSoC6\pdl\drivers/peripheral/gpio/cy_gpio.h **** 
 293:Generated_Source\PSoC6\pdl\drivers/peripheral/gpio/cy_gpio.h **** #define CY_GPIO_IS_VREF_SEL_VALID(vrefSel)     ((CY_SIO_VREF_PINREF    == (vrefSel)) || \
 294:Generated_Source\PSoC6\pdl\drivers/peripheral/gpio/cy_gpio.h ****                                                 (CY_SIO_VREF_1_2V      == (vrefSel)) || \
 295:Generated_Source\PSoC6\pdl\drivers/peripheral/gpio/cy_gpio.h ****                                                 (CY_SIO_VREF_AMUX_A    == (vrefSel)) || \
 296:Generated_Source\PSoC6\pdl\drivers/peripheral/gpio/cy_gpio.h ****                                                 (CY_SIO_VREF_AMUX_B    == (vrefSel)))
 297:Generated_Source\PSoC6\pdl\drivers/peripheral/gpio/cy_gpio.h **** 
 298:Generated_Source\PSoC6\pdl\drivers/peripheral/gpio/cy_gpio.h **** #define CY_GPIO_IS_VOH_SEL_VALID(vrefSel)      ((CY_SIO_VOH_1_00       == (vrefSel)) || \
ARM GAS  C:\Users\codyg\AppData\Local\Temp\cc52IIus.s 			page 27


 299:Generated_Source\PSoC6\pdl\drivers/peripheral/gpio/cy_gpio.h ****                                                 (CY_SIO_VOH_1_25       == (vrefSel)) || \
 300:Generated_Source\PSoC6\pdl\drivers/peripheral/gpio/cy_gpio.h ****                                                 (CY_SIO_VOH_1_49       == (vrefSel)) || \
 301:Generated_Source\PSoC6\pdl\drivers/peripheral/gpio/cy_gpio.h ****                                                 (CY_SIO_VOH_1_67       == (vrefSel)) || \
 302:Generated_Source\PSoC6\pdl\drivers/peripheral/gpio/cy_gpio.h ****                                                 (CY_SIO_VOH_2_08       == (vrefSel)) || \
 303:Generated_Source\PSoC6\pdl\drivers/peripheral/gpio/cy_gpio.h ****                                                 (CY_SIO_VOH_2_50       == (vrefSel)) || \
 304:Generated_Source\PSoC6\pdl\drivers/peripheral/gpio/cy_gpio.h ****                                                 (CY_SIO_VOH_2_78       == (vrefSel)) || \
 305:Generated_Source\PSoC6\pdl\drivers/peripheral/gpio/cy_gpio.h ****                                                 (CY_SIO_VOH_4_16       == (vrefSel)))
 306:Generated_Source\PSoC6\pdl\drivers/peripheral/gpio/cy_gpio.h ****                    
 307:Generated_Source\PSoC6\pdl\drivers/peripheral/gpio/cy_gpio.h **** #define CY_GPIO_IS_PIN_BIT_VALID(pinBit)       (0U == ((pinBit) & (uint32_t)~CY_GPIO_PRT_PINS_MASK)
 308:Generated_Source\PSoC6\pdl\drivers/peripheral/gpio/cy_gpio.h **** #define CY_GPIO_IS_INTR_CFG_VALID(intrCfg)     (0U == ((intrCfg) & (uint32_t)~CY_GPIO_PRT_INTR_CFG_
 309:Generated_Source\PSoC6\pdl\drivers/peripheral/gpio/cy_gpio.h **** #define CY_GPIO_IS_INTR_MASK_VALID(intrMask)   (0U == ((intrMask) & (uint32_t)~CY_GPIO_PRT_INT_MASK
 310:Generated_Source\PSoC6\pdl\drivers/peripheral/gpio/cy_gpio.h **** #define CY_GPIO_IS_SEL_ACT_VALID(selActive)    (0U == ((selActive) & (uint32_t)~CY_GPIO_PRT_SEL_ACT
 311:Generated_Source\PSoC6\pdl\drivers/peripheral/gpio/cy_gpio.h **** 
 312:Generated_Source\PSoC6\pdl\drivers/peripheral/gpio/cy_gpio.h **** /** \endcond */
 313:Generated_Source\PSoC6\pdl\drivers/peripheral/gpio/cy_gpio.h **** 
 314:Generated_Source\PSoC6\pdl\drivers/peripheral/gpio/cy_gpio.h **** 
 315:Generated_Source\PSoC6\pdl\drivers/peripheral/gpio/cy_gpio.h **** /***************************************
 316:Generated_Source\PSoC6\pdl\drivers/peripheral/gpio/cy_gpio.h **** *        Function Constants
 317:Generated_Source\PSoC6\pdl\drivers/peripheral/gpio/cy_gpio.h **** ***************************************/
 318:Generated_Source\PSoC6\pdl\drivers/peripheral/gpio/cy_gpio.h **** 
 319:Generated_Source\PSoC6\pdl\drivers/peripheral/gpio/cy_gpio.h **** /**
 320:Generated_Source\PSoC6\pdl\drivers/peripheral/gpio/cy_gpio.h **** * \addtogroup group_gpio_macros
 321:Generated_Source\PSoC6\pdl\drivers/peripheral/gpio/cy_gpio.h **** * \{
 322:Generated_Source\PSoC6\pdl\drivers/peripheral/gpio/cy_gpio.h **** */
 323:Generated_Source\PSoC6\pdl\drivers/peripheral/gpio/cy_gpio.h **** 
 324:Generated_Source\PSoC6\pdl\drivers/peripheral/gpio/cy_gpio.h **** /**
 325:Generated_Source\PSoC6\pdl\drivers/peripheral/gpio/cy_gpio.h **** * \defgroup group_gpio_driveModes Pin drive mode
 326:Generated_Source\PSoC6\pdl\drivers/peripheral/gpio/cy_gpio.h **** * \{
 327:Generated_Source\PSoC6\pdl\drivers/peripheral/gpio/cy_gpio.h **** * Constants to be used for setting the drive mode of the pin.
 328:Generated_Source\PSoC6\pdl\drivers/peripheral/gpio/cy_gpio.h **** */
 329:Generated_Source\PSoC6\pdl\drivers/peripheral/gpio/cy_gpio.h **** #define CY_GPIO_DM_ANALOG                      (0x00UL) /**< \brief Analog High-Z. Input buffer off
 330:Generated_Source\PSoC6\pdl\drivers/peripheral/gpio/cy_gpio.h **** #define CY_GPIO_DM_PULLUP_IN_OFF               (0x02UL) /**< \brief Resistive Pull-Up. Input buffer
 331:Generated_Source\PSoC6\pdl\drivers/peripheral/gpio/cy_gpio.h **** #define CY_GPIO_DM_PULLDOWN_IN_OFF             (0x03UL) /**< \brief Resistive Pull-Down. Input buff
 332:Generated_Source\PSoC6\pdl\drivers/peripheral/gpio/cy_gpio.h **** #define CY_GPIO_DM_OD_DRIVESLOW_IN_OFF         (0x04UL) /**< \brief Open Drain, Drives Low. Input b
 333:Generated_Source\PSoC6\pdl\drivers/peripheral/gpio/cy_gpio.h **** #define CY_GPIO_DM_OD_DRIVESHIGH_IN_OFF        (0x05UL) /**< \brief Open Drain, Drives High. Input 
 334:Generated_Source\PSoC6\pdl\drivers/peripheral/gpio/cy_gpio.h **** #define CY_GPIO_DM_STRONG_IN_OFF               (0x06UL) /**< \brief Strong Drive. Input buffer off 
 335:Generated_Source\PSoC6\pdl\drivers/peripheral/gpio/cy_gpio.h **** #define CY_GPIO_DM_PULLUP_DOWN_IN_OFF          (0x07UL) /**< \brief Resistive Pull-Up/Down. Input b
 336:Generated_Source\PSoC6\pdl\drivers/peripheral/gpio/cy_gpio.h **** #define CY_GPIO_DM_HIGHZ                       (0x08UL) /**< \brief Digital High-Z. Input buffer on
 337:Generated_Source\PSoC6\pdl\drivers/peripheral/gpio/cy_gpio.h **** #define CY_GPIO_DM_PULLUP                      (0x0AUL) /**< \brief Resistive Pull-Up. Input buffer
 338:Generated_Source\PSoC6\pdl\drivers/peripheral/gpio/cy_gpio.h **** #define CY_GPIO_DM_PULLDOWN                    (0x0BUL) /**< \brief Resistive Pull-Down. Input buff
 339:Generated_Source\PSoC6\pdl\drivers/peripheral/gpio/cy_gpio.h **** #define CY_GPIO_DM_OD_DRIVESLOW                (0x0CUL) /**< \brief Open Drain, Drives Low. Input b
 340:Generated_Source\PSoC6\pdl\drivers/peripheral/gpio/cy_gpio.h **** #define CY_GPIO_DM_OD_DRIVESHIGH               (0x0DUL) /**< \brief Open Drain, Drives High. Input 
 341:Generated_Source\PSoC6\pdl\drivers/peripheral/gpio/cy_gpio.h **** #define CY_GPIO_DM_STRONG                      (0x0EUL) /**< \brief Strong Drive. Input buffer on *
 342:Generated_Source\PSoC6\pdl\drivers/peripheral/gpio/cy_gpio.h **** #define CY_GPIO_DM_PULLUP_DOWN                 (0x0FUL) /**< \brief Resistive Pull-Up/Down. Input b
 343:Generated_Source\PSoC6\pdl\drivers/peripheral/gpio/cy_gpio.h **** /** \} */
 344:Generated_Source\PSoC6\pdl\drivers/peripheral/gpio/cy_gpio.h **** 
 345:Generated_Source\PSoC6\pdl\drivers/peripheral/gpio/cy_gpio.h **** /**
 346:Generated_Source\PSoC6\pdl\drivers/peripheral/gpio/cy_gpio.h **** * \defgroup group_gpio_vtrip Voltage trip mode
 347:Generated_Source\PSoC6\pdl\drivers/peripheral/gpio/cy_gpio.h **** * \{
 348:Generated_Source\PSoC6\pdl\drivers/peripheral/gpio/cy_gpio.h **** * Constants to be used for setting the voltage trip type on the pin.
 349:Generated_Source\PSoC6\pdl\drivers/peripheral/gpio/cy_gpio.h **** */
 350:Generated_Source\PSoC6\pdl\drivers/peripheral/gpio/cy_gpio.h **** #define CY_GPIO_VTRIP_CMOS                     (0x00UL) /**< \brief Input buffer compatible with CM
 351:Generated_Source\PSoC6\pdl\drivers/peripheral/gpio/cy_gpio.h **** #define CY_GPIO_VTRIP_TTL                      (0x01UL) /**< \brief Input buffer compatible with TT
 352:Generated_Source\PSoC6\pdl\drivers/peripheral/gpio/cy_gpio.h **** /** \} */
 353:Generated_Source\PSoC6\pdl\drivers/peripheral/gpio/cy_gpio.h **** 
 354:Generated_Source\PSoC6\pdl\drivers/peripheral/gpio/cy_gpio.h **** /**
 355:Generated_Source\PSoC6\pdl\drivers/peripheral/gpio/cy_gpio.h **** * \defgroup group_gpio_slewRate Slew Rate Mode
ARM GAS  C:\Users\codyg\AppData\Local\Temp\cc52IIus.s 			page 28


 356:Generated_Source\PSoC6\pdl\drivers/peripheral/gpio/cy_gpio.h **** * \{
 357:Generated_Source\PSoC6\pdl\drivers/peripheral/gpio/cy_gpio.h **** * Constants to be used for setting the slew rate of the pin.
 358:Generated_Source\PSoC6\pdl\drivers/peripheral/gpio/cy_gpio.h **** */
 359:Generated_Source\PSoC6\pdl\drivers/peripheral/gpio/cy_gpio.h **** #define CY_GPIO_SLEW_FAST                      (0x00UL) /**< \brief Fast slew rate */
 360:Generated_Source\PSoC6\pdl\drivers/peripheral/gpio/cy_gpio.h **** #define CY_GPIO_SLEW_SLOW                      (0x01UL) /**< \brief Slow slew rate */
 361:Generated_Source\PSoC6\pdl\drivers/peripheral/gpio/cy_gpio.h **** /** \} */
 362:Generated_Source\PSoC6\pdl\drivers/peripheral/gpio/cy_gpio.h **** 
 363:Generated_Source\PSoC6\pdl\drivers/peripheral/gpio/cy_gpio.h **** /**
 364:Generated_Source\PSoC6\pdl\drivers/peripheral/gpio/cy_gpio.h **** * \defgroup group_gpio_driveStrength Pin drive strength
 365:Generated_Source\PSoC6\pdl\drivers/peripheral/gpio/cy_gpio.h **** * \{
 366:Generated_Source\PSoC6\pdl\drivers/peripheral/gpio/cy_gpio.h **** * Constants to be used for setting the drive strength of the pin.
 367:Generated_Source\PSoC6\pdl\drivers/peripheral/gpio/cy_gpio.h **** */
 368:Generated_Source\PSoC6\pdl\drivers/peripheral/gpio/cy_gpio.h **** #define CY_GPIO_DRIVE_FULL                     (0x00UL) /**< \brief Full drive strength: Max drive 
 369:Generated_Source\PSoC6\pdl\drivers/peripheral/gpio/cy_gpio.h **** #define CY_GPIO_DRIVE_1_2                      (0x01UL) /**< \brief 1/2 drive strength: 1/2 drive c
 370:Generated_Source\PSoC6\pdl\drivers/peripheral/gpio/cy_gpio.h **** #define CY_GPIO_DRIVE_1_4                      (0x02UL) /**< \brief 1/4 drive strength: 1/4 drive c
 371:Generated_Source\PSoC6\pdl\drivers/peripheral/gpio/cy_gpio.h **** #define CY_GPIO_DRIVE_1_8                      (0x03UL) /**< \brief 1/8 drive strength: 1/8 drive c
 372:Generated_Source\PSoC6\pdl\drivers/peripheral/gpio/cy_gpio.h **** /** \} */
 373:Generated_Source\PSoC6\pdl\drivers/peripheral/gpio/cy_gpio.h **** 
 374:Generated_Source\PSoC6\pdl\drivers/peripheral/gpio/cy_gpio.h **** /**
 375:Generated_Source\PSoC6\pdl\drivers/peripheral/gpio/cy_gpio.h **** * \defgroup group_gpio_interruptTrigger Interrupt trigger type
 376:Generated_Source\PSoC6\pdl\drivers/peripheral/gpio/cy_gpio.h **** * \{
 377:Generated_Source\PSoC6\pdl\drivers/peripheral/gpio/cy_gpio.h **** * Constants to be used for setting the interrupt trigger type on the pin.
 378:Generated_Source\PSoC6\pdl\drivers/peripheral/gpio/cy_gpio.h **** */
 379:Generated_Source\PSoC6\pdl\drivers/peripheral/gpio/cy_gpio.h **** #define CY_GPIO_INTR_DISABLE                   (0x00UL) /**< \brief Disable the pin interrupt gener
 380:Generated_Source\PSoC6\pdl\drivers/peripheral/gpio/cy_gpio.h **** #define CY_GPIO_INTR_RISING                    (0x01UL) /**< \brief Rising-Edge interrupt */
 381:Generated_Source\PSoC6\pdl\drivers/peripheral/gpio/cy_gpio.h **** #define CY_GPIO_INTR_FALLING                   (0x02UL) /**< \brief Falling-Edge interrupt */
 382:Generated_Source\PSoC6\pdl\drivers/peripheral/gpio/cy_gpio.h **** #define CY_GPIO_INTR_BOTH                      (0x03UL) /**< \brief Both-Edge interrupt */
 383:Generated_Source\PSoC6\pdl\drivers/peripheral/gpio/cy_gpio.h **** /** \} */
 384:Generated_Source\PSoC6\pdl\drivers/peripheral/gpio/cy_gpio.h **** 
 385:Generated_Source\PSoC6\pdl\drivers/peripheral/gpio/cy_gpio.h **** /**
 386:Generated_Source\PSoC6\pdl\drivers/peripheral/gpio/cy_gpio.h **** * \defgroup group_gpio_sioVreg SIO output buffer mode
 387:Generated_Source\PSoC6\pdl\drivers/peripheral/gpio/cy_gpio.h **** * \{
 388:Generated_Source\PSoC6\pdl\drivers/peripheral/gpio/cy_gpio.h **** * Constants to be used for setting the SIO output buffer mode on the pin.
 389:Generated_Source\PSoC6\pdl\drivers/peripheral/gpio/cy_gpio.h **** */
 390:Generated_Source\PSoC6\pdl\drivers/peripheral/gpio/cy_gpio.h **** #define CY_SIO_VREG_UNREGULATED                (0x00UL) /**< \brief Unregulated output buffer */
 391:Generated_Source\PSoC6\pdl\drivers/peripheral/gpio/cy_gpio.h **** #define CY_SIO_VREG_REGULATED                  (0x01UL) /**< \brief Regulated output buffer */
 392:Generated_Source\PSoC6\pdl\drivers/peripheral/gpio/cy_gpio.h **** /** \} */
 393:Generated_Source\PSoC6\pdl\drivers/peripheral/gpio/cy_gpio.h **** 
 394:Generated_Source\PSoC6\pdl\drivers/peripheral/gpio/cy_gpio.h **** /**
 395:Generated_Source\PSoC6\pdl\drivers/peripheral/gpio/cy_gpio.h **** * \defgroup group_gpio_sioIbuf SIO input buffer mode
 396:Generated_Source\PSoC6\pdl\drivers/peripheral/gpio/cy_gpio.h **** * \{
 397:Generated_Source\PSoC6\pdl\drivers/peripheral/gpio/cy_gpio.h **** * Constants to be used for setting the SIO input buffer mode on the pin.
 398:Generated_Source\PSoC6\pdl\drivers/peripheral/gpio/cy_gpio.h **** */
 399:Generated_Source\PSoC6\pdl\drivers/peripheral/gpio/cy_gpio.h **** #define CY_SIO_IBUF_SINGLEENDED                (0x00UL) /**< \brief Single ended input buffer */
 400:Generated_Source\PSoC6\pdl\drivers/peripheral/gpio/cy_gpio.h **** #define CY_SIO_IBUF_DIFFERENTIAL               (0x01UL) /**< \brief Differential input buffer */
 401:Generated_Source\PSoC6\pdl\drivers/peripheral/gpio/cy_gpio.h **** /** \} */
 402:Generated_Source\PSoC6\pdl\drivers/peripheral/gpio/cy_gpio.h **** 
 403:Generated_Source\PSoC6\pdl\drivers/peripheral/gpio/cy_gpio.h **** /**
 404:Generated_Source\PSoC6\pdl\drivers/peripheral/gpio/cy_gpio.h **** * \defgroup group_gpio_sioVtrip SIO input buffer trip-point
 405:Generated_Source\PSoC6\pdl\drivers/peripheral/gpio/cy_gpio.h **** * \{
 406:Generated_Source\PSoC6\pdl\drivers/peripheral/gpio/cy_gpio.h **** * Constants to be used for setting the SIO input buffer trip-point of the pin.
 407:Generated_Source\PSoC6\pdl\drivers/peripheral/gpio/cy_gpio.h **** */
 408:Generated_Source\PSoC6\pdl\drivers/peripheral/gpio/cy_gpio.h **** #define CY_SIO_VTRIP_CMOS                      (0x00UL) /**< \brief CMOS input buffer (single-ended
 409:Generated_Source\PSoC6\pdl\drivers/peripheral/gpio/cy_gpio.h **** #define CY_SIO_VTRIP_TTL                       (0x01UL) /**< \brief TTL input buffer (single-ended)
 410:Generated_Source\PSoC6\pdl\drivers/peripheral/gpio/cy_gpio.h **** #define CY_SIO_VTRIP_0_5VDDIO_0_5VOH           (0x00UL) /**< \brief 0.5xVddio or 0.5xVoh (different
 411:Generated_Source\PSoC6\pdl\drivers/peripheral/gpio/cy_gpio.h **** #define CY_SIO_VTRIP_0_4VDDIO_1_0VREF          (0x01UL) /**< \brief 0.4xVddio or 0.4xVoh (different
 412:Generated_Source\PSoC6\pdl\drivers/peripheral/gpio/cy_gpio.h **** /** \} */
ARM GAS  C:\Users\codyg\AppData\Local\Temp\cc52IIus.s 			page 29


 413:Generated_Source\PSoC6\pdl\drivers/peripheral/gpio/cy_gpio.h **** 
 414:Generated_Source\PSoC6\pdl\drivers/peripheral/gpio/cy_gpio.h **** /**
 415:Generated_Source\PSoC6\pdl\drivers/peripheral/gpio/cy_gpio.h **** * \defgroup group_gpio_sioVref SIO reference voltage for input buffer trip-point
 416:Generated_Source\PSoC6\pdl\drivers/peripheral/gpio/cy_gpio.h **** * \{
 417:Generated_Source\PSoC6\pdl\drivers/peripheral/gpio/cy_gpio.h **** * Constants to be used for setting the reference voltage of SIO input buffer trip-point.
 418:Generated_Source\PSoC6\pdl\drivers/peripheral/gpio/cy_gpio.h **** */
 419:Generated_Source\PSoC6\pdl\drivers/peripheral/gpio/cy_gpio.h **** #define CY_SIO_VREF_PINREF                     (0x00UL) /**< \brief Vref from analog pin */
 420:Generated_Source\PSoC6\pdl\drivers/peripheral/gpio/cy_gpio.h **** #define CY_SIO_VREF_1_2V                       (0x01UL) /**< \brief Vref from internal 1.2V referen
 421:Generated_Source\PSoC6\pdl\drivers/peripheral/gpio/cy_gpio.h **** #define CY_SIO_VREF_AMUX_A                     (0x02UL) /**< \brief Vref from AMUXBUS_A */
 422:Generated_Source\PSoC6\pdl\drivers/peripheral/gpio/cy_gpio.h **** #define CY_SIO_VREF_AMUX_B                     (0x03UL) /**< \brief Vref from AMUXBUS_B */
 423:Generated_Source\PSoC6\pdl\drivers/peripheral/gpio/cy_gpio.h **** /** \} */
 424:Generated_Source\PSoC6\pdl\drivers/peripheral/gpio/cy_gpio.h **** 
 425:Generated_Source\PSoC6\pdl\drivers/peripheral/gpio/cy_gpio.h **** /**
 426:Generated_Source\PSoC6\pdl\drivers/peripheral/gpio/cy_gpio.h **** * \defgroup group_gpio_sioVoh Regulated output voltage level (Voh) and input buffer trip-point of a
 427:Generated_Source\PSoC6\pdl\drivers/peripheral/gpio/cy_gpio.h **** * \{
 428:Generated_Source\PSoC6\pdl\drivers/peripheral/gpio/cy_gpio.h **** * Constants to be used for setting the Voh and input buffer trip-point of an SIO pair
 429:Generated_Source\PSoC6\pdl\drivers/peripheral/gpio/cy_gpio.h **** */
 430:Generated_Source\PSoC6\pdl\drivers/peripheral/gpio/cy_gpio.h **** #define CY_SIO_VOH_1_00                        (0x00UL) /**< \brief Voh = 1 x Reference */
 431:Generated_Source\PSoC6\pdl\drivers/peripheral/gpio/cy_gpio.h **** #define CY_SIO_VOH_1_25                        (0x01UL) /**< \brief Voh = 1.25 x Reference */
 432:Generated_Source\PSoC6\pdl\drivers/peripheral/gpio/cy_gpio.h **** #define CY_SIO_VOH_1_49                        (0x02UL) /**< \brief Voh = 1.49 x Reference */
 433:Generated_Source\PSoC6\pdl\drivers/peripheral/gpio/cy_gpio.h **** #define CY_SIO_VOH_1_67                        (0x03UL) /**< \brief Voh = 1.67 x Reference */
 434:Generated_Source\PSoC6\pdl\drivers/peripheral/gpio/cy_gpio.h **** #define CY_SIO_VOH_2_08                        (0x04UL) /**< \brief Voh = 2.08 x Reference */
 435:Generated_Source\PSoC6\pdl\drivers/peripheral/gpio/cy_gpio.h **** #define CY_SIO_VOH_2_50                        (0x05UL) /**< \brief Voh = 2.50 x Reference */
 436:Generated_Source\PSoC6\pdl\drivers/peripheral/gpio/cy_gpio.h **** #define CY_SIO_VOH_2_78                        (0x06UL) /**< \brief Voh = 2.78 x Reference */
 437:Generated_Source\PSoC6\pdl\drivers/peripheral/gpio/cy_gpio.h **** #define CY_SIO_VOH_4_16                        (0x07UL) /**< \brief Voh = 4.16 x Reference */
 438:Generated_Source\PSoC6\pdl\drivers/peripheral/gpio/cy_gpio.h **** /** \} */
 439:Generated_Source\PSoC6\pdl\drivers/peripheral/gpio/cy_gpio.h **** 
 440:Generated_Source\PSoC6\pdl\drivers/peripheral/gpio/cy_gpio.h **** /** \} group_gpio_macros */
 441:Generated_Source\PSoC6\pdl\drivers/peripheral/gpio/cy_gpio.h **** 
 442:Generated_Source\PSoC6\pdl\drivers/peripheral/gpio/cy_gpio.h **** /***************************************
 443:Generated_Source\PSoC6\pdl\drivers/peripheral/gpio/cy_gpio.h **** *        Function Prototypes
 444:Generated_Source\PSoC6\pdl\drivers/peripheral/gpio/cy_gpio.h **** ***************************************/
 445:Generated_Source\PSoC6\pdl\drivers/peripheral/gpio/cy_gpio.h **** 
 446:Generated_Source\PSoC6\pdl\drivers/peripheral/gpio/cy_gpio.h **** /**
 447:Generated_Source\PSoC6\pdl\drivers/peripheral/gpio/cy_gpio.h **** * \addtogroup group_gpio_functions
 448:Generated_Source\PSoC6\pdl\drivers/peripheral/gpio/cy_gpio.h **** * \{
 449:Generated_Source\PSoC6\pdl\drivers/peripheral/gpio/cy_gpio.h **** */
 450:Generated_Source\PSoC6\pdl\drivers/peripheral/gpio/cy_gpio.h **** 
 451:Generated_Source\PSoC6\pdl\drivers/peripheral/gpio/cy_gpio.h **** /**
 452:Generated_Source\PSoC6\pdl\drivers/peripheral/gpio/cy_gpio.h **** * \addtogroup group_gpio_functions_init
 453:Generated_Source\PSoC6\pdl\drivers/peripheral/gpio/cy_gpio.h **** * \{
 454:Generated_Source\PSoC6\pdl\drivers/peripheral/gpio/cy_gpio.h **** */
 455:Generated_Source\PSoC6\pdl\drivers/peripheral/gpio/cy_gpio.h **** 
 456:Generated_Source\PSoC6\pdl\drivers/peripheral/gpio/cy_gpio.h **** cy_en_gpio_status_t Cy_GPIO_Pin_Init(GPIO_PRT_Type* base, uint32_t pinNum, const cy_stc_gpio_pin_co
 457:Generated_Source\PSoC6\pdl\drivers/peripheral/gpio/cy_gpio.h **** cy_en_gpio_status_t Cy_GPIO_Port_Init(GPIO_PRT_Type* base, const cy_stc_gpio_prt_config_t *config);
 458:Generated_Source\PSoC6\pdl\drivers/peripheral/gpio/cy_gpio.h **** void Cy_GPIO_Pin_FastInit(GPIO_PRT_Type* base, uint32_t pinNum, uint32_t driveMode, uint32_t outVal
 459:Generated_Source\PSoC6\pdl\drivers/peripheral/gpio/cy_gpio.h **** void Cy_GPIO_Port_Deinit(GPIO_PRT_Type* base);
 460:Generated_Source\PSoC6\pdl\drivers/peripheral/gpio/cy_gpio.h **** __STATIC_INLINE void Cy_GPIO_SetHSIOM(GPIO_PRT_Type* base, uint32_t pinNum, en_hsiom_sel_t value);
 461:Generated_Source\PSoC6\pdl\drivers/peripheral/gpio/cy_gpio.h **** __STATIC_INLINE en_hsiom_sel_t Cy_GPIO_GetHSIOM(GPIO_PRT_Type* base, uint32_t pinNum);
 462:Generated_Source\PSoC6\pdl\drivers/peripheral/gpio/cy_gpio.h **** __STATIC_INLINE GPIO_PRT_Type* Cy_GPIO_PortToAddr(uint32_t portNum);
 463:Generated_Source\PSoC6\pdl\drivers/peripheral/gpio/cy_gpio.h **** 
 464:Generated_Source\PSoC6\pdl\drivers/peripheral/gpio/cy_gpio.h **** /** \} group_gpio_functions_init */
 465:Generated_Source\PSoC6\pdl\drivers/peripheral/gpio/cy_gpio.h **** 
 466:Generated_Source\PSoC6\pdl\drivers/peripheral/gpio/cy_gpio.h **** /**
 467:Generated_Source\PSoC6\pdl\drivers/peripheral/gpio/cy_gpio.h **** * \addtogroup group_gpio_functions_gpio
 468:Generated_Source\PSoC6\pdl\drivers/peripheral/gpio/cy_gpio.h **** * \{
 469:Generated_Source\PSoC6\pdl\drivers/peripheral/gpio/cy_gpio.h **** */
ARM GAS  C:\Users\codyg\AppData\Local\Temp\cc52IIus.s 			page 30


 470:Generated_Source\PSoC6\pdl\drivers/peripheral/gpio/cy_gpio.h **** 
 471:Generated_Source\PSoC6\pdl\drivers/peripheral/gpio/cy_gpio.h **** __STATIC_INLINE uint32_t Cy_GPIO_Read(GPIO_PRT_Type* base, uint32_t pinNum);
 472:Generated_Source\PSoC6\pdl\drivers/peripheral/gpio/cy_gpio.h **** __STATIC_INLINE void Cy_GPIO_Write(GPIO_PRT_Type* base, uint32_t pinNum, uint32_t value);
 473:Generated_Source\PSoC6\pdl\drivers/peripheral/gpio/cy_gpio.h **** __STATIC_INLINE uint32_t Cy_GPIO_ReadOut(GPIO_PRT_Type* base, uint32_t pinNum);
 474:Generated_Source\PSoC6\pdl\drivers/peripheral/gpio/cy_gpio.h **** __STATIC_INLINE void Cy_GPIO_Set(GPIO_PRT_Type* base, uint32_t pinNum);
 475:Generated_Source\PSoC6\pdl\drivers/peripheral/gpio/cy_gpio.h **** __STATIC_INLINE void Cy_GPIO_Clr(GPIO_PRT_Type* base, uint32_t pinNum);
 476:Generated_Source\PSoC6\pdl\drivers/peripheral/gpio/cy_gpio.h **** __STATIC_INLINE void Cy_GPIO_Inv(GPIO_PRT_Type* base, uint32_t pinNum);
 477:Generated_Source\PSoC6\pdl\drivers/peripheral/gpio/cy_gpio.h **** __STATIC_INLINE void Cy_GPIO_SetDrivemode(GPIO_PRT_Type* base, uint32_t pinNum, uint32_t value);
 478:Generated_Source\PSoC6\pdl\drivers/peripheral/gpio/cy_gpio.h **** __STATIC_INLINE uint32_t Cy_GPIO_GetDrivemode(GPIO_PRT_Type* base, uint32_t pinNum);
 479:Generated_Source\PSoC6\pdl\drivers/peripheral/gpio/cy_gpio.h **** __STATIC_INLINE void Cy_GPIO_SetVtrip(GPIO_PRT_Type* base, uint32_t pinNum, uint32_t value);
 480:Generated_Source\PSoC6\pdl\drivers/peripheral/gpio/cy_gpio.h **** __STATIC_INLINE uint32_t Cy_GPIO_GetVtrip(GPIO_PRT_Type* base, uint32_t pinNum);
 481:Generated_Source\PSoC6\pdl\drivers/peripheral/gpio/cy_gpio.h **** __STATIC_INLINE void Cy_GPIO_SetSlewRate(GPIO_PRT_Type* base, uint32_t pinNum, uint32_t value);
 482:Generated_Source\PSoC6\pdl\drivers/peripheral/gpio/cy_gpio.h **** __STATIC_INLINE uint32_t Cy_GPIO_GetSlewRate(GPIO_PRT_Type* base, uint32_t pinNum);
 483:Generated_Source\PSoC6\pdl\drivers/peripheral/gpio/cy_gpio.h **** __STATIC_INLINE void Cy_GPIO_SetDriveSel(GPIO_PRT_Type* base, uint32_t pinNum, uint32_t value);
 484:Generated_Source\PSoC6\pdl\drivers/peripheral/gpio/cy_gpio.h **** __STATIC_INLINE uint32_t Cy_GPIO_GetDriveSel(GPIO_PRT_Type* base, uint32_t pinNum);
 485:Generated_Source\PSoC6\pdl\drivers/peripheral/gpio/cy_gpio.h **** 
 486:Generated_Source\PSoC6\pdl\drivers/peripheral/gpio/cy_gpio.h **** /** \} group_gpio_functions_gpio */
 487:Generated_Source\PSoC6\pdl\drivers/peripheral/gpio/cy_gpio.h **** 
 488:Generated_Source\PSoC6\pdl\drivers/peripheral/gpio/cy_gpio.h **** /**
 489:Generated_Source\PSoC6\pdl\drivers/peripheral/gpio/cy_gpio.h **** * \addtogroup group_gpio_functions_sio
 490:Generated_Source\PSoC6\pdl\drivers/peripheral/gpio/cy_gpio.h **** * \{
 491:Generated_Source\PSoC6\pdl\drivers/peripheral/gpio/cy_gpio.h **** */
 492:Generated_Source\PSoC6\pdl\drivers/peripheral/gpio/cy_gpio.h **** 
 493:Generated_Source\PSoC6\pdl\drivers/peripheral/gpio/cy_gpio.h **** __STATIC_INLINE void Cy_GPIO_SetVregEn(GPIO_PRT_Type* base, uint32_t pinNum, uint32_t value);
 494:Generated_Source\PSoC6\pdl\drivers/peripheral/gpio/cy_gpio.h **** __STATIC_INLINE uint32_t Cy_GPIO_GetVregEn(GPIO_PRT_Type* base, uint32_t pinNum);
 495:Generated_Source\PSoC6\pdl\drivers/peripheral/gpio/cy_gpio.h **** __STATIC_INLINE void Cy_GPIO_SetIbufMode(GPIO_PRT_Type* base, uint32_t pinNum, uint32_t value);
 496:Generated_Source\PSoC6\pdl\drivers/peripheral/gpio/cy_gpio.h **** __STATIC_INLINE uint32_t Cy_GPIO_GetIbufMode(GPIO_PRT_Type* base, uint32_t pinNum);
 497:Generated_Source\PSoC6\pdl\drivers/peripheral/gpio/cy_gpio.h **** __STATIC_INLINE void Cy_GPIO_SetVtripSel(GPIO_PRT_Type* base, uint32_t pinNum, uint32_t value);
 498:Generated_Source\PSoC6\pdl\drivers/peripheral/gpio/cy_gpio.h **** __STATIC_INLINE uint32_t Cy_GPIO_GetVtripSel(GPIO_PRT_Type* base, uint32_t pinNum);
 499:Generated_Source\PSoC6\pdl\drivers/peripheral/gpio/cy_gpio.h **** __STATIC_INLINE void Cy_GPIO_SetVrefSel(GPIO_PRT_Type* base, uint32_t pinNum, uint32_t value);
 500:Generated_Source\PSoC6\pdl\drivers/peripheral/gpio/cy_gpio.h **** __STATIC_INLINE uint32_t Cy_GPIO_GetVrefSel(GPIO_PRT_Type* base, uint32_t pinNum);
 501:Generated_Source\PSoC6\pdl\drivers/peripheral/gpio/cy_gpio.h **** __STATIC_INLINE void Cy_GPIO_SetVohSel(GPIO_PRT_Type* base, uint32_t pinNum, uint32_t value);
 502:Generated_Source\PSoC6\pdl\drivers/peripheral/gpio/cy_gpio.h **** __STATIC_INLINE uint32_t Cy_GPIO_GetVohSel(GPIO_PRT_Type* base, uint32_t pinNum);
 503:Generated_Source\PSoC6\pdl\drivers/peripheral/gpio/cy_gpio.h **** 
 504:Generated_Source\PSoC6\pdl\drivers/peripheral/gpio/cy_gpio.h **** /** \} group_gpio_functions_sio */
 505:Generated_Source\PSoC6\pdl\drivers/peripheral/gpio/cy_gpio.h **** 
 506:Generated_Source\PSoC6\pdl\drivers/peripheral/gpio/cy_gpio.h **** /**
 507:Generated_Source\PSoC6\pdl\drivers/peripheral/gpio/cy_gpio.h **** * \addtogroup group_gpio_functions_interrupt
 508:Generated_Source\PSoC6\pdl\drivers/peripheral/gpio/cy_gpio.h **** * \{
 509:Generated_Source\PSoC6\pdl\drivers/peripheral/gpio/cy_gpio.h **** */
 510:Generated_Source\PSoC6\pdl\drivers/peripheral/gpio/cy_gpio.h **** 
 511:Generated_Source\PSoC6\pdl\drivers/peripheral/gpio/cy_gpio.h **** __STATIC_INLINE uint32_t Cy_GPIO_GetInterruptStatus(GPIO_PRT_Type* base, uint32_t pinNum);
 512:Generated_Source\PSoC6\pdl\drivers/peripheral/gpio/cy_gpio.h **** __STATIC_INLINE void Cy_GPIO_ClearInterrupt(GPIO_PRT_Type* base, uint32_t pinNum);
 513:Generated_Source\PSoC6\pdl\drivers/peripheral/gpio/cy_gpio.h **** __STATIC_INLINE void Cy_GPIO_SetInterruptMask(GPIO_PRT_Type* base, uint32_t pinNum, uint32_t value)
 514:Generated_Source\PSoC6\pdl\drivers/peripheral/gpio/cy_gpio.h **** __STATIC_INLINE uint32_t Cy_GPIO_GetInterruptMask(GPIO_PRT_Type* base, uint32_t pinNum);
 515:Generated_Source\PSoC6\pdl\drivers/peripheral/gpio/cy_gpio.h **** __STATIC_INLINE uint32_t Cy_GPIO_GetInterruptStatusMasked(GPIO_PRT_Type* base, uint32_t pinNum);
 516:Generated_Source\PSoC6\pdl\drivers/peripheral/gpio/cy_gpio.h **** __STATIC_INLINE void Cy_GPIO_SetSwInterrupt(GPIO_PRT_Type* base, uint32_t pinNum);
 517:Generated_Source\PSoC6\pdl\drivers/peripheral/gpio/cy_gpio.h **** __STATIC_INLINE void Cy_GPIO_SetInterruptEdge(GPIO_PRT_Type* base, uint32_t pinNum, uint32_t value)
 518:Generated_Source\PSoC6\pdl\drivers/peripheral/gpio/cy_gpio.h **** __STATIC_INLINE uint32_t Cy_GPIO_GetInterruptEdge(GPIO_PRT_Type* base, uint32_t pinNum);
 519:Generated_Source\PSoC6\pdl\drivers/peripheral/gpio/cy_gpio.h **** __STATIC_INLINE void Cy_GPIO_SetFilter(GPIO_PRT_Type* base, uint32_t value);
 520:Generated_Source\PSoC6\pdl\drivers/peripheral/gpio/cy_gpio.h **** __STATIC_INLINE uint32_t Cy_GPIO_GetFilter(GPIO_PRT_Type* base);
 521:Generated_Source\PSoC6\pdl\drivers/peripheral/gpio/cy_gpio.h **** 
 522:Generated_Source\PSoC6\pdl\drivers/peripheral/gpio/cy_gpio.h **** #if (IOSS_GPIO_GPIO_PORT_NR_0_31 != 0) || defined (CY_DOXYGEN)
 523:Generated_Source\PSoC6\pdl\drivers/peripheral/gpio/cy_gpio.h **** __STATIC_INLINE uint32_t Cy_GPIO_GetInterruptCause0(void);
 524:Generated_Source\PSoC6\pdl\drivers/peripheral/gpio/cy_gpio.h **** #endif /* (IOSS_GPIO_GPIO_PORT_NR_0_31 != 0) */
 525:Generated_Source\PSoC6\pdl\drivers/peripheral/gpio/cy_gpio.h **** 
 526:Generated_Source\PSoC6\pdl\drivers/peripheral/gpio/cy_gpio.h **** #if (IOSS_GPIO_GPIO_PORT_NR_32_63 != 0) || defined (CY_DOXYGEN)
ARM GAS  C:\Users\codyg\AppData\Local\Temp\cc52IIus.s 			page 31


 527:Generated_Source\PSoC6\pdl\drivers/peripheral/gpio/cy_gpio.h **** __STATIC_INLINE uint32_t Cy_GPIO_GetInterruptCause1(void);
 528:Generated_Source\PSoC6\pdl\drivers/peripheral/gpio/cy_gpio.h **** #endif /* (IOSS_GPIO_GPIO_PORT_NR_32_63 != 0) */
 529:Generated_Source\PSoC6\pdl\drivers/peripheral/gpio/cy_gpio.h **** 
 530:Generated_Source\PSoC6\pdl\drivers/peripheral/gpio/cy_gpio.h **** #if (IOSS_GPIO_GPIO_PORT_NR_64_95 != 0) || defined (CY_DOXYGEN)
 531:Generated_Source\PSoC6\pdl\drivers/peripheral/gpio/cy_gpio.h **** __STATIC_INLINE uint32_t Cy_GPIO_GetInterruptCause2(void);
 532:Generated_Source\PSoC6\pdl\drivers/peripheral/gpio/cy_gpio.h **** #endif /* (IOSS_GPIO_GPIO_PORT_NR_64_95 != 0) */
 533:Generated_Source\PSoC6\pdl\drivers/peripheral/gpio/cy_gpio.h **** 
 534:Generated_Source\PSoC6\pdl\drivers/peripheral/gpio/cy_gpio.h **** #if (IOSS_GPIO_GPIO_PORT_NR_96_127 != 0) || defined (CY_DOXYGEN)
 535:Generated_Source\PSoC6\pdl\drivers/peripheral/gpio/cy_gpio.h **** __STATIC_INLINE uint32_t Cy_GPIO_GetInterruptCause3(void);
 536:Generated_Source\PSoC6\pdl\drivers/peripheral/gpio/cy_gpio.h **** #endif /* (IOSS_GPIO_GPIO_PORT_NR_96_127 != 0) */
 537:Generated_Source\PSoC6\pdl\drivers/peripheral/gpio/cy_gpio.h **** 
 538:Generated_Source\PSoC6\pdl\drivers/peripheral/gpio/cy_gpio.h **** /** \} group_gpio_functions_interrupt */
 539:Generated_Source\PSoC6\pdl\drivers/peripheral/gpio/cy_gpio.h **** 
 540:Generated_Source\PSoC6\pdl\drivers/peripheral/gpio/cy_gpio.h **** 
 541:Generated_Source\PSoC6\pdl\drivers/peripheral/gpio/cy_gpio.h **** /**
 542:Generated_Source\PSoC6\pdl\drivers/peripheral/gpio/cy_gpio.h **** * \addtogroup group_gpio_functions_init
 543:Generated_Source\PSoC6\pdl\drivers/peripheral/gpio/cy_gpio.h **** * \{
 544:Generated_Source\PSoC6\pdl\drivers/peripheral/gpio/cy_gpio.h **** */
 545:Generated_Source\PSoC6\pdl\drivers/peripheral/gpio/cy_gpio.h **** 
 546:Generated_Source\PSoC6\pdl\drivers/peripheral/gpio/cy_gpio.h **** /*******************************************************************************
 547:Generated_Source\PSoC6\pdl\drivers/peripheral/gpio/cy_gpio.h **** * Function Name: Cy_GPIO_SetHSIOM
 548:Generated_Source\PSoC6\pdl\drivers/peripheral/gpio/cy_gpio.h **** ****************************************************************************//**
 549:Generated_Source\PSoC6\pdl\drivers/peripheral/gpio/cy_gpio.h **** *
 550:Generated_Source\PSoC6\pdl\drivers/peripheral/gpio/cy_gpio.h **** * \brief Configures the HSIOM connection to the pin.
 551:Generated_Source\PSoC6\pdl\drivers/peripheral/gpio/cy_gpio.h **** *
 552:Generated_Source\PSoC6\pdl\drivers/peripheral/gpio/cy_gpio.h **** * Connects the specified High-Speed Input Output Multiplexer (HSIOM) selection
 553:Generated_Source\PSoC6\pdl\drivers/peripheral/gpio/cy_gpio.h **** * to the pin.
 554:Generated_Source\PSoC6\pdl\drivers/peripheral/gpio/cy_gpio.h **** *
 555:Generated_Source\PSoC6\pdl\drivers/peripheral/gpio/cy_gpio.h **** * \param base
 556:Generated_Source\PSoC6\pdl\drivers/peripheral/gpio/cy_gpio.h **** * Pointer to the pin's port register base address
 557:Generated_Source\PSoC6\pdl\drivers/peripheral/gpio/cy_gpio.h **** *
 558:Generated_Source\PSoC6\pdl\drivers/peripheral/gpio/cy_gpio.h **** * \param pinNum
 559:Generated_Source\PSoC6\pdl\drivers/peripheral/gpio/cy_gpio.h **** * Position of the pin bit-field within the port register
 560:Generated_Source\PSoC6\pdl\drivers/peripheral/gpio/cy_gpio.h **** *
 561:Generated_Source\PSoC6\pdl\drivers/peripheral/gpio/cy_gpio.h **** * \param value
 562:Generated_Source\PSoC6\pdl\drivers/peripheral/gpio/cy_gpio.h **** * HSIOM input selection
 563:Generated_Source\PSoC6\pdl\drivers/peripheral/gpio/cy_gpio.h **** *
 564:Generated_Source\PSoC6\pdl\drivers/peripheral/gpio/cy_gpio.h **** * \return
 565:Generated_Source\PSoC6\pdl\drivers/peripheral/gpio/cy_gpio.h **** * void
 566:Generated_Source\PSoC6\pdl\drivers/peripheral/gpio/cy_gpio.h **** *
 567:Generated_Source\PSoC6\pdl\drivers/peripheral/gpio/cy_gpio.h **** * \note 
 568:Generated_Source\PSoC6\pdl\drivers/peripheral/gpio/cy_gpio.h **** * This function modifies a port register in a read-modify-write operation. It is
 569:Generated_Source\PSoC6\pdl\drivers/peripheral/gpio/cy_gpio.h **** * not thread safe as the resource is shared among multiple pins on a port.
 570:Generated_Source\PSoC6\pdl\drivers/peripheral/gpio/cy_gpio.h **** *
 571:Generated_Source\PSoC6\pdl\drivers/peripheral/gpio/cy_gpio.h **** * \funcusage
 572:Generated_Source\PSoC6\pdl\drivers/peripheral/gpio/cy_gpio.h **** * \snippet gpio/gpio_v1_10_sut_01.cydsn/main_cm4.c snippet_Cy_GPIO_SetHSIOM
 573:Generated_Source\PSoC6\pdl\drivers/peripheral/gpio/cy_gpio.h **** *
 574:Generated_Source\PSoC6\pdl\drivers/peripheral/gpio/cy_gpio.h **** *******************************************************************************/
 575:Generated_Source\PSoC6\pdl\drivers/peripheral/gpio/cy_gpio.h **** __STATIC_INLINE void Cy_GPIO_SetHSIOM(GPIO_PRT_Type* base, uint32_t pinNum, en_hsiom_sel_t value)
 576:Generated_Source\PSoC6\pdl\drivers/peripheral/gpio/cy_gpio.h **** {
 577:Generated_Source\PSoC6\pdl\drivers/peripheral/gpio/cy_gpio.h ****     uint32_t portNum;
 578:Generated_Source\PSoC6\pdl\drivers/peripheral/gpio/cy_gpio.h ****     uint32_t tempReg;
 579:Generated_Source\PSoC6\pdl\drivers/peripheral/gpio/cy_gpio.h ****     HSIOM_PRT_Type* portAddrHSIOM;
 580:Generated_Source\PSoC6\pdl\drivers/peripheral/gpio/cy_gpio.h **** 
 581:Generated_Source\PSoC6\pdl\drivers/peripheral/gpio/cy_gpio.h ****     CY_ASSERT_L2(CY_GPIO_IS_PIN_VALID(pinNum));
 582:Generated_Source\PSoC6\pdl\drivers/peripheral/gpio/cy_gpio.h ****     CY_ASSERT_L2(CY_GPIO_IS_HSIOM_VALID(value));
 583:Generated_Source\PSoC6\pdl\drivers/peripheral/gpio/cy_gpio.h **** 
ARM GAS  C:\Users\codyg\AppData\Local\Temp\cc52IIus.s 			page 32


 584:Generated_Source\PSoC6\pdl\drivers/peripheral/gpio/cy_gpio.h ****     portNum = ((uint32_t)(base) - GPIO_BASE) / GPIO_PRT_SECTION_SIZE;
 585:Generated_Source\PSoC6\pdl\drivers/peripheral/gpio/cy_gpio.h ****     portAddrHSIOM = (HSIOM_PRT_Type*)(HSIOM_BASE + (HSIOM_PRT_SECTION_SIZE * portNum));
 586:Generated_Source\PSoC6\pdl\drivers/peripheral/gpio/cy_gpio.h **** 
 587:Generated_Source\PSoC6\pdl\drivers/peripheral/gpio/cy_gpio.h ****     if(pinNum < CY_GPIO_PRT_HALF)
 588:Generated_Source\PSoC6\pdl\drivers/peripheral/gpio/cy_gpio.h ****     {
 589:Generated_Source\PSoC6\pdl\drivers/peripheral/gpio/cy_gpio.h ****         tempReg = portAddrHSIOM->PORT_SEL0 & ~(CY_GPIO_HSIOM_MASK << (pinNum << CY_GPIO_HSIOM_OFFSE
 590:Generated_Source\PSoC6\pdl\drivers/peripheral/gpio/cy_gpio.h ****         portAddrHSIOM->PORT_SEL0 = tempReg | ((value & CY_GPIO_HSIOM_MASK) << (pinNum << CY_GPIO_HS
 591:Generated_Source\PSoC6\pdl\drivers/peripheral/gpio/cy_gpio.h ****     }
 592:Generated_Source\PSoC6\pdl\drivers/peripheral/gpio/cy_gpio.h ****     else
 593:Generated_Source\PSoC6\pdl\drivers/peripheral/gpio/cy_gpio.h ****     {
 594:Generated_Source\PSoC6\pdl\drivers/peripheral/gpio/cy_gpio.h ****         pinNum -= CY_GPIO_PRT_HALF;
 595:Generated_Source\PSoC6\pdl\drivers/peripheral/gpio/cy_gpio.h ****         tempReg = portAddrHSIOM->PORT_SEL1 & ~(CY_GPIO_HSIOM_MASK << (pinNum << CY_GPIO_HSIOM_OFFSE
 596:Generated_Source\PSoC6\pdl\drivers/peripheral/gpio/cy_gpio.h ****         portAddrHSIOM->PORT_SEL1 = tempReg | ((value & CY_GPIO_HSIOM_MASK) << (pinNum << CY_GPIO_HS
 597:Generated_Source\PSoC6\pdl\drivers/peripheral/gpio/cy_gpio.h ****     }
 598:Generated_Source\PSoC6\pdl\drivers/peripheral/gpio/cy_gpio.h **** }
 599:Generated_Source\PSoC6\pdl\drivers/peripheral/gpio/cy_gpio.h **** 
 600:Generated_Source\PSoC6\pdl\drivers/peripheral/gpio/cy_gpio.h **** 
 601:Generated_Source\PSoC6\pdl\drivers/peripheral/gpio/cy_gpio.h **** /*******************************************************************************
 602:Generated_Source\PSoC6\pdl\drivers/peripheral/gpio/cy_gpio.h **** * Function Name: Cy_GPIO_GetHSIOM
 603:Generated_Source\PSoC6\pdl\drivers/peripheral/gpio/cy_gpio.h **** ****************************************************************************//**
 604:Generated_Source\PSoC6\pdl\drivers/peripheral/gpio/cy_gpio.h **** *
 605:Generated_Source\PSoC6\pdl\drivers/peripheral/gpio/cy_gpio.h **** * \brief Returns the current HSIOM multiplexer connection to the pin.
 606:Generated_Source\PSoC6\pdl\drivers/peripheral/gpio/cy_gpio.h **** *
 607:Generated_Source\PSoC6\pdl\drivers/peripheral/gpio/cy_gpio.h **** * \param base
 608:Generated_Source\PSoC6\pdl\drivers/peripheral/gpio/cy_gpio.h **** * Pointer to the pin's port register base address
 609:Generated_Source\PSoC6\pdl\drivers/peripheral/gpio/cy_gpio.h **** *
 610:Generated_Source\PSoC6\pdl\drivers/peripheral/gpio/cy_gpio.h **** * \param pinNum
 611:Generated_Source\PSoC6\pdl\drivers/peripheral/gpio/cy_gpio.h **** * Position of the pin bit-field within the port register
 612:Generated_Source\PSoC6\pdl\drivers/peripheral/gpio/cy_gpio.h **** *
 613:Generated_Source\PSoC6\pdl\drivers/peripheral/gpio/cy_gpio.h **** * \return
 614:Generated_Source\PSoC6\pdl\drivers/peripheral/gpio/cy_gpio.h **** * HSIOM input selection
 615:Generated_Source\PSoC6\pdl\drivers/peripheral/gpio/cy_gpio.h **** *
 616:Generated_Source\PSoC6\pdl\drivers/peripheral/gpio/cy_gpio.h **** * \funcusage
 617:Generated_Source\PSoC6\pdl\drivers/peripheral/gpio/cy_gpio.h **** * \snippet gpio/gpio_v1_10_sut_01.cydsn/main_cm4.c snippet_Cy_GPIO_SetHSIOM
 618:Generated_Source\PSoC6\pdl\drivers/peripheral/gpio/cy_gpio.h **** *
 619:Generated_Source\PSoC6\pdl\drivers/peripheral/gpio/cy_gpio.h **** *******************************************************************************/
 620:Generated_Source\PSoC6\pdl\drivers/peripheral/gpio/cy_gpio.h **** __STATIC_INLINE en_hsiom_sel_t Cy_GPIO_GetHSIOM(GPIO_PRT_Type* base, uint32_t pinNum)
 621:Generated_Source\PSoC6\pdl\drivers/peripheral/gpio/cy_gpio.h **** {
 622:Generated_Source\PSoC6\pdl\drivers/peripheral/gpio/cy_gpio.h ****     uint32_t returnValue;
 623:Generated_Source\PSoC6\pdl\drivers/peripheral/gpio/cy_gpio.h ****     uint32_t portNum;
 624:Generated_Source\PSoC6\pdl\drivers/peripheral/gpio/cy_gpio.h ****     HSIOM_PRT_Type* portAddrHSIOM;
 625:Generated_Source\PSoC6\pdl\drivers/peripheral/gpio/cy_gpio.h ****     
 626:Generated_Source\PSoC6\pdl\drivers/peripheral/gpio/cy_gpio.h ****     CY_ASSERT_L2(CY_GPIO_IS_PIN_VALID(pinNum));
 627:Generated_Source\PSoC6\pdl\drivers/peripheral/gpio/cy_gpio.h **** 
 628:Generated_Source\PSoC6\pdl\drivers/peripheral/gpio/cy_gpio.h ****     portNum = ((uint32_t)(base) - GPIO_BASE) / GPIO_PRT_SECTION_SIZE;
 629:Generated_Source\PSoC6\pdl\drivers/peripheral/gpio/cy_gpio.h ****     portAddrHSIOM = (HSIOM_PRT_Type*)(HSIOM_BASE + (HSIOM_PRT_SECTION_SIZE * portNum));
 630:Generated_Source\PSoC6\pdl\drivers/peripheral/gpio/cy_gpio.h **** 
 631:Generated_Source\PSoC6\pdl\drivers/peripheral/gpio/cy_gpio.h ****     if(pinNum < CY_GPIO_PRT_HALF)
 632:Generated_Source\PSoC6\pdl\drivers/peripheral/gpio/cy_gpio.h ****     {
 633:Generated_Source\PSoC6\pdl\drivers/peripheral/gpio/cy_gpio.h ****         returnValue = (portAddrHSIOM->PORT_SEL0 >> (pinNum << CY_GPIO_HSIOM_OFFSET)) & CY_GPIO_HSIO
 634:Generated_Source\PSoC6\pdl\drivers/peripheral/gpio/cy_gpio.h ****     }
 635:Generated_Source\PSoC6\pdl\drivers/peripheral/gpio/cy_gpio.h ****     else
 636:Generated_Source\PSoC6\pdl\drivers/peripheral/gpio/cy_gpio.h ****     {
 637:Generated_Source\PSoC6\pdl\drivers/peripheral/gpio/cy_gpio.h ****         pinNum -= CY_GPIO_PRT_HALF;
 638:Generated_Source\PSoC6\pdl\drivers/peripheral/gpio/cy_gpio.h ****         returnValue = (portAddrHSIOM->PORT_SEL1 >> (pinNum << CY_GPIO_HSIOM_OFFSET)) & CY_GPIO_HSIO
 639:Generated_Source\PSoC6\pdl\drivers/peripheral/gpio/cy_gpio.h ****     }
 640:Generated_Source\PSoC6\pdl\drivers/peripheral/gpio/cy_gpio.h **** 
ARM GAS  C:\Users\codyg\AppData\Local\Temp\cc52IIus.s 			page 33


 641:Generated_Source\PSoC6\pdl\drivers/peripheral/gpio/cy_gpio.h ****     return (en_hsiom_sel_t)returnValue;
 642:Generated_Source\PSoC6\pdl\drivers/peripheral/gpio/cy_gpio.h **** }
 643:Generated_Source\PSoC6\pdl\drivers/peripheral/gpio/cy_gpio.h **** 
 644:Generated_Source\PSoC6\pdl\drivers/peripheral/gpio/cy_gpio.h **** 
 645:Generated_Source\PSoC6\pdl\drivers/peripheral/gpio/cy_gpio.h **** /*******************************************************************************
 646:Generated_Source\PSoC6\pdl\drivers/peripheral/gpio/cy_gpio.h **** * Function Name: Cy_GPIO_PortToAddr
 647:Generated_Source\PSoC6\pdl\drivers/peripheral/gpio/cy_gpio.h **** ****************************************************************************//**
 648:Generated_Source\PSoC6\pdl\drivers/peripheral/gpio/cy_gpio.h **** *
 649:Generated_Source\PSoC6\pdl\drivers/peripheral/gpio/cy_gpio.h **** * \brief Retrieves the port address based on the given port number.
 650:Generated_Source\PSoC6\pdl\drivers/peripheral/gpio/cy_gpio.h **** *
 651:Generated_Source\PSoC6\pdl\drivers/peripheral/gpio/cy_gpio.h **** * This is a helper function to calculate the port base address when given a port
 652:Generated_Source\PSoC6\pdl\drivers/peripheral/gpio/cy_gpio.h **** * number. It is to be used when pin access needs to be calculated at runtime.
 653:Generated_Source\PSoC6\pdl\drivers/peripheral/gpio/cy_gpio.h **** *
 654:Generated_Source\PSoC6\pdl\drivers/peripheral/gpio/cy_gpio.h **** * \param portNum
 655:Generated_Source\PSoC6\pdl\drivers/peripheral/gpio/cy_gpio.h **** * Port number
 656:Generated_Source\PSoC6\pdl\drivers/peripheral/gpio/cy_gpio.h **** *
 657:Generated_Source\PSoC6\pdl\drivers/peripheral/gpio/cy_gpio.h **** * \return
 658:Generated_Source\PSoC6\pdl\drivers/peripheral/gpio/cy_gpio.h **** * Base address of the port register structure
 659:Generated_Source\PSoC6\pdl\drivers/peripheral/gpio/cy_gpio.h **** *
 660:Generated_Source\PSoC6\pdl\drivers/peripheral/gpio/cy_gpio.h **** * \funcusage
 661:Generated_Source\PSoC6\pdl\drivers/peripheral/gpio/cy_gpio.h **** * \snippet gpio/gpio_v1_10_sut_01.cydsn/main_cm4.c snippet_Cy_GPIO_PortToAddr
 662:Generated_Source\PSoC6\pdl\drivers/peripheral/gpio/cy_gpio.h **** *
 663:Generated_Source\PSoC6\pdl\drivers/peripheral/gpio/cy_gpio.h **** *******************************************************************************/
 664:Generated_Source\PSoC6\pdl\drivers/peripheral/gpio/cy_gpio.h **** __STATIC_INLINE GPIO_PRT_Type* Cy_GPIO_PortToAddr(uint32_t portNum)
 665:Generated_Source\PSoC6\pdl\drivers/peripheral/gpio/cy_gpio.h **** {
 666:Generated_Source\PSoC6\pdl\drivers/peripheral/gpio/cy_gpio.h ****     GPIO_PRT_Type* base;
 667:Generated_Source\PSoC6\pdl\drivers/peripheral/gpio/cy_gpio.h ****     
 668:Generated_Source\PSoC6\pdl\drivers/peripheral/gpio/cy_gpio.h ****     if(portNum < (uint32_t)IOSS_GPIO_GPIO_PORT_NR)
 669:Generated_Source\PSoC6\pdl\drivers/peripheral/gpio/cy_gpio.h ****     {
 670:Generated_Source\PSoC6\pdl\drivers/peripheral/gpio/cy_gpio.h ****          base = (GPIO_PRT_Type *)(GPIO_BASE + (GPIO_PRT_SECTION_SIZE * portNum));
 671:Generated_Source\PSoC6\pdl\drivers/peripheral/gpio/cy_gpio.h ****     }
 672:Generated_Source\PSoC6\pdl\drivers/peripheral/gpio/cy_gpio.h ****     else
 673:Generated_Source\PSoC6\pdl\drivers/peripheral/gpio/cy_gpio.h ****     {
 674:Generated_Source\PSoC6\pdl\drivers/peripheral/gpio/cy_gpio.h ****         /* Error: Return default base address */
 675:Generated_Source\PSoC6\pdl\drivers/peripheral/gpio/cy_gpio.h ****         base = (GPIO_PRT_Type *)(GPIO_BASE);
 676:Generated_Source\PSoC6\pdl\drivers/peripheral/gpio/cy_gpio.h ****     }
 677:Generated_Source\PSoC6\pdl\drivers/peripheral/gpio/cy_gpio.h **** 
 678:Generated_Source\PSoC6\pdl\drivers/peripheral/gpio/cy_gpio.h ****     return (base);
 679:Generated_Source\PSoC6\pdl\drivers/peripheral/gpio/cy_gpio.h **** }
 680:Generated_Source\PSoC6\pdl\drivers/peripheral/gpio/cy_gpio.h **** 
 681:Generated_Source\PSoC6\pdl\drivers/peripheral/gpio/cy_gpio.h **** /** \} group_gpio_functions_init */
 682:Generated_Source\PSoC6\pdl\drivers/peripheral/gpio/cy_gpio.h **** 
 683:Generated_Source\PSoC6\pdl\drivers/peripheral/gpio/cy_gpio.h **** /**
 684:Generated_Source\PSoC6\pdl\drivers/peripheral/gpio/cy_gpio.h **** * \addtogroup group_gpio_functions_gpio
 685:Generated_Source\PSoC6\pdl\drivers/peripheral/gpio/cy_gpio.h **** * \{
 686:Generated_Source\PSoC6\pdl\drivers/peripheral/gpio/cy_gpio.h **** */
 687:Generated_Source\PSoC6\pdl\drivers/peripheral/gpio/cy_gpio.h **** 
 688:Generated_Source\PSoC6\pdl\drivers/peripheral/gpio/cy_gpio.h **** /*******************************************************************************
 689:Generated_Source\PSoC6\pdl\drivers/peripheral/gpio/cy_gpio.h **** * Function Name: Cy_GPIO_Read
 690:Generated_Source\PSoC6\pdl\drivers/peripheral/gpio/cy_gpio.h **** ****************************************************************************//**
 691:Generated_Source\PSoC6\pdl\drivers/peripheral/gpio/cy_gpio.h **** *
 692:Generated_Source\PSoC6\pdl\drivers/peripheral/gpio/cy_gpio.h **** * \brief Reads the current logic level on the input buffer of the pin.
 693:Generated_Source\PSoC6\pdl\drivers/peripheral/gpio/cy_gpio.h **** *
 694:Generated_Source\PSoC6\pdl\drivers/peripheral/gpio/cy_gpio.h **** * \param base
 695:Generated_Source\PSoC6\pdl\drivers/peripheral/gpio/cy_gpio.h **** * Pointer to the pin's port register base address
 696:Generated_Source\PSoC6\pdl\drivers/peripheral/gpio/cy_gpio.h **** *
 697:Generated_Source\PSoC6\pdl\drivers/peripheral/gpio/cy_gpio.h **** * \param pinNum
ARM GAS  C:\Users\codyg\AppData\Local\Temp\cc52IIus.s 			page 34


 698:Generated_Source\PSoC6\pdl\drivers/peripheral/gpio/cy_gpio.h **** * Position of the pin bit-field within the port register.
 699:Generated_Source\PSoC6\pdl\drivers/peripheral/gpio/cy_gpio.h **** * Bit position 8 is the routed pin through the port glitch filter.
 700:Generated_Source\PSoC6\pdl\drivers/peripheral/gpio/cy_gpio.h **** *
 701:Generated_Source\PSoC6\pdl\drivers/peripheral/gpio/cy_gpio.h **** * \return
 702:Generated_Source\PSoC6\pdl\drivers/peripheral/gpio/cy_gpio.h **** * Logic level present on the pin
 703:Generated_Source\PSoC6\pdl\drivers/peripheral/gpio/cy_gpio.h **** *
 704:Generated_Source\PSoC6\pdl\drivers/peripheral/gpio/cy_gpio.h **** * \funcusage
 705:Generated_Source\PSoC6\pdl\drivers/peripheral/gpio/cy_gpio.h **** * \snippet gpio/gpio_v1_10_sut_01.cydsn/main_cm4.c snippet_Cy_GPIO_Read
 706:Generated_Source\PSoC6\pdl\drivers/peripheral/gpio/cy_gpio.h **** *
 707:Generated_Source\PSoC6\pdl\drivers/peripheral/gpio/cy_gpio.h **** *******************************************************************************/
 708:Generated_Source\PSoC6\pdl\drivers/peripheral/gpio/cy_gpio.h **** __STATIC_INLINE uint32_t Cy_GPIO_Read(GPIO_PRT_Type* base, uint32_t pinNum)
 709:Generated_Source\PSoC6\pdl\drivers/peripheral/gpio/cy_gpio.h **** {
 710:Generated_Source\PSoC6\pdl\drivers/peripheral/gpio/cy_gpio.h ****     CY_ASSERT_L2(CY_GPIO_IS_FILTER_PIN_VALID(pinNum));
 711:Generated_Source\PSoC6\pdl\drivers/peripheral/gpio/cy_gpio.h ****     
 712:Generated_Source\PSoC6\pdl\drivers/peripheral/gpio/cy_gpio.h ****     return (base->IN >> (pinNum)) & CY_GPIO_IN_MASK;
 713:Generated_Source\PSoC6\pdl\drivers/peripheral/gpio/cy_gpio.h **** }
 714:Generated_Source\PSoC6\pdl\drivers/peripheral/gpio/cy_gpio.h **** 
 715:Generated_Source\PSoC6\pdl\drivers/peripheral/gpio/cy_gpio.h **** 
 716:Generated_Source\PSoC6\pdl\drivers/peripheral/gpio/cy_gpio.h **** /*******************************************************************************
 717:Generated_Source\PSoC6\pdl\drivers/peripheral/gpio/cy_gpio.h **** * Function Name: Cy_GPIO_Write
 718:Generated_Source\PSoC6\pdl\drivers/peripheral/gpio/cy_gpio.h **** ****************************************************************************//**
 719:Generated_Source\PSoC6\pdl\drivers/peripheral/gpio/cy_gpio.h **** *
 720:Generated_Source\PSoC6\pdl\drivers/peripheral/gpio/cy_gpio.h **** * \brief Write a logic 0 or logic 1 state to the output driver.
 721:Generated_Source\PSoC6\pdl\drivers/peripheral/gpio/cy_gpio.h **** *
 722:Generated_Source\PSoC6\pdl\drivers/peripheral/gpio/cy_gpio.h **** * This function should be used only for software driven pins. It does not have
 723:Generated_Source\PSoC6\pdl\drivers/peripheral/gpio/cy_gpio.h **** * any effect on peripheral driven pins.
 724:Generated_Source\PSoC6\pdl\drivers/peripheral/gpio/cy_gpio.h **** *
 725:Generated_Source\PSoC6\pdl\drivers/peripheral/gpio/cy_gpio.h **** * \param base
 726:Generated_Source\PSoC6\pdl\drivers/peripheral/gpio/cy_gpio.h **** * Pointer to the pin's port register base address
 727:Generated_Source\PSoC6\pdl\drivers/peripheral/gpio/cy_gpio.h **** *
 728:Generated_Source\PSoC6\pdl\drivers/peripheral/gpio/cy_gpio.h **** * \param pinNum
 729:Generated_Source\PSoC6\pdl\drivers/peripheral/gpio/cy_gpio.h **** * Position of the pin bit-field within the port register
 730:Generated_Source\PSoC6\pdl\drivers/peripheral/gpio/cy_gpio.h **** *
 731:Generated_Source\PSoC6\pdl\drivers/peripheral/gpio/cy_gpio.h **** * \param value
 732:Generated_Source\PSoC6\pdl\drivers/peripheral/gpio/cy_gpio.h **** * Logic level to drive out on the pin
 733:Generated_Source\PSoC6\pdl\drivers/peripheral/gpio/cy_gpio.h **** *
 734:Generated_Source\PSoC6\pdl\drivers/peripheral/gpio/cy_gpio.h **** * \return
 735:Generated_Source\PSoC6\pdl\drivers/peripheral/gpio/cy_gpio.h **** * void
 736:Generated_Source\PSoC6\pdl\drivers/peripheral/gpio/cy_gpio.h **** *
 737:Generated_Source\PSoC6\pdl\drivers/peripheral/gpio/cy_gpio.h **** * \funcusage
 738:Generated_Source\PSoC6\pdl\drivers/peripheral/gpio/cy_gpio.h **** * \snippet gpio/gpio_v1_10_sut_01.cydsn/main_cm4.c snippet_Cy_GPIO_Write
 739:Generated_Source\PSoC6\pdl\drivers/peripheral/gpio/cy_gpio.h **** *
 740:Generated_Source\PSoC6\pdl\drivers/peripheral/gpio/cy_gpio.h **** *******************************************************************************/
 741:Generated_Source\PSoC6\pdl\drivers/peripheral/gpio/cy_gpio.h **** __STATIC_INLINE void Cy_GPIO_Write(GPIO_PRT_Type* base, uint32_t pinNum, uint32_t value)
 742:Generated_Source\PSoC6\pdl\drivers/peripheral/gpio/cy_gpio.h **** {
 743:Generated_Source\PSoC6\pdl\drivers/peripheral/gpio/cy_gpio.h ****     CY_ASSERT_L2(CY_GPIO_IS_PIN_VALID(pinNum));
 744:Generated_Source\PSoC6\pdl\drivers/peripheral/gpio/cy_gpio.h ****     CY_ASSERT_L2(CY_GPIO_IS_VALUE_VALID(value));
 745:Generated_Source\PSoC6\pdl\drivers/peripheral/gpio/cy_gpio.h **** 
 746:Generated_Source\PSoC6\pdl\drivers/peripheral/gpio/cy_gpio.h ****     /* Thread-safe: Directly access the pin registers instead of base->OUT */
 747:Generated_Source\PSoC6\pdl\drivers/peripheral/gpio/cy_gpio.h ****     if(0UL == value)
 748:Generated_Source\PSoC6\pdl\drivers/peripheral/gpio/cy_gpio.h ****     {
 749:Generated_Source\PSoC6\pdl\drivers/peripheral/gpio/cy_gpio.h ****         base->OUT_CLR = CY_GPIO_OUT_MASK << pinNum;
 750:Generated_Source\PSoC6\pdl\drivers/peripheral/gpio/cy_gpio.h ****     }
 751:Generated_Source\PSoC6\pdl\drivers/peripheral/gpio/cy_gpio.h ****     else
 752:Generated_Source\PSoC6\pdl\drivers/peripheral/gpio/cy_gpio.h ****     {
 753:Generated_Source\PSoC6\pdl\drivers/peripheral/gpio/cy_gpio.h ****         base->OUT_SET = CY_GPIO_OUT_MASK << pinNum;
 754:Generated_Source\PSoC6\pdl\drivers/peripheral/gpio/cy_gpio.h ****     }
ARM GAS  C:\Users\codyg\AppData\Local\Temp\cc52IIus.s 			page 35


 755:Generated_Source\PSoC6\pdl\drivers/peripheral/gpio/cy_gpio.h **** }
 756:Generated_Source\PSoC6\pdl\drivers/peripheral/gpio/cy_gpio.h **** 
 757:Generated_Source\PSoC6\pdl\drivers/peripheral/gpio/cy_gpio.h **** 
 758:Generated_Source\PSoC6\pdl\drivers/peripheral/gpio/cy_gpio.h **** /*******************************************************************************
 759:Generated_Source\PSoC6\pdl\drivers/peripheral/gpio/cy_gpio.h **** * Function Name: Cy_GPIO_ReadOut
 760:Generated_Source\PSoC6\pdl\drivers/peripheral/gpio/cy_gpio.h **** ****************************************************************************//**
 761:Generated_Source\PSoC6\pdl\drivers/peripheral/gpio/cy_gpio.h **** *
 762:Generated_Source\PSoC6\pdl\drivers/peripheral/gpio/cy_gpio.h **** * \brief Reads the current logic level on the pin output driver.
 763:Generated_Source\PSoC6\pdl\drivers/peripheral/gpio/cy_gpio.h **** *
 764:Generated_Source\PSoC6\pdl\drivers/peripheral/gpio/cy_gpio.h **** * \param base
 765:Generated_Source\PSoC6\pdl\drivers/peripheral/gpio/cy_gpio.h **** * Pointer to the pin's port register base address
 766:Generated_Source\PSoC6\pdl\drivers/peripheral/gpio/cy_gpio.h **** *
 767:Generated_Source\PSoC6\pdl\drivers/peripheral/gpio/cy_gpio.h **** * \param pinNum
 768:Generated_Source\PSoC6\pdl\drivers/peripheral/gpio/cy_gpio.h **** * Position of the pin bit-field within the port register
 769:Generated_Source\PSoC6\pdl\drivers/peripheral/gpio/cy_gpio.h **** *
 770:Generated_Source\PSoC6\pdl\drivers/peripheral/gpio/cy_gpio.h **** * \return
 771:Generated_Source\PSoC6\pdl\drivers/peripheral/gpio/cy_gpio.h **** * Logic level on the pin output driver
 772:Generated_Source\PSoC6\pdl\drivers/peripheral/gpio/cy_gpio.h **** *
 773:Generated_Source\PSoC6\pdl\drivers/peripheral/gpio/cy_gpio.h **** * \funcusage
 774:Generated_Source\PSoC6\pdl\drivers/peripheral/gpio/cy_gpio.h **** * \snippet gpio/gpio_v1_10_sut_01.cydsn/main_cm4.c snippet_Cy_GPIO_ReadOut
 775:Generated_Source\PSoC6\pdl\drivers/peripheral/gpio/cy_gpio.h **** *
 776:Generated_Source\PSoC6\pdl\drivers/peripheral/gpio/cy_gpio.h **** *******************************************************************************/
 777:Generated_Source\PSoC6\pdl\drivers/peripheral/gpio/cy_gpio.h **** __STATIC_INLINE uint32_t Cy_GPIO_ReadOut(GPIO_PRT_Type* base, uint32_t pinNum)
 778:Generated_Source\PSoC6\pdl\drivers/peripheral/gpio/cy_gpio.h **** {
 779:Generated_Source\PSoC6\pdl\drivers/peripheral/gpio/cy_gpio.h ****     CY_ASSERT_L2(CY_GPIO_IS_PIN_VALID(pinNum));
 780:Generated_Source\PSoC6\pdl\drivers/peripheral/gpio/cy_gpio.h **** 
 781:Generated_Source\PSoC6\pdl\drivers/peripheral/gpio/cy_gpio.h ****     return (base->OUT >> pinNum) & CY_GPIO_OUT_MASK;
 782:Generated_Source\PSoC6\pdl\drivers/peripheral/gpio/cy_gpio.h **** }
 783:Generated_Source\PSoC6\pdl\drivers/peripheral/gpio/cy_gpio.h **** 
 784:Generated_Source\PSoC6\pdl\drivers/peripheral/gpio/cy_gpio.h **** 
 785:Generated_Source\PSoC6\pdl\drivers/peripheral/gpio/cy_gpio.h **** /*******************************************************************************
 786:Generated_Source\PSoC6\pdl\drivers/peripheral/gpio/cy_gpio.h **** * Function Name: Cy_GPIO_Set
 787:Generated_Source\PSoC6\pdl\drivers/peripheral/gpio/cy_gpio.h **** ****************************************************************************//**
 788:Generated_Source\PSoC6\pdl\drivers/peripheral/gpio/cy_gpio.h **** *
 789:Generated_Source\PSoC6\pdl\drivers/peripheral/gpio/cy_gpio.h **** * \brief Set a pin output to logic state high.
 790:Generated_Source\PSoC6\pdl\drivers/peripheral/gpio/cy_gpio.h **** *
 791:Generated_Source\PSoC6\pdl\drivers/peripheral/gpio/cy_gpio.h **** * This function should be used only for software driven pins. It does not have
 792:Generated_Source\PSoC6\pdl\drivers/peripheral/gpio/cy_gpio.h **** * any effect on peripheral driven pins.
 793:Generated_Source\PSoC6\pdl\drivers/peripheral/gpio/cy_gpio.h **** *
 794:Generated_Source\PSoC6\pdl\drivers/peripheral/gpio/cy_gpio.h **** * \param base
 795:Generated_Source\PSoC6\pdl\drivers/peripheral/gpio/cy_gpio.h **** * Pointer to the pin's port register base address
 796:Generated_Source\PSoC6\pdl\drivers/peripheral/gpio/cy_gpio.h **** *
 797:Generated_Source\PSoC6\pdl\drivers/peripheral/gpio/cy_gpio.h **** * \param pinNum
 798:Generated_Source\PSoC6\pdl\drivers/peripheral/gpio/cy_gpio.h **** * Position of the pin bit-field within the port register
 799:Generated_Source\PSoC6\pdl\drivers/peripheral/gpio/cy_gpio.h **** *
 800:Generated_Source\PSoC6\pdl\drivers/peripheral/gpio/cy_gpio.h **** * \return
 801:Generated_Source\PSoC6\pdl\drivers/peripheral/gpio/cy_gpio.h **** * void
 802:Generated_Source\PSoC6\pdl\drivers/peripheral/gpio/cy_gpio.h **** *
 803:Generated_Source\PSoC6\pdl\drivers/peripheral/gpio/cy_gpio.h **** * \funcusage
 804:Generated_Source\PSoC6\pdl\drivers/peripheral/gpio/cy_gpio.h **** * \snippet gpio/gpio_v1_10_sut_01.cydsn/main_cm4.c snippet_Cy_GPIO_Set
 805:Generated_Source\PSoC6\pdl\drivers/peripheral/gpio/cy_gpio.h **** *
 806:Generated_Source\PSoC6\pdl\drivers/peripheral/gpio/cy_gpio.h **** *******************************************************************************/
 807:Generated_Source\PSoC6\pdl\drivers/peripheral/gpio/cy_gpio.h **** __STATIC_INLINE void Cy_GPIO_Set(GPIO_PRT_Type* base, uint32_t pinNum)
 808:Generated_Source\PSoC6\pdl\drivers/peripheral/gpio/cy_gpio.h **** {
 809:Generated_Source\PSoC6\pdl\drivers/peripheral/gpio/cy_gpio.h ****     CY_ASSERT_L2(CY_GPIO_IS_PIN_VALID(pinNum));
 810:Generated_Source\PSoC6\pdl\drivers/peripheral/gpio/cy_gpio.h ****     
 811:Generated_Source\PSoC6\pdl\drivers/peripheral/gpio/cy_gpio.h ****     base->OUT_SET = CY_GPIO_OUT_MASK << pinNum;
ARM GAS  C:\Users\codyg\AppData\Local\Temp\cc52IIus.s 			page 36


 812:Generated_Source\PSoC6\pdl\drivers/peripheral/gpio/cy_gpio.h **** }
 813:Generated_Source\PSoC6\pdl\drivers/peripheral/gpio/cy_gpio.h **** 
 814:Generated_Source\PSoC6\pdl\drivers/peripheral/gpio/cy_gpio.h **** 
 815:Generated_Source\PSoC6\pdl\drivers/peripheral/gpio/cy_gpio.h **** /*******************************************************************************
 816:Generated_Source\PSoC6\pdl\drivers/peripheral/gpio/cy_gpio.h **** * Function Name: Cy_GPIO_Clr
 817:Generated_Source\PSoC6\pdl\drivers/peripheral/gpio/cy_gpio.h **** ****************************************************************************//**
 818:Generated_Source\PSoC6\pdl\drivers/peripheral/gpio/cy_gpio.h **** *
 819:Generated_Source\PSoC6\pdl\drivers/peripheral/gpio/cy_gpio.h **** * \brief Set a pin output to logic state Low.
 820:Generated_Source\PSoC6\pdl\drivers/peripheral/gpio/cy_gpio.h **** *
 821:Generated_Source\PSoC6\pdl\drivers/peripheral/gpio/cy_gpio.h **** * This function should be used only for software driven pins. It does not have
 822:Generated_Source\PSoC6\pdl\drivers/peripheral/gpio/cy_gpio.h **** * any effect on peripheral driven pins.
 823:Generated_Source\PSoC6\pdl\drivers/peripheral/gpio/cy_gpio.h **** *
 824:Generated_Source\PSoC6\pdl\drivers/peripheral/gpio/cy_gpio.h **** * \param base
 825:Generated_Source\PSoC6\pdl\drivers/peripheral/gpio/cy_gpio.h **** * Pointer to the pin's port register base address
 826:Generated_Source\PSoC6\pdl\drivers/peripheral/gpio/cy_gpio.h **** *
 827:Generated_Source\PSoC6\pdl\drivers/peripheral/gpio/cy_gpio.h **** * \param pinNum
 828:Generated_Source\PSoC6\pdl\drivers/peripheral/gpio/cy_gpio.h **** * Position of the pin bit-field within the port register
 829:Generated_Source\PSoC6\pdl\drivers/peripheral/gpio/cy_gpio.h **** *
 830:Generated_Source\PSoC6\pdl\drivers/peripheral/gpio/cy_gpio.h **** * \return
 831:Generated_Source\PSoC6\pdl\drivers/peripheral/gpio/cy_gpio.h **** * void
 832:Generated_Source\PSoC6\pdl\drivers/peripheral/gpio/cy_gpio.h **** *
 833:Generated_Source\PSoC6\pdl\drivers/peripheral/gpio/cy_gpio.h **** * \funcusage
 834:Generated_Source\PSoC6\pdl\drivers/peripheral/gpio/cy_gpio.h **** * \snippet gpio/gpio_v1_10_sut_01.cydsn/main_cm4.c snippet_Cy_GPIO_Clr
 835:Generated_Source\PSoC6\pdl\drivers/peripheral/gpio/cy_gpio.h **** *
 836:Generated_Source\PSoC6\pdl\drivers/peripheral/gpio/cy_gpio.h **** *******************************************************************************/
 837:Generated_Source\PSoC6\pdl\drivers/peripheral/gpio/cy_gpio.h **** __STATIC_INLINE void Cy_GPIO_Clr(GPIO_PRT_Type* base, uint32_t pinNum)
 838:Generated_Source\PSoC6\pdl\drivers/peripheral/gpio/cy_gpio.h **** {
 839:Generated_Source\PSoC6\pdl\drivers/peripheral/gpio/cy_gpio.h ****     CY_ASSERT_L2(CY_GPIO_IS_PIN_VALID(pinNum));
 840:Generated_Source\PSoC6\pdl\drivers/peripheral/gpio/cy_gpio.h ****     
 841:Generated_Source\PSoC6\pdl\drivers/peripheral/gpio/cy_gpio.h ****     base->OUT_CLR = CY_GPIO_OUT_MASK << pinNum;
 536              		.loc 3 841 0
 537 0034 2022     		movs	r2, #32
 538 0036 644B     		ldr	r3, .L57+4
 539 0038 5A60     		str	r2, [r3, #4]
 540              	.LVL45:
 541              	.LBE65:
 542              	.LBE64:
 127:status_led_task.c ****                     orangeLedState = LED_TURN_ON;
 543              		.loc 1 127 0
 544 003a 4FF0FF30 		mov	r0, #-1
 545              	.LVL46:
 546 003e FFF7FEFF 		bl	StatusLedOrangeTimerUpdate
 547              	.LVL47:
 128:status_led_task.c ****                     break;
 548              		.loc 1 128 0
 549 0042 0122     		movs	r2, #1
 550 0044 614B     		ldr	r3, .L57+8
 551 0046 1A70     		strb	r2, [r3]
 129:status_led_task.c ****                 /* Turn OFF the LED */    
 552              		.loc 1 129 0
 553 0048 47E0     		b	.L38
 554              	.LVL48:
 555              	.L41:
 556              	.LBB66:
 557              	.LBB67:
 811:Generated_Source\PSoC6\pdl\drivers/peripheral/gpio/cy_gpio.h **** }
 558              		.loc 3 811 0
ARM GAS  C:\Users\codyg\AppData\Local\Temp\cc52IIus.s 			page 37


 559 004a 2022     		movs	r2, #32
 560 004c 5E4B     		ldr	r3, .L57+4
 561 004e 9A60     		str	r2, [r3, #8]
 562              	.LVL49:
 563              	.LBE67:
 564              	.LBE66:
 134:status_led_task.c ****                     orangeLedState = LED_TURN_OFF;
 565              		.loc 1 134 0
 566 0050 4FF0FF30 		mov	r0, #-1
 567              	.LVL50:
 568 0054 FFF7FEFF 		bl	StatusLedOrangeTimerUpdate
 569              	.LVL51:
 135:status_led_task.c ****                     break;
 570              		.loc 1 135 0
 571 0058 0222     		movs	r2, #2
 572 005a 5C4B     		ldr	r3, .L57+8
 573 005c 1A70     		strb	r2, [r3]
 136:status_led_task.c ****                 /* Continuously toggle the LED */
 574              		.loc 1 136 0
 575 005e 3CE0     		b	.L38
 576              	.LVL52:
 577              	.L42:
 140:status_led_task.c ****                     orangeLedState = LED_TOGGLE_EN;
 578              		.loc 1 140 0
 579 0060 4FF4FA70 		mov	r0, #500
 580              	.LVL53:
 581 0064 FFF7FEFF 		bl	StatusLedOrangeTimerUpdate
 582              	.LVL54:
 141:status_led_task.c ****                     break;
 583              		.loc 1 141 0
 584 0068 0322     		movs	r2, #3
 585 006a 584B     		ldr	r3, .L57+8
 586 006c 1A70     		strb	r2, [r3]
 142:status_led_task.c ****                 /* Blink the LED once */    
 587              		.loc 1 142 0
 588 006e 34E0     		b	.L38
 589              	.LVL55:
 590              	.L43:
 591              	.LBB68:
 592              	.LBB69:
 593              		.loc 3 841 0
 594 0070 2022     		movs	r2, #32
 595 0072 554B     		ldr	r3, .L57+4
 596 0074 5A60     		str	r2, [r3, #4]
 597              	.LVL56:
 598              	.LBE69:
 599              	.LBE68:
 147:status_led_task.c ****                     orangeLedState = LED_BLINK_ONCE;
 600              		.loc 1 147 0
 601 0076 4FF47A60 		mov	r0, #4000
 602              	.LVL57:
 603 007a FFF7FEFF 		bl	StatusLedOrangeTimerUpdate
 604              	.LVL58:
 148:status_led_task.c ****                     break;
 605              		.loc 1 148 0
 606 007e 0422     		movs	r2, #4
 607 0080 524B     		ldr	r3, .L57+8
ARM GAS  C:\Users\codyg\AppData\Local\Temp\cc52IIus.s 			page 38


 608 0082 1A70     		strb	r2, [r3]
 149:status_led_task.c ****                 /* Refresh the LED based on the current state */     
 609              		.loc 1 149 0
 610 0084 29E0     		b	.L38
 611              	.LVL59:
 612              	.L44:
 152:status_led_task.c ****                     {
 613              		.loc 1 152 0
 614 0086 514B     		ldr	r3, .L57+8
 615 0088 1B78     		ldrb	r3, [r3]	@ zero_extendqisi2
 616 008a 032B     		cmp	r3, #3
 617 008c 03D1     		bne	.L45
 618              	.LVL60:
 619              	.LBB70:
 620              	.LBB71:
 842:Generated_Source\PSoC6\pdl\drivers/peripheral/gpio/cy_gpio.h **** }
 843:Generated_Source\PSoC6\pdl\drivers/peripheral/gpio/cy_gpio.h **** 
 844:Generated_Source\PSoC6\pdl\drivers/peripheral/gpio/cy_gpio.h **** 
 845:Generated_Source\PSoC6\pdl\drivers/peripheral/gpio/cy_gpio.h **** /*******************************************************************************
 846:Generated_Source\PSoC6\pdl\drivers/peripheral/gpio/cy_gpio.h **** * Function Name: Cy_GPIO_Inv
 847:Generated_Source\PSoC6\pdl\drivers/peripheral/gpio/cy_gpio.h **** ****************************************************************************//**
 848:Generated_Source\PSoC6\pdl\drivers/peripheral/gpio/cy_gpio.h **** *
 849:Generated_Source\PSoC6\pdl\drivers/peripheral/gpio/cy_gpio.h **** * \brief Set a pin output logic state to the inverse of the current output
 850:Generated_Source\PSoC6\pdl\drivers/peripheral/gpio/cy_gpio.h **** * logic state.
 851:Generated_Source\PSoC6\pdl\drivers/peripheral/gpio/cy_gpio.h **** *
 852:Generated_Source\PSoC6\pdl\drivers/peripheral/gpio/cy_gpio.h **** * This function should be used only for software driven pins. It does not have
 853:Generated_Source\PSoC6\pdl\drivers/peripheral/gpio/cy_gpio.h **** * any effect on peripheral driven pins.
 854:Generated_Source\PSoC6\pdl\drivers/peripheral/gpio/cy_gpio.h **** *
 855:Generated_Source\PSoC6\pdl\drivers/peripheral/gpio/cy_gpio.h **** * \param base
 856:Generated_Source\PSoC6\pdl\drivers/peripheral/gpio/cy_gpio.h **** * Pointer to the pin's port register base address
 857:Generated_Source\PSoC6\pdl\drivers/peripheral/gpio/cy_gpio.h **** *
 858:Generated_Source\PSoC6\pdl\drivers/peripheral/gpio/cy_gpio.h **** * \param pinNum
 859:Generated_Source\PSoC6\pdl\drivers/peripheral/gpio/cy_gpio.h **** * Position of the pin bit-field within the port register
 860:Generated_Source\PSoC6\pdl\drivers/peripheral/gpio/cy_gpio.h **** *
 861:Generated_Source\PSoC6\pdl\drivers/peripheral/gpio/cy_gpio.h **** * \return
 862:Generated_Source\PSoC6\pdl\drivers/peripheral/gpio/cy_gpio.h **** * void
 863:Generated_Source\PSoC6\pdl\drivers/peripheral/gpio/cy_gpio.h **** *
 864:Generated_Source\PSoC6\pdl\drivers/peripheral/gpio/cy_gpio.h **** * \funcusage
 865:Generated_Source\PSoC6\pdl\drivers/peripheral/gpio/cy_gpio.h **** * \snippet gpio/gpio_v1_10_sut_01.cydsn/main_cm4.c snippet_Cy_GPIO_Inv
 866:Generated_Source\PSoC6\pdl\drivers/peripheral/gpio/cy_gpio.h **** *
 867:Generated_Source\PSoC6\pdl\drivers/peripheral/gpio/cy_gpio.h **** *******************************************************************************/
 868:Generated_Source\PSoC6\pdl\drivers/peripheral/gpio/cy_gpio.h **** __STATIC_INLINE void Cy_GPIO_Inv(GPIO_PRT_Type* base, uint32_t pinNum)
 869:Generated_Source\PSoC6\pdl\drivers/peripheral/gpio/cy_gpio.h **** {
 870:Generated_Source\PSoC6\pdl\drivers/peripheral/gpio/cy_gpio.h ****     CY_ASSERT_L2(CY_GPIO_IS_PIN_VALID(pinNum));
 871:Generated_Source\PSoC6\pdl\drivers/peripheral/gpio/cy_gpio.h ****     
 872:Generated_Source\PSoC6\pdl\drivers/peripheral/gpio/cy_gpio.h ****     base->OUT_INV = CY_GPIO_OUT_MASK << pinNum;
 621              		.loc 3 872 0
 622 008e 2022     		movs	r2, #32
 623 0090 4D4B     		ldr	r3, .L57+4
 624 0092 DA60     		str	r2, [r3, #12]
 625 0094 21E0     		b	.L38
 626              	.LVL61:
 627              	.L45:
 628              	.LBE71:
 629              	.LBE70:
 158:status_led_task.c ****                     {
 630              		.loc 1 158 0
ARM GAS  C:\Users\codyg\AppData\Local\Temp\cc52IIus.s 			page 39


 631 0096 042B     		cmp	r3, #4
 632 0098 0AD1     		bne	.L46
 633              	.LVL62:
 634              	.LBB72:
 635              	.LBB73:
 811:Generated_Source\PSoC6\pdl\drivers/peripheral/gpio/cy_gpio.h **** }
 636              		.loc 3 811 0
 637 009a 2022     		movs	r2, #32
 638 009c 4A4B     		ldr	r3, .L57+4
 639 009e 9A60     		str	r2, [r3, #8]
 640              	.LVL63:
 641              	.LBE73:
 642              	.LBE72:
 164:status_led_task.c ****                         orangeLedState = LED_TURN_OFF;
 643              		.loc 1 164 0
 644 00a0 4FF0FF30 		mov	r0, #-1
 645              	.LVL64:
 646 00a4 FFF7FEFF 		bl	StatusLedOrangeTimerUpdate
 647              	.LVL65:
 165:status_led_task.c ****                     }
 648              		.loc 1 165 0
 649 00a8 0222     		movs	r2, #2
 650 00aa 484B     		ldr	r3, .L57+8
 651 00ac 1A70     		strb	r2, [r3]
 652 00ae 14E0     		b	.L38
 653              	.LVL66:
 654              	.L46:
 655              	.LBB74:
 656              	.LBB75:
 144:uart_debug.h  **** 										.errorCode     = errCode};
 657              		.loc 2 144 0
 658 00b0 474B     		ldr	r3, .L57+12
 659 00b2 0193     		str	r3, [sp, #4]
 660 00b4 0022     		movs	r2, #0
 661 00b6 0292     		str	r2, [sp, #8]
 662              		.loc 2 146 0
 663 00b8 1346     		mov	r3, r2
 664 00ba 01A9     		add	r1, sp, #4
 665 00bc 4548     		ldr	r0, .L57+16
 666              	.LVL67:
 667 00be 0068     		ldr	r0, [r0]
 668 00c0 FFF7FEFF 		bl	xQueueGenericSend
 669              	.LVL68:
 670 00c4 09E0     		b	.L38
 671              	.LVL69:
 672              	.L37:
 673              	.LBE75:
 674              	.LBE74:
 675              	.LBB76:
 676              	.LBB77:
 144:uart_debug.h  **** 										.errorCode     = errCode};
 677              		.loc 2 144 0
 678 00c6 444A     		ldr	r2, .L57+20
 679 00c8 0192     		str	r2, [sp, #4]
 680 00ca 0293     		str	r3, [sp, #8]
 681              		.loc 2 146 0
 682 00cc 0023     		movs	r3, #0
ARM GAS  C:\Users\codyg\AppData\Local\Temp\cc52IIus.s 			page 40


 683              	.LVL70:
 684 00ce 1A46     		mov	r2, r3
 685 00d0 01A9     		add	r1, sp, #4
 686 00d2 4048     		ldr	r0, .L57+16
 687              	.LVL71:
 688 00d4 0068     		ldr	r0, [r0]
 689 00d6 FFF7FEFF 		bl	xQueueGenericSend
 690              	.LVL72:
 691              	.L38:
 692              	.LBE77:
 693              	.LBE76:
 183:status_led_task.c ****             {
 694              		.loc 1 183 0
 695 00da 9DF80C30 		ldrb	r3, [sp, #12]	@ zero_extendqisi2
 696 00de 052B     		cmp	r3, #5
 697 00e0 57D8     		bhi	.L47
 698 00e2 01A2     		adr	r2, .L48
 699 00e4 52F823F0 		ldr	pc, [r2, r3, lsl #2]
 700              		.p2align 2
 701              	.L48:
 702 00e8 0D000000 		.word	.L34+1
 703 00ec 01010000 		.word	.L49+1
 704 00f0 17010000 		.word	.L50+1
 705 00f4 2D010000 		.word	.L51+1
 706 00f8 3D010000 		.word	.L52+1
 707 00fc 53010000 		.word	.L53+1
 708              		.p2align 1
 709              	.L49:
 710              	.LVL73:
 711              	.LBB78:
 712              	.LBB79:
 841:Generated_Source\PSoC6\pdl\drivers/peripheral/gpio/cy_gpio.h **** }
 713              		.loc 3 841 0
 714 0100 8022     		movs	r2, #128
 715 0102 364B     		ldr	r3, .L57+24
 716 0104 5A60     		str	r2, [r3, #4]
 717              	.LVL74:
 718              	.LBE79:
 719              	.LBE78:
 192:status_led_task.c ****                     redLedState = LED_TURN_ON;
 720              		.loc 1 192 0
 721 0106 4FF0FF30 		mov	r0, #-1
 722 010a FFF7FEFF 		bl	StatusLedRedTimerUpdate
 723              	.LVL75:
 193:status_led_task.c ****                     break;
 724              		.loc 1 193 0
 725 010e 0122     		movs	r2, #1
 726 0110 2E4B     		ldr	r3, .L57+8
 727 0112 5A70     		strb	r2, [r3, #1]
 194:status_led_task.c ****                 /* Turn OFF the LED */        
 728              		.loc 1 194 0
 729 0114 7AE7     		b	.L34
 730              	.L50:
 731              	.LVL76:
 732              	.LBB80:
 733              	.LBB81:
 811:Generated_Source\PSoC6\pdl\drivers/peripheral/gpio/cy_gpio.h **** }
ARM GAS  C:\Users\codyg\AppData\Local\Temp\cc52IIus.s 			page 41


 734              		.loc 3 811 0
 735 0116 8022     		movs	r2, #128
 736 0118 304B     		ldr	r3, .L57+24
 737 011a 9A60     		str	r2, [r3, #8]
 738              	.LVL77:
 739              	.LBE81:
 740              	.LBE80:
 199:status_led_task.c ****                     redLedState = LED_TURN_OFF;
 741              		.loc 1 199 0
 742 011c 4FF0FF30 		mov	r0, #-1
 743 0120 FFF7FEFF 		bl	StatusLedRedTimerUpdate
 744              	.LVL78:
 200:status_led_task.c ****                     break;
 745              		.loc 1 200 0
 746 0124 0222     		movs	r2, #2
 747 0126 294B     		ldr	r3, .L57+8
 748 0128 5A70     		strb	r2, [r3, #1]
 201:status_led_task.c ****                 /* Continuously toggle the LED */
 749              		.loc 1 201 0
 750 012a 6FE7     		b	.L34
 751              	.L51:
 205:status_led_task.c ****                     redLedState = LED_TOGGLE_EN;
 752              		.loc 1 205 0
 753 012c 4FF4FA70 		mov	r0, #500
 754 0130 FFF7FEFF 		bl	StatusLedRedTimerUpdate
 755              	.LVL79:
 206:status_led_task.c ****                     break;
 756              		.loc 1 206 0
 757 0134 0322     		movs	r2, #3
 758 0136 254B     		ldr	r3, .L57+8
 759 0138 5A70     		strb	r2, [r3, #1]
 207:status_led_task.c ****                 /* Blink the LED once */        
 760              		.loc 1 207 0
 761 013a 67E7     		b	.L34
 762              	.L52:
 763              	.LVL80:
 764              	.LBB82:
 765              	.LBB83:
 841:Generated_Source\PSoC6\pdl\drivers/peripheral/gpio/cy_gpio.h **** }
 766              		.loc 3 841 0
 767 013c 8022     		movs	r2, #128
 768 013e 274B     		ldr	r3, .L57+24
 769 0140 5A60     		str	r2, [r3, #4]
 770              	.LVL81:
 771              	.LBE83:
 772              	.LBE82:
 212:status_led_task.c ****                     redLedState = LED_BLINK_ONCE;
 773              		.loc 1 212 0
 774 0142 4FF47A60 		mov	r0, #4000
 775 0146 FFF7FEFF 		bl	StatusLedRedTimerUpdate
 776              	.LVL82:
 213:status_led_task.c ****                     break;
 777              		.loc 1 213 0
 778 014a 0422     		movs	r2, #4
 779 014c 1F4B     		ldr	r3, .L57+8
 780 014e 5A70     		strb	r2, [r3, #1]
 214:status_led_task.c ****                 /* Refresh the LED based on the current state */         
ARM GAS  C:\Users\codyg\AppData\Local\Temp\cc52IIus.s 			page 42


 781              		.loc 1 214 0
 782 0150 5CE7     		b	.L34
 783              	.L53:
 217:status_led_task.c ****                     {
 784              		.loc 1 217 0
 785 0152 1E4B     		ldr	r3, .L57+8
 786 0154 5B78     		ldrb	r3, [r3, #1]	@ zero_extendqisi2
 787 0156 032B     		cmp	r3, #3
 788 0158 03D1     		bne	.L54
 789              	.LVL83:
 790              	.LBB84:
 791              	.LBB85:
 792              		.loc 3 872 0
 793 015a 8022     		movs	r2, #128
 794 015c 1F4B     		ldr	r3, .L57+24
 795 015e DA60     		str	r2, [r3, #12]
 796 0160 54E7     		b	.L34
 797              	.LVL84:
 798              	.L54:
 799              	.LBE85:
 800              	.LBE84:
 223:status_led_task.c ****                     {
 801              		.loc 1 223 0
 802 0162 042B     		cmp	r3, #4
 803 0164 0AD1     		bne	.L55
 804              	.LVL85:
 805              	.LBB86:
 806              	.LBB87:
 811:Generated_Source\PSoC6\pdl\drivers/peripheral/gpio/cy_gpio.h **** }
 807              		.loc 3 811 0
 808 0166 8022     		movs	r2, #128
 809 0168 1C4B     		ldr	r3, .L57+24
 810 016a 9A60     		str	r2, [r3, #8]
 811              	.LVL86:
 812              	.LBE87:
 813              	.LBE86:
 229:status_led_task.c ****                         redLedState = LED_TURN_OFF;
 814              		.loc 1 229 0
 815 016c 4FF0FF30 		mov	r0, #-1
 816 0170 FFF7FEFF 		bl	StatusLedRedTimerUpdate
 817              	.LVL87:
 230:status_led_task.c ****                     }
 818              		.loc 1 230 0
 819 0174 0222     		movs	r2, #2
 820 0176 154B     		ldr	r3, .L57+8
 821 0178 5A70     		strb	r2, [r3, #1]
 822 017a 47E7     		b	.L34
 823              	.L55:
 824              	.LVL88:
 825              	.LBB88:
 826              	.LBB89:
 144:uart_debug.h  **** 										.errorCode     = errCode};
 827              		.loc 2 144 0
 828 017c 184B     		ldr	r3, .L57+28
 829 017e 0193     		str	r3, [sp, #4]
 830 0180 0022     		movs	r2, #0
 831 0182 0292     		str	r2, [sp, #8]
ARM GAS  C:\Users\codyg\AppData\Local\Temp\cc52IIus.s 			page 43


 832              		.loc 2 146 0
 833 0184 1346     		mov	r3, r2
 834 0186 01A9     		add	r1, sp, #4
 835 0188 1248     		ldr	r0, .L57+16
 836 018a 0068     		ldr	r0, [r0]
 837 018c FFF7FEFF 		bl	xQueueGenericSend
 838              	.LVL89:
 839 0190 3CE7     		b	.L34
 840              	.LVL90:
 841              	.L47:
 842              	.LBE89:
 843              	.LBE88:
 241:status_led_task.c ****                                      "for Red LED received. Error Code:",
 844              		.loc 1 241 0
 845 0192 9DF80D30 		ldrb	r3, [sp, #13]	@ zero_extendqisi2
 846              	.LVL91:
 847              	.LBB90:
 848              	.LBB91:
 144:uart_debug.h  **** 										.errorCode     = errCode};
 849              		.loc 2 144 0
 850 0196 134A     		ldr	r2, .L57+32
 851 0198 0192     		str	r2, [sp, #4]
 852 019a 0293     		str	r3, [sp, #8]
 853              		.loc 2 146 0
 854 019c 0023     		movs	r3, #0
 855              	.LVL92:
 856 019e 1A46     		mov	r2, r3
 857 01a0 01A9     		add	r1, sp, #4
 858 01a2 0C48     		ldr	r0, .L57+16
 859 01a4 0068     		ldr	r0, [r0]
 860 01a6 FFF7FEFF 		bl	xQueueGenericSend
 861              	.LVL93:
 862 01aa 2FE7     		b	.L34
 863              	.LVL94:
 864              	.L36:
 865              	.LBE91:
 866              	.LBE90:
 867              	.LBB92:
 868              	.LBB93:
 144:uart_debug.h  **** 										.errorCode     = errCode};
 869              		.loc 2 144 0
 870 01ac 0E4B     		ldr	r3, .L57+36
 871 01ae 0193     		str	r3, [sp, #4]
 872 01b0 0022     		movs	r2, #0
 873 01b2 0292     		str	r2, [sp, #8]
 874              		.loc 2 146 0
 875 01b4 1346     		mov	r3, r2
 876 01b6 01A9     		add	r1, sp, #4
 877 01b8 0648     		ldr	r0, .L57+16
 878              	.LVL95:
 879 01ba 0068     		ldr	r0, [r0]
 880 01bc FFF7FEFF 		bl	xQueueGenericSend
 881              	.LVL96:
 882 01c0 24E7     		b	.L34
 883              	.L58:
 884 01c2 00BF     		.align	2
 885              	.L57:
ARM GAS  C:\Users\codyg\AppData\Local\Temp\cc52IIus.s 			page 44


 886 01c4 00000000 		.word	statusLedDataQ
 887 01c8 80003240 		.word	1077018752
 888 01cc 00000000 		.word	.LANCHOR0
 889 01d0 A8010000 		.word	.LC9
 890 01d4 00000000 		.word	debugMessageQ
 891 01d8 F0010000 		.word	.LC10
 892 01dc 80063240 		.word	1077020288
 893 01e0 3C020000 		.word	.LC11
 894 01e4 88020000 		.word	.LC12
 895 01e8 D4020000 		.word	.LC13
 896              	.LBE93:
 897              	.LBE92:
 898              		.cfi_endproc
 899              	.LFE714:
 900              		.size	Task_StatusLed, .-Task_StatusLed
 901              		.comm	xTimer_StatusLedOrange,4,4
 902              		.comm	xTimer_StatusLedRed,4,4
 903              		.comm	statusLedDataQ,4,4
 904              		.data
 905              		.set	.LANCHOR0,. + 0
 906              		.type	orangeLedState.20235, %object
 907              		.size	orangeLedState.20235, 1
 908              	orangeLedState.20235:
 909 0000 02       		.byte	2
 910              		.type	redLedState.20234, %object
 911              		.size	redLedState.20234, 1
 912              	redLedState.20234:
 913 0001 02       		.byte	2
 914              		.section	.rodata.str1.4,"aMS",%progbits,1
 915              		.align	2
 916              	.LC0:
 917 0000 52656420 		.ascii	"Red Status LED Timer\000"
 917      53746174 
 917      7573204C 
 917      45442054 
 917      696D6572 
 918 0015 000000   		.space	3
 919              	.LC1:
 920 0018 4661696C 		.ascii	"Failure! : Status LED  - Red LED Timer initializati"
 920      75726521 
 920      203A2053 
 920      74617475 
 920      73204C45 
 921 004b 6F6E00   		.ascii	"on\000"
 922 004e 0000     		.space	2
 923              	.LC2:
 924 0050 4661696C 		.ascii	"Failure! : Status LED  - Red LED Timer creation\000"
 924      75726521 
 924      203A2053 
 924      74617475 
 924      73204C45 
 925              	.LC3:
 926 0080 4661696C 		.ascii	"Failure! : Status LED - Sending data to Status LED "
 926      75726521 
 926      203A2053 
 926      74617475 
 926      73204C45 
ARM GAS  C:\Users\codyg\AppData\Local\Temp\cc52IIus.s 			page 45


 927 00b3 71756575 		.ascii	"queue\000"
 927      6500
 928 00b9 000000   		.space	3
 929              	.LC4:
 930 00bc 4F72616E 		.ascii	"Orange Status LED Timer\000"
 930      67652053 
 930      74617475 
 930      73204C45 
 930      44205469 
 931              	.LC5:
 932 00d4 4661696C 		.ascii	"Failure! : Status LED  - Orange LED Timer initializ"
 932      75726521 
 932      203A2053 
 932      74617475 
 932      73204C45 
 933 0107 6174696F 		.ascii	"ation\000"
 933      6E00
 934 010d 000000   		.space	3
 935              	.LC6:
 936 0110 4661696C 		.ascii	"Failure! : Status LED  - Orange LED Timer creation\000"
 936      75726521 
 936      203A2053 
 936      74617475 
 936      73204C45 
 937 0143 00       		.space	1
 938              	.LC7:
 939 0144 4661696C 		.ascii	"Failure! : Status LED - Orange LED Timer update \000"
 939      75726521 
 939      203A2053 
 939      74617475 
 939      73204C45 
 940 0175 000000   		.space	3
 941              	.LC8:
 942 0178 4661696C 		.ascii	"Failure! : Status LED - Red LED Timer update \000"
 942      75726521 
 942      203A2053 
 942      74617475 
 942      73204C45 
 943 01a6 0000     		.space	2
 944              	.LC9:
 945 01a8 4572726F 		.ascii	"Error!   : Status LED - refresh command for Red LED"
 945      72212020 
 945      203A2053 
 945      74617475 
 945      73204C45 
 946 01db 20647572 		.ascii	" during invalidstate\000"
 946      696E6720 
 946      696E7661 
 946      6C696473 
 946      74617465 
 947              	.LC10:
 948 01f0 4572726F 		.ascii	"Error!   : Status LED - Invalid  command for Red LE"
 948      72212020 
 948      203A2053 
 948      74617475 
 948      73204C45 
 949 0223 44207265 		.ascii	"D received. Error Code:\000"
ARM GAS  C:\Users\codyg\AppData\Local\Temp\cc52IIus.s 			page 46


 949      63656976 
 949      65642E20 
 949      4572726F 
 949      7220436F 
 950 023b 00       		.space	1
 951              	.LC11:
 952 023c 4572726F 		.ascii	"Error!   : Status LED - refresh command for Orange "
 952      72212020 
 952      203A2053 
 952      74617475 
 952      73204C45 
 953 026f 4C454420 		.ascii	"LED duringinvalid state\000"
 953      64757269 
 953      6E67696E 
 953      76616C69 
 953      64207374 
 954 0287 00       		.space	1
 955              	.LC12:
 956 0288 4572726F 		.ascii	"Error!   : Status LED - Invalid commandfor Red LED "
 956      72212020 
 956      203A2053 
 956      74617475 
 956      73204C45 
 957 02bb 72656365 		.ascii	"received. Error Code:\000"
 957      69766564 
 957      2E204572 
 957      726F7220 
 957      436F6465 
 958 02d1 000000   		.space	3
 959              	.LC13:
 960 02d4 5761726E 		.ascii	"Warning! : Status LED - Task Timed out \000"
 960      696E6721 
 960      203A2053 
 960      74617475 
 960      73204C45 
 961              		.text
 962              	.Letext0:
 963              		.file 4 "c:\\program files (x86)\\cypress\\psoc creator\\4.2\\psoc creator\\import\\gnu\\arm\\5.4.
 964              		.file 5 "c:\\program files (x86)\\cypress\\psoc creator\\4.2\\psoc creator\\import\\gnu\\arm\\5.4.
 965              		.file 6 "Generated_Source\\PSoC6\\pdl\\devices/psoc6/ip/cyip_gpio.h"
 966              		.file 7 "Generated_Source\\PSoC6\\pdl\\drivers/peripheral/syslib/cy_syslib.h"
 967              		.file 8 "Generated_Source\\PSoC6\\pdl\\drivers/peripheral/rtc/cy_rtc.h"
 968              		.file 9 "Generated_Source\\PSoC6\\pdl\\drivers/peripheral/tcpwm/cy_tcpwm_counter.h"
 969              		.file 10 "Generated_Source\\PSoC6\\pdl\\drivers/peripheral/scb/cy_scb_spi.h"
 970              		.file 11 "Generated_Source\\PSoC6\\pdl\\drivers/peripheral/scb/cy_scb_uart.h"
 971              		.file 12 "Generated_Source\\PSoC6\\pdl\\drivers/peripheral/sar/cy_sar.h"
 972              		.file 13 "Generated_Source\\PSoC6\\pdl\\middleware/ble/cy_ble_stack.h"
 973              		.file 14 "Generated_Source\\PSoC6\\pdl\\middleware/ble/cy_ble_stack_host_main.h"
 974              		.file 15 "Generated_Source\\PSoC6\\pdl\\middleware/ble/cy_ble_gap.h"
 975              		.file 16 "Generated_Source\\PSoC6\\pdl\\middleware/ble/cy_ble_dis.h"
 976              		.file 17 "Generated_Source\\PSoC6\\pdl\\middleware/ble/cy_ble_hts.h"
 977              		.file 18 "Generated_Source\\PSoC6\\pdl\\middleware/ble/cy_ble_event_handler.h"
 978              		.file 19 "Generated_Source\\PSoC6/ADC.h"
 979              		.file 20 "Generated_Source\\PSoC6\\pdl\\rtos/FreeRTOS/9.0.0/Source/portable/GCC/CM4F/portmacro.h"
 980              		.file 21 "Generated_Source\\PSoC6\\pdl\\rtos/FreeRTOS/9.0.0/Source/include/queue.h"
 981              		.file 22 "status_led_task.h"
 982              		.file 23 "Generated_Source\\PSoC6\\pdl\\rtos/FreeRTOS/9.0.0/Source/include/timers.h"
ARM GAS  C:\Users\codyg\AppData\Local\Temp\cc52IIus.s 			page 47


 983              		.file 24 "Generated_Source\\PSoC6\\pdl\\cmsis/include/core_cm4.h"
 984              		.file 25 "Generated_Source\\PSoC6/CY_EINK_SPIM.h"
 985              		.file 26 "Generated_Source\\PSoC6/DEBUG_UART.h"
 986              		.file 27 "Generated_Source\\PSoC6/Counter_ms.h"
 987              		.file 28 "Generated_Source\\PSoC6/Timer_PPG.h"
 988              		.file 29 "Generated_Source\\PSoC6/Timer_IMU.h"
 989              		.file 30 "Generated_Source\\PSoC6/RTC.h"
 990              		.file 31 "Generated_Source\\PSoC6\\pdl\\rtos/FreeRTOS/9.0.0/Source/include/task.h"
 991              		.section	.debug_info,"",%progbits
 992              	.Ldebug_info0:
 993 0000 3F180000 		.4byte	0x183f
 994 0004 0400     		.2byte	0x4
 995 0006 00000000 		.4byte	.Ldebug_abbrev0
 996 000a 04       		.byte	0x4
 997 000b 01       		.uleb128 0x1
 998 000c EF040000 		.4byte	.LASF344
 999 0010 0C       		.byte	0xc
 1000 0011 720A0000 		.4byte	.LASF345
 1001 0015 9A100000 		.4byte	.LASF346
 1002 0019 00000000 		.4byte	.Ldebug_ranges0+0
 1003 001d 00000000 		.4byte	0
 1004 0021 00000000 		.4byte	.Ldebug_line0
 1005 0025 02       		.uleb128 0x2
 1006 0026 02       		.byte	0x2
 1007 0027 05       		.byte	0x5
 1008 0028 F5150000 		.4byte	.LASF0
 1009 002c 02       		.uleb128 0x2
 1010 002d 01       		.byte	0x1
 1011 002e 06       		.byte	0x6
 1012 002f 721C0000 		.4byte	.LASF1
 1013 0033 03       		.uleb128 0x3
 1014 0034 40180000 		.4byte	.LASF4
 1015 0038 04       		.byte	0x4
 1016 0039 1D       		.byte	0x1d
 1017 003a 3E000000 		.4byte	0x3e
 1018 003e 02       		.uleb128 0x2
 1019 003f 01       		.byte	0x1
 1020 0040 08       		.byte	0x8
 1021 0041 5B1A0000 		.4byte	.LASF2
 1022 0045 02       		.uleb128 0x2
 1023 0046 02       		.byte	0x2
 1024 0047 07       		.byte	0x7
 1025 0048 851C0000 		.4byte	.LASF3
 1026 004c 03       		.uleb128 0x3
 1027 004d F2020000 		.4byte	.LASF5
 1028 0051 04       		.byte	0x4
 1029 0052 3F       		.byte	0x3f
 1030 0053 57000000 		.4byte	0x57
 1031 0057 02       		.uleb128 0x2
 1032 0058 04       		.byte	0x4
 1033 0059 05       		.byte	0x5
 1034 005a 45160000 		.4byte	.LASF6
 1035 005e 03       		.uleb128 0x3
 1036 005f 8E1A0000 		.4byte	.LASF7
 1037 0063 04       		.byte	0x4
 1038 0064 41       		.byte	0x41
 1039 0065 69000000 		.4byte	0x69
ARM GAS  C:\Users\codyg\AppData\Local\Temp\cc52IIus.s 			page 48


 1040 0069 02       		.uleb128 0x2
 1041 006a 04       		.byte	0x4
 1042 006b 07       		.byte	0x7
 1043 006c 96190000 		.4byte	.LASF8
 1044 0070 02       		.uleb128 0x2
 1045 0071 08       		.byte	0x8
 1046 0072 05       		.byte	0x5
 1047 0073 0B100000 		.4byte	.LASF9
 1048 0077 02       		.uleb128 0x2
 1049 0078 08       		.byte	0x8
 1050 0079 07       		.byte	0x7
 1051 007a 80080000 		.4byte	.LASF10
 1052 007e 04       		.uleb128 0x4
 1053 007f 04       		.byte	0x4
 1054 0080 05       		.byte	0x5
 1055 0081 696E7400 		.ascii	"int\000"
 1056 0085 02       		.uleb128 0x2
 1057 0086 04       		.byte	0x4
 1058 0087 07       		.byte	0x7
 1059 0088 40020000 		.4byte	.LASF11
 1060 008c 03       		.uleb128 0x3
 1061 008d 8F0E0000 		.4byte	.LASF12
 1062 0091 05       		.byte	0x5
 1063 0092 18       		.byte	0x18
 1064 0093 33000000 		.4byte	0x33
 1065 0097 03       		.uleb128 0x3
 1066 0098 AE190000 		.4byte	.LASF13
 1067 009c 05       		.byte	0x5
 1068 009d 2C       		.byte	0x2c
 1069 009e 4C000000 		.4byte	0x4c
 1070 00a2 03       		.uleb128 0x3
 1071 00a3 16070000 		.4byte	.LASF14
 1072 00a7 05       		.byte	0x5
 1073 00a8 30       		.byte	0x30
 1074 00a9 5E000000 		.4byte	0x5e
 1075 00ad 02       		.uleb128 0x2
 1076 00ae 04       		.byte	0x4
 1077 00af 07       		.byte	0x7
 1078 00b0 8D190000 		.4byte	.LASF15
 1079 00b4 05       		.uleb128 0x5
 1080 00b5 A2000000 		.4byte	0xa2
 1081 00b9 06       		.uleb128 0x6
 1082 00ba B4000000 		.4byte	0xb4
 1083 00be 07       		.uleb128 0x7
 1084 00bf B9000000 		.4byte	0xb9
 1085 00c3 CE000000 		.4byte	0xce
 1086 00c7 08       		.uleb128 0x8
 1087 00c8 AD000000 		.4byte	0xad
 1088 00cc 0F       		.byte	0xf
 1089 00cd 00       		.byte	0
 1090 00ce 09       		.uleb128 0x9
 1091 00cf 80       		.byte	0x80
 1092 00d0 06       		.byte	0x6
 1093 00d1 22       		.byte	0x22
 1094 00d2 A2010000 		.4byte	0x1a2
 1095 00d6 0A       		.uleb128 0xa
 1096 00d7 4F555400 		.ascii	"OUT\000"
ARM GAS  C:\Users\codyg\AppData\Local\Temp\cc52IIus.s 			page 49


 1097 00db 06       		.byte	0x6
 1098 00dc 23       		.byte	0x23
 1099 00dd B4000000 		.4byte	0xb4
 1100 00e1 00       		.byte	0
 1101 00e2 0B       		.uleb128 0xb
 1102 00e3 26080000 		.4byte	.LASF16
 1103 00e7 06       		.byte	0x6
 1104 00e8 24       		.byte	0x24
 1105 00e9 B4000000 		.4byte	0xb4
 1106 00ed 04       		.byte	0x4
 1107 00ee 0B       		.uleb128 0xb
 1108 00ef CC030000 		.4byte	.LASF17
 1109 00f3 06       		.byte	0x6
 1110 00f4 25       		.byte	0x25
 1111 00f5 B4000000 		.4byte	0xb4
 1112 00f9 08       		.byte	0x8
 1113 00fa 0B       		.uleb128 0xb
 1114 00fb 38180000 		.4byte	.LASF18
 1115 00ff 06       		.byte	0x6
 1116 0100 26       		.byte	0x26
 1117 0101 B4000000 		.4byte	0xb4
 1118 0105 0C       		.byte	0xc
 1119 0106 0A       		.uleb128 0xa
 1120 0107 494E00   		.ascii	"IN\000"
 1121 010a 06       		.byte	0x6
 1122 010b 27       		.byte	0x27
 1123 010c B9000000 		.4byte	0xb9
 1124 0110 10       		.byte	0x10
 1125 0111 0B       		.uleb128 0xb
 1126 0112 E90B0000 		.4byte	.LASF19
 1127 0116 06       		.byte	0x6
 1128 0117 28       		.byte	0x28
 1129 0118 B4000000 		.4byte	0xb4
 1130 011c 14       		.byte	0x14
 1131 011d 0B       		.uleb128 0xb
 1132 011e 3B0C0000 		.4byte	.LASF20
 1133 0122 06       		.byte	0x6
 1134 0123 29       		.byte	0x29
 1135 0124 B4000000 		.4byte	0xb4
 1136 0128 18       		.byte	0x18
 1137 0129 0B       		.uleb128 0xb
 1138 012a 12190000 		.4byte	.LASF21
 1139 012e 06       		.byte	0x6
 1140 012f 2A       		.byte	0x2a
 1141 0130 B9000000 		.4byte	0xb9
 1142 0134 1C       		.byte	0x1c
 1143 0135 0B       		.uleb128 0xb
 1144 0136 37040000 		.4byte	.LASF22
 1145 013a 06       		.byte	0x6
 1146 013b 2B       		.byte	0x2b
 1147 013c B4000000 		.4byte	0xb4
 1148 0140 20       		.byte	0x20
 1149 0141 0B       		.uleb128 0xb
 1150 0142 C51A0000 		.4byte	.LASF23
 1151 0146 06       		.byte	0x6
 1152 0147 2C       		.byte	0x2c
 1153 0148 B4000000 		.4byte	0xb4
ARM GAS  C:\Users\codyg\AppData\Local\Temp\cc52IIus.s 			page 50


 1154 014c 24       		.byte	0x24
 1155 014d 0A       		.uleb128 0xa
 1156 014e 43464700 		.ascii	"CFG\000"
 1157 0152 06       		.byte	0x6
 1158 0153 2D       		.byte	0x2d
 1159 0154 B4000000 		.4byte	0xb4
 1160 0158 28       		.byte	0x28
 1161 0159 0B       		.uleb128 0xb
 1162 015a A6060000 		.4byte	.LASF24
 1163 015e 06       		.byte	0x6
 1164 015f 2E       		.byte	0x2e
 1165 0160 B4000000 		.4byte	0xb4
 1166 0164 2C       		.byte	0x2c
 1167 0165 0B       		.uleb128 0xb
 1168 0166 CF090000 		.4byte	.LASF25
 1169 016a 06       		.byte	0x6
 1170 016b 2F       		.byte	0x2f
 1171 016c B4000000 		.4byte	0xb4
 1172 0170 30       		.byte	0x30
 1173 0171 0B       		.uleb128 0xb
 1174 0172 8D1D0000 		.4byte	.LASF26
 1175 0176 06       		.byte	0x6
 1176 0177 30       		.byte	0x30
 1177 0178 B4000000 		.4byte	0xb4
 1178 017c 34       		.byte	0x34
 1179 017d 0B       		.uleb128 0xb
 1180 017e 26000000 		.4byte	.LASF27
 1181 0182 06       		.byte	0x6
 1182 0183 31       		.byte	0x31
 1183 0184 B9000000 		.4byte	0xb9
 1184 0188 38       		.byte	0x38
 1185 0189 0B       		.uleb128 0xb
 1186 018a 5E170000 		.4byte	.LASF28
 1187 018e 06       		.byte	0x6
 1188 018f 32       		.byte	0x32
 1189 0190 B4000000 		.4byte	0xb4
 1190 0194 3C       		.byte	0x3c
 1191 0195 0B       		.uleb128 0xb
 1192 0196 CE150000 		.4byte	.LASF29
 1193 019a 06       		.byte	0x6
 1194 019b 33       		.byte	0x33
 1195 019c A7010000 		.4byte	0x1a7
 1196 01a0 40       		.byte	0x40
 1197 01a1 00       		.byte	0
 1198 01a2 05       		.uleb128 0x5
 1199 01a3 BE000000 		.4byte	0xbe
 1200 01a7 06       		.uleb128 0x6
 1201 01a8 A2010000 		.4byte	0x1a2
 1202 01ac 03       		.uleb128 0x3
 1203 01ad EE0B0000 		.4byte	.LASF30
 1204 01b1 06       		.byte	0x6
 1205 01b2 34       		.byte	0x34
 1206 01b3 CE000000 		.4byte	0xce
 1207 01b7 0C       		.uleb128 0xc
 1208 01b8 2440     		.2byte	0x4024
 1209 01ba 06       		.byte	0x6
 1210 01bb 39       		.byte	0x39
ARM GAS  C:\Users\codyg\AppData\Local\Temp\cc52IIus.s 			page 51


 1211 01bc 42020000 		.4byte	0x242
 1212 01c0 0A       		.uleb128 0xa
 1213 01c1 50525400 		.ascii	"PRT\000"
 1214 01c5 06       		.byte	0x6
 1215 01c6 3A       		.byte	0x3a
 1216 01c7 42020000 		.4byte	0x242
 1217 01cb 00       		.byte	0
 1218 01cc 0D       		.uleb128 0xd
 1219 01cd 3A000000 		.4byte	.LASF31
 1220 01d1 06       		.byte	0x6
 1221 01d2 3B       		.byte	0x3b
 1222 01d3 B9000000 		.4byte	0xb9
 1223 01d7 0040     		.2byte	0x4000
 1224 01d9 0D       		.uleb128 0xd
 1225 01da 46000000 		.4byte	.LASF32
 1226 01de 06       		.byte	0x6
 1227 01df 3C       		.byte	0x3c
 1228 01e0 B9000000 		.4byte	0xb9
 1229 01e4 0440     		.2byte	0x4004
 1230 01e6 0D       		.uleb128 0xd
 1231 01e7 000F0000 		.4byte	.LASF33
 1232 01eb 06       		.byte	0x6
 1233 01ec 3D       		.byte	0x3d
 1234 01ed B9000000 		.4byte	0xb9
 1235 01f1 0840     		.2byte	0x4008
 1236 01f3 0D       		.uleb128 0xd
 1237 01f4 0C0F0000 		.4byte	.LASF34
 1238 01f8 06       		.byte	0x6
 1239 01f9 3E       		.byte	0x3e
 1240 01fa B9000000 		.4byte	0xb9
 1241 01fe 0C40     		.2byte	0x400c
 1242 0200 0D       		.uleb128 0xd
 1243 0201 2F000000 		.4byte	.LASF35
 1244 0205 06       		.byte	0x6
 1245 0206 3F       		.byte	0x3f
 1246 0207 B9000000 		.4byte	0xb9
 1247 020b 1040     		.2byte	0x4010
 1248 020d 0D       		.uleb128 0xd
 1249 020e 0A0B0000 		.4byte	.LASF36
 1250 0212 06       		.byte	0x6
 1251 0213 40       		.byte	0x40
 1252 0214 B4000000 		.4byte	0xb4
 1253 0218 1440     		.2byte	0x4014
 1254 021a 0D       		.uleb128 0xd
 1255 021b 641C0000 		.4byte	.LASF37
 1256 021f 06       		.byte	0x6
 1257 0220 41       		.byte	0x41
 1258 0221 B4000000 		.4byte	0xb4
 1259 0225 1840     		.2byte	0x4018
 1260 0227 0D       		.uleb128 0xd
 1261 0228 1A110000 		.4byte	.LASF38
 1262 022c 06       		.byte	0x6
 1263 022d 42       		.byte	0x42
 1264 022e B9000000 		.4byte	0xb9
 1265 0232 1C40     		.2byte	0x401c
 1266 0234 0D       		.uleb128 0xd
 1267 0235 1A140000 		.4byte	.LASF39
ARM GAS  C:\Users\codyg\AppData\Local\Temp\cc52IIus.s 			page 52


 1268 0239 06       		.byte	0x6
 1269 023a 43       		.byte	0x43
 1270 023b B4000000 		.4byte	0xb4
 1271 023f 2040     		.2byte	0x4020
 1272 0241 00       		.byte	0
 1273 0242 07       		.uleb128 0x7
 1274 0243 AC010000 		.4byte	0x1ac
 1275 0247 52020000 		.4byte	0x252
 1276 024b 08       		.uleb128 0x8
 1277 024c AD000000 		.4byte	0xad
 1278 0250 7F       		.byte	0x7f
 1279 0251 00       		.byte	0
 1280 0252 03       		.uleb128 0x3
 1281 0253 991A0000 		.4byte	.LASF40
 1282 0257 06       		.byte	0x6
 1283 0258 44       		.byte	0x44
 1284 0259 B7010000 		.4byte	0x1b7
 1285 025d 02       		.uleb128 0x2
 1286 025e 08       		.byte	0x8
 1287 025f 04       		.byte	0x4
 1288 0260 E5130000 		.4byte	.LASF41
 1289 0264 0E       		.uleb128 0xe
 1290 0265 1C170000 		.4byte	.LASF42
 1291 0269 07       		.byte	0x7
 1292 026a C401     		.2byte	0x1c4
 1293 026c 70020000 		.4byte	0x270
 1294 0270 02       		.uleb128 0x2
 1295 0271 01       		.byte	0x1
 1296 0272 08       		.byte	0x8
 1297 0273 100D0000 		.4byte	.LASF43
 1298 0277 02       		.uleb128 0x2
 1299 0278 04       		.byte	0x4
 1300 0279 04       		.byte	0x4
 1301 027a A8190000 		.4byte	.LASF44
 1302 027e 02       		.uleb128 0x2
 1303 027f 08       		.byte	0x8
 1304 0280 04       		.byte	0x4
 1305 0281 B20A0000 		.4byte	.LASF45
 1306 0285 0F       		.uleb128 0xf
 1307 0286 04       		.byte	0x4
 1308 0287 02       		.uleb128 0x2
 1309 0288 01       		.byte	0x1
 1310 0289 02       		.byte	0x2
 1311 028a B90A0000 		.4byte	.LASF46
 1312 028e 10       		.uleb128 0x10
 1313 028f 01       		.byte	0x1
 1314 0290 3E000000 		.4byte	0x3e
 1315 0294 08       		.byte	0x8
 1316 0295 6A01     		.2byte	0x16a
 1317 0297 A8020000 		.4byte	0x2a8
 1318 029b 11       		.uleb128 0x11
 1319 029c AD0E0000 		.4byte	.LASF47
 1320 02a0 00       		.byte	0
 1321 02a1 11       		.uleb128 0x11
 1322 02a2 26030000 		.4byte	.LASF48
 1323 02a6 01       		.byte	0x1
 1324 02a7 00       		.byte	0
ARM GAS  C:\Users\codyg\AppData\Local\Temp\cc52IIus.s 			page 53


 1325 02a8 0E       		.uleb128 0xe
 1326 02a9 F4080000 		.4byte	.LASF49
 1327 02ad 08       		.byte	0x8
 1328 02ae 6D01     		.2byte	0x16d
 1329 02b0 8E020000 		.4byte	0x28e
 1330 02b4 12       		.uleb128 0x12
 1331 02b5 18       		.byte	0x18
 1332 02b6 08       		.byte	0x8
 1333 02b7 CE01     		.2byte	0x1ce
 1334 02b9 0C030000 		.4byte	0x30c
 1335 02bd 13       		.uleb128 0x13
 1336 02be 8D010000 		.4byte	.LASF50
 1337 02c2 08       		.byte	0x8
 1338 02c3 D001     		.2byte	0x1d0
 1339 02c5 A8020000 		.4byte	0x2a8
 1340 02c9 00       		.byte	0
 1341 02ca 13       		.uleb128 0x13
 1342 02cb 200C0000 		.4byte	.LASF51
 1343 02cf 08       		.byte	0x8
 1344 02d0 D301     		.2byte	0x1d3
 1345 02d2 A2000000 		.4byte	0xa2
 1346 02d6 04       		.byte	0x4
 1347 02d7 13       		.uleb128 0x13
 1348 02d8 11020000 		.4byte	.LASF52
 1349 02dc 08       		.byte	0x8
 1350 02dd D501     		.2byte	0x1d5
 1351 02df A2000000 		.4byte	0xa2
 1352 02e3 08       		.byte	0x8
 1353 02e4 13       		.uleb128 0x13
 1354 02e5 DC0A0000 		.4byte	.LASF53
 1355 02e9 08       		.byte	0x8
 1356 02ea D801     		.2byte	0x1d8
 1357 02ec A2000000 		.4byte	0xa2
 1358 02f0 0C       		.byte	0xc
 1359 02f1 13       		.uleb128 0x13
 1360 02f2 6C170000 		.4byte	.LASF54
 1361 02f6 08       		.byte	0x8
 1362 02f7 DC01     		.2byte	0x1dc
 1363 02f9 A2000000 		.4byte	0xa2
 1364 02fd 10       		.byte	0x10
 1365 02fe 13       		.uleb128 0x13
 1366 02ff D60A0000 		.4byte	.LASF55
 1367 0303 08       		.byte	0x8
 1368 0304 E001     		.2byte	0x1e0
 1369 0306 A2000000 		.4byte	0xa2
 1370 030a 14       		.byte	0x14
 1371 030b 00       		.byte	0
 1372 030c 0E       		.uleb128 0xe
 1373 030d 8A020000 		.4byte	.LASF56
 1374 0311 08       		.byte	0x8
 1375 0312 E201     		.2byte	0x1e2
 1376 0314 B4020000 		.4byte	0x2b4
 1377 0318 12       		.uleb128 0x12
 1378 0319 30       		.byte	0x30
 1379 031a 08       		.byte	0x8
 1380 031b E501     		.2byte	0x1e5
 1381 031d 3C030000 		.4byte	0x33c
ARM GAS  C:\Users\codyg\AppData\Local\Temp\cc52IIus.s 			page 54


 1382 0321 13       		.uleb128 0x13
 1383 0322 6E0D0000 		.4byte	.LASF57
 1384 0326 08       		.byte	0x8
 1385 0327 E701     		.2byte	0x1e7
 1386 0329 0C030000 		.4byte	0x30c
 1387 032d 00       		.byte	0
 1388 032e 13       		.uleb128 0x13
 1389 032f BF0A0000 		.4byte	.LASF58
 1390 0333 08       		.byte	0x8
 1391 0334 E801     		.2byte	0x1e8
 1392 0336 0C030000 		.4byte	0x30c
 1393 033a 18       		.byte	0x18
 1394 033b 00       		.byte	0
 1395 033c 0E       		.uleb128 0xe
 1396 033d 15030000 		.4byte	.LASF59
 1397 0341 08       		.byte	0x8
 1398 0342 E901     		.2byte	0x1e9
 1399 0344 18030000 		.4byte	0x318
 1400 0348 14       		.uleb128 0x14
 1401 0349 A61C0000 		.4byte	.LASF81
 1402 034d 4C       		.byte	0x4c
 1403 034e 09       		.byte	0x9
 1404 034f 2B       		.byte	0x2b
 1405 0350 39040000 		.4byte	0x439
 1406 0354 0B       		.uleb128 0xb
 1407 0355 7E1C0000 		.4byte	.LASF60
 1408 0359 09       		.byte	0x9
 1409 035a 2D       		.byte	0x2d
 1410 035b A2000000 		.4byte	0xa2
 1411 035f 00       		.byte	0
 1412 0360 0B       		.uleb128 0xb
 1413 0361 D20D0000 		.4byte	.LASF61
 1414 0365 09       		.byte	0x9
 1415 0366 2F       		.byte	0x2f
 1416 0367 A2000000 		.4byte	0xa2
 1417 036b 04       		.byte	0x4
 1418 036c 0B       		.uleb128 0xb
 1419 036d 27140000 		.4byte	.LASF62
 1420 0371 09       		.byte	0x9
 1421 0372 30       		.byte	0x30
 1422 0373 A2000000 		.4byte	0xa2
 1423 0377 08       		.byte	0x8
 1424 0378 0B       		.uleb128 0xb
 1425 0379 DE160000 		.4byte	.LASF63
 1426 037d 09       		.byte	0x9
 1427 037e 31       		.byte	0x31
 1428 037f A2000000 		.4byte	0xa2
 1429 0383 0C       		.byte	0xc
 1430 0384 0B       		.uleb128 0xb
 1431 0385 BD150000 		.4byte	.LASF64
 1432 0389 09       		.byte	0x9
 1433 038a 33       		.byte	0x33
 1434 038b A2000000 		.4byte	0xa2
 1435 038f 10       		.byte	0x10
 1436 0390 0B       		.uleb128 0xb
 1437 0391 DD040000 		.4byte	.LASF65
 1438 0395 09       		.byte	0x9
ARM GAS  C:\Users\codyg\AppData\Local\Temp\cc52IIus.s 			page 55


 1439 0396 34       		.byte	0x34
 1440 0397 A2000000 		.4byte	0xa2
 1441 039b 14       		.byte	0x14
 1442 039c 0B       		.uleb128 0xb
 1443 039d E6040000 		.4byte	.LASF66
 1444 03a1 09       		.byte	0x9
 1445 03a2 35       		.byte	0x35
 1446 03a3 A2000000 		.4byte	0xa2
 1447 03a7 18       		.byte	0x18
 1448 03a8 0B       		.uleb128 0xb
 1449 03a9 26160000 		.4byte	.LASF67
 1450 03ad 09       		.byte	0x9
 1451 03ae 36       		.byte	0x36
 1452 03af 87020000 		.4byte	0x287
 1453 03b3 1C       		.byte	0x1c
 1454 03b4 0B       		.uleb128 0xb
 1455 03b5 E6060000 		.4byte	.LASF68
 1456 03b9 09       		.byte	0x9
 1457 03ba 38       		.byte	0x38
 1458 03bb A2000000 		.4byte	0xa2
 1459 03bf 20       		.byte	0x20
 1460 03c0 0B       		.uleb128 0xb
 1461 03c1 94090000 		.4byte	.LASF69
 1462 03c5 09       		.byte	0x9
 1463 03c6 39       		.byte	0x39
 1464 03c7 A2000000 		.4byte	0xa2
 1465 03cb 24       		.byte	0x24
 1466 03cc 0B       		.uleb128 0xb
 1467 03cd EB0C0000 		.4byte	.LASF70
 1468 03d1 09       		.byte	0x9
 1469 03d2 3B       		.byte	0x3b
 1470 03d3 A2000000 		.4byte	0xa2
 1471 03d7 28       		.byte	0x28
 1472 03d8 0B       		.uleb128 0xb
 1473 03d9 82110000 		.4byte	.LASF71
 1474 03dd 09       		.byte	0x9
 1475 03de 3C       		.byte	0x3c
 1476 03df A2000000 		.4byte	0xa2
 1477 03e3 2C       		.byte	0x2c
 1478 03e4 0B       		.uleb128 0xb
 1479 03e5 43080000 		.4byte	.LASF72
 1480 03e9 09       		.byte	0x9
 1481 03ea 3E       		.byte	0x3e
 1482 03eb A2000000 		.4byte	0xa2
 1483 03ef 30       		.byte	0x30
 1484 03f0 0B       		.uleb128 0xb
 1485 03f1 85090000 		.4byte	.LASF73
 1486 03f5 09       		.byte	0x9
 1487 03f6 3F       		.byte	0x3f
 1488 03f7 A2000000 		.4byte	0xa2
 1489 03fb 34       		.byte	0x34
 1490 03fc 0B       		.uleb128 0xb
 1491 03fd E7020000 		.4byte	.LASF74
 1492 0401 09       		.byte	0x9
 1493 0402 41       		.byte	0x41
 1494 0403 A2000000 		.4byte	0xa2
 1495 0407 38       		.byte	0x38
ARM GAS  C:\Users\codyg\AppData\Local\Temp\cc52IIus.s 			page 56


 1496 0408 0B       		.uleb128 0xb
 1497 0409 90000000 		.4byte	.LASF75
 1498 040d 09       		.byte	0x9
 1499 040e 42       		.byte	0x42
 1500 040f A2000000 		.4byte	0xa2
 1501 0413 3C       		.byte	0x3c
 1502 0414 0B       		.uleb128 0xb
 1503 0415 D4030000 		.4byte	.LASF76
 1504 0419 09       		.byte	0x9
 1505 041a 44       		.byte	0x44
 1506 041b A2000000 		.4byte	0xa2
 1507 041f 40       		.byte	0x40
 1508 0420 0B       		.uleb128 0xb
 1509 0421 5B160000 		.4byte	.LASF77
 1510 0425 09       		.byte	0x9
 1511 0426 45       		.byte	0x45
 1512 0427 A2000000 		.4byte	0xa2
 1513 042b 44       		.byte	0x44
 1514 042c 0B       		.uleb128 0xb
 1515 042d BA1A0000 		.4byte	.LASF78
 1516 0431 09       		.byte	0x9
 1517 0432 47       		.byte	0x47
 1518 0433 A2000000 		.4byte	0xa2
 1519 0437 48       		.byte	0x48
 1520 0438 00       		.byte	0
 1521 0439 03       		.uleb128 0x3
 1522 043a 75140000 		.4byte	.LASF79
 1523 043e 09       		.byte	0x9
 1524 043f 48       		.byte	0x48
 1525 0440 48030000 		.4byte	0x348
 1526 0444 15       		.uleb128 0x15
 1527 0445 04       		.byte	0x4
 1528 0446 4A040000 		.4byte	0x44a
 1529 044a 16       		.uleb128 0x16
 1530 044b 55040000 		.4byte	0x455
 1531 044f 17       		.uleb128 0x17
 1532 0450 A2000000 		.4byte	0xa2
 1533 0454 00       		.byte	0
 1534 0455 0E       		.uleb128 0xe
 1535 0456 72000000 		.4byte	.LASF80
 1536 045a 0A       		.byte	0xa
 1537 045b BF01     		.2byte	0x1bf
 1538 045d 44040000 		.4byte	0x444
 1539 0461 18       		.uleb128 0x18
 1540 0462 641B0000 		.4byte	.LASF82
 1541 0466 24       		.byte	0x24
 1542 0467 0A       		.byte	0xa
 1543 0468 4102     		.2byte	0x241
 1544 046a E4040000 		.4byte	0x4e4
 1545 046e 13       		.uleb128 0x13
 1546 046f 970E0000 		.4byte	.LASF83
 1547 0473 0A       		.byte	0xa
 1548 0474 4402     		.2byte	0x244
 1549 0476 B4000000 		.4byte	0xb4
 1550 047a 00       		.byte	0
 1551 047b 13       		.uleb128 0x13
 1552 047c E0090000 		.4byte	.LASF84
ARM GAS  C:\Users\codyg\AppData\Local\Temp\cc52IIus.s 			page 57


 1553 0480 0A       		.byte	0xa
 1554 0481 4602     		.2byte	0x246
 1555 0483 85020000 		.4byte	0x285
 1556 0487 04       		.byte	0x4
 1557 0488 13       		.uleb128 0x13
 1558 0489 8B1E0000 		.4byte	.LASF85
 1559 048d 0A       		.byte	0xa
 1560 048e 4702     		.2byte	0x247
 1561 0490 A2000000 		.4byte	0xa2
 1562 0494 08       		.byte	0x8
 1563 0495 13       		.uleb128 0x13
 1564 0496 460E0000 		.4byte	.LASF86
 1565 049a 0A       		.byte	0xa
 1566 049b 4802     		.2byte	0x248
 1567 049d B4000000 		.4byte	0xb4
 1568 04a1 0C       		.byte	0xc
 1569 04a2 13       		.uleb128 0x13
 1570 04a3 49130000 		.4byte	.LASF87
 1571 04a7 0A       		.byte	0xa
 1572 04a8 4A02     		.2byte	0x24a
 1573 04aa 85020000 		.4byte	0x285
 1574 04ae 10       		.byte	0x10
 1575 04af 13       		.uleb128 0x13
 1576 04b0 0D120000 		.4byte	.LASF88
 1577 04b4 0A       		.byte	0xa
 1578 04b5 4B02     		.2byte	0x24b
 1579 04b7 A2000000 		.4byte	0xa2
 1580 04bb 14       		.byte	0x14
 1581 04bc 13       		.uleb128 0x13
 1582 04bd C5020000 		.4byte	.LASF89
 1583 04c1 0A       		.byte	0xa
 1584 04c2 4C02     		.2byte	0x24c
 1585 04c4 B4000000 		.4byte	0xb4
 1586 04c8 18       		.byte	0x18
 1587 04c9 13       		.uleb128 0x13
 1588 04ca 910A0000 		.4byte	.LASF90
 1589 04ce 0A       		.byte	0xa
 1590 04cf 5202     		.2byte	0x252
 1591 04d1 55040000 		.4byte	0x455
 1592 04d5 1C       		.byte	0x1c
 1593 04d6 13       		.uleb128 0x13
 1594 04d7 870E0000 		.4byte	.LASF91
 1595 04db 0A       		.byte	0xa
 1596 04dc 5502     		.2byte	0x255
 1597 04de A2000000 		.4byte	0xa2
 1598 04e2 20       		.byte	0x20
 1599 04e3 00       		.byte	0
 1600 04e4 0E       		.uleb128 0xe
 1601 04e5 5B110000 		.4byte	.LASF92
 1602 04e9 0A       		.byte	0xa
 1603 04ea 5802     		.2byte	0x258
 1604 04ec 61040000 		.4byte	0x461
 1605 04f0 0E       		.uleb128 0xe
 1606 04f1 9D0F0000 		.4byte	.LASF93
 1607 04f5 0B       		.byte	0xb
 1608 04f6 AB01     		.2byte	0x1ab
 1609 04f8 44040000 		.4byte	0x444
ARM GAS  C:\Users\codyg\AppData\Local\Temp\cc52IIus.s 			page 58


 1610 04fc 18       		.uleb128 0x18
 1611 04fd 0E080000 		.4byte	.LASF94
 1612 0501 38       		.byte	0x38
 1613 0502 0B       		.byte	0xb
 1614 0503 4702     		.2byte	0x247
 1615 0505 C0050000 		.4byte	0x5c0
 1616 0509 13       		.uleb128 0x13
 1617 050a B8010000 		.4byte	.LASF95
 1618 050e 0B       		.byte	0xb
 1619 050f 4A02     		.2byte	0x24a
 1620 0511 B4000000 		.4byte	0xb4
 1621 0515 00       		.byte	0
 1622 0516 13       		.uleb128 0x13
 1623 0517 D7090000 		.4byte	.LASF96
 1624 051b 0B       		.byte	0xb
 1625 051c 4B02     		.2byte	0x24b
 1626 051e B4000000 		.4byte	0xb4
 1627 0522 04       		.byte	0x4
 1628 0523 13       		.uleb128 0x13
 1629 0524 DB130000 		.4byte	.LASF97
 1630 0528 0B       		.byte	0xb
 1631 0529 4D02     		.2byte	0x24d
 1632 052b 85020000 		.4byte	0x285
 1633 052f 08       		.byte	0x8
 1634 0530 13       		.uleb128 0x13
 1635 0531 DE030000 		.4byte	.LASF98
 1636 0535 0B       		.byte	0xb
 1637 0536 4E02     		.2byte	0x24e
 1638 0538 A2000000 		.4byte	0xa2
 1639 053c 0C       		.byte	0xc
 1640 053d 13       		.uleb128 0x13
 1641 053e 74110000 		.4byte	.LASF99
 1642 0542 0B       		.byte	0xb
 1643 0543 4F02     		.2byte	0x24f
 1644 0545 B4000000 		.4byte	0xb4
 1645 0549 10       		.byte	0x10
 1646 054a 13       		.uleb128 0x13
 1647 054b 600D0000 		.4byte	.LASF100
 1648 054f 0B       		.byte	0xb
 1649 0550 5002     		.2byte	0x250
 1650 0552 B4000000 		.4byte	0xb4
 1651 0556 14       		.byte	0x14
 1652 0557 13       		.uleb128 0x13
 1653 0558 E0090000 		.4byte	.LASF84
 1654 055c 0B       		.byte	0xb
 1655 055d 5202     		.2byte	0x252
 1656 055f 85020000 		.4byte	0x285
 1657 0563 18       		.byte	0x18
 1658 0564 13       		.uleb128 0x13
 1659 0565 8B1E0000 		.4byte	.LASF85
 1660 0569 0B       		.byte	0xb
 1661 056a 5302     		.2byte	0x253
 1662 056c A2000000 		.4byte	0xa2
 1663 0570 1C       		.byte	0x1c
 1664 0571 13       		.uleb128 0x13
 1665 0572 460E0000 		.4byte	.LASF86
 1666 0576 0B       		.byte	0xb
ARM GAS  C:\Users\codyg\AppData\Local\Temp\cc52IIus.s 			page 59


 1667 0577 5402     		.2byte	0x254
 1668 0579 B4000000 		.4byte	0xb4
 1669 057d 20       		.byte	0x20
 1670 057e 13       		.uleb128 0x13
 1671 057f 49130000 		.4byte	.LASF87
 1672 0583 0B       		.byte	0xb
 1673 0584 5602     		.2byte	0x256
 1674 0586 85020000 		.4byte	0x285
 1675 058a 24       		.byte	0x24
 1676 058b 13       		.uleb128 0x13
 1677 058c 0D120000 		.4byte	.LASF88
 1678 0590 0B       		.byte	0xb
 1679 0591 5702     		.2byte	0x257
 1680 0593 A2000000 		.4byte	0xa2
 1681 0597 28       		.byte	0x28
 1682 0598 13       		.uleb128 0x13
 1683 0599 B7170000 		.4byte	.LASF101
 1684 059d 0B       		.byte	0xb
 1685 059e 5802     		.2byte	0x258
 1686 05a0 B4000000 		.4byte	0xb4
 1687 05a4 2C       		.byte	0x2c
 1688 05a5 13       		.uleb128 0x13
 1689 05a6 910A0000 		.4byte	.LASF90
 1690 05aa 0B       		.byte	0xb
 1691 05ab 5D02     		.2byte	0x25d
 1692 05ad F0040000 		.4byte	0x4f0
 1693 05b1 30       		.byte	0x30
 1694 05b2 13       		.uleb128 0x13
 1695 05b3 870E0000 		.4byte	.LASF91
 1696 05b7 0B       		.byte	0xb
 1697 05b8 6002     		.2byte	0x260
 1698 05ba A2000000 		.4byte	0xa2
 1699 05be 34       		.byte	0x34
 1700 05bf 00       		.byte	0
 1701 05c0 0E       		.uleb128 0xe
 1702 05c1 EF070000 		.4byte	.LASF102
 1703 05c5 0B       		.byte	0xb
 1704 05c6 6302     		.2byte	0x263
 1705 05c8 FC040000 		.4byte	0x4fc
 1706 05cc 10       		.uleb128 0x10
 1707 05cd 01       		.byte	0x1
 1708 05ce 3E000000 		.4byte	0x3e
 1709 05d2 0C       		.byte	0xc
 1710 05d3 0504     		.2byte	0x405
 1711 05d5 F2050000 		.4byte	0x5f2
 1712 05d9 11       		.uleb128 0x11
 1713 05da D3050000 		.4byte	.LASF103
 1714 05de 00       		.byte	0
 1715 05df 11       		.uleb128 0x11
 1716 05e0 0B090000 		.4byte	.LASF104
 1717 05e4 01       		.byte	0x1
 1718 05e5 11       		.uleb128 0x11
 1719 05e6 F80C0000 		.4byte	.LASF105
 1720 05ea 02       		.byte	0x2
 1721 05eb 11       		.uleb128 0x11
 1722 05ec 70020000 		.4byte	.LASF106
 1723 05f0 03       		.byte	0x3
ARM GAS  C:\Users\codyg\AppData\Local\Temp\cc52IIus.s 			page 60


 1724 05f1 00       		.byte	0
 1725 05f2 0E       		.uleb128 0xe
 1726 05f3 A31D0000 		.4byte	.LASF107
 1727 05f7 0C       		.byte	0xc
 1728 05f8 0A04     		.2byte	0x40a
 1729 05fa CC050000 		.4byte	0x5cc
 1730 05fe 12       		.uleb128 0x12
 1731 05ff 78       		.byte	0x78
 1732 0600 0C       		.byte	0xc
 1733 0601 F404     		.2byte	0x4f4
 1734 0603 CB060000 		.4byte	0x6cb
 1735 0607 13       		.uleb128 0x13
 1736 0608 80090000 		.4byte	.LASF108
 1737 060c 0C       		.byte	0xc
 1738 060d F604     		.2byte	0x4f6
 1739 060f A2000000 		.4byte	0xa2
 1740 0613 00       		.byte	0
 1741 0614 13       		.uleb128 0x13
 1742 0615 441A0000 		.4byte	.LASF109
 1743 0619 0C       		.byte	0xc
 1744 061a F704     		.2byte	0x4f7
 1745 061c A2000000 		.4byte	0xa2
 1746 0620 04       		.byte	0x4
 1747 0621 13       		.uleb128 0x13
 1748 0622 4E140000 		.4byte	.LASF110
 1749 0626 0C       		.byte	0xc
 1750 0627 F804     		.2byte	0x4f8
 1751 0629 A2000000 		.4byte	0xa2
 1752 062d 08       		.byte	0x8
 1753 062e 13       		.uleb128 0x13
 1754 062f 840A0000 		.4byte	.LASF111
 1755 0633 0C       		.byte	0xc
 1756 0634 F904     		.2byte	0x4f9
 1757 0636 A2000000 		.4byte	0xa2
 1758 063a 0C       		.byte	0xc
 1759 063b 13       		.uleb128 0x13
 1760 063c CA080000 		.4byte	.LASF112
 1761 0640 0C       		.byte	0xc
 1762 0641 FA04     		.2byte	0x4fa
 1763 0643 A2000000 		.4byte	0xa2
 1764 0647 10       		.byte	0x10
 1765 0648 13       		.uleb128 0x13
 1766 0649 BC0F0000 		.4byte	.LASF113
 1767 064d 0C       		.byte	0xc
 1768 064e FB04     		.2byte	0x4fb
 1769 0650 F2050000 		.4byte	0x5f2
 1770 0654 14       		.byte	0x14
 1771 0655 13       		.uleb128 0x13
 1772 0656 590D0000 		.4byte	.LASF114
 1773 065a 0C       		.byte	0xc
 1774 065b FC04     		.2byte	0x4fc
 1775 065d A2000000 		.4byte	0xa2
 1776 0661 18       		.byte	0x18
 1777 0662 13       		.uleb128 0x13
 1778 0663 B0110000 		.4byte	.LASF115
 1779 0667 0C       		.byte	0xc
 1780 0668 FD04     		.2byte	0x4fd
ARM GAS  C:\Users\codyg\AppData\Local\Temp\cc52IIus.s 			page 61


 1781 066a CB060000 		.4byte	0x6cb
 1782 066e 1C       		.byte	0x1c
 1783 066f 13       		.uleb128 0x13
 1784 0670 731E0000 		.4byte	.LASF116
 1785 0674 0C       		.byte	0xc
 1786 0675 FE04     		.2byte	0x4fe
 1787 0677 A2000000 		.4byte	0xa2
 1788 067b 5C       		.byte	0x5c
 1789 067c 13       		.uleb128 0x13
 1790 067d 59040000 		.4byte	.LASF117
 1791 0681 0C       		.byte	0xc
 1792 0682 FF04     		.2byte	0x4ff
 1793 0684 A2000000 		.4byte	0xa2
 1794 0688 60       		.byte	0x60
 1795 0689 13       		.uleb128 0x13
 1796 068a 951D0000 		.4byte	.LASF118
 1797 068e 0C       		.byte	0xc
 1798 068f 0005     		.2byte	0x500
 1799 0691 A2000000 		.4byte	0xa2
 1800 0695 64       		.byte	0x64
 1801 0696 13       		.uleb128 0x13
 1802 0697 BE140000 		.4byte	.LASF119
 1803 069b 0C       		.byte	0xc
 1804 069c 0105     		.2byte	0x501
 1805 069e A2000000 		.4byte	0xa2
 1806 06a2 68       		.byte	0x68
 1807 06a3 13       		.uleb128 0x13
 1808 06a4 6B0F0000 		.4byte	.LASF120
 1809 06a8 0C       		.byte	0xc
 1810 06a9 0205     		.2byte	0x502
 1811 06ab A2000000 		.4byte	0xa2
 1812 06af 6C       		.byte	0x6c
 1813 06b0 13       		.uleb128 0x13
 1814 06b1 681D0000 		.4byte	.LASF121
 1815 06b5 0C       		.byte	0xc
 1816 06b6 0305     		.2byte	0x503
 1817 06b8 87020000 		.4byte	0x287
 1818 06bc 70       		.byte	0x70
 1819 06bd 13       		.uleb128 0x13
 1820 06be 5F0C0000 		.4byte	.LASF122
 1821 06c2 0C       		.byte	0xc
 1822 06c3 0405     		.2byte	0x504
 1823 06c5 A2000000 		.4byte	0xa2
 1824 06c9 74       		.byte	0x74
 1825 06ca 00       		.byte	0
 1826 06cb 07       		.uleb128 0x7
 1827 06cc A2000000 		.4byte	0xa2
 1828 06d0 DB060000 		.4byte	0x6db
 1829 06d4 08       		.uleb128 0x8
 1830 06d5 AD000000 		.4byte	0xad
 1831 06d9 0F       		.byte	0xf
 1832 06da 00       		.byte	0
 1833 06db 0E       		.uleb128 0xe
 1834 06dc 66090000 		.4byte	.LASF123
 1835 06e0 0C       		.byte	0xc
 1836 06e1 0505     		.2byte	0x505
 1837 06e3 FE050000 		.4byte	0x5fe
ARM GAS  C:\Users\codyg\AppData\Local\Temp\cc52IIus.s 			page 62


 1838 06e7 15       		.uleb128 0x15
 1839 06e8 04       		.byte	0x4
 1840 06e9 70020000 		.4byte	0x270
 1841 06ed 10       		.uleb128 0x10
 1842 06ee 02       		.byte	0x2
 1843 06ef 45000000 		.4byte	0x45
 1844 06f3 0D       		.byte	0xd
 1845 06f4 3F01     		.2byte	0x13f
 1846 06f6 1F0A0000 		.4byte	0xa1f
 1847 06fa 11       		.uleb128 0x11
 1848 06fb DC070000 		.4byte	.LASF124
 1849 06ff 00       		.byte	0
 1850 0700 19       		.uleb128 0x19
 1851 0701 50070000 		.4byte	.LASF125
 1852 0705 0010     		.2byte	0x1000
 1853 0707 19       		.uleb128 0x19
 1854 0708 5F190000 		.4byte	.LASF126
 1855 070c 0110     		.2byte	0x1001
 1856 070e 19       		.uleb128 0x19
 1857 070f CC0B0000 		.4byte	.LASF127
 1858 0713 0210     		.2byte	0x1002
 1859 0715 19       		.uleb128 0x19
 1860 0716 450C0000 		.4byte	.LASF128
 1861 071a 0310     		.2byte	0x1003
 1862 071c 19       		.uleb128 0x19
 1863 071d 13010000 		.4byte	.LASF129
 1864 0721 0410     		.2byte	0x1004
 1865 0723 19       		.uleb128 0x19
 1866 0724 C61D0000 		.4byte	.LASF130
 1867 0728 0510     		.2byte	0x1005
 1868 072a 19       		.uleb128 0x19
 1869 072b 5B140000 		.4byte	.LASF131
 1870 072f 0020     		.2byte	0x2000
 1871 0731 19       		.uleb128 0x19
 1872 0732 E8170000 		.4byte	.LASF132
 1873 0736 0120     		.2byte	0x2001
 1874 0738 19       		.uleb128 0x19
 1875 0739 F1130000 		.4byte	.LASF133
 1876 073d 0220     		.2byte	0x2002
 1877 073f 19       		.uleb128 0x19
 1878 0740 FC0B0000 		.4byte	.LASF134
 1879 0744 0320     		.2byte	0x2003
 1880 0746 19       		.uleb128 0x19
 1881 0747 200E0000 		.4byte	.LASF135
 1882 074b 0420     		.2byte	0x2004
 1883 074d 19       		.uleb128 0x19
 1884 074e 7A100000 		.4byte	.LASF136
 1885 0752 0520     		.2byte	0x2005
 1886 0754 19       		.uleb128 0x19
 1887 0755 7B0B0000 		.4byte	.LASF137
 1888 0759 0620     		.2byte	0x2006
 1889 075b 19       		.uleb128 0x19
 1890 075c 71180000 		.4byte	.LASF138
 1891 0760 0720     		.2byte	0x2007
 1892 0762 19       		.uleb128 0x19
 1893 0763 071B0000 		.4byte	.LASF139
 1894 0767 0820     		.2byte	0x2008
ARM GAS  C:\Users\codyg\AppData\Local\Temp\cc52IIus.s 			page 63


 1895 0769 19       		.uleb128 0x19
 1896 076a 92110000 		.4byte	.LASF140
 1897 076e 0920     		.2byte	0x2009
 1898 0770 19       		.uleb128 0x19
 1899 0771 AD070000 		.4byte	.LASF141
 1900 0775 0A20     		.2byte	0x200a
 1901 0777 19       		.uleb128 0x19
 1902 0778 5A030000 		.4byte	.LASF142
 1903 077c 0B20     		.2byte	0x200b
 1904 077e 19       		.uleb128 0x19
 1905 077f 2F140000 		.4byte	.LASF143
 1906 0783 0C20     		.2byte	0x200c
 1907 0785 19       		.uleb128 0x19
 1908 0786 1F070000 		.4byte	.LASF144
 1909 078a 0D20     		.2byte	0x200d
 1910 078c 19       		.uleb128 0x19
 1911 078d FB0D0000 		.4byte	.LASF145
 1912 0791 0E20     		.2byte	0x200e
 1913 0793 19       		.uleb128 0x19
 1914 0794 2D150000 		.4byte	.LASF146
 1915 0798 0F20     		.2byte	0x200f
 1916 079a 19       		.uleb128 0x19
 1917 079b 4A100000 		.4byte	.LASF147
 1918 079f 1020     		.2byte	0x2010
 1919 07a1 19       		.uleb128 0x19
 1920 07a2 E0110000 		.4byte	.LASF148
 1921 07a6 1120     		.2byte	0x2011
 1922 07a8 19       		.uleb128 0x19
 1923 07a9 D51A0000 		.4byte	.LASF149
 1924 07ad 1220     		.2byte	0x2012
 1925 07af 19       		.uleb128 0x19
 1926 07b0 F5010000 		.4byte	.LASF150
 1927 07b4 1320     		.2byte	0x2013
 1928 07b6 19       		.uleb128 0x19
 1929 07b7 470F0000 		.4byte	.LASF151
 1930 07bb 1420     		.2byte	0x2014
 1931 07bd 19       		.uleb128 0x19
 1932 07be 97040000 		.4byte	.LASF152
 1933 07c2 1520     		.2byte	0x2015
 1934 07c4 19       		.uleb128 0x19
 1935 07c5 AD060000 		.4byte	.LASF153
 1936 07c9 1620     		.2byte	0x2016
 1937 07cb 19       		.uleb128 0x19
 1938 07cc 9B030000 		.4byte	.LASF154
 1939 07d0 1720     		.2byte	0x2017
 1940 07d2 19       		.uleb128 0x19
 1941 07d3 64070000 		.4byte	.LASF155
 1942 07d7 0030     		.2byte	0x3000
 1943 07d9 19       		.uleb128 0x19
 1944 07da 180A0000 		.4byte	.LASF156
 1945 07de 0130     		.2byte	0x3001
 1946 07e0 19       		.uleb128 0x19
 1947 07e1 42090000 		.4byte	.LASF157
 1948 07e5 0230     		.2byte	0x3002
 1949 07e7 19       		.uleb128 0x19
 1950 07e8 AF180000 		.4byte	.LASF158
 1951 07ec 0330     		.2byte	0x3003
ARM GAS  C:\Users\codyg\AppData\Local\Temp\cc52IIus.s 			page 64


 1952 07ee 19       		.uleb128 0x19
 1953 07ef AD080000 		.4byte	.LASF159
 1954 07f3 0430     		.2byte	0x3004
 1955 07f5 19       		.uleb128 0x19
 1956 07f6 F3180000 		.4byte	.LASF160
 1957 07fa 0530     		.2byte	0x3005
 1958 07fc 19       		.uleb128 0x19
 1959 07fd D6010000 		.4byte	.LASF161
 1960 0801 0630     		.2byte	0x3006
 1961 0803 19       		.uleb128 0x19
 1962 0804 F91C0000 		.4byte	.LASF162
 1963 0808 0730     		.2byte	0x3007
 1964 080a 19       		.uleb128 0x19
 1965 080b F7100000 		.4byte	.LASF163
 1966 080f 0830     		.2byte	0x3008
 1967 0811 19       		.uleb128 0x19
 1968 0812 130B0000 		.4byte	.LASF164
 1969 0816 0930     		.2byte	0x3009
 1970 0818 19       		.uleb128 0x19
 1971 0819 D3180000 		.4byte	.LASF165
 1972 081d 0A30     		.2byte	0x300a
 1973 081f 19       		.uleb128 0x19
 1974 0820 150D0000 		.4byte	.LASF166
 1975 0824 0B30     		.2byte	0x300b
 1976 0826 19       		.uleb128 0x19
 1977 0827 32010000 		.4byte	.LASF167
 1978 082b 0C30     		.2byte	0x300c
 1979 082d 19       		.uleb128 0x19
 1980 082e C10E0000 		.4byte	.LASF168
 1981 0832 1130     		.2byte	0x3011
 1982 0834 19       		.uleb128 0x19
 1983 0835 73150000 		.4byte	.LASF169
 1984 0839 1230     		.2byte	0x3012
 1985 083b 19       		.uleb128 0x19
 1986 083c B6190000 		.4byte	.LASF170
 1987 0840 1330     		.2byte	0x3013
 1988 0842 19       		.uleb128 0x19
 1989 0843 12180000 		.4byte	.LASF171
 1990 0847 1430     		.2byte	0x3014
 1991 0849 19       		.uleb128 0x19
 1992 084a 6A160000 		.4byte	.LASF172
 1993 084e 1530     		.2byte	0x3015
 1994 0850 19       		.uleb128 0x19
 1995 0851 E80F0000 		.4byte	.LASF173
 1996 0855 1630     		.2byte	0x3016
 1997 0857 19       		.uleb128 0x19
 1998 0858 C60F0000 		.4byte	.LASF174
 1999 085c 1730     		.2byte	0x3017
 2000 085e 19       		.uleb128 0x19
 2001 085f 6B0C0000 		.4byte	.LASF175
 2002 0863 1830     		.2byte	0x3018
 2003 0865 19       		.uleb128 0x19
 2004 0866 5C120000 		.4byte	.LASF176
 2005 086a 0040     		.2byte	0x4000
 2006 086c 19       		.uleb128 0x19
 2007 086d C21C0000 		.4byte	.LASF177
 2008 0871 0140     		.2byte	0x4001
ARM GAS  C:\Users\codyg\AppData\Local\Temp\cc52IIus.s 			page 65


 2009 0873 19       		.uleb128 0x19
 2010 0874 361C0000 		.4byte	.LASF178
 2011 0878 0240     		.2byte	0x4002
 2012 087a 19       		.uleb128 0x19
 2013 087b 061A0000 		.4byte	.LASF179
 2014 087f 0340     		.2byte	0x4003
 2015 0881 19       		.uleb128 0x19
 2016 0882 180F0000 		.4byte	.LASF180
 2017 0886 0440     		.2byte	0x4004
 2018 0888 19       		.uleb128 0x19
 2019 0889 0F1E0000 		.4byte	.LASF181
 2020 088d 0540     		.2byte	0x4005
 2021 088f 19       		.uleb128 0x19
 2022 0890 9E000000 		.4byte	.LASF182
 2023 0894 0640     		.2byte	0x4006
 2024 0896 19       		.uleb128 0x19
 2025 0897 F8090000 		.4byte	.LASF183
 2026 089b 0740     		.2byte	0x4007
 2027 089d 19       		.uleb128 0x19
 2028 089e A2020000 		.4byte	.LASF184
 2029 08a2 0840     		.2byte	0x4008
 2030 08a4 19       		.uleb128 0x19
 2031 08a5 24090000 		.4byte	.LASF185
 2032 08a9 0940     		.2byte	0x4009
 2033 08ab 19       		.uleb128 0x19
 2034 08ac 951E0000 		.4byte	.LASF186
 2035 08b0 0A40     		.2byte	0x400a
 2036 08b2 19       		.uleb128 0x19
 2037 08b3 390D0000 		.4byte	.LASF187
 2038 08b7 0B40     		.2byte	0x400b
 2039 08b9 19       		.uleb128 0x19
 2040 08ba BB110000 		.4byte	.LASF188
 2041 08be 0C40     		.2byte	0x400c
 2042 08c0 19       		.uleb128 0x19
 2043 08c1 5D0E0000 		.4byte	.LASF189
 2044 08c5 0D40     		.2byte	0x400d
 2045 08c7 19       		.uleb128 0x19
 2046 08c8 C1120000 		.4byte	.LASF190
 2047 08cc 0E40     		.2byte	0x400e
 2048 08ce 19       		.uleb128 0x19
 2049 08cf A5090000 		.4byte	.LASF191
 2050 08d3 0F40     		.2byte	0x400f
 2051 08d5 19       		.uleb128 0x19
 2052 08d6 5B080000 		.4byte	.LASF192
 2053 08da 1040     		.2byte	0x4010
 2054 08dc 19       		.uleb128 0x19
 2055 08dd 421B0000 		.4byte	.LASF193
 2056 08e1 1140     		.2byte	0x4011
 2057 08e3 19       		.uleb128 0x19
 2058 08e4 530B0000 		.4byte	.LASF194
 2059 08e8 1240     		.2byte	0x4012
 2060 08ea 19       		.uleb128 0x19
 2061 08eb 23170000 		.4byte	.LASF195
 2062 08ef 1340     		.2byte	0x4013
 2063 08f1 19       		.uleb128 0x19
 2064 08f2 A0120000 		.4byte	.LASF196
 2065 08f6 1440     		.2byte	0x4014
ARM GAS  C:\Users\codyg\AppData\Local\Temp\cc52IIus.s 			page 66


 2066 08f8 19       		.uleb128 0x19
 2067 08f9 A2050000 		.4byte	.LASF197
 2068 08fd 1540     		.2byte	0x4015
 2069 08ff 19       		.uleb128 0x19
 2070 0900 DF1D0000 		.4byte	.LASF198
 2071 0904 1640     		.2byte	0x4016
 2072 0906 19       		.uleb128 0x19
 2073 0907 93140000 		.4byte	.LASF199
 2074 090b 1740     		.2byte	0x4017
 2075 090d 19       		.uleb128 0x19
 2076 090e 31100000 		.4byte	.LASF200
 2077 0912 1840     		.2byte	0x4018
 2078 0914 19       		.uleb128 0x19
 2079 0915 A6160000 		.4byte	.LASF201
 2080 0919 1940     		.2byte	0x4019
 2081 091b 19       		.uleb128 0x19
 2082 091c EA140000 		.4byte	.LASF202
 2083 0920 0050     		.2byte	0x5000
 2084 0922 19       		.uleb128 0x19
 2085 0923 1B040000 		.4byte	.LASF203
 2086 0927 0150     		.2byte	0x5001
 2087 0929 19       		.uleb128 0x19
 2088 092a 98170000 		.4byte	.LASF204
 2089 092e 0250     		.2byte	0x5002
 2090 0930 19       		.uleb128 0x19
 2091 0931 F41B0000 		.4byte	.LASF205
 2092 0935 0350     		.2byte	0x5003
 2093 0937 19       		.uleb128 0x19
 2094 0938 65060000 		.4byte	.LASF206
 2095 093c 0450     		.2byte	0x5004
 2096 093e 19       		.uleb128 0x19
 2097 093f 05150000 		.4byte	.LASF207
 2098 0943 0550     		.2byte	0x5005
 2099 0945 19       		.uleb128 0x19
 2100 0946 B00D0000 		.4byte	.LASF208
 2101 094a 0650     		.2byte	0x5006
 2102 094c 19       		.uleb128 0x19
 2103 094d 7C030000 		.4byte	.LASF209
 2104 0951 0750     		.2byte	0x5007
 2105 0953 19       		.uleb128 0x19
 2106 0954 6F040000 		.4byte	.LASF210
 2107 0958 0850     		.2byte	0x5008
 2108 095a 19       		.uleb128 0x19
 2109 095b CC060000 		.4byte	.LASF211
 2110 095f 0950     		.2byte	0x5009
 2111 0961 19       		.uleb128 0x19
 2112 0962 F7060000 		.4byte	.LASF212
 2113 0966 0A50     		.2byte	0x500a
 2114 0968 19       		.uleb128 0x19
 2115 0969 FB030000 		.4byte	.LASF213
 2116 096d 0B50     		.2byte	0x500b
 2117 096f 19       		.uleb128 0x19
 2118 0970 58150000 		.4byte	.LASF214
 2119 0974 0C50     		.2byte	0x500c
 2120 0976 19       		.uleb128 0x19
 2121 0977 9F0B0000 		.4byte	.LASF215
 2122 097b 0D50     		.2byte	0x500d
ARM GAS  C:\Users\codyg\AppData\Local\Temp\cc52IIus.s 			page 67


 2123 097d 19       		.uleb128 0x19
 2124 097e DA1C0000 		.4byte	.LASF216
 2125 0982 0E50     		.2byte	0x500e
 2126 0984 19       		.uleb128 0x19
 2127 0985 460A0000 		.4byte	.LASF217
 2128 0989 0F50     		.2byte	0x500f
 2129 098b 19       		.uleb128 0x19
 2130 098c C8170000 		.4byte	.LASF218
 2131 0990 1050     		.2byte	0x5010
 2132 0992 19       		.uleb128 0x19
 2133 0993 34060000 		.4byte	.LASF219
 2134 0997 1150     		.2byte	0x5011
 2135 0999 19       		.uleb128 0x19
 2136 099a 56010000 		.4byte	.LASF220
 2137 099e 1250     		.2byte	0x5012
 2138 09a0 19       		.uleb128 0x19
 2139 09a1 C8140000 		.4byte	.LASF221
 2140 09a5 1350     		.2byte	0x5013
 2141 09a7 19       		.uleb128 0x19
 2142 09a8 84060000 		.4byte	.LASF222
 2143 09ac 1450     		.2byte	0x5014
 2144 09ae 19       		.uleb128 0x19
 2145 09af 691A0000 		.4byte	.LASF223
 2146 09b3 1550     		.2byte	0x5015
 2147 09b5 19       		.uleb128 0x19
 2148 09b6 131C0000 		.4byte	.LASF224
 2149 09ba 1650     		.2byte	0x5016
 2150 09bc 19       		.uleb128 0x19
 2151 09bd B3040000 		.4byte	.LASF225
 2152 09c1 1750     		.2byte	0x5017
 2153 09c3 19       		.uleb128 0x19
 2154 09c4 2A110000 		.4byte	.LASF226
 2155 09c8 1850     		.2byte	0x5018
 2156 09ca 19       		.uleb128 0x19
 2157 09cb 411D0000 		.4byte	.LASF227
 2158 09cf 0060     		.2byte	0x6000
 2159 09d1 19       		.uleb128 0x19
 2160 09d2 7B1B0000 		.4byte	.LASF228
 2161 09d6 0160     		.2byte	0x6001
 2162 09d8 19       		.uleb128 0x19
 2163 09d9 DA190000 		.4byte	.LASF229
 2164 09dd 0260     		.2byte	0x6002
 2165 09df 19       		.uleb128 0x19
 2166 09e0 81120000 		.4byte	.LASF230
 2167 09e4 0360     		.2byte	0x6003
 2168 09e6 19       		.uleb128 0x19
 2169 09e7 8E070000 		.4byte	.LASF231
 2170 09eb 0460     		.2byte	0x6004
 2171 09ed 19       		.uleb128 0x19
 2172 09ee 76170000 		.4byte	.LASF232
 2173 09f2 0560     		.2byte	0x6005
 2174 09f4 19       		.uleb128 0x19
 2175 09f5 E80A0000 		.4byte	.LASF233
 2176 09f9 0660     		.2byte	0x6006
 2177 09fb 19       		.uleb128 0x19
 2178 09fc 52000000 		.4byte	.LASF234
 2179 0a00 0760     		.2byte	0x6007
ARM GAS  C:\Users\codyg\AppData\Local\Temp\cc52IIus.s 			page 68


 2180 0a02 19       		.uleb128 0x19
 2181 0a03 1C020000 		.4byte	.LASF235
 2182 0a07 0860     		.2byte	0x6008
 2183 0a09 19       		.uleb128 0x19
 2184 0a0a EF000000 		.4byte	.LASF236
 2185 0a0e 0960     		.2byte	0x6009
 2186 0a10 19       		.uleb128 0x19
 2187 0a11 25120000 		.4byte	.LASF237
 2188 0a15 0A60     		.2byte	0x600a
 2189 0a17 19       		.uleb128 0x19
 2190 0a18 C70A0000 		.4byte	.LASF238
 2191 0a1c FFFF     		.2byte	0xffff
 2192 0a1e 00       		.byte	0
 2193 0a1f 06       		.uleb128 0x6
 2194 0a20 8C000000 		.4byte	0x8c
 2195 0a24 12       		.uleb128 0x12
 2196 0a25 02       		.byte	0x2
 2197 0a26 0E       		.byte	0xe
 2198 0a27 5B01     		.2byte	0x15b
 2199 0a29 480A0000 		.4byte	0xa48
 2200 0a2d 13       		.uleb128 0x13
 2201 0a2e 5B1C0000 		.4byte	.LASF239
 2202 0a32 0E       		.byte	0xe
 2203 0a33 6501     		.2byte	0x165
 2204 0a35 8C000000 		.4byte	0x8c
 2205 0a39 00       		.byte	0
 2206 0a3a 13       		.uleb128 0x13
 2207 0a3b 7A090000 		.4byte	.LASF240
 2208 0a3f 0E       		.byte	0xe
 2209 0a40 6901     		.2byte	0x169
 2210 0a42 8C000000 		.4byte	0x8c
 2211 0a46 01       		.byte	0x1
 2212 0a47 00       		.byte	0
 2213 0a48 0E       		.uleb128 0xe
 2214 0a49 A4150000 		.4byte	.LASF241
 2215 0a4d 0E       		.byte	0xe
 2216 0a4e 6B01     		.2byte	0x16b
 2217 0a50 240A0000 		.4byte	0xa24
 2218 0a54 1A       		.uleb128 0x1a
 2219 0a55 01       		.byte	0x1
 2220 0a56 3E000000 		.4byte	0x3e
 2221 0a5a 0F       		.byte	0xf
 2222 0a5b 7E       		.byte	0x7e
 2223 0a5c 790A0000 		.4byte	0xa79
 2224 0a60 11       		.uleb128 0x11
 2225 0a61 40040000 		.4byte	.LASF242
 2226 0a65 00       		.byte	0
 2227 0a66 11       		.uleb128 0x11
 2228 0a67 D5080000 		.4byte	.LASF243
 2229 0a6b 01       		.byte	0x1
 2230 0a6c 11       		.uleb128 0x11
 2231 0a6d 360B0000 		.4byte	.LASF244
 2232 0a71 02       		.byte	0x2
 2233 0a72 11       		.uleb128 0x11
 2234 0a73 910C0000 		.4byte	.LASF245
 2235 0a77 03       		.byte	0x3
 2236 0a78 00       		.byte	0
ARM GAS  C:\Users\codyg\AppData\Local\Temp\cc52IIus.s 			page 69


 2237 0a79 03       		.uleb128 0x3
 2238 0a7a 97080000 		.4byte	.LASF246
 2239 0a7e 0F       		.byte	0xf
 2240 0a7f 83       		.byte	0x83
 2241 0a80 540A0000 		.4byte	0xa54
 2242 0a84 1A       		.uleb128 0x1a
 2243 0a85 01       		.byte	0x1
 2244 0a86 3E000000 		.4byte	0x3e
 2245 0a8a 0F       		.byte	0xf
 2246 0a8b 87       		.byte	0x87
 2247 0a8c C10A0000 		.4byte	0xac1
 2248 0a90 11       		.uleb128 0x11
 2249 0a91 2A1E0000 		.4byte	.LASF247
 2250 0a95 00       		.byte	0
 2251 0a96 11       		.uleb128 0x11
 2252 0a97 EB050000 		.4byte	.LASF248
 2253 0a9b 01       		.byte	0x1
 2254 0a9c 11       		.uleb128 0x11
 2255 0a9d 11130000 		.4byte	.LASF249
 2256 0aa1 02       		.byte	0x2
 2257 0aa2 11       		.uleb128 0x11
 2258 0aa3 491E0000 		.4byte	.LASF250
 2259 0aa7 03       		.byte	0x3
 2260 0aa8 11       		.uleb128 0x11
 2261 0aa9 5A130000 		.4byte	.LASF251
 2262 0aad 04       		.byte	0x4
 2263 0aae 11       		.uleb128 0x11
 2264 0aaf C10C0000 		.4byte	.LASF252
 2265 0ab3 05       		.byte	0x5
 2266 0ab4 11       		.uleb128 0x11
 2267 0ab5 E6120000 		.4byte	.LASF253
 2268 0ab9 06       		.byte	0x6
 2269 0aba 11       		.uleb128 0x11
 2270 0abb 94010000 		.4byte	.LASF254
 2271 0abf 07       		.byte	0x7
 2272 0ac0 00       		.byte	0
 2273 0ac1 03       		.uleb128 0x3
 2274 0ac2 43030000 		.4byte	.LASF255
 2275 0ac6 0F       		.byte	0xf
 2276 0ac7 90       		.byte	0x90
 2277 0ac8 840A0000 		.4byte	0xa84
 2278 0acc 1A       		.uleb128 0x1a
 2279 0acd 01       		.byte	0x1
 2280 0ace 3E000000 		.4byte	0x3e
 2281 0ad2 10       		.byte	0x10
 2282 0ad3 29       		.byte	0x29
 2283 0ad4 150B0000 		.4byte	0xb15
 2284 0ad8 11       		.uleb128 0x11
 2285 0ad9 D8150000 		.4byte	.LASF256
 2286 0add 00       		.byte	0
 2287 0ade 11       		.uleb128 0x11
 2288 0adf 770D0000 		.4byte	.LASF257
 2289 0ae3 01       		.byte	0x1
 2290 0ae4 11       		.uleb128 0x11
 2291 0ae5 FC020000 		.4byte	.LASF258
 2292 0ae9 02       		.byte	0x2
 2293 0aea 11       		.uleb128 0x11
ARM GAS  C:\Users\codyg\AppData\Local\Temp\cc52IIus.s 			page 70


 2294 0aeb 0E160000 		.4byte	.LASF259
 2295 0aef 03       		.byte	0x3
 2296 0af0 11       		.uleb128 0x11
 2297 0af1 B1130000 		.4byte	.LASF260
 2298 0af5 04       		.byte	0x4
 2299 0af6 11       		.uleb128 0x11
 2300 0af7 9A0A0000 		.4byte	.LASF261
 2301 0afb 05       		.byte	0x5
 2302 0afc 11       		.uleb128 0x11
 2303 0afd DF1B0000 		.4byte	.LASF262
 2304 0b01 06       		.byte	0x6
 2305 0b02 11       		.uleb128 0x11
 2306 0b03 CE020000 		.4byte	.LASF263
 2307 0b07 07       		.byte	0x7
 2308 0b08 11       		.uleb128 0x11
 2309 0b09 E6090000 		.4byte	.LASF264
 2310 0b0d 08       		.byte	0x8
 2311 0b0e 11       		.uleb128 0x11
 2312 0b0f D9000000 		.4byte	.LASF265
 2313 0b13 09       		.byte	0x9
 2314 0b14 00       		.byte	0
 2315 0b15 1A       		.uleb128 0x1a
 2316 0b16 01       		.byte	0x1
 2317 0b17 3E000000 		.4byte	0x3e
 2318 0b1b 11       		.byte	0x11
 2319 0b1c 28       		.byte	0x28
 2320 0b1d 400B0000 		.4byte	0xb40
 2321 0b21 11       		.uleb128 0x11
 2322 0b22 19100000 		.4byte	.LASF266
 2323 0b26 00       		.byte	0
 2324 0b27 11       		.uleb128 0x11
 2325 0b28 11000000 		.4byte	.LASF267
 2326 0b2c 01       		.byte	0x1
 2327 0b2d 11       		.uleb128 0x11
 2328 0b2e 2B1B0000 		.4byte	.LASF268
 2329 0b32 02       		.byte	0x2
 2330 0b33 11       		.uleb128 0x11
 2331 0b34 2D130000 		.4byte	.LASF269
 2332 0b38 03       		.byte	0x3
 2333 0b39 11       		.uleb128 0x11
 2334 0b3a 250C0000 		.4byte	.LASF270
 2335 0b3e 04       		.byte	0x4
 2336 0b3f 00       		.byte	0
 2337 0b40 1A       		.uleb128 0x1a
 2338 0b41 01       		.byte	0x1
 2339 0b42 3E000000 		.4byte	0x3e
 2340 0b46 11       		.byte	0x11
 2341 0b47 32       		.byte	0x32
 2342 0b48 5F0B0000 		.4byte	0xb5f
 2343 0b4c 11       		.uleb128 0x11
 2344 0b4d 9F180000 		.4byte	.LASF271
 2345 0b51 00       		.byte	0
 2346 0b52 11       		.uleb128 0x11
 2347 0b53 1E190000 		.4byte	.LASF272
 2348 0b57 01       		.byte	0x1
 2349 0b58 11       		.uleb128 0x11
 2350 0b59 A31A0000 		.4byte	.LASF273
ARM GAS  C:\Users\codyg\AppData\Local\Temp\cc52IIus.s 			page 71


 2351 0b5d 02       		.byte	0x2
 2352 0b5e 00       		.byte	0
 2353 0b5f 10       		.uleb128 0x10
 2354 0b60 01       		.byte	0x1
 2355 0b61 3E000000 		.4byte	0x3e
 2356 0b65 12       		.byte	0x12
 2357 0b66 B108     		.2byte	0x8b1
 2358 0b68 7F0B0000 		.4byte	0xb7f
 2359 0b6c 11       		.uleb128 0x11
 2360 0b6d B10C0000 		.4byte	.LASF274
 2361 0b71 00       		.byte	0
 2362 0b72 11       		.uleb128 0x11
 2363 0b73 72190000 		.4byte	.LASF275
 2364 0b77 01       		.byte	0x1
 2365 0b78 11       		.uleb128 0x11
 2366 0b79 C7000000 		.4byte	.LASF276
 2367 0b7d 02       		.byte	0x2
 2368 0b7e 00       		.byte	0
 2369 0b7f 09       		.uleb128 0x9
 2370 0b80 14       		.byte	0x14
 2371 0b81 13       		.byte	0x13
 2372 0b82 3B       		.byte	0x3b
 2373 0b83 C40B0000 		.4byte	0xbc4
 2374 0b87 0B       		.uleb128 0xb
 2375 0b88 37030000 		.4byte	.LASF277
 2376 0b8c 13       		.byte	0x13
 2377 0b8d 3D       		.byte	0x3d
 2378 0b8e A2000000 		.4byte	0xa2
 2379 0b92 00       		.byte	0
 2380 0b93 0B       		.uleb128 0xb
 2381 0b94 4F080000 		.4byte	.LASF278
 2382 0b98 13       		.byte	0x13
 2383 0b99 3E       		.byte	0x3e
 2384 0b9a A2000000 		.4byte	0xa2
 2385 0b9e 04       		.byte	0x4
 2386 0b9f 0B       		.uleb128 0xb
 2387 0ba0 C0030000 		.4byte	.LASF279
 2388 0ba4 13       		.byte	0x13
 2389 0ba5 3F       		.byte	0x3f
 2390 0ba6 C40B0000 		.4byte	0xbc4
 2391 0baa 08       		.byte	0x8
 2392 0bab 0B       		.uleb128 0xb
 2393 0bac 1C1D0000 		.4byte	.LASF280
 2394 0bb0 13       		.byte	0x13
 2395 0bb1 40       		.byte	0x40
 2396 0bb2 A2000000 		.4byte	0xa2
 2397 0bb6 0C       		.byte	0xc
 2398 0bb7 0B       		.uleb128 0xb
 2399 0bb8 A21B0000 		.4byte	.LASF281
 2400 0bbc 13       		.byte	0x13
 2401 0bbd 45       		.byte	0x45
 2402 0bbe A2000000 		.4byte	0xa2
 2403 0bc2 10       		.byte	0x10
 2404 0bc3 00       		.byte	0
 2405 0bc4 15       		.uleb128 0x15
 2406 0bc5 04       		.byte	0x4
 2407 0bc6 CA0B0000 		.4byte	0xbca
ARM GAS  C:\Users\codyg\AppData\Local\Temp\cc52IIus.s 			page 72


 2408 0bca 06       		.uleb128 0x6
 2409 0bcb DB060000 		.4byte	0x6db
 2410 0bcf 03       		.uleb128 0x3
 2411 0bd0 4A120000 		.4byte	.LASF282
 2412 0bd4 13       		.byte	0x13
 2413 0bd5 48       		.byte	0x48
 2414 0bd6 7F0B0000 		.4byte	0xb7f
 2415 0bda 03       		.uleb128 0x3
 2416 0bdb EC100000 		.4byte	.LASF283
 2417 0bdf 14       		.byte	0x14
 2418 0be0 62       		.byte	0x62
 2419 0be1 57000000 		.4byte	0x57
 2420 0be5 03       		.uleb128 0x3
 2421 0be6 4F130000 		.4byte	.LASF284
 2422 0bea 14       		.byte	0x14
 2423 0beb 69       		.byte	0x69
 2424 0bec A2000000 		.4byte	0xa2
 2425 0bf0 03       		.uleb128 0x3
 2426 0bf1 4F0E0000 		.4byte	.LASF285
 2427 0bf5 15       		.byte	0x15
 2428 0bf6 58       		.byte	0x58
 2429 0bf7 85020000 		.4byte	0x285
 2430 0bfb 1A       		.uleb128 0x1a
 2431 0bfc 01       		.byte	0x1
 2432 0bfd 3E000000 		.4byte	0x3e
 2433 0c01 16       		.byte	0x16
 2434 0c02 3C       		.byte	0x3c
 2435 0c03 2C0C0000 		.4byte	0xc2c
 2436 0c07 11       		.uleb128 0x11
 2437 0c08 271D0000 		.4byte	.LASF286
 2438 0c0c 00       		.byte	0
 2439 0c0d 11       		.uleb128 0x11
 2440 0c0e 660A0000 		.4byte	.LASF287
 2441 0c12 01       		.byte	0x1
 2442 0c13 11       		.uleb128 0x11
 2443 0c14 4E110000 		.4byte	.LASF288
 2444 0c18 02       		.byte	0x2
 2445 0c19 11       		.uleb128 0x11
 2446 0c1a 17120000 		.4byte	.LASF289
 2447 0c1e 03       		.byte	0x3
 2448 0c1f 11       		.uleb128 0x11
 2449 0c20 370A0000 		.4byte	.LASF290
 2450 0c24 04       		.byte	0x4
 2451 0c25 11       		.uleb128 0x11
 2452 0c26 C9130000 		.4byte	.LASF291
 2453 0c2a 05       		.byte	0x5
 2454 0c2b 00       		.byte	0
 2455 0c2c 03       		.uleb128 0x3
 2456 0c2d 4A190000 		.4byte	.LASF292
 2457 0c31 16       		.byte	0x16
 2458 0c32 43       		.byte	0x43
 2459 0c33 FB0B0000 		.4byte	0xbfb
 2460 0c37 09       		.uleb128 0x9
 2461 0c38 02       		.byte	0x2
 2462 0c39 16       		.byte	0x16
 2463 0c3a 46       		.byte	0x46
 2464 0c3b 580C0000 		.4byte	0xc58
ARM GAS  C:\Users\codyg\AppData\Local\Temp\cc52IIus.s 			page 73


 2465 0c3f 0B       		.uleb128 0xb
 2466 0c40 CE1A0000 		.4byte	.LASF293
 2467 0c44 16       		.byte	0x16
 2468 0c45 48       		.byte	0x48
 2469 0c46 2C0C0000 		.4byte	0xc2c
 2470 0c4a 00       		.byte	0
 2471 0c4b 0B       		.uleb128 0xb
 2472 0c4c C9050000 		.4byte	.LASF294
 2473 0c50 16       		.byte	0x16
 2474 0c51 49       		.byte	0x49
 2475 0c52 2C0C0000 		.4byte	0xc2c
 2476 0c56 01       		.byte	0x1
 2477 0c57 00       		.byte	0
 2478 0c58 03       		.uleb128 0x3
 2479 0c59 350F0000 		.4byte	.LASF295
 2480 0c5d 16       		.byte	0x16
 2481 0c5e 4A       		.byte	0x4a
 2482 0c5f 370C0000 		.4byte	0xc37
 2483 0c63 09       		.uleb128 0x9
 2484 0c64 08       		.byte	0x8
 2485 0c65 02       		.byte	0x2
 2486 0c66 78       		.byte	0x78
 2487 0c67 840C0000 		.4byte	0xc84
 2488 0c6b 0B       		.uleb128 0xb
 2489 0c6c ED160000 		.4byte	.LASF296
 2490 0c70 02       		.byte	0x2
 2491 0c71 7A       		.byte	0x7a
 2492 0c72 E7060000 		.4byte	0x6e7
 2493 0c76 00       		.byte	0
 2494 0c77 0B       		.uleb128 0xb
 2495 0c78 83190000 		.4byte	.LASF297
 2496 0c7c 02       		.byte	0x2
 2497 0c7d 7B       		.byte	0x7b
 2498 0c7e A2000000 		.4byte	0xa2
 2499 0c82 04       		.byte	0x4
 2500 0c83 00       		.byte	0
 2501 0c84 03       		.uleb128 0x3
 2502 0c85 4B170000 		.4byte	.LASF298
 2503 0c89 02       		.byte	0x2
 2504 0c8a 7C       		.byte	0x7c
 2505 0c8b 630C0000 		.4byte	0xc63
 2506 0c8f 03       		.uleb128 0x3
 2507 0c90 42070000 		.4byte	.LASF299
 2508 0c94 17       		.byte	0x17
 2509 0c95 76       		.byte	0x76
 2510 0c96 85020000 		.4byte	0x285
 2511 0c9a 1B       		.uleb128 0x1b
 2512 0c9b FB160000 		.4byte	.LASF302
 2513 0c9f 02       		.byte	0x2
 2514 0ca0 8E       		.byte	0x8e
 2515 0ca1 03       		.byte	0x3
 2516 0ca2 C80C0000 		.4byte	0xcc8
 2517 0ca6 1C       		.uleb128 0x1c
 2518 0ca7 65040000 		.4byte	.LASF300
 2519 0cab 02       		.byte	0x2
 2520 0cac 8E       		.byte	0x8e
 2521 0cad E7060000 		.4byte	0x6e7
ARM GAS  C:\Users\codyg\AppData\Local\Temp\cc52IIus.s 			page 74


 2522 0cb1 1C       		.uleb128 0x1c
 2523 0cb2 8F0D0000 		.4byte	.LASF301
 2524 0cb6 02       		.byte	0x2
 2525 0cb7 8E       		.byte	0x8e
 2526 0cb8 A2000000 		.4byte	0xa2
 2527 0cbc 1D       		.uleb128 0x1d
 2528 0cbd D4160000 		.4byte	.LASF347
 2529 0cc1 02       		.byte	0x2
 2530 0cc2 90       		.byte	0x90
 2531 0cc3 840C0000 		.4byte	0xc84
 2532 0cc7 00       		.byte	0
 2533 0cc8 1E       		.uleb128 0x1e
 2534 0cc9 4F1A0000 		.4byte	.LASF303
 2535 0ccd 03       		.byte	0x3
 2536 0cce 4503     		.2byte	0x345
 2537 0cd0 03       		.byte	0x3
 2538 0cd1 EE0C0000 		.4byte	0xcee
 2539 0cd5 1F       		.uleb128 0x1f
 2540 0cd6 09080000 		.4byte	.LASF304
 2541 0cda 03       		.byte	0x3
 2542 0cdb 4503     		.2byte	0x345
 2543 0cdd EE0C0000 		.4byte	0xcee
 2544 0ce1 1F       		.uleb128 0x1f
 2545 0ce2 D3190000 		.4byte	.LASF305
 2546 0ce6 03       		.byte	0x3
 2547 0ce7 4503     		.2byte	0x345
 2548 0ce9 A2000000 		.4byte	0xa2
 2549 0ced 00       		.byte	0
 2550 0cee 15       		.uleb128 0x15
 2551 0cef 04       		.byte	0x4
 2552 0cf0 AC010000 		.4byte	0x1ac
 2553 0cf4 1E       		.uleb128 0x1e
 2554 0cf5 10170000 		.4byte	.LASF306
 2555 0cf9 03       		.byte	0x3
 2556 0cfa 2703     		.2byte	0x327
 2557 0cfc 03       		.byte	0x3
 2558 0cfd 1A0D0000 		.4byte	0xd1a
 2559 0d01 1F       		.uleb128 0x1f
 2560 0d02 09080000 		.4byte	.LASF304
 2561 0d06 03       		.byte	0x3
 2562 0d07 2703     		.2byte	0x327
 2563 0d09 EE0C0000 		.4byte	0xcee
 2564 0d0d 1F       		.uleb128 0x1f
 2565 0d0e D3190000 		.4byte	.LASF305
 2566 0d12 03       		.byte	0x3
 2567 0d13 2703     		.2byte	0x327
 2568 0d15 A2000000 		.4byte	0xa2
 2569 0d19 00       		.byte	0
 2570 0d1a 1E       		.uleb128 0x1e
 2571 0d1b 351D0000 		.4byte	.LASF307
 2572 0d1f 03       		.byte	0x3
 2573 0d20 6403     		.2byte	0x364
 2574 0d22 03       		.byte	0x3
 2575 0d23 400D0000 		.4byte	0xd40
 2576 0d27 1F       		.uleb128 0x1f
 2577 0d28 09080000 		.4byte	.LASF304
 2578 0d2c 03       		.byte	0x3
ARM GAS  C:\Users\codyg\AppData\Local\Temp\cc52IIus.s 			page 75


 2579 0d2d 6403     		.2byte	0x364
 2580 0d2f EE0C0000 		.4byte	0xcee
 2581 0d33 1F       		.uleb128 0x1f
 2582 0d34 D3190000 		.4byte	.LASF305
 2583 0d38 03       		.byte	0x3
 2584 0d39 6403     		.2byte	0x364
 2585 0d3b A2000000 		.4byte	0xa2
 2586 0d3f 00       		.byte	0
 2587 0d40 20       		.uleb128 0x20
 2588 0d41 2D1A0000 		.4byte	.LASF308
 2589 0d45 01       		.byte	0x1
 2590 0d46 9F01     		.2byte	0x19f
 2591 0d48 00000000 		.4byte	.LFB719
 2592 0d4c 7C000000 		.4byte	.LFE719-.LFB719
 2593 0d50 01       		.uleb128 0x1
 2594 0d51 9C       		.byte	0x9c
 2595 0d52 670E0000 		.4byte	0xe67
 2596 0d56 21       		.uleb128 0x21
 2597 0d57 96150000 		.4byte	.LASF310
 2598 0d5b 01       		.byte	0x1
 2599 0d5c A201     		.2byte	0x1a2
 2600 0d5e DA0B0000 		.4byte	0xbda
 2601 0d62 00000000 		.4byte	.LLST0
 2602 0d66 22       		.uleb128 0x22
 2603 0d67 9A0C0000 		.4byte	0xc9a
 2604 0d6b 34000000 		.4byte	.LBB48
 2605 0d6f 16000000 		.4byte	.LBE48-.LBB48
 2606 0d73 01       		.byte	0x1
 2607 0d74 B201     		.2byte	0x1b2
 2608 0d76 B90D0000 		.4byte	0xdb9
 2609 0d7a 23       		.uleb128 0x23
 2610 0d7b B10C0000 		.4byte	0xcb1
 2611 0d7f 13000000 		.4byte	.LLST1
 2612 0d83 23       		.uleb128 0x23
 2613 0d84 A60C0000 		.4byte	0xca6
 2614 0d88 27000000 		.4byte	.LLST2
 2615 0d8c 24       		.uleb128 0x24
 2616 0d8d 34000000 		.4byte	.LBB49
 2617 0d91 16000000 		.4byte	.LBE49-.LBB49
 2618 0d95 25       		.uleb128 0x25
 2619 0d96 BC0C0000 		.4byte	0xcbc
 2620 0d9a 02       		.uleb128 0x2
 2621 0d9b 91       		.byte	0x91
 2622 0d9c 70       		.sleb128 -16
 2623 0d9d 26       		.uleb128 0x26
 2624 0d9e 48000000 		.4byte	.LVL5
 2625 0da2 06180000 		.4byte	0x1806
 2626 0da6 27       		.uleb128 0x27
 2627 0da7 01       		.uleb128 0x1
 2628 0da8 51       		.byte	0x51
 2629 0da9 02       		.uleb128 0x2
 2630 0daa 91       		.byte	0x91
 2631 0dab 70       		.sleb128 -16
 2632 0dac 27       		.uleb128 0x27
 2633 0dad 01       		.uleb128 0x1
 2634 0dae 52       		.byte	0x52
 2635 0daf 01       		.uleb128 0x1
ARM GAS  C:\Users\codyg\AppData\Local\Temp\cc52IIus.s 			page 76


 2636 0db0 30       		.byte	0x30
 2637 0db1 27       		.uleb128 0x27
 2638 0db2 01       		.uleb128 0x1
 2639 0db3 53       		.byte	0x53
 2640 0db4 01       		.uleb128 0x1
 2641 0db5 30       		.byte	0x30
 2642 0db6 00       		.byte	0
 2643 0db7 00       		.byte	0
 2644 0db8 00       		.byte	0
 2645 0db9 22       		.uleb128 0x22
 2646 0dba 9A0C0000 		.4byte	0xc9a
 2647 0dbe 4A000000 		.4byte	.LBB50
 2648 0dc2 14000000 		.4byte	.LBE50-.LBB50
 2649 0dc6 01       		.byte	0x1
 2650 0dc7 B801     		.2byte	0x1b8
 2651 0dc9 0C0E0000 		.4byte	0xe0c
 2652 0dcd 23       		.uleb128 0x23
 2653 0dce B10C0000 		.4byte	0xcb1
 2654 0dd2 3F000000 		.4byte	.LLST3
 2655 0dd6 23       		.uleb128 0x23
 2656 0dd7 A60C0000 		.4byte	0xca6
 2657 0ddb 53000000 		.4byte	.LLST4
 2658 0ddf 24       		.uleb128 0x24
 2659 0de0 4A000000 		.4byte	.LBB51
 2660 0de4 14000000 		.4byte	.LBE51-.LBB51
 2661 0de8 25       		.uleb128 0x25
 2662 0de9 BC0C0000 		.4byte	0xcbc
 2663 0ded 02       		.uleb128 0x2
 2664 0dee 91       		.byte	0x91
 2665 0def 70       		.sleb128 -16
 2666 0df0 26       		.uleb128 0x26
 2667 0df1 5E000000 		.4byte	.LVL7
 2668 0df5 06180000 		.4byte	0x1806
 2669 0df9 27       		.uleb128 0x27
 2670 0dfa 01       		.uleb128 0x1
 2671 0dfb 51       		.byte	0x51
 2672 0dfc 02       		.uleb128 0x2
 2673 0dfd 91       		.byte	0x91
 2674 0dfe 70       		.sleb128 -16
 2675 0dff 27       		.uleb128 0x27
 2676 0e00 01       		.uleb128 0x1
 2677 0e01 52       		.byte	0x52
 2678 0e02 01       		.uleb128 0x1
 2679 0e03 30       		.byte	0x30
 2680 0e04 27       		.uleb128 0x27
 2681 0e05 01       		.uleb128 0x1
 2682 0e06 53       		.byte	0x53
 2683 0e07 01       		.uleb128 0x1
 2684 0e08 30       		.byte	0x30
 2685 0e09 00       		.byte	0
 2686 0e0a 00       		.byte	0
 2687 0e0b 00       		.byte	0
 2688 0e0c 28       		.uleb128 0x28
 2689 0e0d 16000000 		.4byte	.LVL0
 2690 0e11 12180000 		.4byte	0x1812
 2691 0e15 3D0E0000 		.4byte	0xe3d
 2692 0e19 27       		.uleb128 0x27
ARM GAS  C:\Users\codyg\AppData\Local\Temp\cc52IIus.s 			page 77


 2693 0e1a 01       		.uleb128 0x1
 2694 0e1b 50       		.byte	0x50
 2695 0e1c 05       		.uleb128 0x5
 2696 0e1d 03       		.byte	0x3
 2697 0e1e 00000000 		.4byte	.LC0
 2698 0e22 27       		.uleb128 0x27
 2699 0e23 01       		.uleb128 0x1
 2700 0e24 51       		.byte	0x51
 2701 0e25 02       		.uleb128 0x2
 2702 0e26 09       		.byte	0x9
 2703 0e27 FF       		.byte	0xff
 2704 0e28 27       		.uleb128 0x27
 2705 0e29 01       		.uleb128 0x1
 2706 0e2a 52       		.byte	0x52
 2707 0e2b 01       		.uleb128 0x1
 2708 0e2c 31       		.byte	0x31
 2709 0e2d 27       		.uleb128 0x27
 2710 0e2e 01       		.uleb128 0x1
 2711 0e2f 53       		.byte	0x53
 2712 0e30 01       		.uleb128 0x1
 2713 0e31 30       		.byte	0x30
 2714 0e32 27       		.uleb128 0x27
 2715 0e33 02       		.uleb128 0x2
 2716 0e34 7D       		.byte	0x7d
 2717 0e35 00       		.sleb128 0
 2718 0e36 05       		.uleb128 0x5
 2719 0e37 03       		.byte	0x3
 2720 0e38 00000000 		.4byte	StatusLedRedTimerCallback
 2721 0e3c 00       		.byte	0
 2722 0e3d 29       		.uleb128 0x29
 2723 0e3e 22000000 		.4byte	.LVL1
 2724 0e42 1E180000 		.4byte	0x181e
 2725 0e46 26       		.uleb128 0x26
 2726 0e47 30000000 		.4byte	.LVL2
 2727 0e4b 2A180000 		.4byte	0x182a
 2728 0e4f 27       		.uleb128 0x27
 2729 0e50 01       		.uleb128 0x1
 2730 0e51 50       		.byte	0x50
 2731 0e52 02       		.uleb128 0x2
 2732 0e53 74       		.byte	0x74
 2733 0e54 00       		.sleb128 0
 2734 0e55 27       		.uleb128 0x27
 2735 0e56 01       		.uleb128 0x1
 2736 0e57 51       		.byte	0x51
 2737 0e58 01       		.uleb128 0x1
 2738 0e59 31       		.byte	0x31
 2739 0e5a 27       		.uleb128 0x27
 2740 0e5b 01       		.uleb128 0x1
 2741 0e5c 53       		.byte	0x53
 2742 0e5d 01       		.uleb128 0x1
 2743 0e5e 30       		.byte	0x30
 2744 0e5f 27       		.uleb128 0x27
 2745 0e60 02       		.uleb128 0x2
 2746 0e61 7D       		.byte	0x7d
 2747 0e62 00       		.sleb128 0
 2748 0e63 01       		.uleb128 0x1
 2749 0e64 30       		.byte	0x30
ARM GAS  C:\Users\codyg\AppData\Local\Temp\cc52IIus.s 			page 78


 2750 0e65 00       		.byte	0
 2751 0e66 00       		.byte	0
 2752 0e67 20       		.uleb128 0x20
 2753 0e68 97130000 		.4byte	.LASF309
 2754 0e6c 01       		.byte	0x1
 2755 0e6d 7B01     		.2byte	0x17b
 2756 0e6f 00000000 		.4byte	.LFB718
 2757 0e73 48000000 		.4byte	.LFE718-.LFB718
 2758 0e77 01       		.uleb128 0x1
 2759 0e78 9C       		.byte	0x9c
 2760 0e79 1A0F0000 		.4byte	0xf1a
 2761 0e7d 2A       		.uleb128 0x2a
 2762 0e7e 31180000 		.4byte	.LASF314
 2763 0e82 01       		.byte	0x1
 2764 0e83 7B01     		.2byte	0x17b
 2765 0e85 8F0C0000 		.4byte	0xc8f
 2766 0e89 6B000000 		.4byte	.LLST5
 2767 0e8d 21       		.uleb128 0x21
 2768 0e8e 96150000 		.4byte	.LASF310
 2769 0e92 01       		.byte	0x1
 2770 0e93 7E01     		.2byte	0x17e
 2771 0e95 DA0B0000 		.4byte	0xbda
 2772 0e99 8C000000 		.4byte	.LLST6
 2773 0e9d 2B       		.uleb128 0x2b
 2774 0e9e 7C1E0000 		.4byte	.LASF311
 2775 0ea2 01       		.byte	0x1
 2776 0ea3 8401     		.2byte	0x184
 2777 0ea5 580C0000 		.4byte	0xc58
 2778 0ea9 02       		.uleb128 0x2
 2779 0eaa 91       		.byte	0x91
 2780 0eab 74       		.sleb128 -12
 2781 0eac 22       		.uleb128 0x22
 2782 0ead 9A0C0000 		.4byte	0xc9a
 2783 0eb1 20000000 		.4byte	.LBB52
 2784 0eb5 14000000 		.4byte	.LBE52-.LBB52
 2785 0eb9 01       		.byte	0x1
 2786 0eba 8D01     		.2byte	0x18d
 2787 0ebc FF0E0000 		.4byte	0xeff
 2788 0ec0 23       		.uleb128 0x23
 2789 0ec1 B10C0000 		.4byte	0xcb1
 2790 0ec5 9F000000 		.4byte	.LLST7
 2791 0ec9 23       		.uleb128 0x23
 2792 0eca A60C0000 		.4byte	0xca6
 2793 0ece B3000000 		.4byte	.LLST8
 2794 0ed2 24       		.uleb128 0x24
 2795 0ed3 20000000 		.4byte	.LBB53
 2796 0ed7 14000000 		.4byte	.LBE53-.LBB53
 2797 0edb 25       		.uleb128 0x25
 2798 0edc BC0C0000 		.4byte	0xcbc
 2799 0ee0 02       		.uleb128 0x2
 2800 0ee1 91       		.byte	0x91
 2801 0ee2 6C       		.sleb128 -20
 2802 0ee3 26       		.uleb128 0x26
 2803 0ee4 34000000 		.4byte	.LVL13
 2804 0ee8 06180000 		.4byte	0x1806
 2805 0eec 27       		.uleb128 0x27
 2806 0eed 01       		.uleb128 0x1
ARM GAS  C:\Users\codyg\AppData\Local\Temp\cc52IIus.s 			page 79


 2807 0eee 51       		.byte	0x51
 2808 0eef 02       		.uleb128 0x2
 2809 0ef0 91       		.byte	0x91
 2810 0ef1 6C       		.sleb128 -20
 2811 0ef2 27       		.uleb128 0x27
 2812 0ef3 01       		.uleb128 0x1
 2813 0ef4 52       		.byte	0x52
 2814 0ef5 01       		.uleb128 0x1
 2815 0ef6 30       		.byte	0x30
 2816 0ef7 27       		.uleb128 0x27
 2817 0ef8 01       		.uleb128 0x1
 2818 0ef9 53       		.byte	0x53
 2819 0efa 01       		.uleb128 0x1
 2820 0efb 30       		.byte	0x30
 2821 0efc 00       		.byte	0
 2822 0efd 00       		.byte	0
 2823 0efe 00       		.byte	0
 2824 0eff 26       		.uleb128 0x26
 2825 0f00 1C000000 		.4byte	.LVL10
 2826 0f04 06180000 		.4byte	0x1806
 2827 0f08 27       		.uleb128 0x27
 2828 0f09 01       		.uleb128 0x1
 2829 0f0a 51       		.byte	0x51
 2830 0f0b 02       		.uleb128 0x2
 2831 0f0c 91       		.byte	0x91
 2832 0f0d 74       		.sleb128 -12
 2833 0f0e 27       		.uleb128 0x27
 2834 0f0f 01       		.uleb128 0x1
 2835 0f10 52       		.byte	0x52
 2836 0f11 01       		.uleb128 0x1
 2837 0f12 30       		.byte	0x30
 2838 0f13 27       		.uleb128 0x27
 2839 0f14 01       		.uleb128 0x1
 2840 0f15 53       		.byte	0x53
 2841 0f16 01       		.uleb128 0x1
 2842 0f17 30       		.byte	0x30
 2843 0f18 00       		.byte	0
 2844 0f19 00       		.byte	0
 2845 0f1a 20       		.uleb128 0x20
 2846 0f1b E10D0000 		.4byte	.LASF312
 2847 0f1f 01       		.byte	0x1
 2848 0f20 3301     		.2byte	0x133
 2849 0f22 00000000 		.4byte	.LFB716
 2850 0f26 7C000000 		.4byte	.LFE716-.LFB716
 2851 0f2a 01       		.uleb128 0x1
 2852 0f2b 9C       		.byte	0x9c
 2853 0f2c 41100000 		.4byte	0x1041
 2854 0f30 21       		.uleb128 0x21
 2855 0f31 96150000 		.4byte	.LASF310
 2856 0f35 01       		.byte	0x1
 2857 0f36 3601     		.2byte	0x136
 2858 0f38 DA0B0000 		.4byte	0xbda
 2859 0f3c CB000000 		.4byte	.LLST9
 2860 0f40 22       		.uleb128 0x22
 2861 0f41 9A0C0000 		.4byte	0xc9a
 2862 0f45 34000000 		.4byte	.LBB54
 2863 0f49 16000000 		.4byte	.LBE54-.LBB54
ARM GAS  C:\Users\codyg\AppData\Local\Temp\cc52IIus.s 			page 80


 2864 0f4d 01       		.byte	0x1
 2865 0f4e 4601     		.2byte	0x146
 2866 0f50 930F0000 		.4byte	0xf93
 2867 0f54 23       		.uleb128 0x23
 2868 0f55 B10C0000 		.4byte	0xcb1
 2869 0f59 DE000000 		.4byte	.LLST10
 2870 0f5d 23       		.uleb128 0x23
 2871 0f5e A60C0000 		.4byte	0xca6
 2872 0f62 F2000000 		.4byte	.LLST11
 2873 0f66 24       		.uleb128 0x24
 2874 0f67 34000000 		.4byte	.LBB55
 2875 0f6b 16000000 		.4byte	.LBE55-.LBB55
 2876 0f6f 25       		.uleb128 0x25
 2877 0f70 BC0C0000 		.4byte	0xcbc
 2878 0f74 02       		.uleb128 0x2
 2879 0f75 91       		.byte	0x91
 2880 0f76 70       		.sleb128 -16
 2881 0f77 26       		.uleb128 0x26
 2882 0f78 48000000 		.4byte	.LVL19
 2883 0f7c 06180000 		.4byte	0x1806
 2884 0f80 27       		.uleb128 0x27
 2885 0f81 01       		.uleb128 0x1
 2886 0f82 51       		.byte	0x51
 2887 0f83 02       		.uleb128 0x2
 2888 0f84 91       		.byte	0x91
 2889 0f85 70       		.sleb128 -16
 2890 0f86 27       		.uleb128 0x27
 2891 0f87 01       		.uleb128 0x1
 2892 0f88 52       		.byte	0x52
 2893 0f89 01       		.uleb128 0x1
 2894 0f8a 30       		.byte	0x30
 2895 0f8b 27       		.uleb128 0x27
 2896 0f8c 01       		.uleb128 0x1
 2897 0f8d 53       		.byte	0x53
 2898 0f8e 01       		.uleb128 0x1
 2899 0f8f 30       		.byte	0x30
 2900 0f90 00       		.byte	0
 2901 0f91 00       		.byte	0
 2902 0f92 00       		.byte	0
 2903 0f93 22       		.uleb128 0x22
 2904 0f94 9A0C0000 		.4byte	0xc9a
 2905 0f98 4A000000 		.4byte	.LBB56
 2906 0f9c 14000000 		.4byte	.LBE56-.LBB56
 2907 0fa0 01       		.byte	0x1
 2908 0fa1 4C01     		.2byte	0x14c
 2909 0fa3 E60F0000 		.4byte	0xfe6
 2910 0fa7 23       		.uleb128 0x23
 2911 0fa8 B10C0000 		.4byte	0xcb1
 2912 0fac 0A010000 		.4byte	.LLST12
 2913 0fb0 23       		.uleb128 0x23
 2914 0fb1 A60C0000 		.4byte	0xca6
 2915 0fb5 1E010000 		.4byte	.LLST13
 2916 0fb9 24       		.uleb128 0x24
 2917 0fba 4A000000 		.4byte	.LBB57
 2918 0fbe 14000000 		.4byte	.LBE57-.LBB57
 2919 0fc2 25       		.uleb128 0x25
 2920 0fc3 BC0C0000 		.4byte	0xcbc
ARM GAS  C:\Users\codyg\AppData\Local\Temp\cc52IIus.s 			page 81


 2921 0fc7 02       		.uleb128 0x2
 2922 0fc8 91       		.byte	0x91
 2923 0fc9 70       		.sleb128 -16
 2924 0fca 26       		.uleb128 0x26
 2925 0fcb 5E000000 		.4byte	.LVL21
 2926 0fcf 06180000 		.4byte	0x1806
 2927 0fd3 27       		.uleb128 0x27
 2928 0fd4 01       		.uleb128 0x1
 2929 0fd5 51       		.byte	0x51
 2930 0fd6 02       		.uleb128 0x2
 2931 0fd7 91       		.byte	0x91
 2932 0fd8 70       		.sleb128 -16
 2933 0fd9 27       		.uleb128 0x27
 2934 0fda 01       		.uleb128 0x1
 2935 0fdb 52       		.byte	0x52
 2936 0fdc 01       		.uleb128 0x1
 2937 0fdd 30       		.byte	0x30
 2938 0fde 27       		.uleb128 0x27
 2939 0fdf 01       		.uleb128 0x1
 2940 0fe0 53       		.byte	0x53
 2941 0fe1 01       		.uleb128 0x1
 2942 0fe2 30       		.byte	0x30
 2943 0fe3 00       		.byte	0
 2944 0fe4 00       		.byte	0
 2945 0fe5 00       		.byte	0
 2946 0fe6 28       		.uleb128 0x28
 2947 0fe7 16000000 		.4byte	.LVL14
 2948 0feb 12180000 		.4byte	0x1812
 2949 0fef 17100000 		.4byte	0x1017
 2950 0ff3 27       		.uleb128 0x27
 2951 0ff4 01       		.uleb128 0x1
 2952 0ff5 50       		.byte	0x50
 2953 0ff6 05       		.uleb128 0x5
 2954 0ff7 03       		.byte	0x3
 2955 0ff8 BC000000 		.4byte	.LC4
 2956 0ffc 27       		.uleb128 0x27
 2957 0ffd 01       		.uleb128 0x1
 2958 0ffe 51       		.byte	0x51
 2959 0fff 02       		.uleb128 0x2
 2960 1000 09       		.byte	0x9
 2961 1001 FF       		.byte	0xff
 2962 1002 27       		.uleb128 0x27
 2963 1003 01       		.uleb128 0x1
 2964 1004 52       		.byte	0x52
 2965 1005 01       		.uleb128 0x1
 2966 1006 31       		.byte	0x31
 2967 1007 27       		.uleb128 0x27
 2968 1008 01       		.uleb128 0x1
 2969 1009 53       		.byte	0x53
 2970 100a 01       		.uleb128 0x1
 2971 100b 30       		.byte	0x30
 2972 100c 27       		.uleb128 0x27
 2973 100d 02       		.uleb128 0x2
 2974 100e 7D       		.byte	0x7d
 2975 100f 00       		.sleb128 0
 2976 1010 05       		.uleb128 0x5
 2977 1011 03       		.byte	0x3
ARM GAS  C:\Users\codyg\AppData\Local\Temp\cc52IIus.s 			page 82


 2978 1012 00000000 		.4byte	StatusLedOrangeTimerCallback
 2979 1016 00       		.byte	0
 2980 1017 29       		.uleb128 0x29
 2981 1018 22000000 		.4byte	.LVL15
 2982 101c 1E180000 		.4byte	0x181e
 2983 1020 26       		.uleb128 0x26
 2984 1021 30000000 		.4byte	.LVL16
 2985 1025 2A180000 		.4byte	0x182a
 2986 1029 27       		.uleb128 0x27
 2987 102a 01       		.uleb128 0x1
 2988 102b 50       		.byte	0x50
 2989 102c 02       		.uleb128 0x2
 2990 102d 74       		.byte	0x74
 2991 102e 00       		.sleb128 0
 2992 102f 27       		.uleb128 0x27
 2993 1030 01       		.uleb128 0x1
 2994 1031 51       		.byte	0x51
 2995 1032 01       		.uleb128 0x1
 2996 1033 31       		.byte	0x31
 2997 1034 27       		.uleb128 0x27
 2998 1035 01       		.uleb128 0x1
 2999 1036 53       		.byte	0x53
 3000 1037 01       		.uleb128 0x1
 3001 1038 30       		.byte	0x30
 3002 1039 27       		.uleb128 0x27
 3003 103a 02       		.uleb128 0x2
 3004 103b 7D       		.byte	0x7d
 3005 103c 00       		.sleb128 0
 3006 103d 01       		.uleb128 0x1
 3007 103e 30       		.byte	0x30
 3008 103f 00       		.byte	0
 3009 1040 00       		.byte	0
 3010 1041 20       		.uleb128 0x20
 3011 1042 2D190000 		.4byte	.LASF313
 3012 1046 01       		.byte	0x1
 3013 1047 0D01     		.2byte	0x10d
 3014 1049 00000000 		.4byte	.LFB715
 3015 104d 48000000 		.4byte	.LFE715-.LFB715
 3016 1051 01       		.uleb128 0x1
 3017 1052 9C       		.byte	0x9c
 3018 1053 F4100000 		.4byte	0x10f4
 3019 1057 2A       		.uleb128 0x2a
 3020 1058 31180000 		.4byte	.LASF314
 3021 105c 01       		.byte	0x1
 3022 105d 0D01     		.2byte	0x10d
 3023 105f 8F0C0000 		.4byte	0xc8f
 3024 1063 36010000 		.4byte	.LLST14
 3025 1067 21       		.uleb128 0x21
 3026 1068 96150000 		.4byte	.LASF310
 3027 106c 01       		.byte	0x1
 3028 106d 1001     		.2byte	0x110
 3029 106f DA0B0000 		.4byte	0xbda
 3030 1073 57010000 		.4byte	.LLST15
 3031 1077 2B       		.uleb128 0x2b
 3032 1078 7C1E0000 		.4byte	.LASF311
 3033 107c 01       		.byte	0x1
 3034 107d 1701     		.2byte	0x117
ARM GAS  C:\Users\codyg\AppData\Local\Temp\cc52IIus.s 			page 83


 3035 107f 580C0000 		.4byte	0xc58
 3036 1083 02       		.uleb128 0x2
 3037 1084 91       		.byte	0x91
 3038 1085 74       		.sleb128 -12
 3039 1086 22       		.uleb128 0x22
 3040 1087 9A0C0000 		.4byte	0xc9a
 3041 108b 20000000 		.4byte	.LBB58
 3042 108f 14000000 		.4byte	.LBE58-.LBB58
 3043 1093 01       		.byte	0x1
 3044 1094 2001     		.2byte	0x120
 3045 1096 D9100000 		.4byte	0x10d9
 3046 109a 23       		.uleb128 0x23
 3047 109b B10C0000 		.4byte	0xcb1
 3048 109f 6A010000 		.4byte	.LLST16
 3049 10a3 23       		.uleb128 0x23
 3050 10a4 A60C0000 		.4byte	0xca6
 3051 10a8 7E010000 		.4byte	.LLST17
 3052 10ac 24       		.uleb128 0x24
 3053 10ad 20000000 		.4byte	.LBB59
 3054 10b1 14000000 		.4byte	.LBE59-.LBB59
 3055 10b5 25       		.uleb128 0x25
 3056 10b6 BC0C0000 		.4byte	0xcbc
 3057 10ba 02       		.uleb128 0x2
 3058 10bb 91       		.byte	0x91
 3059 10bc 6C       		.sleb128 -20
 3060 10bd 26       		.uleb128 0x26
 3061 10be 34000000 		.4byte	.LVL27
 3062 10c2 06180000 		.4byte	0x1806
 3063 10c6 27       		.uleb128 0x27
 3064 10c7 01       		.uleb128 0x1
 3065 10c8 51       		.byte	0x51
 3066 10c9 02       		.uleb128 0x2
 3067 10ca 91       		.byte	0x91
 3068 10cb 6C       		.sleb128 -20
 3069 10cc 27       		.uleb128 0x27
 3070 10cd 01       		.uleb128 0x1
 3071 10ce 52       		.byte	0x52
 3072 10cf 01       		.uleb128 0x1
 3073 10d0 30       		.byte	0x30
 3074 10d1 27       		.uleb128 0x27
 3075 10d2 01       		.uleb128 0x1
 3076 10d3 53       		.byte	0x53
 3077 10d4 01       		.uleb128 0x1
 3078 10d5 30       		.byte	0x30
 3079 10d6 00       		.byte	0
 3080 10d7 00       		.byte	0
 3081 10d8 00       		.byte	0
 3082 10d9 26       		.uleb128 0x26
 3083 10da 1C000000 		.4byte	.LVL24
 3084 10de 06180000 		.4byte	0x1806
 3085 10e2 27       		.uleb128 0x27
 3086 10e3 01       		.uleb128 0x1
 3087 10e4 51       		.byte	0x51
 3088 10e5 02       		.uleb128 0x2
 3089 10e6 91       		.byte	0x91
 3090 10e7 74       		.sleb128 -12
 3091 10e8 27       		.uleb128 0x27
ARM GAS  C:\Users\codyg\AppData\Local\Temp\cc52IIus.s 			page 84


 3092 10e9 01       		.uleb128 0x1
 3093 10ea 52       		.byte	0x52
 3094 10eb 01       		.uleb128 0x1
 3095 10ec 30       		.byte	0x30
 3096 10ed 27       		.uleb128 0x27
 3097 10ee 01       		.uleb128 0x1
 3098 10ef 53       		.byte	0x53
 3099 10f0 01       		.uleb128 0x1
 3100 10f1 30       		.byte	0x30
 3101 10f2 00       		.byte	0
 3102 10f3 00       		.byte	0
 3103 10f4 20       		.uleb128 0x20
 3104 10f5 8B160000 		.4byte	.LASF315
 3105 10f9 01       		.byte	0x1
 3106 10fa 5E01     		.2byte	0x15e
 3107 10fc 00000000 		.4byte	.LFB717
 3108 1100 40000000 		.4byte	.LFE717-.LFB717
 3109 1104 01       		.uleb128 0x1
 3110 1105 9C       		.byte	0x9c
 3111 1106 A5110000 		.4byte	0x11a5
 3112 110a 2A       		.uleb128 0x2a
 3113 110b 7E1C0000 		.4byte	.LASF60
 3114 110f 01       		.byte	0x1
 3115 1110 5E01     		.2byte	0x15e
 3116 1112 E50B0000 		.4byte	0xbe5
 3117 1116 96010000 		.4byte	.LLST18
 3118 111a 21       		.uleb128 0x21
 3119 111b 96150000 		.4byte	.LASF310
 3120 111f 01       		.byte	0x1
 3121 1120 6101     		.2byte	0x161
 3122 1122 DA0B0000 		.4byte	0xbda
 3123 1126 C2010000 		.4byte	.LLST19
 3124 112a 22       		.uleb128 0x22
 3125 112b 9A0C0000 		.4byte	0xc9a
 3126 112f 1A000000 		.4byte	.LBB60
 3127 1133 14000000 		.4byte	.LBE60-.LBB60
 3128 1137 01       		.byte	0x1
 3129 1138 6901     		.2byte	0x169
 3130 113a 7D110000 		.4byte	0x117d
 3131 113e 23       		.uleb128 0x23
 3132 113f B10C0000 		.4byte	0xcb1
 3133 1143 D5010000 		.4byte	.LLST20
 3134 1147 23       		.uleb128 0x23
 3135 1148 A60C0000 		.4byte	0xca6
 3136 114c E9010000 		.4byte	.LLST21
 3137 1150 24       		.uleb128 0x24
 3138 1151 1A000000 		.4byte	.LBB61
 3139 1155 14000000 		.4byte	.LBE61-.LBB61
 3140 1159 25       		.uleb128 0x25
 3141 115a BC0C0000 		.4byte	0xcbc
 3142 115e 02       		.uleb128 0x2
 3143 115f 91       		.byte	0x91
 3144 1160 70       		.sleb128 -16
 3145 1161 26       		.uleb128 0x26
 3146 1162 2E000000 		.4byte	.LVL33
 3147 1166 06180000 		.4byte	0x1806
 3148 116a 27       		.uleb128 0x27
ARM GAS  C:\Users\codyg\AppData\Local\Temp\cc52IIus.s 			page 85


 3149 116b 01       		.uleb128 0x1
 3150 116c 51       		.byte	0x51
 3151 116d 02       		.uleb128 0x2
 3152 116e 91       		.byte	0x91
 3153 116f 70       		.sleb128 -16
 3154 1170 27       		.uleb128 0x27
 3155 1171 01       		.uleb128 0x1
 3156 1172 52       		.byte	0x52
 3157 1173 01       		.uleb128 0x1
 3158 1174 30       		.byte	0x30
 3159 1175 27       		.uleb128 0x27
 3160 1176 01       		.uleb128 0x1
 3161 1177 53       		.byte	0x53
 3162 1178 01       		.uleb128 0x1
 3163 1179 30       		.byte	0x30
 3164 117a 00       		.byte	0
 3165 117b 00       		.byte	0
 3166 117c 00       		.byte	0
 3167 117d 26       		.uleb128 0x26
 3168 117e 16000000 		.4byte	.LVL30
 3169 1182 2A180000 		.4byte	0x182a
 3170 1186 27       		.uleb128 0x27
 3171 1187 01       		.uleb128 0x1
 3172 1188 50       		.byte	0x50
 3173 1189 02       		.uleb128 0x2
 3174 118a 74       		.byte	0x74
 3175 118b 00       		.sleb128 0
 3176 118c 27       		.uleb128 0x27
 3177 118d 01       		.uleb128 0x1
 3178 118e 51       		.byte	0x51
 3179 118f 01       		.uleb128 0x1
 3180 1190 34       		.byte	0x34
 3181 1191 27       		.uleb128 0x27
 3182 1192 01       		.uleb128 0x1
 3183 1193 52       		.byte	0x52
 3184 1194 03       		.uleb128 0x3
 3185 1195 F3       		.byte	0xf3
 3186 1196 01       		.uleb128 0x1
 3187 1197 50       		.byte	0x50
 3188 1198 27       		.uleb128 0x27
 3189 1199 01       		.uleb128 0x1
 3190 119a 53       		.byte	0x53
 3191 119b 01       		.uleb128 0x1
 3192 119c 30       		.byte	0x30
 3193 119d 27       		.uleb128 0x27
 3194 119e 02       		.uleb128 0x2
 3195 119f 7D       		.byte	0x7d
 3196 11a0 00       		.sleb128 0
 3197 11a1 01       		.uleb128 0x1
 3198 11a2 30       		.byte	0x30
 3199 11a3 00       		.byte	0
 3200 11a4 00       		.byte	0
 3201 11a5 20       		.uleb128 0x20
 3202 11a6 1C060000 		.4byte	.LASF316
 3203 11aa 01       		.byte	0x1
 3204 11ab C901     		.2byte	0x1c9
 3205 11ad 00000000 		.4byte	.LFB720
ARM GAS  C:\Users\codyg\AppData\Local\Temp\cc52IIus.s 			page 86


 3206 11b1 40000000 		.4byte	.LFE720-.LFB720
 3207 11b5 01       		.uleb128 0x1
 3208 11b6 9C       		.byte	0x9c
 3209 11b7 56120000 		.4byte	0x1256
 3210 11bb 2A       		.uleb128 0x2a
 3211 11bc 7E1C0000 		.4byte	.LASF60
 3212 11c0 01       		.byte	0x1
 3213 11c1 C901     		.2byte	0x1c9
 3214 11c3 E50B0000 		.4byte	0xbe5
 3215 11c7 01020000 		.4byte	.LLST22
 3216 11cb 21       		.uleb128 0x21
 3217 11cc 96150000 		.4byte	.LASF310
 3218 11d0 01       		.byte	0x1
 3219 11d1 CC01     		.2byte	0x1cc
 3220 11d3 DA0B0000 		.4byte	0xbda
 3221 11d7 2D020000 		.4byte	.LLST23
 3222 11db 22       		.uleb128 0x22
 3223 11dc 9A0C0000 		.4byte	0xc9a
 3224 11e0 1A000000 		.4byte	.LBB62
 3225 11e4 14000000 		.4byte	.LBE62-.LBB62
 3226 11e8 01       		.byte	0x1
 3227 11e9 D401     		.2byte	0x1d4
 3228 11eb 2E120000 		.4byte	0x122e
 3229 11ef 23       		.uleb128 0x23
 3230 11f0 B10C0000 		.4byte	0xcb1
 3231 11f4 40020000 		.4byte	.LLST24
 3232 11f8 23       		.uleb128 0x23
 3233 11f9 A60C0000 		.4byte	0xca6
 3234 11fd 54020000 		.4byte	.LLST25
 3235 1201 24       		.uleb128 0x24
 3236 1202 1A000000 		.4byte	.LBB63
 3237 1206 14000000 		.4byte	.LBE63-.LBB63
 3238 120a 25       		.uleb128 0x25
 3239 120b BC0C0000 		.4byte	0xcbc
 3240 120f 02       		.uleb128 0x2
 3241 1210 91       		.byte	0x91
 3242 1211 70       		.sleb128 -16
 3243 1212 26       		.uleb128 0x26
 3244 1213 2E000000 		.4byte	.LVL39
 3245 1217 06180000 		.4byte	0x1806
 3246 121b 27       		.uleb128 0x27
 3247 121c 01       		.uleb128 0x1
 3248 121d 51       		.byte	0x51
 3249 121e 02       		.uleb128 0x2
 3250 121f 91       		.byte	0x91
 3251 1220 70       		.sleb128 -16
 3252 1221 27       		.uleb128 0x27
 3253 1222 01       		.uleb128 0x1
 3254 1223 52       		.byte	0x52
 3255 1224 01       		.uleb128 0x1
 3256 1225 30       		.byte	0x30
 3257 1226 27       		.uleb128 0x27
 3258 1227 01       		.uleb128 0x1
 3259 1228 53       		.byte	0x53
 3260 1229 01       		.uleb128 0x1
 3261 122a 30       		.byte	0x30
 3262 122b 00       		.byte	0
ARM GAS  C:\Users\codyg\AppData\Local\Temp\cc52IIus.s 			page 87


 3263 122c 00       		.byte	0
 3264 122d 00       		.byte	0
 3265 122e 26       		.uleb128 0x26
 3266 122f 16000000 		.4byte	.LVL36
 3267 1233 2A180000 		.4byte	0x182a
 3268 1237 27       		.uleb128 0x27
 3269 1238 01       		.uleb128 0x1
 3270 1239 50       		.byte	0x50
 3271 123a 02       		.uleb128 0x2
 3272 123b 74       		.byte	0x74
 3273 123c 00       		.sleb128 0
 3274 123d 27       		.uleb128 0x27
 3275 123e 01       		.uleb128 0x1
 3276 123f 51       		.byte	0x51
 3277 1240 01       		.uleb128 0x1
 3278 1241 34       		.byte	0x34
 3279 1242 27       		.uleb128 0x27
 3280 1243 01       		.uleb128 0x1
 3281 1244 52       		.byte	0x52
 3282 1245 03       		.uleb128 0x3
 3283 1246 F3       		.byte	0xf3
 3284 1247 01       		.uleb128 0x1
 3285 1248 50       		.byte	0x50
 3286 1249 27       		.uleb128 0x27
 3287 124a 01       		.uleb128 0x1
 3288 124b 53       		.byte	0x53
 3289 124c 01       		.uleb128 0x1
 3290 124d 30       		.byte	0x30
 3291 124e 27       		.uleb128 0x27
 3292 124f 02       		.uleb128 0x2
 3293 1250 7D       		.byte	0x7d
 3294 1251 00       		.sleb128 0
 3295 1252 01       		.uleb128 0x1
 3296 1253 30       		.byte	0x30
 3297 1254 00       		.byte	0
 3298 1255 00       		.byte	0
 3299 1256 2C       		.uleb128 0x2c
 3300 1257 F7190000 		.4byte	.LASF348
 3301 125b 01       		.byte	0x1
 3302 125c 59       		.byte	0x59
 3303 125d 00000000 		.4byte	.LFB714
 3304 1261 EC010000 		.4byte	.LFE714-.LFB714
 3305 1265 01       		.uleb128 0x1
 3306 1266 9C       		.byte	0x9c
 3307 1267 C9160000 		.4byte	0x16c9
 3308 126b 2D       		.uleb128 0x2d
 3309 126c 38160000 		.4byte	.LASF317
 3310 1270 01       		.byte	0x1
 3311 1271 59       		.byte	0x59
 3312 1272 85020000 		.4byte	0x285
 3313 1276 6C020000 		.4byte	.LLST26
 3314 127a 2E       		.uleb128 0x2e
 3315 127b 981C0000 		.4byte	.LASF318
 3316 127f 01       		.byte	0x1
 3317 1280 5C       		.byte	0x5c
 3318 1281 580C0000 		.4byte	0xc58
 3319 1285 02       		.uleb128 0x2
ARM GAS  C:\Users\codyg\AppData\Local\Temp\cc52IIus.s 			page 88


 3320 1286 91       		.byte	0x91
 3321 1287 74       		.sleb128 -12
 3322 1288 2E       		.uleb128 0x2e
 3323 1289 970D0000 		.4byte	.LASF319
 3324 128d 01       		.byte	0x1
 3325 128e 5F       		.byte	0x5f
 3326 128f 2C0C0000 		.4byte	0xc2c
 3327 1293 05       		.uleb128 0x5
 3328 1294 03       		.byte	0x3
 3329 1295 01000000 		.4byte	redLedState.20234
 3330 1299 2E       		.uleb128 0x2e
 3331 129a EC030000 		.4byte	.LASF320
 3332 129e 01       		.byte	0x1
 3333 129f 60       		.byte	0x60
 3334 12a0 2C0C0000 		.4byte	0xc2c
 3335 12a4 05       		.uleb128 0x5
 3336 12a5 03       		.byte	0x3
 3337 12a6 00000000 		.4byte	orangeLedState.20235
 3338 12aa 2F       		.uleb128 0x2f
 3339 12ab 96150000 		.4byte	.LASF310
 3340 12af 01       		.byte	0x1
 3341 12b0 63       		.byte	0x63
 3342 12b1 DA0B0000 		.4byte	0xbda
 3343 12b5 8D020000 		.4byte	.LLST27
 3344 12b9 30       		.uleb128 0x30
 3345 12ba C80C0000 		.4byte	0xcc8
 3346 12be 34000000 		.4byte	.LBB64
 3347 12c2 06000000 		.4byte	.LBE64-.LBB64
 3348 12c6 01       		.byte	0x1
 3349 12c7 7D       		.byte	0x7d
 3350 12c8 DF120000 		.4byte	0x12df
 3351 12cc 23       		.uleb128 0x23
 3352 12cd E10C0000 		.4byte	0xce1
 3353 12d1 ED020000 		.4byte	.LLST28
 3354 12d5 23       		.uleb128 0x23
 3355 12d6 D50C0000 		.4byte	0xcd5
 3356 12da 01030000 		.4byte	.LLST29
 3357 12de 00       		.byte	0
 3358 12df 30       		.uleb128 0x30
 3359 12e0 F40C0000 		.4byte	0xcf4
 3360 12e4 4A000000 		.4byte	.LBB66
 3361 12e8 06000000 		.4byte	.LBE66-.LBB66
 3362 12ec 01       		.byte	0x1
 3363 12ed 84       		.byte	0x84
 3364 12ee 05130000 		.4byte	0x1305
 3365 12f2 23       		.uleb128 0x23
 3366 12f3 0D0D0000 		.4byte	0xd0d
 3367 12f7 19030000 		.4byte	.LLST30
 3368 12fb 23       		.uleb128 0x23
 3369 12fc 010D0000 		.4byte	0xd01
 3370 1300 2D030000 		.4byte	.LLST31
 3371 1304 00       		.byte	0
 3372 1305 30       		.uleb128 0x30
 3373 1306 C80C0000 		.4byte	0xcc8
 3374 130a 70000000 		.4byte	.LBB68
 3375 130e 06000000 		.4byte	.LBE68-.LBB68
 3376 1312 01       		.byte	0x1
ARM GAS  C:\Users\codyg\AppData\Local\Temp\cc52IIus.s 			page 89


 3377 1313 91       		.byte	0x91
 3378 1314 2B130000 		.4byte	0x132b
 3379 1318 23       		.uleb128 0x23
 3380 1319 E10C0000 		.4byte	0xce1
 3381 131d 45030000 		.4byte	.LLST32
 3382 1321 23       		.uleb128 0x23
 3383 1322 D50C0000 		.4byte	0xcd5
 3384 1326 59030000 		.4byte	.LLST33
 3385 132a 00       		.byte	0
 3386 132b 30       		.uleb128 0x30
 3387 132c 1A0D0000 		.4byte	0xd1a
 3388 1330 8E000000 		.4byte	.LBB70
 3389 1334 08000000 		.4byte	.LBE70-.LBB70
 3390 1338 01       		.byte	0x1
 3391 1339 9B       		.byte	0x9b
 3392 133a 51130000 		.4byte	0x1351
 3393 133e 23       		.uleb128 0x23
 3394 133f 330D0000 		.4byte	0xd33
 3395 1343 71030000 		.4byte	.LLST34
 3396 1347 23       		.uleb128 0x23
 3397 1348 270D0000 		.4byte	0xd27
 3398 134c 85030000 		.4byte	.LLST35
 3399 1350 00       		.byte	0
 3400 1351 30       		.uleb128 0x30
 3401 1352 F40C0000 		.4byte	0xcf4
 3402 1356 9A000000 		.4byte	.LBB72
 3403 135a 06000000 		.4byte	.LBE72-.LBB72
 3404 135e 01       		.byte	0x1
 3405 135f A1       		.byte	0xa1
 3406 1360 77130000 		.4byte	0x1377
 3407 1364 23       		.uleb128 0x23
 3408 1365 0D0D0000 		.4byte	0xd0d
 3409 1369 9D030000 		.4byte	.LLST36
 3410 136d 23       		.uleb128 0x23
 3411 136e 010D0000 		.4byte	0xd01
 3412 1372 B1030000 		.4byte	.LLST37
 3413 1376 00       		.byte	0
 3414 1377 30       		.uleb128 0x30
 3415 1378 9A0C0000 		.4byte	0xc9a
 3416 137c B0000000 		.4byte	.LBB74
 3417 1380 16000000 		.4byte	.LBE74-.LBB74
 3418 1384 01       		.byte	0x1
 3419 1385 A9       		.byte	0xa9
 3420 1386 C9130000 		.4byte	0x13c9
 3421 138a 23       		.uleb128 0x23
 3422 138b B10C0000 		.4byte	0xcb1
 3423 138f C9030000 		.4byte	.LLST38
 3424 1393 23       		.uleb128 0x23
 3425 1394 A60C0000 		.4byte	0xca6
 3426 1398 DD030000 		.4byte	.LLST39
 3427 139c 24       		.uleb128 0x24
 3428 139d B0000000 		.4byte	.LBB75
 3429 13a1 16000000 		.4byte	.LBE75-.LBB75
 3430 13a5 25       		.uleb128 0x25
 3431 13a6 BC0C0000 		.4byte	0xcbc
 3432 13aa 02       		.uleb128 0x2
 3433 13ab 91       		.byte	0x91
ARM GAS  C:\Users\codyg\AppData\Local\Temp\cc52IIus.s 			page 90


 3434 13ac 6C       		.sleb128 -20
 3435 13ad 26       		.uleb128 0x26
 3436 13ae C4000000 		.4byte	.LVL68
 3437 13b2 06180000 		.4byte	0x1806
 3438 13b6 27       		.uleb128 0x27
 3439 13b7 01       		.uleb128 0x1
 3440 13b8 51       		.byte	0x51
 3441 13b9 02       		.uleb128 0x2
 3442 13ba 91       		.byte	0x91
 3443 13bb 6C       		.sleb128 -20
 3444 13bc 27       		.uleb128 0x27
 3445 13bd 01       		.uleb128 0x1
 3446 13be 52       		.byte	0x52
 3447 13bf 01       		.uleb128 0x1
 3448 13c0 30       		.byte	0x30
 3449 13c1 27       		.uleb128 0x27
 3450 13c2 01       		.uleb128 0x1
 3451 13c3 53       		.byte	0x53
 3452 13c4 01       		.uleb128 0x1
 3453 13c5 30       		.byte	0x30
 3454 13c6 00       		.byte	0
 3455 13c7 00       		.byte	0
 3456 13c8 00       		.byte	0
 3457 13c9 30       		.uleb128 0x30
 3458 13ca 9A0C0000 		.4byte	0xc9a
 3459 13ce C6000000 		.4byte	.LBB76
 3460 13d2 14000000 		.4byte	.LBE76-.LBB76
 3461 13d6 01       		.byte	0x1
 3462 13d7 B0       		.byte	0xb0
 3463 13d8 1B140000 		.4byte	0x141b
 3464 13dc 23       		.uleb128 0x23
 3465 13dd B10C0000 		.4byte	0xcb1
 3466 13e1 F5030000 		.4byte	.LLST40
 3467 13e5 23       		.uleb128 0x23
 3468 13e6 A60C0000 		.4byte	0xca6
 3469 13ea 14040000 		.4byte	.LLST41
 3470 13ee 24       		.uleb128 0x24
 3471 13ef C6000000 		.4byte	.LBB77
 3472 13f3 14000000 		.4byte	.LBE77-.LBB77
 3473 13f7 25       		.uleb128 0x25
 3474 13f8 BC0C0000 		.4byte	0xcbc
 3475 13fc 02       		.uleb128 0x2
 3476 13fd 91       		.byte	0x91
 3477 13fe 6C       		.sleb128 -20
 3478 13ff 26       		.uleb128 0x26
 3479 1400 DA000000 		.4byte	.LVL72
 3480 1404 06180000 		.4byte	0x1806
 3481 1408 27       		.uleb128 0x27
 3482 1409 01       		.uleb128 0x1
 3483 140a 51       		.byte	0x51
 3484 140b 02       		.uleb128 0x2
 3485 140c 91       		.byte	0x91
 3486 140d 6C       		.sleb128 -20
 3487 140e 27       		.uleb128 0x27
 3488 140f 01       		.uleb128 0x1
 3489 1410 52       		.byte	0x52
 3490 1411 01       		.uleb128 0x1
ARM GAS  C:\Users\codyg\AppData\Local\Temp\cc52IIus.s 			page 91


 3491 1412 30       		.byte	0x30
 3492 1413 27       		.uleb128 0x27
 3493 1414 01       		.uleb128 0x1
 3494 1415 53       		.byte	0x53
 3495 1416 01       		.uleb128 0x1
 3496 1417 30       		.byte	0x30
 3497 1418 00       		.byte	0
 3498 1419 00       		.byte	0
 3499 141a 00       		.byte	0
 3500 141b 30       		.uleb128 0x30
 3501 141c C80C0000 		.4byte	0xcc8
 3502 1420 00010000 		.4byte	.LBB78
 3503 1424 06000000 		.4byte	.LBE78-.LBB78
 3504 1428 01       		.byte	0x1
 3505 1429 BE       		.byte	0xbe
 3506 142a 41140000 		.4byte	0x1441
 3507 142e 23       		.uleb128 0x23
 3508 142f E10C0000 		.4byte	0xce1
 3509 1433 2C040000 		.4byte	.LLST42
 3510 1437 23       		.uleb128 0x23
 3511 1438 D50C0000 		.4byte	0xcd5
 3512 143c 40040000 		.4byte	.LLST43
 3513 1440 00       		.byte	0
 3514 1441 30       		.uleb128 0x30
 3515 1442 F40C0000 		.4byte	0xcf4
 3516 1446 16010000 		.4byte	.LBB80
 3517 144a 06000000 		.4byte	.LBE80-.LBB80
 3518 144e 01       		.byte	0x1
 3519 144f C5       		.byte	0xc5
 3520 1450 67140000 		.4byte	0x1467
 3521 1454 23       		.uleb128 0x23
 3522 1455 0D0D0000 		.4byte	0xd0d
 3523 1459 58040000 		.4byte	.LLST44
 3524 145d 23       		.uleb128 0x23
 3525 145e 010D0000 		.4byte	0xd01
 3526 1462 6C040000 		.4byte	.LLST45
 3527 1466 00       		.byte	0
 3528 1467 30       		.uleb128 0x30
 3529 1468 C80C0000 		.4byte	0xcc8
 3530 146c 3C010000 		.4byte	.LBB82
 3531 1470 06000000 		.4byte	.LBE82-.LBB82
 3532 1474 01       		.byte	0x1
 3533 1475 D2       		.byte	0xd2
 3534 1476 8D140000 		.4byte	0x148d
 3535 147a 23       		.uleb128 0x23
 3536 147b E10C0000 		.4byte	0xce1
 3537 147f 84040000 		.4byte	.LLST46
 3538 1483 23       		.uleb128 0x23
 3539 1484 D50C0000 		.4byte	0xcd5
 3540 1488 98040000 		.4byte	.LLST47
 3541 148c 00       		.byte	0
 3542 148d 30       		.uleb128 0x30
 3543 148e 1A0D0000 		.4byte	0xd1a
 3544 1492 5A010000 		.4byte	.LBB84
 3545 1496 08000000 		.4byte	.LBE84-.LBB84
 3546 149a 01       		.byte	0x1
 3547 149b DC       		.byte	0xdc
ARM GAS  C:\Users\codyg\AppData\Local\Temp\cc52IIus.s 			page 92


 3548 149c B3140000 		.4byte	0x14b3
 3549 14a0 23       		.uleb128 0x23
 3550 14a1 330D0000 		.4byte	0xd33
 3551 14a5 B0040000 		.4byte	.LLST48
 3552 14a9 23       		.uleb128 0x23
 3553 14aa 270D0000 		.4byte	0xd27
 3554 14ae C4040000 		.4byte	.LLST49
 3555 14b2 00       		.byte	0
 3556 14b3 30       		.uleb128 0x30
 3557 14b4 F40C0000 		.4byte	0xcf4
 3558 14b8 66010000 		.4byte	.LBB86
 3559 14bc 06000000 		.4byte	.LBE86-.LBB86
 3560 14c0 01       		.byte	0x1
 3561 14c1 E2       		.byte	0xe2
 3562 14c2 D9140000 		.4byte	0x14d9
 3563 14c6 23       		.uleb128 0x23
 3564 14c7 0D0D0000 		.4byte	0xd0d
 3565 14cb DC040000 		.4byte	.LLST50
 3566 14cf 23       		.uleb128 0x23
 3567 14d0 010D0000 		.4byte	0xd01
 3568 14d4 F0040000 		.4byte	.LLST51
 3569 14d8 00       		.byte	0
 3570 14d9 30       		.uleb128 0x30
 3571 14da 9A0C0000 		.4byte	0xc9a
 3572 14de 7C010000 		.4byte	.LBB88
 3573 14e2 16000000 		.4byte	.LBE88-.LBB88
 3574 14e6 01       		.byte	0x1
 3575 14e7 EA       		.byte	0xea
 3576 14e8 2B150000 		.4byte	0x152b
 3577 14ec 23       		.uleb128 0x23
 3578 14ed B10C0000 		.4byte	0xcb1
 3579 14f1 08050000 		.4byte	.LLST52
 3580 14f5 23       		.uleb128 0x23
 3581 14f6 A60C0000 		.4byte	0xca6
 3582 14fa 1C050000 		.4byte	.LLST53
 3583 14fe 24       		.uleb128 0x24
 3584 14ff 7C010000 		.4byte	.LBB89
 3585 1503 16000000 		.4byte	.LBE89-.LBB89
 3586 1507 25       		.uleb128 0x25
 3587 1508 BC0C0000 		.4byte	0xcbc
 3588 150c 02       		.uleb128 0x2
 3589 150d 91       		.byte	0x91
 3590 150e 6C       		.sleb128 -20
 3591 150f 26       		.uleb128 0x26
 3592 1510 90010000 		.4byte	.LVL89
 3593 1514 06180000 		.4byte	0x1806
 3594 1518 27       		.uleb128 0x27
 3595 1519 01       		.uleb128 0x1
 3596 151a 51       		.byte	0x51
 3597 151b 02       		.uleb128 0x2
 3598 151c 91       		.byte	0x91
 3599 151d 6C       		.sleb128 -20
 3600 151e 27       		.uleb128 0x27
 3601 151f 01       		.uleb128 0x1
 3602 1520 52       		.byte	0x52
 3603 1521 01       		.uleb128 0x1
 3604 1522 30       		.byte	0x30
ARM GAS  C:\Users\codyg\AppData\Local\Temp\cc52IIus.s 			page 93


 3605 1523 27       		.uleb128 0x27
 3606 1524 01       		.uleb128 0x1
 3607 1525 53       		.byte	0x53
 3608 1526 01       		.uleb128 0x1
 3609 1527 30       		.byte	0x30
 3610 1528 00       		.byte	0
 3611 1529 00       		.byte	0
 3612 152a 00       		.byte	0
 3613 152b 30       		.uleb128 0x30
 3614 152c 9A0C0000 		.4byte	0xc9a
 3615 1530 96010000 		.4byte	.LBB90
 3616 1534 16000000 		.4byte	.LBE90-.LBB90
 3617 1538 01       		.byte	0x1
 3618 1539 F1       		.byte	0xf1
 3619 153a 7D150000 		.4byte	0x157d
 3620 153e 23       		.uleb128 0x23
 3621 153f B10C0000 		.4byte	0xcb1
 3622 1543 34050000 		.4byte	.LLST54
 3623 1547 23       		.uleb128 0x23
 3624 1548 A60C0000 		.4byte	0xca6
 3625 154c 53050000 		.4byte	.LLST55
 3626 1550 24       		.uleb128 0x24
 3627 1551 96010000 		.4byte	.LBB91
 3628 1555 16000000 		.4byte	.LBE91-.LBB91
 3629 1559 25       		.uleb128 0x25
 3630 155a BC0C0000 		.4byte	0xcbc
 3631 155e 02       		.uleb128 0x2
 3632 155f 91       		.byte	0x91
 3633 1560 6C       		.sleb128 -20
 3634 1561 26       		.uleb128 0x26
 3635 1562 AA010000 		.4byte	.LVL93
 3636 1566 06180000 		.4byte	0x1806
 3637 156a 27       		.uleb128 0x27
 3638 156b 01       		.uleb128 0x1
 3639 156c 51       		.byte	0x51
 3640 156d 02       		.uleb128 0x2
 3641 156e 91       		.byte	0x91
 3642 156f 6C       		.sleb128 -20
 3643 1570 27       		.uleb128 0x27
 3644 1571 01       		.uleb128 0x1
 3645 1572 52       		.byte	0x52
 3646 1573 01       		.uleb128 0x1
 3647 1574 30       		.byte	0x30
 3648 1575 27       		.uleb128 0x27
 3649 1576 01       		.uleb128 0x1
 3650 1577 53       		.byte	0x53
 3651 1578 01       		.uleb128 0x1
 3652 1579 30       		.byte	0x30
 3653 157a 00       		.byte	0
 3654 157b 00       		.byte	0
 3655 157c 00       		.byte	0
 3656 157d 30       		.uleb128 0x30
 3657 157e 9A0C0000 		.4byte	0xc9a
 3658 1582 AC010000 		.4byte	.LBB92
 3659 1586 40000000 		.4byte	.LBE92-.LBB92
 3660 158a 01       		.byte	0x1
 3661 158b FB       		.byte	0xfb
ARM GAS  C:\Users\codyg\AppData\Local\Temp\cc52IIus.s 			page 94


 3662 158c CF150000 		.4byte	0x15cf
 3663 1590 31       		.uleb128 0x31
 3664 1591 B10C0000 		.4byte	0xcb1
 3665 1595 00       		.byte	0
 3666 1596 32       		.uleb128 0x32
 3667 1597 A60C0000 		.4byte	0xca6
 3668 159b 06       		.uleb128 0x6
 3669 159c 03       		.byte	0x3
 3670 159d D4020000 		.4byte	.LC13
 3671 15a1 9F       		.byte	0x9f
 3672 15a2 24       		.uleb128 0x24
 3673 15a3 AC010000 		.4byte	.LBB93
 3674 15a7 40000000 		.4byte	.LBE93-.LBB93
 3675 15ab 25       		.uleb128 0x25
 3676 15ac BC0C0000 		.4byte	0xcbc
 3677 15b0 02       		.uleb128 0x2
 3678 15b1 91       		.byte	0x91
 3679 15b2 6C       		.sleb128 -20
 3680 15b3 26       		.uleb128 0x26
 3681 15b4 C0010000 		.4byte	.LVL96
 3682 15b8 06180000 		.4byte	0x1806
 3683 15bc 27       		.uleb128 0x27
 3684 15bd 01       		.uleb128 0x1
 3685 15be 51       		.byte	0x51
 3686 15bf 02       		.uleb128 0x2
 3687 15c0 91       		.byte	0x91
 3688 15c1 6C       		.sleb128 -20
 3689 15c2 27       		.uleb128 0x27
 3690 15c3 01       		.uleb128 0x1
 3691 15c4 52       		.byte	0x52
 3692 15c5 01       		.uleb128 0x1
 3693 15c6 30       		.byte	0x30
 3694 15c7 27       		.uleb128 0x27
 3695 15c8 01       		.uleb128 0x1
 3696 15c9 53       		.byte	0x53
 3697 15ca 01       		.uleb128 0x1
 3698 15cb 30       		.byte	0x30
 3699 15cc 00       		.byte	0
 3700 15cd 00       		.byte	0
 3701 15ce 00       		.byte	0
 3702 15cf 29       		.uleb128 0x29
 3703 15d0 08000000 		.4byte	.LVL41
 3704 15d4 400D0000 		.4byte	0xd40
 3705 15d8 29       		.uleb128 0x29
 3706 15d9 0C000000 		.4byte	.LVL42
 3707 15dd 1A0F0000 		.4byte	0xf1a
 3708 15e1 28       		.uleb128 0x28
 3709 15e2 1C000000 		.4byte	.LVL43
 3710 15e6 36180000 		.4byte	0x1836
 3711 15ea 00160000 		.4byte	0x1600
 3712 15ee 27       		.uleb128 0x27
 3713 15ef 01       		.uleb128 0x1
 3714 15f0 51       		.byte	0x51
 3715 15f1 02       		.uleb128 0x2
 3716 15f2 91       		.byte	0x91
 3717 15f3 74       		.sleb128 -12
 3718 15f4 27       		.uleb128 0x27
ARM GAS  C:\Users\codyg\AppData\Local\Temp\cc52IIus.s 			page 95


 3719 15f5 01       		.uleb128 0x1
 3720 15f6 52       		.byte	0x52
 3721 15f7 02       		.uleb128 0x2
 3722 15f8 09       		.byte	0x9
 3723 15f9 FF       		.byte	0xff
 3724 15fa 27       		.uleb128 0x27
 3725 15fb 01       		.uleb128 0x1
 3726 15fc 53       		.byte	0x53
 3727 15fd 01       		.uleb128 0x1
 3728 15fe 30       		.byte	0x30
 3729 15ff 00       		.byte	0
 3730 1600 28       		.uleb128 0x28
 3731 1601 42000000 		.4byte	.LVL47
 3732 1605 F4100000 		.4byte	0x10f4
 3733 1609 14160000 		.4byte	0x1614
 3734 160d 27       		.uleb128 0x27
 3735 160e 01       		.uleb128 0x1
 3736 160f 50       		.byte	0x50
 3737 1610 02       		.uleb128 0x2
 3738 1611 09       		.byte	0x9
 3739 1612 FF       		.byte	0xff
 3740 1613 00       		.byte	0
 3741 1614 28       		.uleb128 0x28
 3742 1615 58000000 		.4byte	.LVL51
 3743 1619 F4100000 		.4byte	0x10f4
 3744 161d 28160000 		.4byte	0x1628
 3745 1621 27       		.uleb128 0x27
 3746 1622 01       		.uleb128 0x1
 3747 1623 50       		.byte	0x50
 3748 1624 02       		.uleb128 0x2
 3749 1625 09       		.byte	0x9
 3750 1626 FF       		.byte	0xff
 3751 1627 00       		.byte	0
 3752 1628 28       		.uleb128 0x28
 3753 1629 68000000 		.4byte	.LVL54
 3754 162d F4100000 		.4byte	0x10f4
 3755 1631 3D160000 		.4byte	0x163d
 3756 1635 27       		.uleb128 0x27
 3757 1636 01       		.uleb128 0x1
 3758 1637 50       		.byte	0x50
 3759 1638 03       		.uleb128 0x3
 3760 1639 0A       		.byte	0xa
 3761 163a F401     		.2byte	0x1f4
 3762 163c 00       		.byte	0
 3763 163d 28       		.uleb128 0x28
 3764 163e 7E000000 		.4byte	.LVL58
 3765 1642 F4100000 		.4byte	0x10f4
 3766 1646 52160000 		.4byte	0x1652
 3767 164a 27       		.uleb128 0x27
 3768 164b 01       		.uleb128 0x1
 3769 164c 50       		.byte	0x50
 3770 164d 03       		.uleb128 0x3
 3771 164e 0A       		.byte	0xa
 3772 164f A00F     		.2byte	0xfa0
 3773 1651 00       		.byte	0
 3774 1652 28       		.uleb128 0x28
 3775 1653 A8000000 		.4byte	.LVL65
ARM GAS  C:\Users\codyg\AppData\Local\Temp\cc52IIus.s 			page 96


 3776 1657 F4100000 		.4byte	0x10f4
 3777 165b 66160000 		.4byte	0x1666
 3778 165f 27       		.uleb128 0x27
 3779 1660 01       		.uleb128 0x1
 3780 1661 50       		.byte	0x50
 3781 1662 02       		.uleb128 0x2
 3782 1663 09       		.byte	0x9
 3783 1664 FF       		.byte	0xff
 3784 1665 00       		.byte	0
 3785 1666 28       		.uleb128 0x28
 3786 1667 0E010000 		.4byte	.LVL75
 3787 166b A5110000 		.4byte	0x11a5
 3788 166f 7A160000 		.4byte	0x167a
 3789 1673 27       		.uleb128 0x27
 3790 1674 01       		.uleb128 0x1
 3791 1675 50       		.byte	0x50
 3792 1676 02       		.uleb128 0x2
 3793 1677 09       		.byte	0x9
 3794 1678 FF       		.byte	0xff
 3795 1679 00       		.byte	0
 3796 167a 28       		.uleb128 0x28
 3797 167b 24010000 		.4byte	.LVL78
 3798 167f A5110000 		.4byte	0x11a5
 3799 1683 8E160000 		.4byte	0x168e
 3800 1687 27       		.uleb128 0x27
 3801 1688 01       		.uleb128 0x1
 3802 1689 50       		.byte	0x50
 3803 168a 02       		.uleb128 0x2
 3804 168b 09       		.byte	0x9
 3805 168c FF       		.byte	0xff
 3806 168d 00       		.byte	0
 3807 168e 28       		.uleb128 0x28
 3808 168f 34010000 		.4byte	.LVL79
 3809 1693 A5110000 		.4byte	0x11a5
 3810 1697 A3160000 		.4byte	0x16a3
 3811 169b 27       		.uleb128 0x27
 3812 169c 01       		.uleb128 0x1
 3813 169d 50       		.byte	0x50
 3814 169e 03       		.uleb128 0x3
 3815 169f 0A       		.byte	0xa
 3816 16a0 F401     		.2byte	0x1f4
 3817 16a2 00       		.byte	0
 3818 16a3 28       		.uleb128 0x28
 3819 16a4 4A010000 		.4byte	.LVL82
 3820 16a8 A5110000 		.4byte	0x11a5
 3821 16ac B8160000 		.4byte	0x16b8
 3822 16b0 27       		.uleb128 0x27
 3823 16b1 01       		.uleb128 0x1
 3824 16b2 50       		.byte	0x50
 3825 16b3 03       		.uleb128 0x3
 3826 16b4 0A       		.byte	0xa
 3827 16b5 A00F     		.2byte	0xfa0
 3828 16b7 00       		.byte	0
 3829 16b8 26       		.uleb128 0x26
 3830 16b9 74010000 		.4byte	.LVL87
 3831 16bd A5110000 		.4byte	0x11a5
 3832 16c1 27       		.uleb128 0x27
ARM GAS  C:\Users\codyg\AppData\Local\Temp\cc52IIus.s 			page 97


 3833 16c2 01       		.uleb128 0x1
 3834 16c3 50       		.byte	0x50
 3835 16c4 02       		.uleb128 0x2
 3836 16c5 09       		.byte	0x9
 3837 16c6 FF       		.byte	0xff
 3838 16c7 00       		.byte	0
 3839 16c8 00       		.byte	0
 3840 16c9 33       		.uleb128 0x33
 3841 16ca 4E160000 		.4byte	.LASF321
 3842 16ce 18       		.byte	0x18
 3843 16cf EA07     		.2byte	0x7ea
 3844 16d1 D5160000 		.4byte	0x16d5
 3845 16d5 05       		.uleb128 0x5
 3846 16d6 97000000 		.4byte	0x97
 3847 16da 07       		.uleb128 0x7
 3848 16db 1F0A0000 		.4byte	0xa1f
 3849 16df EA160000 		.4byte	0x16ea
 3850 16e3 08       		.uleb128 0x8
 3851 16e4 AD000000 		.4byte	0xad
 3852 16e8 0B       		.byte	0xb
 3853 16e9 00       		.byte	0
 3854 16ea 33       		.uleb128 0x33
 3855 16eb 4A180000 		.4byte	.LASF322
 3856 16ef 08       		.byte	0x8
 3857 16f0 FC02     		.2byte	0x2fc
 3858 16f2 F6160000 		.4byte	0x16f6
 3859 16f6 06       		.uleb128 0x6
 3860 16f7 DA160000 		.4byte	0x16da
 3861 16fb 33       		.uleb128 0x33
 3862 16fc 7B0F0000 		.4byte	.LASF323
 3863 1700 0F       		.byte	0xf
 3864 1701 2202     		.2byte	0x222
 3865 1703 790A0000 		.4byte	0xa79
 3866 1707 07       		.uleb128 0x7
 3867 1708 480A0000 		.4byte	0xa48
 3868 170c 17170000 		.4byte	0x1717
 3869 1710 08       		.uleb128 0x8
 3870 1711 AD000000 		.4byte	0xad
 3871 1715 00       		.byte	0
 3872 1716 00       		.byte	0
 3873 1717 33       		.uleb128 0x33
 3874 1718 4D020000 		.4byte	.LASF324
 3875 171c 0F       		.byte	0xf
 3876 171d 2C02     		.2byte	0x22c
 3877 171f 07170000 		.4byte	0x1707
 3878 1723 07       		.uleb128 0x7
 3879 1724 C10A0000 		.4byte	0xac1
 3880 1728 33170000 		.4byte	0x1733
 3881 172c 08       		.uleb128 0x8
 3882 172d AD000000 		.4byte	0xad
 3883 1731 00       		.byte	0
 3884 1732 00       		.byte	0
 3885 1733 33       		.uleb128 0x33
 3886 1734 00000000 		.4byte	.LASF325
 3887 1738 0F       		.byte	0xf
 3888 1739 2D02     		.2byte	0x22d
 3889 173b 23170000 		.4byte	0x1723
ARM GAS  C:\Users\codyg\AppData\Local\Temp\cc52IIus.s 			page 98


 3890 173f 34       		.uleb128 0x34
 3891 1740 78010000 		.4byte	.LASF326
 3892 1744 19       		.byte	0x19
 3893 1745 5E       		.byte	0x5e
 3894 1746 E4040000 		.4byte	0x4e4
 3895 174a 33       		.uleb128 0x33
 3896 174b CD1B0000 		.4byte	.LASF327
 3897 174f 13       		.byte	0x13
 3898 1750 6001     		.2byte	0x160
 3899 1752 A2000000 		.4byte	0xa2
 3900 1756 07       		.uleb128 0x7
 3901 1757 66170000 		.4byte	0x1766
 3902 175b 66170000 		.4byte	0x1766
 3903 175f 08       		.uleb128 0x8
 3904 1760 AD000000 		.4byte	0xad
 3905 1764 00       		.byte	0
 3906 1765 00       		.byte	0
 3907 1766 06       		.uleb128 0x6
 3908 1767 CF0B0000 		.4byte	0xbcf
 3909 176b 33       		.uleb128 0x33
 3910 176c FF150000 		.4byte	.LASF328
 3911 1770 13       		.byte	0x13
 3912 1771 6401     		.2byte	0x164
 3913 1773 77170000 		.4byte	0x1777
 3914 1777 06       		.uleb128 0x6
 3915 1778 56170000 		.4byte	0x1756
 3916 177c 34       		.uleb128 0x34
 3917 177d 84130000 		.4byte	.LASF329
 3918 1781 1A       		.byte	0x1a
 3919 1782 87       		.byte	0x87
 3920 1783 C0050000 		.4byte	0x5c0
 3921 1787 34       		.uleb128 0x34
 3922 1788 AD1B0000 		.4byte	.LASF330
 3923 178c 1B       		.byte	0x1b
 3924 178d 1F       		.byte	0x1f
 3925 178e 92170000 		.4byte	0x1792
 3926 1792 06       		.uleb128 0x6
 3927 1793 39040000 		.4byte	0x439
 3928 1797 34       		.uleb128 0x34
 3929 1798 54060000 		.4byte	.LASF331
 3930 179c 1C       		.byte	0x1c
 3931 179d 1F       		.byte	0x1f
 3932 179e 92170000 		.4byte	0x1792
 3933 17a2 34       		.uleb128 0x34
 3934 17a3 60180000 		.4byte	.LASF332
 3935 17a7 1D       		.byte	0x1d
 3936 17a8 1F       		.byte	0x1f
 3937 17a9 92170000 		.4byte	0x1792
 3938 17ad 34       		.uleb128 0x34
 3939 17ae 5F020000 		.4byte	.LASF333
 3940 17b2 1E       		.byte	0x1e
 3941 17b3 7C       		.byte	0x7c
 3942 17b4 87020000 		.4byte	0x287
 3943 17b8 34       		.uleb128 0x34
 3944 17b9 CE070000 		.4byte	.LASF334
 3945 17bd 1E       		.byte	0x1e
 3946 17be 7D       		.byte	0x7d
ARM GAS  C:\Users\codyg\AppData\Local\Temp\cc52IIus.s 			page 99


 3947 17bf C3170000 		.4byte	0x17c3
 3948 17c3 06       		.uleb128 0x6
 3949 17c4 3C030000 		.4byte	0x33c
 3950 17c8 35       		.uleb128 0x35
 3951 17c9 9E0E0000 		.4byte	.LASF335
 3952 17cd 01       		.byte	0x1
 3953 17ce 3F       		.byte	0x3f
 3954 17cf F00B0000 		.4byte	0xbf0
 3955 17d3 05       		.uleb128 0x5
 3956 17d4 03       		.byte	0x3
 3957 17d5 00000000 		.4byte	statusLedDataQ
 3958 17d9 34       		.uleb128 0x34
 3959 17da BF1B0000 		.4byte	.LASF336
 3960 17de 02       		.byte	0x2
 3961 17df 7F       		.byte	0x7f
 3962 17e0 F00B0000 		.4byte	0xbf0
 3963 17e4 35       		.uleb128 0x35
 3964 17e5 EC0E0000 		.4byte	.LASF337
 3965 17e9 01       		.byte	0x1
 3966 17ea 42       		.byte	0x42
 3967 17eb 8F0C0000 		.4byte	0xc8f
 3968 17ef 05       		.uleb128 0x5
 3969 17f0 03       		.byte	0x3
 3970 17f1 00000000 		.4byte	xTimer_StatusLedRed
 3971 17f5 35       		.uleb128 0x35
 3972 17f6 761D0000 		.4byte	.LASF338
 3973 17fa 01       		.byte	0x1
 3974 17fb 43       		.byte	0x43
 3975 17fc 8F0C0000 		.4byte	0xc8f
 3976 1800 05       		.uleb128 0x5
 3977 1801 03       		.byte	0x3
 3978 1802 00000000 		.4byte	xTimer_StatusLedOrange
 3979 1806 36       		.uleb128 0x36
 3980 1807 BA0B0000 		.4byte	.LASF339
 3981 180b BA0B0000 		.4byte	.LASF339
 3982 180f 15       		.byte	0x15
 3983 1810 B402     		.2byte	0x2b4
 3984 1812 36       		.uleb128 0x36
 3985 1813 A30D0000 		.4byte	.LASF340
 3986 1817 A30D0000 		.4byte	.LASF340
 3987 181b 17       		.byte	0x17
 3988 181c 0D01     		.2byte	0x10d
 3989 181e 36       		.uleb128 0x36
 3990 181f 8B0F0000 		.4byte	.LASF341
 3991 1823 8B0F0000 		.4byte	.LASF341
 3992 1827 1F       		.byte	0x1f
 3993 1828 0805     		.2byte	0x508
 3994 182a 36       		.uleb128 0x36
 3995 182b C1010000 		.4byte	.LASF342
 3996 182f C1010000 		.4byte	.LASF342
 3997 1833 17       		.byte	0x17
 3998 1834 1A05     		.2byte	0x51a
 3999 1836 36       		.uleb128 0x36
 4000 1837 2E080000 		.4byte	.LASF343
 4001 183b 2E080000 		.4byte	.LASF343
 4002 183f 15       		.byte	0x15
 4003 1840 F503     		.2byte	0x3f5
ARM GAS  C:\Users\codyg\AppData\Local\Temp\cc52IIus.s 			page 100


 4004 1842 00       		.byte	0
 4005              		.section	.debug_abbrev,"",%progbits
 4006              	.Ldebug_abbrev0:
 4007 0000 01       		.uleb128 0x1
 4008 0001 11       		.uleb128 0x11
 4009 0002 01       		.byte	0x1
 4010 0003 25       		.uleb128 0x25
 4011 0004 0E       		.uleb128 0xe
 4012 0005 13       		.uleb128 0x13
 4013 0006 0B       		.uleb128 0xb
 4014 0007 03       		.uleb128 0x3
 4015 0008 0E       		.uleb128 0xe
 4016 0009 1B       		.uleb128 0x1b
 4017 000a 0E       		.uleb128 0xe
 4018 000b 55       		.uleb128 0x55
 4019 000c 17       		.uleb128 0x17
 4020 000d 11       		.uleb128 0x11
 4021 000e 01       		.uleb128 0x1
 4022 000f 10       		.uleb128 0x10
 4023 0010 17       		.uleb128 0x17
 4024 0011 00       		.byte	0
 4025 0012 00       		.byte	0
 4026 0013 02       		.uleb128 0x2
 4027 0014 24       		.uleb128 0x24
 4028 0015 00       		.byte	0
 4029 0016 0B       		.uleb128 0xb
 4030 0017 0B       		.uleb128 0xb
 4031 0018 3E       		.uleb128 0x3e
 4032 0019 0B       		.uleb128 0xb
 4033 001a 03       		.uleb128 0x3
 4034 001b 0E       		.uleb128 0xe
 4035 001c 00       		.byte	0
 4036 001d 00       		.byte	0
 4037 001e 03       		.uleb128 0x3
 4038 001f 16       		.uleb128 0x16
 4039 0020 00       		.byte	0
 4040 0021 03       		.uleb128 0x3
 4041 0022 0E       		.uleb128 0xe
 4042 0023 3A       		.uleb128 0x3a
 4043 0024 0B       		.uleb128 0xb
 4044 0025 3B       		.uleb128 0x3b
 4045 0026 0B       		.uleb128 0xb
 4046 0027 49       		.uleb128 0x49
 4047 0028 13       		.uleb128 0x13
 4048 0029 00       		.byte	0
 4049 002a 00       		.byte	0
 4050 002b 04       		.uleb128 0x4
 4051 002c 24       		.uleb128 0x24
 4052 002d 00       		.byte	0
 4053 002e 0B       		.uleb128 0xb
 4054 002f 0B       		.uleb128 0xb
 4055 0030 3E       		.uleb128 0x3e
 4056 0031 0B       		.uleb128 0xb
 4057 0032 03       		.uleb128 0x3
 4058 0033 08       		.uleb128 0x8
 4059 0034 00       		.byte	0
 4060 0035 00       		.byte	0
ARM GAS  C:\Users\codyg\AppData\Local\Temp\cc52IIus.s 			page 101


 4061 0036 05       		.uleb128 0x5
 4062 0037 35       		.uleb128 0x35
 4063 0038 00       		.byte	0
 4064 0039 49       		.uleb128 0x49
 4065 003a 13       		.uleb128 0x13
 4066 003b 00       		.byte	0
 4067 003c 00       		.byte	0
 4068 003d 06       		.uleb128 0x6
 4069 003e 26       		.uleb128 0x26
 4070 003f 00       		.byte	0
 4071 0040 49       		.uleb128 0x49
 4072 0041 13       		.uleb128 0x13
 4073 0042 00       		.byte	0
 4074 0043 00       		.byte	0
 4075 0044 07       		.uleb128 0x7
 4076 0045 01       		.uleb128 0x1
 4077 0046 01       		.byte	0x1
 4078 0047 49       		.uleb128 0x49
 4079 0048 13       		.uleb128 0x13
 4080 0049 01       		.uleb128 0x1
 4081 004a 13       		.uleb128 0x13
 4082 004b 00       		.byte	0
 4083 004c 00       		.byte	0
 4084 004d 08       		.uleb128 0x8
 4085 004e 21       		.uleb128 0x21
 4086 004f 00       		.byte	0
 4087 0050 49       		.uleb128 0x49
 4088 0051 13       		.uleb128 0x13
 4089 0052 2F       		.uleb128 0x2f
 4090 0053 0B       		.uleb128 0xb
 4091 0054 00       		.byte	0
 4092 0055 00       		.byte	0
 4093 0056 09       		.uleb128 0x9
 4094 0057 13       		.uleb128 0x13
 4095 0058 01       		.byte	0x1
 4096 0059 0B       		.uleb128 0xb
 4097 005a 0B       		.uleb128 0xb
 4098 005b 3A       		.uleb128 0x3a
 4099 005c 0B       		.uleb128 0xb
 4100 005d 3B       		.uleb128 0x3b
 4101 005e 0B       		.uleb128 0xb
 4102 005f 01       		.uleb128 0x1
 4103 0060 13       		.uleb128 0x13
 4104 0061 00       		.byte	0
 4105 0062 00       		.byte	0
 4106 0063 0A       		.uleb128 0xa
 4107 0064 0D       		.uleb128 0xd
 4108 0065 00       		.byte	0
 4109 0066 03       		.uleb128 0x3
 4110 0067 08       		.uleb128 0x8
 4111 0068 3A       		.uleb128 0x3a
 4112 0069 0B       		.uleb128 0xb
 4113 006a 3B       		.uleb128 0x3b
 4114 006b 0B       		.uleb128 0xb
 4115 006c 49       		.uleb128 0x49
 4116 006d 13       		.uleb128 0x13
 4117 006e 38       		.uleb128 0x38
ARM GAS  C:\Users\codyg\AppData\Local\Temp\cc52IIus.s 			page 102


 4118 006f 0B       		.uleb128 0xb
 4119 0070 00       		.byte	0
 4120 0071 00       		.byte	0
 4121 0072 0B       		.uleb128 0xb
 4122 0073 0D       		.uleb128 0xd
 4123 0074 00       		.byte	0
 4124 0075 03       		.uleb128 0x3
 4125 0076 0E       		.uleb128 0xe
 4126 0077 3A       		.uleb128 0x3a
 4127 0078 0B       		.uleb128 0xb
 4128 0079 3B       		.uleb128 0x3b
 4129 007a 0B       		.uleb128 0xb
 4130 007b 49       		.uleb128 0x49
 4131 007c 13       		.uleb128 0x13
 4132 007d 38       		.uleb128 0x38
 4133 007e 0B       		.uleb128 0xb
 4134 007f 00       		.byte	0
 4135 0080 00       		.byte	0
 4136 0081 0C       		.uleb128 0xc
 4137 0082 13       		.uleb128 0x13
 4138 0083 01       		.byte	0x1
 4139 0084 0B       		.uleb128 0xb
 4140 0085 05       		.uleb128 0x5
 4141 0086 3A       		.uleb128 0x3a
 4142 0087 0B       		.uleb128 0xb
 4143 0088 3B       		.uleb128 0x3b
 4144 0089 0B       		.uleb128 0xb
 4145 008a 01       		.uleb128 0x1
 4146 008b 13       		.uleb128 0x13
 4147 008c 00       		.byte	0
 4148 008d 00       		.byte	0
 4149 008e 0D       		.uleb128 0xd
 4150 008f 0D       		.uleb128 0xd
 4151 0090 00       		.byte	0
 4152 0091 03       		.uleb128 0x3
 4153 0092 0E       		.uleb128 0xe
 4154 0093 3A       		.uleb128 0x3a
 4155 0094 0B       		.uleb128 0xb
 4156 0095 3B       		.uleb128 0x3b
 4157 0096 0B       		.uleb128 0xb
 4158 0097 49       		.uleb128 0x49
 4159 0098 13       		.uleb128 0x13
 4160 0099 38       		.uleb128 0x38
 4161 009a 05       		.uleb128 0x5
 4162 009b 00       		.byte	0
 4163 009c 00       		.byte	0
 4164 009d 0E       		.uleb128 0xe
 4165 009e 16       		.uleb128 0x16
 4166 009f 00       		.byte	0
 4167 00a0 03       		.uleb128 0x3
 4168 00a1 0E       		.uleb128 0xe
 4169 00a2 3A       		.uleb128 0x3a
 4170 00a3 0B       		.uleb128 0xb
 4171 00a4 3B       		.uleb128 0x3b
 4172 00a5 05       		.uleb128 0x5
 4173 00a6 49       		.uleb128 0x49
 4174 00a7 13       		.uleb128 0x13
ARM GAS  C:\Users\codyg\AppData\Local\Temp\cc52IIus.s 			page 103


 4175 00a8 00       		.byte	0
 4176 00a9 00       		.byte	0
 4177 00aa 0F       		.uleb128 0xf
 4178 00ab 0F       		.uleb128 0xf
 4179 00ac 00       		.byte	0
 4180 00ad 0B       		.uleb128 0xb
 4181 00ae 0B       		.uleb128 0xb
 4182 00af 00       		.byte	0
 4183 00b0 00       		.byte	0
 4184 00b1 10       		.uleb128 0x10
 4185 00b2 04       		.uleb128 0x4
 4186 00b3 01       		.byte	0x1
 4187 00b4 0B       		.uleb128 0xb
 4188 00b5 0B       		.uleb128 0xb
 4189 00b6 49       		.uleb128 0x49
 4190 00b7 13       		.uleb128 0x13
 4191 00b8 3A       		.uleb128 0x3a
 4192 00b9 0B       		.uleb128 0xb
 4193 00ba 3B       		.uleb128 0x3b
 4194 00bb 05       		.uleb128 0x5
 4195 00bc 01       		.uleb128 0x1
 4196 00bd 13       		.uleb128 0x13
 4197 00be 00       		.byte	0
 4198 00bf 00       		.byte	0
 4199 00c0 11       		.uleb128 0x11
 4200 00c1 28       		.uleb128 0x28
 4201 00c2 00       		.byte	0
 4202 00c3 03       		.uleb128 0x3
 4203 00c4 0E       		.uleb128 0xe
 4204 00c5 1C       		.uleb128 0x1c
 4205 00c6 0B       		.uleb128 0xb
 4206 00c7 00       		.byte	0
 4207 00c8 00       		.byte	0
 4208 00c9 12       		.uleb128 0x12
 4209 00ca 13       		.uleb128 0x13
 4210 00cb 01       		.byte	0x1
 4211 00cc 0B       		.uleb128 0xb
 4212 00cd 0B       		.uleb128 0xb
 4213 00ce 3A       		.uleb128 0x3a
 4214 00cf 0B       		.uleb128 0xb
 4215 00d0 3B       		.uleb128 0x3b
 4216 00d1 05       		.uleb128 0x5
 4217 00d2 01       		.uleb128 0x1
 4218 00d3 13       		.uleb128 0x13
 4219 00d4 00       		.byte	0
 4220 00d5 00       		.byte	0
 4221 00d6 13       		.uleb128 0x13
 4222 00d7 0D       		.uleb128 0xd
 4223 00d8 00       		.byte	0
 4224 00d9 03       		.uleb128 0x3
 4225 00da 0E       		.uleb128 0xe
 4226 00db 3A       		.uleb128 0x3a
 4227 00dc 0B       		.uleb128 0xb
 4228 00dd 3B       		.uleb128 0x3b
 4229 00de 05       		.uleb128 0x5
 4230 00df 49       		.uleb128 0x49
 4231 00e0 13       		.uleb128 0x13
ARM GAS  C:\Users\codyg\AppData\Local\Temp\cc52IIus.s 			page 104


 4232 00e1 38       		.uleb128 0x38
 4233 00e2 0B       		.uleb128 0xb
 4234 00e3 00       		.byte	0
 4235 00e4 00       		.byte	0
 4236 00e5 14       		.uleb128 0x14
 4237 00e6 13       		.uleb128 0x13
 4238 00e7 01       		.byte	0x1
 4239 00e8 03       		.uleb128 0x3
 4240 00e9 0E       		.uleb128 0xe
 4241 00ea 0B       		.uleb128 0xb
 4242 00eb 0B       		.uleb128 0xb
 4243 00ec 3A       		.uleb128 0x3a
 4244 00ed 0B       		.uleb128 0xb
 4245 00ee 3B       		.uleb128 0x3b
 4246 00ef 0B       		.uleb128 0xb
 4247 00f0 01       		.uleb128 0x1
 4248 00f1 13       		.uleb128 0x13
 4249 00f2 00       		.byte	0
 4250 00f3 00       		.byte	0
 4251 00f4 15       		.uleb128 0x15
 4252 00f5 0F       		.uleb128 0xf
 4253 00f6 00       		.byte	0
 4254 00f7 0B       		.uleb128 0xb
 4255 00f8 0B       		.uleb128 0xb
 4256 00f9 49       		.uleb128 0x49
 4257 00fa 13       		.uleb128 0x13
 4258 00fb 00       		.byte	0
 4259 00fc 00       		.byte	0
 4260 00fd 16       		.uleb128 0x16
 4261 00fe 15       		.uleb128 0x15
 4262 00ff 01       		.byte	0x1
 4263 0100 27       		.uleb128 0x27
 4264 0101 19       		.uleb128 0x19
 4265 0102 01       		.uleb128 0x1
 4266 0103 13       		.uleb128 0x13
 4267 0104 00       		.byte	0
 4268 0105 00       		.byte	0
 4269 0106 17       		.uleb128 0x17
 4270 0107 05       		.uleb128 0x5
 4271 0108 00       		.byte	0
 4272 0109 49       		.uleb128 0x49
 4273 010a 13       		.uleb128 0x13
 4274 010b 00       		.byte	0
 4275 010c 00       		.byte	0
 4276 010d 18       		.uleb128 0x18
 4277 010e 13       		.uleb128 0x13
 4278 010f 01       		.byte	0x1
 4279 0110 03       		.uleb128 0x3
 4280 0111 0E       		.uleb128 0xe
 4281 0112 0B       		.uleb128 0xb
 4282 0113 0B       		.uleb128 0xb
 4283 0114 3A       		.uleb128 0x3a
 4284 0115 0B       		.uleb128 0xb
 4285 0116 3B       		.uleb128 0x3b
 4286 0117 05       		.uleb128 0x5
 4287 0118 01       		.uleb128 0x1
 4288 0119 13       		.uleb128 0x13
ARM GAS  C:\Users\codyg\AppData\Local\Temp\cc52IIus.s 			page 105


 4289 011a 00       		.byte	0
 4290 011b 00       		.byte	0
 4291 011c 19       		.uleb128 0x19
 4292 011d 28       		.uleb128 0x28
 4293 011e 00       		.byte	0
 4294 011f 03       		.uleb128 0x3
 4295 0120 0E       		.uleb128 0xe
 4296 0121 1C       		.uleb128 0x1c
 4297 0122 05       		.uleb128 0x5
 4298 0123 00       		.byte	0
 4299 0124 00       		.byte	0
 4300 0125 1A       		.uleb128 0x1a
 4301 0126 04       		.uleb128 0x4
 4302 0127 01       		.byte	0x1
 4303 0128 0B       		.uleb128 0xb
 4304 0129 0B       		.uleb128 0xb
 4305 012a 49       		.uleb128 0x49
 4306 012b 13       		.uleb128 0x13
 4307 012c 3A       		.uleb128 0x3a
 4308 012d 0B       		.uleb128 0xb
 4309 012e 3B       		.uleb128 0x3b
 4310 012f 0B       		.uleb128 0xb
 4311 0130 01       		.uleb128 0x1
 4312 0131 13       		.uleb128 0x13
 4313 0132 00       		.byte	0
 4314 0133 00       		.byte	0
 4315 0134 1B       		.uleb128 0x1b
 4316 0135 2E       		.uleb128 0x2e
 4317 0136 01       		.byte	0x1
 4318 0137 03       		.uleb128 0x3
 4319 0138 0E       		.uleb128 0xe
 4320 0139 3A       		.uleb128 0x3a
 4321 013a 0B       		.uleb128 0xb
 4322 013b 3B       		.uleb128 0x3b
 4323 013c 0B       		.uleb128 0xb
 4324 013d 27       		.uleb128 0x27
 4325 013e 19       		.uleb128 0x19
 4326 013f 20       		.uleb128 0x20
 4327 0140 0B       		.uleb128 0xb
 4328 0141 01       		.uleb128 0x1
 4329 0142 13       		.uleb128 0x13
 4330 0143 00       		.byte	0
 4331 0144 00       		.byte	0
 4332 0145 1C       		.uleb128 0x1c
 4333 0146 05       		.uleb128 0x5
 4334 0147 00       		.byte	0
 4335 0148 03       		.uleb128 0x3
 4336 0149 0E       		.uleb128 0xe
 4337 014a 3A       		.uleb128 0x3a
 4338 014b 0B       		.uleb128 0xb
 4339 014c 3B       		.uleb128 0x3b
 4340 014d 0B       		.uleb128 0xb
 4341 014e 49       		.uleb128 0x49
 4342 014f 13       		.uleb128 0x13
 4343 0150 00       		.byte	0
 4344 0151 00       		.byte	0
 4345 0152 1D       		.uleb128 0x1d
ARM GAS  C:\Users\codyg\AppData\Local\Temp\cc52IIus.s 			page 106


 4346 0153 34       		.uleb128 0x34
 4347 0154 00       		.byte	0
 4348 0155 03       		.uleb128 0x3
 4349 0156 0E       		.uleb128 0xe
 4350 0157 3A       		.uleb128 0x3a
 4351 0158 0B       		.uleb128 0xb
 4352 0159 3B       		.uleb128 0x3b
 4353 015a 0B       		.uleb128 0xb
 4354 015b 49       		.uleb128 0x49
 4355 015c 13       		.uleb128 0x13
 4356 015d 00       		.byte	0
 4357 015e 00       		.byte	0
 4358 015f 1E       		.uleb128 0x1e
 4359 0160 2E       		.uleb128 0x2e
 4360 0161 01       		.byte	0x1
 4361 0162 03       		.uleb128 0x3
 4362 0163 0E       		.uleb128 0xe
 4363 0164 3A       		.uleb128 0x3a
 4364 0165 0B       		.uleb128 0xb
 4365 0166 3B       		.uleb128 0x3b
 4366 0167 05       		.uleb128 0x5
 4367 0168 27       		.uleb128 0x27
 4368 0169 19       		.uleb128 0x19
 4369 016a 20       		.uleb128 0x20
 4370 016b 0B       		.uleb128 0xb
 4371 016c 01       		.uleb128 0x1
 4372 016d 13       		.uleb128 0x13
 4373 016e 00       		.byte	0
 4374 016f 00       		.byte	0
 4375 0170 1F       		.uleb128 0x1f
 4376 0171 05       		.uleb128 0x5
 4377 0172 00       		.byte	0
 4378 0173 03       		.uleb128 0x3
 4379 0174 0E       		.uleb128 0xe
 4380 0175 3A       		.uleb128 0x3a
 4381 0176 0B       		.uleb128 0xb
 4382 0177 3B       		.uleb128 0x3b
 4383 0178 05       		.uleb128 0x5
 4384 0179 49       		.uleb128 0x49
 4385 017a 13       		.uleb128 0x13
 4386 017b 00       		.byte	0
 4387 017c 00       		.byte	0
 4388 017d 20       		.uleb128 0x20
 4389 017e 2E       		.uleb128 0x2e
 4390 017f 01       		.byte	0x1
 4391 0180 03       		.uleb128 0x3
 4392 0181 0E       		.uleb128 0xe
 4393 0182 3A       		.uleb128 0x3a
 4394 0183 0B       		.uleb128 0xb
 4395 0184 3B       		.uleb128 0x3b
 4396 0185 05       		.uleb128 0x5
 4397 0186 27       		.uleb128 0x27
 4398 0187 19       		.uleb128 0x19
 4399 0188 11       		.uleb128 0x11
 4400 0189 01       		.uleb128 0x1
 4401 018a 12       		.uleb128 0x12
 4402 018b 06       		.uleb128 0x6
ARM GAS  C:\Users\codyg\AppData\Local\Temp\cc52IIus.s 			page 107


 4403 018c 40       		.uleb128 0x40
 4404 018d 18       		.uleb128 0x18
 4405 018e 9742     		.uleb128 0x2117
 4406 0190 19       		.uleb128 0x19
 4407 0191 01       		.uleb128 0x1
 4408 0192 13       		.uleb128 0x13
 4409 0193 00       		.byte	0
 4410 0194 00       		.byte	0
 4411 0195 21       		.uleb128 0x21
 4412 0196 34       		.uleb128 0x34
 4413 0197 00       		.byte	0
 4414 0198 03       		.uleb128 0x3
 4415 0199 0E       		.uleb128 0xe
 4416 019a 3A       		.uleb128 0x3a
 4417 019b 0B       		.uleb128 0xb
 4418 019c 3B       		.uleb128 0x3b
 4419 019d 05       		.uleb128 0x5
 4420 019e 49       		.uleb128 0x49
 4421 019f 13       		.uleb128 0x13
 4422 01a0 02       		.uleb128 0x2
 4423 01a1 17       		.uleb128 0x17
 4424 01a2 00       		.byte	0
 4425 01a3 00       		.byte	0
 4426 01a4 22       		.uleb128 0x22
 4427 01a5 1D       		.uleb128 0x1d
 4428 01a6 01       		.byte	0x1
 4429 01a7 31       		.uleb128 0x31
 4430 01a8 13       		.uleb128 0x13
 4431 01a9 11       		.uleb128 0x11
 4432 01aa 01       		.uleb128 0x1
 4433 01ab 12       		.uleb128 0x12
 4434 01ac 06       		.uleb128 0x6
 4435 01ad 58       		.uleb128 0x58
 4436 01ae 0B       		.uleb128 0xb
 4437 01af 59       		.uleb128 0x59
 4438 01b0 05       		.uleb128 0x5
 4439 01b1 01       		.uleb128 0x1
 4440 01b2 13       		.uleb128 0x13
 4441 01b3 00       		.byte	0
 4442 01b4 00       		.byte	0
 4443 01b5 23       		.uleb128 0x23
 4444 01b6 05       		.uleb128 0x5
 4445 01b7 00       		.byte	0
 4446 01b8 31       		.uleb128 0x31
 4447 01b9 13       		.uleb128 0x13
 4448 01ba 02       		.uleb128 0x2
 4449 01bb 17       		.uleb128 0x17
 4450 01bc 00       		.byte	0
 4451 01bd 00       		.byte	0
 4452 01be 24       		.uleb128 0x24
 4453 01bf 0B       		.uleb128 0xb
 4454 01c0 01       		.byte	0x1
 4455 01c1 11       		.uleb128 0x11
 4456 01c2 01       		.uleb128 0x1
 4457 01c3 12       		.uleb128 0x12
 4458 01c4 06       		.uleb128 0x6
 4459 01c5 00       		.byte	0
ARM GAS  C:\Users\codyg\AppData\Local\Temp\cc52IIus.s 			page 108


 4460 01c6 00       		.byte	0
 4461 01c7 25       		.uleb128 0x25
 4462 01c8 34       		.uleb128 0x34
 4463 01c9 00       		.byte	0
 4464 01ca 31       		.uleb128 0x31
 4465 01cb 13       		.uleb128 0x13
 4466 01cc 02       		.uleb128 0x2
 4467 01cd 18       		.uleb128 0x18
 4468 01ce 00       		.byte	0
 4469 01cf 00       		.byte	0
 4470 01d0 26       		.uleb128 0x26
 4471 01d1 898201   		.uleb128 0x4109
 4472 01d4 01       		.byte	0x1
 4473 01d5 11       		.uleb128 0x11
 4474 01d6 01       		.uleb128 0x1
 4475 01d7 31       		.uleb128 0x31
 4476 01d8 13       		.uleb128 0x13
 4477 01d9 00       		.byte	0
 4478 01da 00       		.byte	0
 4479 01db 27       		.uleb128 0x27
 4480 01dc 8A8201   		.uleb128 0x410a
 4481 01df 00       		.byte	0
 4482 01e0 02       		.uleb128 0x2
 4483 01e1 18       		.uleb128 0x18
 4484 01e2 9142     		.uleb128 0x2111
 4485 01e4 18       		.uleb128 0x18
 4486 01e5 00       		.byte	0
 4487 01e6 00       		.byte	0
 4488 01e7 28       		.uleb128 0x28
 4489 01e8 898201   		.uleb128 0x4109
 4490 01eb 01       		.byte	0x1
 4491 01ec 11       		.uleb128 0x11
 4492 01ed 01       		.uleb128 0x1
 4493 01ee 31       		.uleb128 0x31
 4494 01ef 13       		.uleb128 0x13
 4495 01f0 01       		.uleb128 0x1
 4496 01f1 13       		.uleb128 0x13
 4497 01f2 00       		.byte	0
 4498 01f3 00       		.byte	0
 4499 01f4 29       		.uleb128 0x29
 4500 01f5 898201   		.uleb128 0x4109
 4501 01f8 00       		.byte	0
 4502 01f9 11       		.uleb128 0x11
 4503 01fa 01       		.uleb128 0x1
 4504 01fb 31       		.uleb128 0x31
 4505 01fc 13       		.uleb128 0x13
 4506 01fd 00       		.byte	0
 4507 01fe 00       		.byte	0
 4508 01ff 2A       		.uleb128 0x2a
 4509 0200 05       		.uleb128 0x5
 4510 0201 00       		.byte	0
 4511 0202 03       		.uleb128 0x3
 4512 0203 0E       		.uleb128 0xe
 4513 0204 3A       		.uleb128 0x3a
 4514 0205 0B       		.uleb128 0xb
 4515 0206 3B       		.uleb128 0x3b
 4516 0207 05       		.uleb128 0x5
ARM GAS  C:\Users\codyg\AppData\Local\Temp\cc52IIus.s 			page 109


 4517 0208 49       		.uleb128 0x49
 4518 0209 13       		.uleb128 0x13
 4519 020a 02       		.uleb128 0x2
 4520 020b 17       		.uleb128 0x17
 4521 020c 00       		.byte	0
 4522 020d 00       		.byte	0
 4523 020e 2B       		.uleb128 0x2b
 4524 020f 34       		.uleb128 0x34
 4525 0210 00       		.byte	0
 4526 0211 03       		.uleb128 0x3
 4527 0212 0E       		.uleb128 0xe
 4528 0213 3A       		.uleb128 0x3a
 4529 0214 0B       		.uleb128 0xb
 4530 0215 3B       		.uleb128 0x3b
 4531 0216 05       		.uleb128 0x5
 4532 0217 49       		.uleb128 0x49
 4533 0218 13       		.uleb128 0x13
 4534 0219 02       		.uleb128 0x2
 4535 021a 18       		.uleb128 0x18
 4536 021b 00       		.byte	0
 4537 021c 00       		.byte	0
 4538 021d 2C       		.uleb128 0x2c
 4539 021e 2E       		.uleb128 0x2e
 4540 021f 01       		.byte	0x1
 4541 0220 3F       		.uleb128 0x3f
 4542 0221 19       		.uleb128 0x19
 4543 0222 03       		.uleb128 0x3
 4544 0223 0E       		.uleb128 0xe
 4545 0224 3A       		.uleb128 0x3a
 4546 0225 0B       		.uleb128 0xb
 4547 0226 3B       		.uleb128 0x3b
 4548 0227 0B       		.uleb128 0xb
 4549 0228 27       		.uleb128 0x27
 4550 0229 19       		.uleb128 0x19
 4551 022a 8701     		.uleb128 0x87
 4552 022c 19       		.uleb128 0x19
 4553 022d 11       		.uleb128 0x11
 4554 022e 01       		.uleb128 0x1
 4555 022f 12       		.uleb128 0x12
 4556 0230 06       		.uleb128 0x6
 4557 0231 40       		.uleb128 0x40
 4558 0232 18       		.uleb128 0x18
 4559 0233 9742     		.uleb128 0x2117
 4560 0235 19       		.uleb128 0x19
 4561 0236 01       		.uleb128 0x1
 4562 0237 13       		.uleb128 0x13
 4563 0238 00       		.byte	0
 4564 0239 00       		.byte	0
 4565 023a 2D       		.uleb128 0x2d
 4566 023b 05       		.uleb128 0x5
 4567 023c 00       		.byte	0
 4568 023d 03       		.uleb128 0x3
 4569 023e 0E       		.uleb128 0xe
 4570 023f 3A       		.uleb128 0x3a
 4571 0240 0B       		.uleb128 0xb
 4572 0241 3B       		.uleb128 0x3b
 4573 0242 0B       		.uleb128 0xb
ARM GAS  C:\Users\codyg\AppData\Local\Temp\cc52IIus.s 			page 110


 4574 0243 49       		.uleb128 0x49
 4575 0244 13       		.uleb128 0x13
 4576 0245 02       		.uleb128 0x2
 4577 0246 17       		.uleb128 0x17
 4578 0247 00       		.byte	0
 4579 0248 00       		.byte	0
 4580 0249 2E       		.uleb128 0x2e
 4581 024a 34       		.uleb128 0x34
 4582 024b 00       		.byte	0
 4583 024c 03       		.uleb128 0x3
 4584 024d 0E       		.uleb128 0xe
 4585 024e 3A       		.uleb128 0x3a
 4586 024f 0B       		.uleb128 0xb
 4587 0250 3B       		.uleb128 0x3b
 4588 0251 0B       		.uleb128 0xb
 4589 0252 49       		.uleb128 0x49
 4590 0253 13       		.uleb128 0x13
 4591 0254 02       		.uleb128 0x2
 4592 0255 18       		.uleb128 0x18
 4593 0256 00       		.byte	0
 4594 0257 00       		.byte	0
 4595 0258 2F       		.uleb128 0x2f
 4596 0259 34       		.uleb128 0x34
 4597 025a 00       		.byte	0
 4598 025b 03       		.uleb128 0x3
 4599 025c 0E       		.uleb128 0xe
 4600 025d 3A       		.uleb128 0x3a
 4601 025e 0B       		.uleb128 0xb
 4602 025f 3B       		.uleb128 0x3b
 4603 0260 0B       		.uleb128 0xb
 4604 0261 49       		.uleb128 0x49
 4605 0262 13       		.uleb128 0x13
 4606 0263 02       		.uleb128 0x2
 4607 0264 17       		.uleb128 0x17
 4608 0265 00       		.byte	0
 4609 0266 00       		.byte	0
 4610 0267 30       		.uleb128 0x30
 4611 0268 1D       		.uleb128 0x1d
 4612 0269 01       		.byte	0x1
 4613 026a 31       		.uleb128 0x31
 4614 026b 13       		.uleb128 0x13
 4615 026c 11       		.uleb128 0x11
 4616 026d 01       		.uleb128 0x1
 4617 026e 12       		.uleb128 0x12
 4618 026f 06       		.uleb128 0x6
 4619 0270 58       		.uleb128 0x58
 4620 0271 0B       		.uleb128 0xb
 4621 0272 59       		.uleb128 0x59
 4622 0273 0B       		.uleb128 0xb
 4623 0274 01       		.uleb128 0x1
 4624 0275 13       		.uleb128 0x13
 4625 0276 00       		.byte	0
 4626 0277 00       		.byte	0
 4627 0278 31       		.uleb128 0x31
 4628 0279 05       		.uleb128 0x5
 4629 027a 00       		.byte	0
 4630 027b 31       		.uleb128 0x31
ARM GAS  C:\Users\codyg\AppData\Local\Temp\cc52IIus.s 			page 111


 4631 027c 13       		.uleb128 0x13
 4632 027d 1C       		.uleb128 0x1c
 4633 027e 0B       		.uleb128 0xb
 4634 027f 00       		.byte	0
 4635 0280 00       		.byte	0
 4636 0281 32       		.uleb128 0x32
 4637 0282 05       		.uleb128 0x5
 4638 0283 00       		.byte	0
 4639 0284 31       		.uleb128 0x31
 4640 0285 13       		.uleb128 0x13
 4641 0286 02       		.uleb128 0x2
 4642 0287 18       		.uleb128 0x18
 4643 0288 00       		.byte	0
 4644 0289 00       		.byte	0
 4645 028a 33       		.uleb128 0x33
 4646 028b 34       		.uleb128 0x34
 4647 028c 00       		.byte	0
 4648 028d 03       		.uleb128 0x3
 4649 028e 0E       		.uleb128 0xe
 4650 028f 3A       		.uleb128 0x3a
 4651 0290 0B       		.uleb128 0xb
 4652 0291 3B       		.uleb128 0x3b
 4653 0292 05       		.uleb128 0x5
 4654 0293 49       		.uleb128 0x49
 4655 0294 13       		.uleb128 0x13
 4656 0295 3F       		.uleb128 0x3f
 4657 0296 19       		.uleb128 0x19
 4658 0297 3C       		.uleb128 0x3c
 4659 0298 19       		.uleb128 0x19
 4660 0299 00       		.byte	0
 4661 029a 00       		.byte	0
 4662 029b 34       		.uleb128 0x34
 4663 029c 34       		.uleb128 0x34
 4664 029d 00       		.byte	0
 4665 029e 03       		.uleb128 0x3
 4666 029f 0E       		.uleb128 0xe
 4667 02a0 3A       		.uleb128 0x3a
 4668 02a1 0B       		.uleb128 0xb
 4669 02a2 3B       		.uleb128 0x3b
 4670 02a3 0B       		.uleb128 0xb
 4671 02a4 49       		.uleb128 0x49
 4672 02a5 13       		.uleb128 0x13
 4673 02a6 3F       		.uleb128 0x3f
 4674 02a7 19       		.uleb128 0x19
 4675 02a8 3C       		.uleb128 0x3c
 4676 02a9 19       		.uleb128 0x19
 4677 02aa 00       		.byte	0
 4678 02ab 00       		.byte	0
 4679 02ac 35       		.uleb128 0x35
 4680 02ad 34       		.uleb128 0x34
 4681 02ae 00       		.byte	0
 4682 02af 03       		.uleb128 0x3
 4683 02b0 0E       		.uleb128 0xe
 4684 02b1 3A       		.uleb128 0x3a
 4685 02b2 0B       		.uleb128 0xb
 4686 02b3 3B       		.uleb128 0x3b
 4687 02b4 0B       		.uleb128 0xb
ARM GAS  C:\Users\codyg\AppData\Local\Temp\cc52IIus.s 			page 112


 4688 02b5 49       		.uleb128 0x49
 4689 02b6 13       		.uleb128 0x13
 4690 02b7 3F       		.uleb128 0x3f
 4691 02b8 19       		.uleb128 0x19
 4692 02b9 02       		.uleb128 0x2
 4693 02ba 18       		.uleb128 0x18
 4694 02bb 00       		.byte	0
 4695 02bc 00       		.byte	0
 4696 02bd 36       		.uleb128 0x36
 4697 02be 2E       		.uleb128 0x2e
 4698 02bf 00       		.byte	0
 4699 02c0 3F       		.uleb128 0x3f
 4700 02c1 19       		.uleb128 0x19
 4701 02c2 3C       		.uleb128 0x3c
 4702 02c3 19       		.uleb128 0x19
 4703 02c4 6E       		.uleb128 0x6e
 4704 02c5 0E       		.uleb128 0xe
 4705 02c6 03       		.uleb128 0x3
 4706 02c7 0E       		.uleb128 0xe
 4707 02c8 3A       		.uleb128 0x3a
 4708 02c9 0B       		.uleb128 0xb
 4709 02ca 3B       		.uleb128 0x3b
 4710 02cb 05       		.uleb128 0x5
 4711 02cc 00       		.byte	0
 4712 02cd 00       		.byte	0
 4713 02ce 00       		.byte	0
 4714              		.section	.debug_loc,"",%progbits
 4715              	.Ldebug_loc0:
 4716              	.LLST0:
 4717 0000 30000000 		.4byte	.LVL2
 4718 0004 42000000 		.4byte	.LVL4
 4719 0008 0100     		.2byte	0x1
 4720 000a 50       		.byte	0x50
 4721 000b 00000000 		.4byte	0
 4722 000f 00000000 		.4byte	0
 4723              	.LLST1:
 4724 0013 34000000 		.4byte	.LVL3
 4725 0017 4A000000 		.4byte	.LVL6
 4726 001b 0200     		.2byte	0x2
 4727 001d 30       		.byte	0x30
 4728 001e 9F       		.byte	0x9f
 4729 001f 00000000 		.4byte	0
 4730 0023 00000000 		.4byte	0
 4731              	.LLST2:
 4732 0027 34000000 		.4byte	.LVL3
 4733 002b 4A000000 		.4byte	.LVL6
 4734 002f 0600     		.2byte	0x6
 4735 0031 03       		.byte	0x3
 4736 0032 18000000 		.4byte	.LC1
 4737 0036 9F       		.byte	0x9f
 4738 0037 00000000 		.4byte	0
 4739 003b 00000000 		.4byte	0
 4740              	.LLST3:
 4741 003f 4A000000 		.4byte	.LVL6
 4742 0043 5E000000 		.4byte	.LVL7
 4743 0047 0200     		.2byte	0x2
 4744 0049 30       		.byte	0x30
ARM GAS  C:\Users\codyg\AppData\Local\Temp\cc52IIus.s 			page 113


 4745 004a 9F       		.byte	0x9f
 4746 004b 00000000 		.4byte	0
 4747 004f 00000000 		.4byte	0
 4748              	.LLST4:
 4749 0053 4A000000 		.4byte	.LVL6
 4750 0057 5E000000 		.4byte	.LVL7
 4751 005b 0600     		.2byte	0x6
 4752 005d 03       		.byte	0x3
 4753 005e 50000000 		.4byte	.LC2
 4754 0062 9F       		.byte	0x9f
 4755 0063 00000000 		.4byte	0
 4756 0067 00000000 		.4byte	0
 4757              	.LLST5:
 4758 006b 00000000 		.4byte	.LVL8
 4759 006f 16000000 		.4byte	.LVL9
 4760 0073 0100     		.2byte	0x1
 4761 0075 50       		.byte	0x50
 4762 0076 16000000 		.4byte	.LVL9
 4763 007a 48000000 		.4byte	.LFE718
 4764 007e 0400     		.2byte	0x4
 4765 0080 F3       		.byte	0xf3
 4766 0081 01       		.uleb128 0x1
 4767 0082 50       		.byte	0x50
 4768 0083 9F       		.byte	0x9f
 4769 0084 00000000 		.4byte	0
 4770 0088 00000000 		.4byte	0
 4771              	.LLST6:
 4772 008c 1C000000 		.4byte	.LVL10
 4773 0090 2E000000 		.4byte	.LVL12
 4774 0094 0100     		.2byte	0x1
 4775 0096 50       		.byte	0x50
 4776 0097 00000000 		.4byte	0
 4777 009b 00000000 		.4byte	0
 4778              	.LLST7:
 4779 009f 20000000 		.4byte	.LVL11
 4780 00a3 34000000 		.4byte	.LVL13
 4781 00a7 0200     		.2byte	0x2
 4782 00a9 30       		.byte	0x30
 4783 00aa 9F       		.byte	0x9f
 4784 00ab 00000000 		.4byte	0
 4785 00af 00000000 		.4byte	0
 4786              	.LLST8:
 4787 00b3 20000000 		.4byte	.LVL11
 4788 00b7 34000000 		.4byte	.LVL13
 4789 00bb 0600     		.2byte	0x6
 4790 00bd 03       		.byte	0x3
 4791 00be 80000000 		.4byte	.LC3
 4792 00c2 9F       		.byte	0x9f
 4793 00c3 00000000 		.4byte	0
 4794 00c7 00000000 		.4byte	0
 4795              	.LLST9:
 4796 00cb 30000000 		.4byte	.LVL16
 4797 00cf 42000000 		.4byte	.LVL18
 4798 00d3 0100     		.2byte	0x1
 4799 00d5 50       		.byte	0x50
 4800 00d6 00000000 		.4byte	0
 4801 00da 00000000 		.4byte	0
ARM GAS  C:\Users\codyg\AppData\Local\Temp\cc52IIus.s 			page 114


 4802              	.LLST10:
 4803 00de 34000000 		.4byte	.LVL17
 4804 00e2 4A000000 		.4byte	.LVL20
 4805 00e6 0200     		.2byte	0x2
 4806 00e8 30       		.byte	0x30
 4807 00e9 9F       		.byte	0x9f
 4808 00ea 00000000 		.4byte	0
 4809 00ee 00000000 		.4byte	0
 4810              	.LLST11:
 4811 00f2 34000000 		.4byte	.LVL17
 4812 00f6 4A000000 		.4byte	.LVL20
 4813 00fa 0600     		.2byte	0x6
 4814 00fc 03       		.byte	0x3
 4815 00fd D4000000 		.4byte	.LC5
 4816 0101 9F       		.byte	0x9f
 4817 0102 00000000 		.4byte	0
 4818 0106 00000000 		.4byte	0
 4819              	.LLST12:
 4820 010a 4A000000 		.4byte	.LVL20
 4821 010e 5E000000 		.4byte	.LVL21
 4822 0112 0200     		.2byte	0x2
 4823 0114 30       		.byte	0x30
 4824 0115 9F       		.byte	0x9f
 4825 0116 00000000 		.4byte	0
 4826 011a 00000000 		.4byte	0
 4827              	.LLST13:
 4828 011e 4A000000 		.4byte	.LVL20
 4829 0122 5E000000 		.4byte	.LVL21
 4830 0126 0600     		.2byte	0x6
 4831 0128 03       		.byte	0x3
 4832 0129 10010000 		.4byte	.LC6
 4833 012d 9F       		.byte	0x9f
 4834 012e 00000000 		.4byte	0
 4835 0132 00000000 		.4byte	0
 4836              	.LLST14:
 4837 0136 00000000 		.4byte	.LVL22
 4838 013a 16000000 		.4byte	.LVL23
 4839 013e 0100     		.2byte	0x1
 4840 0140 50       		.byte	0x50
 4841 0141 16000000 		.4byte	.LVL23
 4842 0145 48000000 		.4byte	.LFE715
 4843 0149 0400     		.2byte	0x4
 4844 014b F3       		.byte	0xf3
 4845 014c 01       		.uleb128 0x1
 4846 014d 50       		.byte	0x50
 4847 014e 9F       		.byte	0x9f
 4848 014f 00000000 		.4byte	0
 4849 0153 00000000 		.4byte	0
 4850              	.LLST15:
 4851 0157 1C000000 		.4byte	.LVL24
 4852 015b 2E000000 		.4byte	.LVL26
 4853 015f 0100     		.2byte	0x1
 4854 0161 50       		.byte	0x50
 4855 0162 00000000 		.4byte	0
 4856 0166 00000000 		.4byte	0
 4857              	.LLST16:
 4858 016a 20000000 		.4byte	.LVL25
ARM GAS  C:\Users\codyg\AppData\Local\Temp\cc52IIus.s 			page 115


 4859 016e 34000000 		.4byte	.LVL27
 4860 0172 0200     		.2byte	0x2
 4861 0174 30       		.byte	0x30
 4862 0175 9F       		.byte	0x9f
 4863 0176 00000000 		.4byte	0
 4864 017a 00000000 		.4byte	0
 4865              	.LLST17:
 4866 017e 20000000 		.4byte	.LVL25
 4867 0182 34000000 		.4byte	.LVL27
 4868 0186 0600     		.2byte	0x6
 4869 0188 03       		.byte	0x3
 4870 0189 80000000 		.4byte	.LC3
 4871 018d 9F       		.byte	0x9f
 4872 018e 00000000 		.4byte	0
 4873 0192 00000000 		.4byte	0
 4874              	.LLST18:
 4875 0196 00000000 		.4byte	.LVL28
 4876 019a 12000000 		.4byte	.LVL29
 4877 019e 0100     		.2byte	0x1
 4878 01a0 50       		.byte	0x50
 4879 01a1 12000000 		.4byte	.LVL29
 4880 01a5 15000000 		.4byte	.LVL30-1
 4881 01a9 0100     		.2byte	0x1
 4882 01ab 52       		.byte	0x52
 4883 01ac 15000000 		.4byte	.LVL30-1
 4884 01b0 40000000 		.4byte	.LFE717
 4885 01b4 0400     		.2byte	0x4
 4886 01b6 F3       		.byte	0xf3
 4887 01b7 01       		.uleb128 0x1
 4888 01b8 50       		.byte	0x50
 4889 01b9 9F       		.byte	0x9f
 4890 01ba 00000000 		.4byte	0
 4891 01be 00000000 		.4byte	0
 4892              	.LLST19:
 4893 01c2 16000000 		.4byte	.LVL30
 4894 01c6 28000000 		.4byte	.LVL32
 4895 01ca 0100     		.2byte	0x1
 4896 01cc 50       		.byte	0x50
 4897 01cd 00000000 		.4byte	0
 4898 01d1 00000000 		.4byte	0
 4899              	.LLST20:
 4900 01d5 1A000000 		.4byte	.LVL31
 4901 01d9 2E000000 		.4byte	.LVL33
 4902 01dd 0200     		.2byte	0x2
 4903 01df 30       		.byte	0x30
 4904 01e0 9F       		.byte	0x9f
 4905 01e1 00000000 		.4byte	0
 4906 01e5 00000000 		.4byte	0
 4907              	.LLST21:
 4908 01e9 1A000000 		.4byte	.LVL31
 4909 01ed 2E000000 		.4byte	.LVL33
 4910 01f1 0600     		.2byte	0x6
 4911 01f3 03       		.byte	0x3
 4912 01f4 44010000 		.4byte	.LC7
 4913 01f8 9F       		.byte	0x9f
 4914 01f9 00000000 		.4byte	0
 4915 01fd 00000000 		.4byte	0
ARM GAS  C:\Users\codyg\AppData\Local\Temp\cc52IIus.s 			page 116


 4916              	.LLST22:
 4917 0201 00000000 		.4byte	.LVL34
 4918 0205 12000000 		.4byte	.LVL35
 4919 0209 0100     		.2byte	0x1
 4920 020b 50       		.byte	0x50
 4921 020c 12000000 		.4byte	.LVL35
 4922 0210 15000000 		.4byte	.LVL36-1
 4923 0214 0100     		.2byte	0x1
 4924 0216 52       		.byte	0x52
 4925 0217 15000000 		.4byte	.LVL36-1
 4926 021b 40000000 		.4byte	.LFE720
 4927 021f 0400     		.2byte	0x4
 4928 0221 F3       		.byte	0xf3
 4929 0222 01       		.uleb128 0x1
 4930 0223 50       		.byte	0x50
 4931 0224 9F       		.byte	0x9f
 4932 0225 00000000 		.4byte	0
 4933 0229 00000000 		.4byte	0
 4934              	.LLST23:
 4935 022d 16000000 		.4byte	.LVL36
 4936 0231 28000000 		.4byte	.LVL38
 4937 0235 0100     		.2byte	0x1
 4938 0237 50       		.byte	0x50
 4939 0238 00000000 		.4byte	0
 4940 023c 00000000 		.4byte	0
 4941              	.LLST24:
 4942 0240 1A000000 		.4byte	.LVL37
 4943 0244 2E000000 		.4byte	.LVL39
 4944 0248 0200     		.2byte	0x2
 4945 024a 30       		.byte	0x30
 4946 024b 9F       		.byte	0x9f
 4947 024c 00000000 		.4byte	0
 4948 0250 00000000 		.4byte	0
 4949              	.LLST25:
 4950 0254 1A000000 		.4byte	.LVL37
 4951 0258 2E000000 		.4byte	.LVL39
 4952 025c 0600     		.2byte	0x6
 4953 025e 03       		.byte	0x3
 4954 025f 78010000 		.4byte	.LC8
 4955 0263 9F       		.byte	0x9f
 4956 0264 00000000 		.4byte	0
 4957 0268 00000000 		.4byte	0
 4958              	.LLST26:
 4959 026c 00000000 		.4byte	.LVL40
 4960 0270 07000000 		.4byte	.LVL41-1
 4961 0274 0100     		.2byte	0x1
 4962 0276 50       		.byte	0x50
 4963 0277 07000000 		.4byte	.LVL41-1
 4964 027b EC010000 		.4byte	.LFE714
 4965 027f 0400     		.2byte	0x4
 4966 0281 F3       		.byte	0xf3
 4967 0282 01       		.uleb128 0x1
 4968 0283 50       		.byte	0x50
 4969 0284 9F       		.byte	0x9f
 4970 0285 00000000 		.4byte	0
 4971 0289 00000000 		.4byte	0
 4972              	.LLST27:
ARM GAS  C:\Users\codyg\AppData\Local\Temp\cc52IIus.s 			page 117


 4973 028d 1C000000 		.4byte	.LVL43
 4974 0291 3E000000 		.4byte	.LVL46
 4975 0295 0100     		.2byte	0x1
 4976 0297 50       		.byte	0x50
 4977 0298 4A000000 		.4byte	.LVL48
 4978 029c 54000000 		.4byte	.LVL50
 4979 02a0 0100     		.2byte	0x1
 4980 02a2 50       		.byte	0x50
 4981 02a3 60000000 		.4byte	.LVL52
 4982 02a7 64000000 		.4byte	.LVL53
 4983 02ab 0100     		.2byte	0x1
 4984 02ad 50       		.byte	0x50
 4985 02ae 70000000 		.4byte	.LVL55
 4986 02b2 7A000000 		.4byte	.LVL57
 4987 02b6 0100     		.2byte	0x1
 4988 02b8 50       		.byte	0x50
 4989 02b9 86000000 		.4byte	.LVL59
 4990 02bd A4000000 		.4byte	.LVL64
 4991 02c1 0100     		.2byte	0x1
 4992 02c3 50       		.byte	0x50
 4993 02c4 B0000000 		.4byte	.LVL66
 4994 02c8 BE000000 		.4byte	.LVL67
 4995 02cc 0100     		.2byte	0x1
 4996 02ce 50       		.byte	0x50
 4997 02cf C6000000 		.4byte	.LVL69
 4998 02d3 D4000000 		.4byte	.LVL71
 4999 02d7 0100     		.2byte	0x1
 5000 02d9 50       		.byte	0x50
 5001 02da AC010000 		.4byte	.LVL94
 5002 02de BA010000 		.4byte	.LVL95
 5003 02e2 0100     		.2byte	0x1
 5004 02e4 50       		.byte	0x50
 5005 02e5 00000000 		.4byte	0
 5006 02e9 00000000 		.4byte	0
 5007              	.LLST28:
 5008 02ed 34000000 		.4byte	.LVL44
 5009 02f1 3A000000 		.4byte	.LVL45
 5010 02f5 0200     		.2byte	0x2
 5011 02f7 35       		.byte	0x35
 5012 02f8 9F       		.byte	0x9f
 5013 02f9 00000000 		.4byte	0
 5014 02fd 00000000 		.4byte	0
 5015              	.LLST29:
 5016 0301 34000000 		.4byte	.LVL44
 5017 0305 3A000000 		.4byte	.LVL45
 5018 0309 0600     		.2byte	0x6
 5019 030b 0C       		.byte	0xc
 5020 030c 80003240 		.4byte	0x40320080
 5021 0310 9F       		.byte	0x9f
 5022 0311 00000000 		.4byte	0
 5023 0315 00000000 		.4byte	0
 5024              	.LLST30:
 5025 0319 4A000000 		.4byte	.LVL48
 5026 031d 50000000 		.4byte	.LVL49
 5027 0321 0200     		.2byte	0x2
 5028 0323 35       		.byte	0x35
 5029 0324 9F       		.byte	0x9f
ARM GAS  C:\Users\codyg\AppData\Local\Temp\cc52IIus.s 			page 118


 5030 0325 00000000 		.4byte	0
 5031 0329 00000000 		.4byte	0
 5032              	.LLST31:
 5033 032d 4A000000 		.4byte	.LVL48
 5034 0331 50000000 		.4byte	.LVL49
 5035 0335 0600     		.2byte	0x6
 5036 0337 0C       		.byte	0xc
 5037 0338 80003240 		.4byte	0x40320080
 5038 033c 9F       		.byte	0x9f
 5039 033d 00000000 		.4byte	0
 5040 0341 00000000 		.4byte	0
 5041              	.LLST32:
 5042 0345 70000000 		.4byte	.LVL55
 5043 0349 76000000 		.4byte	.LVL56
 5044 034d 0200     		.2byte	0x2
 5045 034f 35       		.byte	0x35
 5046 0350 9F       		.byte	0x9f
 5047 0351 00000000 		.4byte	0
 5048 0355 00000000 		.4byte	0
 5049              	.LLST33:
 5050 0359 70000000 		.4byte	.LVL55
 5051 035d 76000000 		.4byte	.LVL56
 5052 0361 0600     		.2byte	0x6
 5053 0363 0C       		.byte	0xc
 5054 0364 80003240 		.4byte	0x40320080
 5055 0368 9F       		.byte	0x9f
 5056 0369 00000000 		.4byte	0
 5057 036d 00000000 		.4byte	0
 5058              	.LLST34:
 5059 0371 8E000000 		.4byte	.LVL60
 5060 0375 96000000 		.4byte	.LVL61
 5061 0379 0200     		.2byte	0x2
 5062 037b 35       		.byte	0x35
 5063 037c 9F       		.byte	0x9f
 5064 037d 00000000 		.4byte	0
 5065 0381 00000000 		.4byte	0
 5066              	.LLST35:
 5067 0385 8E000000 		.4byte	.LVL60
 5068 0389 96000000 		.4byte	.LVL61
 5069 038d 0600     		.2byte	0x6
 5070 038f 0C       		.byte	0xc
 5071 0390 80003240 		.4byte	0x40320080
 5072 0394 9F       		.byte	0x9f
 5073 0395 00000000 		.4byte	0
 5074 0399 00000000 		.4byte	0
 5075              	.LLST36:
 5076 039d 9A000000 		.4byte	.LVL62
 5077 03a1 A0000000 		.4byte	.LVL63
 5078 03a5 0200     		.2byte	0x2
 5079 03a7 35       		.byte	0x35
 5080 03a8 9F       		.byte	0x9f
 5081 03a9 00000000 		.4byte	0
 5082 03ad 00000000 		.4byte	0
 5083              	.LLST37:
 5084 03b1 9A000000 		.4byte	.LVL62
 5085 03b5 A0000000 		.4byte	.LVL63
 5086 03b9 0600     		.2byte	0x6
ARM GAS  C:\Users\codyg\AppData\Local\Temp\cc52IIus.s 			page 119


 5087 03bb 0C       		.byte	0xc
 5088 03bc 80003240 		.4byte	0x40320080
 5089 03c0 9F       		.byte	0x9f
 5090 03c1 00000000 		.4byte	0
 5091 03c5 00000000 		.4byte	0
 5092              	.LLST38:
 5093 03c9 B0000000 		.4byte	.LVL66
 5094 03cd C6000000 		.4byte	.LVL69
 5095 03d1 0200     		.2byte	0x2
 5096 03d3 30       		.byte	0x30
 5097 03d4 9F       		.byte	0x9f
 5098 03d5 00000000 		.4byte	0
 5099 03d9 00000000 		.4byte	0
 5100              	.LLST39:
 5101 03dd B0000000 		.4byte	.LVL66
 5102 03e1 C6000000 		.4byte	.LVL69
 5103 03e5 0600     		.2byte	0x6
 5104 03e7 03       		.byte	0x3
 5105 03e8 A8010000 		.4byte	.LC9
 5106 03ec 9F       		.byte	0x9f
 5107 03ed 00000000 		.4byte	0
 5108 03f1 00000000 		.4byte	0
 5109              	.LLST40:
 5110 03f5 C6000000 		.4byte	.LVL69
 5111 03f9 CE000000 		.4byte	.LVL70
 5112 03fd 0100     		.2byte	0x1
 5113 03ff 53       		.byte	0x53
 5114 0400 CE000000 		.4byte	.LVL70
 5115 0404 D9000000 		.4byte	.LVL72-1
 5116 0408 0200     		.2byte	0x2
 5117 040a 91       		.byte	0x91
 5118 040b 70       		.sleb128 -16
 5119 040c 00000000 		.4byte	0
 5120 0410 00000000 		.4byte	0
 5121              	.LLST41:
 5122 0414 C6000000 		.4byte	.LVL69
 5123 0418 DA000000 		.4byte	.LVL72
 5124 041c 0600     		.2byte	0x6
 5125 041e 03       		.byte	0x3
 5126 041f F0010000 		.4byte	.LC10
 5127 0423 9F       		.byte	0x9f
 5128 0424 00000000 		.4byte	0
 5129 0428 00000000 		.4byte	0
 5130              	.LLST42:
 5131 042c 00010000 		.4byte	.LVL73
 5132 0430 06010000 		.4byte	.LVL74
 5133 0434 0200     		.2byte	0x2
 5134 0436 37       		.byte	0x37
 5135 0437 9F       		.byte	0x9f
 5136 0438 00000000 		.4byte	0
 5137 043c 00000000 		.4byte	0
 5138              	.LLST43:
 5139 0440 00010000 		.4byte	.LVL73
 5140 0444 06010000 		.4byte	.LVL74
 5141 0448 0600     		.2byte	0x6
 5142 044a 0C       		.byte	0xc
 5143 044b 80063240 		.4byte	0x40320680
ARM GAS  C:\Users\codyg\AppData\Local\Temp\cc52IIus.s 			page 120


 5144 044f 9F       		.byte	0x9f
 5145 0450 00000000 		.4byte	0
 5146 0454 00000000 		.4byte	0
 5147              	.LLST44:
 5148 0458 16010000 		.4byte	.LVL76
 5149 045c 1C010000 		.4byte	.LVL77
 5150 0460 0200     		.2byte	0x2
 5151 0462 37       		.byte	0x37
 5152 0463 9F       		.byte	0x9f
 5153 0464 00000000 		.4byte	0
 5154 0468 00000000 		.4byte	0
 5155              	.LLST45:
 5156 046c 16010000 		.4byte	.LVL76
 5157 0470 1C010000 		.4byte	.LVL77
 5158 0474 0600     		.2byte	0x6
 5159 0476 0C       		.byte	0xc
 5160 0477 80063240 		.4byte	0x40320680
 5161 047b 9F       		.byte	0x9f
 5162 047c 00000000 		.4byte	0
 5163 0480 00000000 		.4byte	0
 5164              	.LLST46:
 5165 0484 3C010000 		.4byte	.LVL80
 5166 0488 42010000 		.4byte	.LVL81
 5167 048c 0200     		.2byte	0x2
 5168 048e 37       		.byte	0x37
 5169 048f 9F       		.byte	0x9f
 5170 0490 00000000 		.4byte	0
 5171 0494 00000000 		.4byte	0
 5172              	.LLST47:
 5173 0498 3C010000 		.4byte	.LVL80
 5174 049c 42010000 		.4byte	.LVL81
 5175 04a0 0600     		.2byte	0x6
 5176 04a2 0C       		.byte	0xc
 5177 04a3 80063240 		.4byte	0x40320680
 5178 04a7 9F       		.byte	0x9f
 5179 04a8 00000000 		.4byte	0
 5180 04ac 00000000 		.4byte	0
 5181              	.LLST48:
 5182 04b0 5A010000 		.4byte	.LVL83
 5183 04b4 62010000 		.4byte	.LVL84
 5184 04b8 0200     		.2byte	0x2
 5185 04ba 37       		.byte	0x37
 5186 04bb 9F       		.byte	0x9f
 5187 04bc 00000000 		.4byte	0
 5188 04c0 00000000 		.4byte	0
 5189              	.LLST49:
 5190 04c4 5A010000 		.4byte	.LVL83
 5191 04c8 62010000 		.4byte	.LVL84
 5192 04cc 0600     		.2byte	0x6
 5193 04ce 0C       		.byte	0xc
 5194 04cf 80063240 		.4byte	0x40320680
 5195 04d3 9F       		.byte	0x9f
 5196 04d4 00000000 		.4byte	0
 5197 04d8 00000000 		.4byte	0
 5198              	.LLST50:
 5199 04dc 66010000 		.4byte	.LVL85
 5200 04e0 6C010000 		.4byte	.LVL86
ARM GAS  C:\Users\codyg\AppData\Local\Temp\cc52IIus.s 			page 121


 5201 04e4 0200     		.2byte	0x2
 5202 04e6 37       		.byte	0x37
 5203 04e7 9F       		.byte	0x9f
 5204 04e8 00000000 		.4byte	0
 5205 04ec 00000000 		.4byte	0
 5206              	.LLST51:
 5207 04f0 66010000 		.4byte	.LVL85
 5208 04f4 6C010000 		.4byte	.LVL86
 5209 04f8 0600     		.2byte	0x6
 5210 04fa 0C       		.byte	0xc
 5211 04fb 80063240 		.4byte	0x40320680
 5212 04ff 9F       		.byte	0x9f
 5213 0500 00000000 		.4byte	0
 5214 0504 00000000 		.4byte	0
 5215              	.LLST52:
 5216 0508 7C010000 		.4byte	.LVL88
 5217 050c 92010000 		.4byte	.LVL90
 5218 0510 0200     		.2byte	0x2
 5219 0512 30       		.byte	0x30
 5220 0513 9F       		.byte	0x9f
 5221 0514 00000000 		.4byte	0
 5222 0518 00000000 		.4byte	0
 5223              	.LLST53:
 5224 051c 7C010000 		.4byte	.LVL88
 5225 0520 92010000 		.4byte	.LVL90
 5226 0524 0600     		.2byte	0x6
 5227 0526 03       		.byte	0x3
 5228 0527 3C020000 		.4byte	.LC11
 5229 052b 9F       		.byte	0x9f
 5230 052c 00000000 		.4byte	0
 5231 0530 00000000 		.4byte	0
 5232              	.LLST54:
 5233 0534 96010000 		.4byte	.LVL91
 5234 0538 9E010000 		.4byte	.LVL92
 5235 053c 0100     		.2byte	0x1
 5236 053e 53       		.byte	0x53
 5237 053f 9E010000 		.4byte	.LVL92
 5238 0543 A9010000 		.4byte	.LVL93-1
 5239 0547 0200     		.2byte	0x2
 5240 0549 91       		.byte	0x91
 5241 054a 70       		.sleb128 -16
 5242 054b 00000000 		.4byte	0
 5243 054f 00000000 		.4byte	0
 5244              	.LLST55:
 5245 0553 96010000 		.4byte	.LVL91
 5246 0557 AC010000 		.4byte	.LVL94
 5247 055b 0600     		.2byte	0x6
 5248 055d 03       		.byte	0x3
 5249 055e 88020000 		.4byte	.LC12
 5250 0562 9F       		.byte	0x9f
 5251 0563 00000000 		.4byte	0
 5252 0567 00000000 		.4byte	0
 5253              		.section	.debug_aranges,"",%progbits
 5254 0000 4C000000 		.4byte	0x4c
 5255 0004 0200     		.2byte	0x2
 5256 0006 00000000 		.4byte	.Ldebug_info0
 5257 000a 04       		.byte	0x4
ARM GAS  C:\Users\codyg\AppData\Local\Temp\cc52IIus.s 			page 122


 5258 000b 00       		.byte	0
 5259 000c 0000     		.2byte	0
 5260 000e 0000     		.2byte	0
 5261 0010 00000000 		.4byte	.LFB719
 5262 0014 7C000000 		.4byte	.LFE719-.LFB719
 5263 0018 00000000 		.4byte	.LFB718
 5264 001c 48000000 		.4byte	.LFE718-.LFB718
 5265 0020 00000000 		.4byte	.LFB716
 5266 0024 7C000000 		.4byte	.LFE716-.LFB716
 5267 0028 00000000 		.4byte	.LFB715
 5268 002c 48000000 		.4byte	.LFE715-.LFB715
 5269 0030 00000000 		.4byte	.LFB717
 5270 0034 40000000 		.4byte	.LFE717-.LFB717
 5271 0038 00000000 		.4byte	.LFB720
 5272 003c 40000000 		.4byte	.LFE720-.LFB720
 5273 0040 00000000 		.4byte	.LFB714
 5274 0044 EC010000 		.4byte	.LFE714-.LFB714
 5275 0048 00000000 		.4byte	0
 5276 004c 00000000 		.4byte	0
 5277              		.section	.debug_ranges,"",%progbits
 5278              	.Ldebug_ranges0:
 5279 0000 00000000 		.4byte	.LFB719
 5280 0004 7C000000 		.4byte	.LFE719
 5281 0008 00000000 		.4byte	.LFB718
 5282 000c 48000000 		.4byte	.LFE718
 5283 0010 00000000 		.4byte	.LFB716
 5284 0014 7C000000 		.4byte	.LFE716
 5285 0018 00000000 		.4byte	.LFB715
 5286 001c 48000000 		.4byte	.LFE715
 5287 0020 00000000 		.4byte	.LFB717
 5288 0024 40000000 		.4byte	.LFE717
 5289 0028 00000000 		.4byte	.LFB720
 5290 002c 40000000 		.4byte	.LFE720
 5291 0030 00000000 		.4byte	.LFB714
 5292 0034 EC010000 		.4byte	.LFE714
 5293 0038 00000000 		.4byte	0
 5294 003c 00000000 		.4byte	0
 5295              		.section	.debug_line,"",%progbits
 5296              	.Ldebug_line0:
 5297 0000 BF060000 		.section	.debug_str,"MS",%progbits,1
 5297      02002A05 
 5297      00000201 
 5297      FB0E0D00 
 5297      01010101 
 5298              	.LASF325:
 5299 0000 63795F62 		.ascii	"cy_ble_connState\000"
 5299      6C655F63 
 5299      6F6E6E53 
 5299      74617465 
 5299      00
 5300              	.LASF267:
 5301 0011 43595F42 		.ascii	"CY_BLE_HTS_TEMP_TYPE\000"
 5301      4C455F48 
 5301      54535F54 
 5301      454D505F 
 5301      54595045 
 5302              	.LASF27:
ARM GAS  C:\Users\codyg\AppData\Local\Temp\cc52IIus.s 			page 123


 5303 0026 52455345 		.ascii	"RESERVED\000"
 5303      52564544 
 5303      00
 5304              	.LASF35:
 5305 002f 5644445F 		.ascii	"VDD_ACTIVE\000"
 5305      41435449 
 5305      564500
 5306              	.LASF31:
 5307 003a 494E5452 		.ascii	"INTR_CAUSE0\000"
 5307      5F434155 
 5307      53453000 
 5308              	.LASF32:
 5309 0046 494E5452 		.ascii	"INTR_CAUSE1\000"
 5309      5F434155 
 5309      53453100 
 5310              	.LASF234:
 5311 0052 43595F42 		.ascii	"CY_BLE_EVT_L2CAP_CBFC_DATA_READ\000"
 5311      4C455F45 
 5311      56545F4C 
 5311      32434150 
 5311      5F434246 
 5312              	.LASF80:
 5313 0072 63795F63 		.ascii	"cy_cb_scb_spi_handle_events_t\000"
 5313      625F7363 
 5313      625F7370 
 5313      695F6861 
 5313      6E646C65 
 5314              	.LASF75:
 5315 0090 73746F70 		.ascii	"stopInputMode\000"
 5315      496E7075 
 5315      744D6F64 
 5315      6500
 5316              	.LASF182:
 5317 009e 43595F42 		.ascii	"CY_BLE_EVT_GAPP_ADVERTISEMENT_START_STOP\000"
 5317      4C455F45 
 5317      56545F47 
 5317      4150505F 
 5317      41445645 
 5318              	.LASF276:
 5319 00c7 43595F42 		.ascii	"CY_BLE_SRVI_COUNT\000"
 5319      4C455F53 
 5319      5256495F 
 5319      434F554E 
 5319      5400
 5320              	.LASF265:
 5321 00d9 43595F42 		.ascii	"CY_BLE_DIS_CHAR_COUNT\000"
 5321      4C455F44 
 5321      49535F43 
 5321      4841525F 
 5321      434F554E 
 5322              	.LASF236:
 5323 00ef 43595F42 		.ascii	"CY_BLE_EVT_L2CAP_CBFC_TX_CREDIT_IND\000"
 5323      4C455F45 
 5323      56545F4C 
 5323      32434150 
 5323      5F434246 
 5324              	.LASF129:
ARM GAS  C:\Users\codyg\AppData\Local\Temp\cc52IIus.s 			page 124


 5325 0113 43595F42 		.ascii	"CY_BLE_EVT_PENDING_FLASH_WRITE\000"
 5325      4C455F45 
 5325      56545F50 
 5325      454E4449 
 5325      4E475F46 
 5326              	.LASF167:
 5327 0132 43595F42 		.ascii	"CY_BLE_EVT_AES_CCM_DECRYPT_COMPLETE\000"
 5327      4C455F45 
 5327      56545F41 
 5327      45535F43 
 5327      434D5F44 
 5328              	.LASF220:
 5329 0156 43595F42 		.ascii	"CY_BLE_EVT_GATTC_HANDLE_VALUE_NTF\000"
 5329      4C455F45 
 5329      56545F47 
 5329      41545443 
 5329      5F48414E 
 5330              	.LASF326:
 5331 0178 43595F45 		.ascii	"CY_EINK_SPIM_context\000"
 5331      494E4B5F 
 5331      5350494D 
 5331      5F636F6E 
 5331      74657874 
 5332              	.LASF50:
 5333 018d 666F726D 		.ascii	"format\000"
 5333      617400
 5334              	.LASF254:
 5335 0194 43595F42 		.ascii	"CY_BLE_CONN_STATE_CLIENT_DISCOVERED\000"
 5335      4C455F43 
 5335      4F4E4E5F 
 5335      53544154 
 5335      455F434C 
 5336              	.LASF95:
 5337 01b8 74785374 		.ascii	"txStatus\000"
 5337      61747573 
 5337      00
 5338              	.LASF342:
 5339 01c1 7854696D 		.ascii	"xTimerGenericCommand\000"
 5339      65724765 
 5339      6E657269 
 5339      63436F6D 
 5339      6D616E64 
 5340              	.LASF161:
 5341 01d6 43595F42 		.ascii	"CY_BLE_EVT_SET_TX_PWR_COMPLETE\000"
 5341      4C455F45 
 5341      56545F53 
 5341      45545F54 
 5341      585F5057 
 5342              	.LASF150:
 5343 01f5 43595F42 		.ascii	"CY_BLE_EVT_GET_PHY_COMPLETE\000"
 5343      4C455F45 
 5343      56545F47 
 5343      45545F50 
 5343      48595F43 
 5344              	.LASF52:
 5345 0211 6461794F 		.ascii	"dayOfMonth\000"
 5345      664D6F6E 
ARM GAS  C:\Users\codyg\AppData\Local\Temp\cc52IIus.s 			page 125


 5345      746800
 5346              	.LASF235:
 5347 021c 43595F42 		.ascii	"CY_BLE_EVT_L2CAP_CBFC_RX_CREDIT_IND\000"
 5347      4C455F45 
 5347      56545F4C 
 5347      32434150 
 5347      5F434246 
 5348              	.LASF11:
 5349 0240 756E7369 		.ascii	"unsigned int\000"
 5349      676E6564 
 5349      20696E74 
 5349      00
 5350              	.LASF324:
 5351 024d 63795F62 		.ascii	"cy_ble_connHandle\000"
 5351      6C655F63 
 5351      6F6E6E48 
 5351      616E646C 
 5351      6500
 5352              	.LASF333:
 5353 025f 5254435F 		.ascii	"RTC_rtcDstStatus\000"
 5353      72746344 
 5353      73745374 
 5353      61747573 
 5353      00
 5354              	.LASF106:
 5355 0270 43595F53 		.ascii	"CY_SAR_RANGE_COND_OUTSIDE\000"
 5355      41525F52 
 5355      414E4745 
 5355      5F434F4E 
 5355      445F4F55 
 5356              	.LASF56:
 5357 028a 63795F73 		.ascii	"cy_stc_rtc_dst_format_t\000"
 5357      74635F72 
 5357      74635F64 
 5357      73745F66 
 5357      6F726D61 
 5358              	.LASF184:
 5359 02a2 43595F42 		.ascii	"CY_BLE_EVT_GAP_DEVICE_DISCONNECTED\000"
 5359      4C455F45 
 5359      56545F47 
 5359      41505F44 
 5359      45564943 
 5360              	.LASF89:
 5361 02c5 74784275 		.ascii	"txBufIdx\000"
 5361      66496478 
 5361      00
 5362              	.LASF263:
 5363 02ce 43595F42 		.ascii	"CY_BLE_DIS_REG_CERT_DATA\000"
 5363      4C455F44 
 5363      49535F52 
 5363      45475F43 
 5363      4552545F 
 5364              	.LASF74:
 5365 02e7 73746172 		.ascii	"startInput\000"
 5365      74496E70 
 5365      757400
 5366              	.LASF5:
ARM GAS  C:\Users\codyg\AppData\Local\Temp\cc52IIus.s 			page 126


 5367 02f2 5F5F696E 		.ascii	"__int32_t\000"
 5367      7433325F 
 5367      7400
 5368              	.LASF258:
 5369 02fc 43595F42 		.ascii	"CY_BLE_DIS_SERIAL_NUMBER\000"
 5369      4C455F44 
 5369      49535F53 
 5369      45524941 
 5369      4C5F4E55 
 5370              	.LASF59:
 5371 0315 63795F73 		.ascii	"cy_stc_rtc_dst_t\000"
 5371      74635F72 
 5371      74635F64 
 5371      73745F74 
 5371      00
 5372              	.LASF48:
 5373 0326 43595F52 		.ascii	"CY_RTC_DST_FIXED\000"
 5373      54435F44 
 5373      53545F46 
 5373      49584544 
 5373      00
 5374              	.LASF277:
 5375 0337 6368616E 		.ascii	"channelBase\000"
 5375      6E656C42 
 5375      61736500 
 5376              	.LASF255:
 5377 0343 63795F65 		.ascii	"cy_en_ble_conn_state_t\000"
 5377      6E5F626C 
 5377      655F636F 
 5377      6E6E5F73 
 5377      74617465 
 5378              	.LASF142:
 5379 035a 43595F42 		.ascii	"CY_BLE_EVT_GET_LOCAL_RPA_COMPLETE\000"
 5379      4C455F45 
 5379      56545F47 
 5379      45545F4C 
 5379      4F43414C 
 5380              	.LASF209:
 5381 037c 43595F42 		.ascii	"CY_BLE_EVT_GATTC_FIND_INFO_RSP\000"
 5381      4C455F45 
 5381      56545F47 
 5381      41545443 
 5381      5F46494E 
 5382              	.LASF154:
 5383 039b 43595F42 		.ascii	"CY_BLE_EVT_SET_PRIVACY_MODE_COMPLETE\000"
 5383      4C455F45 
 5383      56545F53 
 5383      45545F50 
 5383      52495641 
 5384              	.LASF279:
 5385 03c0 6877436F 		.ascii	"hwConfigStc\000"
 5385      6E666967 
 5385      53746300 
 5386              	.LASF17:
 5387 03cc 4F55545F 		.ascii	"OUT_SET\000"
 5387      53455400 
 5388              	.LASF76:
ARM GAS  C:\Users\codyg\AppData\Local\Temp\cc52IIus.s 			page 127


 5389 03d4 73746F70 		.ascii	"stopInput\000"
 5389      496E7075 
 5389      7400
 5390              	.LASF98:
 5391 03de 72785269 		.ascii	"rxRingBufSize\000"
 5391      6E674275 
 5391      6653697A 
 5391      6500
 5392              	.LASF320:
 5393 03ec 6F72616E 		.ascii	"orangeLedState\000"
 5393      67654C65 
 5393      64537461 
 5393      746500
 5394              	.LASF213:
 5395 03fb 43595F42 		.ascii	"CY_BLE_EVT_GATTC_READ_MULTI_RSP\000"
 5395      4C455F45 
 5395      56545F47 
 5395      41545443 
 5395      5F524541 
 5396              	.LASF203:
 5397 041b 43595F42 		.ascii	"CY_BLE_EVT_GATT_CONNECT_IND\000"
 5397      4C455F45 
 5397      56545F47 
 5397      4154545F 
 5397      434F4E4E 
 5398              	.LASF22:
 5399 0437 494E5452 		.ascii	"INTR_SET\000"
 5399      5F534554 
 5399      00
 5400              	.LASF242:
 5401 0440 43595F42 		.ascii	"CY_BLE_ADV_STATE_STOPPED\000"
 5401      4C455F41 
 5401      44565F53 
 5401      54415445 
 5401      5F53544F 
 5402              	.LASF117:
 5403 0459 73617449 		.ascii	"satIntrMask\000"
 5403      6E74724D 
 5403      61736B00 
 5404              	.LASF300:
 5405 0465 73747269 		.ascii	"stringPtr\000"
 5405      6E675074 
 5405      7200
 5406              	.LASF210:
 5407 046f 43595F42 		.ascii	"CY_BLE_EVT_GATTC_FIND_BY_TYPE_VALUE_RSP\000"
 5407      4C455F45 
 5407      56545F47 
 5407      41545443 
 5407      5F46494E 
 5408              	.LASF152:
 5409 0497 43595F42 		.ascii	"CY_BLE_EVT_SET_PHY_COMPLETE\000"
 5409      4C455F45 
 5409      56545F53 
 5409      45545F50 
 5409      48595F43 
 5410              	.LASF225:
 5411 04b3 43595F42 		.ascii	"CY_BLE_EVT_GATTS_READ_CHAR_VAL_ACCESS_REQ\000"
ARM GAS  C:\Users\codyg\AppData\Local\Temp\cc52IIus.s 			page 128


 5411      4C455F45 
 5411      56545F47 
 5411      41545453 
 5411      5F524541 
 5412              	.LASF65:
 5413 04dd 636F6D70 		.ascii	"compare0\000"
 5413      61726530 
 5413      00
 5414              	.LASF66:
 5415 04e6 636F6D70 		.ascii	"compare1\000"
 5415      61726531 
 5415      00
 5416              	.LASF344:
 5417 04ef 474E5520 		.ascii	"GNU C11 5.4.1 20160609 (release) [ARM/embedded-5-br"
 5417      43313120 
 5417      352E342E 
 5417      31203230 
 5417      31363036 
 5418 0522 616E6368 		.ascii	"anch revision 237715] -mcpu=cortex-m4 -mfloat-abi=s"
 5418      20726576 
 5418      6973696F 
 5418      6E203233 
 5418      37373135 
 5419 0555 6F667466 		.ascii	"oftfp -mfpu=fpv4-sp-d16 -mthumb -g -Og -ffunction-s"
 5419      70202D6D 
 5419      6670753D 
 5419      66707634 
 5419      2D73702D 
 5420 0588 65637469 		.ascii	"ections -ffat-lto-objects\000"
 5420      6F6E7320 
 5420      2D666661 
 5420      742D6C74 
 5420      6F2D6F62 
 5421              	.LASF197:
 5422 05a2 43595F42 		.ascii	"CY_BLE_EVT_GAP_RESOLVE_DEVICE_COMPLETE\000"
 5422      4C455F45 
 5422      56545F47 
 5422      41505F52 
 5422      45534F4C 
 5423              	.LASF294:
 5424 05c9 6F72616E 		.ascii	"orangeLed\000"
 5424      67654C65 
 5424      6400
 5425              	.LASF103:
 5426 05d3 43595F53 		.ascii	"CY_SAR_RANGE_COND_BELOW\000"
 5426      41525F52 
 5426      414E4745 
 5426      5F434F4E 
 5426      445F4245 
 5427              	.LASF248:
 5428 05eb 43595F42 		.ascii	"CY_BLE_CONN_STATE_CLIENT_DISCONNECTED_DISCOVERED\000"
 5428      4C455F43 
 5428      4F4E4E5F 
 5428      53544154 
 5428      455F434C 
 5429              	.LASF316:
 5430 061c 53746174 		.ascii	"StatusLedRedTimerUpdate\000"
ARM GAS  C:\Users\codyg\AppData\Local\Temp\cc52IIus.s 			page 129


 5430      75734C65 
 5430      64526564 
 5430      54696D65 
 5430      72557064 
 5431              	.LASF219:
 5432 0634 43595F42 		.ascii	"CY_BLE_EVT_GATTC_EXEC_WRITE_RSP\000"
 5432      4C455F45 
 5432      56545F47 
 5432      41545443 
 5432      5F455845 
 5433              	.LASF331:
 5434 0654 54696D65 		.ascii	"Timer_PPG_config\000"
 5434      725F5050 
 5434      475F636F 
 5434      6E666967 
 5434      00
 5435              	.LASF206:
 5436 0665 43595F42 		.ascii	"CY_BLE_EVT_GATTC_XCHNG_MTU_RSP\000"
 5436      4C455F45 
 5436      56545F47 
 5436      41545443 
 5436      5F584348 
 5437              	.LASF222:
 5438 0684 43595F42 		.ascii	"CY_BLE_EVT_GATTS_HANDLE_VALUE_CNF\000"
 5438      4C455F45 
 5438      56545F47 
 5438      41545453 
 5438      5F48414E 
 5439              	.LASF24:
 5440 06a6 4346475F 		.ascii	"CFG_IN\000"
 5440      494E00
 5441              	.LASF153:
 5442 06ad 43595F42 		.ascii	"CY_BLE_EVT_PHY_UPDATE_COMPLETE\000"
 5442      4C455F45 
 5442      56545F50 
 5442      48595F55 
 5442      50444154 
 5443              	.LASF211:
 5444 06cc 43595F42 		.ascii	"CY_BLE_EVT_GATTC_READ_RSP\000"
 5444      4C455F45 
 5444      56545F47 
 5444      41545443 
 5444      5F524541 
 5445              	.LASF68:
 5446 06e6 696E7465 		.ascii	"interruptSources\000"
 5446      72727570 
 5446      74536F75 
 5446      72636573 
 5446      00
 5447              	.LASF212:
 5448 06f7 43595F42 		.ascii	"CY_BLE_EVT_GATTC_READ_BLOB_RSP\000"
 5448      4C455F45 
 5448      56545F47 
 5448      41545443 
 5448      5F524541 
 5449              	.LASF14:
 5450 0716 75696E74 		.ascii	"uint32_t\000"
ARM GAS  C:\Users\codyg\AppData\Local\Temp\cc52IIus.s 			page 130


 5450      33325F74 
 5450      00
 5451              	.LASF144:
 5452 071f 43595F42 		.ascii	"CY_BLE_EVT_SET_RPA_ENABLE_COMPLETE\000"
 5452      4C455F45 
 5452      56545F53 
 5452      45545F52 
 5452      50415F45 
 5453              	.LASF299:
 5454 0742 54696D65 		.ascii	"TimerHandle_t\000"
 5454      7248616E 
 5454      646C655F 
 5454      7400
 5455              	.LASF125:
 5456 0750 43595F42 		.ascii	"CY_BLE_EVT_STACK_ON\000"
 5456      4C455F45 
 5456      56545F53 
 5456      5441434B 
 5456      5F4F4E00 
 5457              	.LASF155:
 5458 0764 43595F42 		.ascii	"CY_BLE_EVT_LL_CNTRL_PROC_PENDING_COMPLETE\000"
 5458      4C455F45 
 5458      56545F4C 
 5458      4C5F434E 
 5458      54524C5F 
 5459              	.LASF231:
 5460 078e 43595F42 		.ascii	"CY_BLE_EVT_L2CAP_CBFC_CONN_CNF\000"
 5460      4C455F45 
 5460      56545F4C 
 5460      32434150 
 5460      5F434246 
 5461              	.LASF141:
 5462 07ad 43595F42 		.ascii	"CY_BLE_EVT_GET_PEER_RPA_COMPLETE\000"
 5462      4C455F45 
 5462      56545F47 
 5462      45545F50 
 5462      4545525F 
 5463              	.LASF334:
 5464 07ce 5254435F 		.ascii	"RTC_dstConfig\000"
 5464      64737443 
 5464      6F6E6669 
 5464      6700
 5465              	.LASF124:
 5466 07dc 43595F42 		.ascii	"CY_BLE_EVT_INVALID\000"
 5466      4C455F45 
 5466      56545F49 
 5466      4E56414C 
 5466      494400
 5467              	.LASF102:
 5468 07ef 63795F73 		.ascii	"cy_stc_scb_uart_context_t\000"
 5468      74635F73 
 5468      63625F75 
 5468      6172745F 
 5468      636F6E74 
 5469              	.LASF304:
 5470 0809 62617365 		.ascii	"base\000"
 5470      00
ARM GAS  C:\Users\codyg\AppData\Local\Temp\cc52IIus.s 			page 131


 5471              	.LASF94:
 5472 080e 63795F73 		.ascii	"cy_stc_scb_uart_context\000"
 5472      74635F73 
 5472      63625F75 
 5472      6172745F 
 5472      636F6E74 
 5473              	.LASF16:
 5474 0826 4F55545F 		.ascii	"OUT_CLR\000"
 5474      434C5200 
 5475              	.LASF343:
 5476 082e 78517565 		.ascii	"xQueueGenericReceive\000"
 5476      75654765 
 5476      6E657269 
 5476      63526563 
 5476      65697665 
 5477              	.LASF72:
 5478 0843 72656C6F 		.ascii	"reloadInput\000"
 5478      6164496E 
 5478      70757400 
 5479              	.LASF278:
 5480 084f 6E756D43 		.ascii	"numChannels\000"
 5480      68616E6E 
 5480      656C7300 
 5481              	.LASF192:
 5482 085b 43595F42 		.ascii	"CY_BLE_EVT_GAP_ENHANCE_CONN_COMPLETE\000"
 5482      4C455F45 
 5482      56545F47 
 5482      41505F45 
 5482      4E48414E 
 5483              	.LASF10:
 5484 0880 6C6F6E67 		.ascii	"long long unsigned int\000"
 5484      206C6F6E 
 5484      6720756E 
 5484      7369676E 
 5484      65642069 
 5485              	.LASF246:
 5486 0897 63795F65 		.ascii	"cy_en_ble_adv_state_t\000"
 5486      6E5F626C 
 5486      655F6164 
 5486      765F7374 
 5486      6174655F 
 5487              	.LASF159:
 5488 08ad 43595F42 		.ascii	"CY_BLE_EVT_GET_RSSI_COMPLETE\000"
 5488      4C455F45 
 5488      56545F47 
 5488      45545F52 
 5488      5353495F 
 5489              	.LASF112:
 5490 08ca 72616E67 		.ascii	"rangeThres\000"
 5490      65546872 
 5490      657300
 5491              	.LASF243:
 5492 08d5 43595F42 		.ascii	"CY_BLE_ADV_STATE_ADV_INITIATED\000"
 5492      4C455F41 
 5492      44565F53 
 5492      54415445 
 5492      5F414456 
ARM GAS  C:\Users\codyg\AppData\Local\Temp\cc52IIus.s 			page 132


 5493              	.LASF49:
 5494 08f4 63795F65 		.ascii	"cy_en_rtc_dst_format_t\000"
 5494      6E5F7274 
 5494      635F6473 
 5494      745F666F 
 5494      726D6174 
 5495              	.LASF104:
 5496 090b 43595F53 		.ascii	"CY_SAR_RANGE_COND_INSIDE\000"
 5496      41525F52 
 5496      414E4745 
 5496      5F434F4E 
 5496      445F494E 
 5497              	.LASF185:
 5498 0924 43595F42 		.ascii	"CY_BLE_EVT_GAP_ENCRYPT_CHANGE\000"
 5498      4C455F45 
 5498      56545F47 
 5498      41505F45 
 5498      4E435259 
 5499              	.LASF157:
 5500 0942 43595F42 		.ascii	"CY_BLE_EVT_SET_DEVICE_ADDR_COMPLETE\000"
 5500      4C455F45 
 5500      56545F53 
 5500      45545F44 
 5500      45564943 
 5501              	.LASF123:
 5502 0966 63795F73 		.ascii	"cy_stc_sar_config_t\000"
 5502      74635F73 
 5502      61725F63 
 5502      6F6E6669 
 5502      675F7400 
 5503              	.LASF240:
 5504 097a 61747449 		.ascii	"attId\000"
 5504      6400
 5505              	.LASF108:
 5506 0980 6374726C 		.ascii	"ctrl\000"
 5506      00
 5507              	.LASF73:
 5508 0985 73746172 		.ascii	"startInputMode\000"
 5508      74496E70 
 5508      75744D6F 
 5508      646500
 5509              	.LASF69:
 5510 0994 63617074 		.ascii	"captureInputMode\000"
 5510      75726549 
 5510      6E707574 
 5510      4D6F6465 
 5510      00
 5511              	.LASF191:
 5512 09a5 43595F42 		.ascii	"CY_BLE_EVT_GAP_OOB_GENERATED_NOTIFICATION\000"
 5512      4C455F45 
 5512      56545F47 
 5512      41505F4F 
 5512      4F425F47 
 5513              	.LASF25:
 5514 09cf 4346475F 		.ascii	"CFG_OUT\000"
 5514      4F555400 
 5515              	.LASF96:
ARM GAS  C:\Users\codyg\AppData\Local\Temp\cc52IIus.s 			page 133


 5516 09d7 72785374 		.ascii	"rxStatus\000"
 5516      61747573 
 5516      00
 5517              	.LASF84:
 5518 09e0 72784275 		.ascii	"rxBuf\000"
 5518      6600
 5519              	.LASF264:
 5520 09e6 43595F42 		.ascii	"CY_BLE_DIS_PNP_ID\000"
 5520      4C455F44 
 5520      49535F50 
 5520      4E505F49 
 5520      4400
 5521              	.LASF183:
 5522 09f8 43595F42 		.ascii	"CY_BLE_EVT_GAP_DEVICE_CONNECTED\000"
 5522      4C455F45 
 5522      56545F47 
 5522      41505F44 
 5522      45564943 
 5523              	.LASF156:
 5524 0a18 43595F42 		.ascii	"CY_BLE_EVT_SOFT_RESET_COMPLETE\000"
 5524      4C455F45 
 5524      56545F53 
 5524      4F46545F 
 5524      52455345 
 5525              	.LASF290:
 5526 0a37 4C45445F 		.ascii	"LED_BLINK_ONCE\000"
 5526      424C494E 
 5526      4B5F4F4E 
 5526      434500
 5527              	.LASF217:
 5528 0a46 43595F42 		.ascii	"CY_BLE_EVT_GATTS_PREP_WRITE_REQ\000"
 5528      4C455F45 
 5528      56545F47 
 5528      41545453 
 5528      5F505245 
 5529              	.LASF287:
 5530 0a66 4C45445F 		.ascii	"LED_TURN_ON\000"
 5530      5455524E 
 5530      5F4F4E00 
 5531              	.LASF345:
 5532 0a72 73746174 		.ascii	"status_led_task.c\000"
 5532      75735F6C 
 5532      65645F74 
 5532      61736B2E 
 5532      6300
 5533              	.LASF111:
 5534 0a84 73616D70 		.ascii	"sampleTime23\000"
 5534      6C655469 
 5534      6D653233 
 5534      00
 5535              	.LASF90:
 5536 0a91 63624576 		.ascii	"cbEvents\000"
 5536      656E7473 
 5536      00
 5537              	.LASF261:
 5538 0a9a 43595F42 		.ascii	"CY_BLE_DIS_SOFTWARE_REV\000"
 5538      4C455F44 
ARM GAS  C:\Users\codyg\AppData\Local\Temp\cc52IIus.s 			page 134


 5538      49535F53 
 5538      4F465457 
 5538      4152455F 
 5539              	.LASF45:
 5540 0ab2 646F7562 		.ascii	"double\000"
 5540      6C6500
 5541              	.LASF46:
 5542 0ab9 5F426F6F 		.ascii	"_Bool\000"
 5542      6C00
 5543              	.LASF58:
 5544 0abf 73746F70 		.ascii	"stopDst\000"
 5544      44737400 
 5545              	.LASF238:
 5546 0ac7 43595F42 		.ascii	"CY_BLE_EVT_MAX\000"
 5546      4C455F45 
 5546      56545F4D 
 5546      415800
 5547              	.LASF55:
 5548 0ad6 6D6F6E74 		.ascii	"month\000"
 5548      6800
 5549              	.LASF53:
 5550 0adc 7765656B 		.ascii	"weekOfMonth\000"
 5550      4F664D6F 
 5550      6E746800 
 5551              	.LASF233:
 5552 0ae8 43595F42 		.ascii	"CY_BLE_EVT_L2CAP_CBFC_DISCONN_CNF\000"
 5552      4C455F45 
 5552      56545F4C 
 5552      32434150 
 5552      5F434246 
 5553              	.LASF36:
 5554 0b0a 5644445F 		.ascii	"VDD_INTR\000"
 5554      494E5452 
 5554      00
 5555              	.LASF164:
 5556 0b13 43595F42 		.ascii	"CY_BLE_EVT_RANDOM_NUM_GEN_COMPLETE\000"
 5556      4C455F45 
 5556      56545F52 
 5556      414E444F 
 5556      4D5F4E55 
 5557              	.LASF244:
 5558 0b36 43595F42 		.ascii	"CY_BLE_ADV_STATE_ADVERTISING\000"
 5558      4C455F41 
 5558      44565F53 
 5558      54415445 
 5558      5F414456 
 5559              	.LASF194:
 5560 0b53 43595F42 		.ascii	"CY_BLE_EVT_GAP_SMP_NEGOTIATED_AUTH_INFO\000"
 5560      4C455F45 
 5560      56545F47 
 5560      41505F53 
 5560      4D505F4E 
 5561              	.LASF137:
 5562 0b7b 43595F42 		.ascii	"CY_BLE_EVT_SET_DATA_LENGTH_COMPLETE\000"
 5562      4C455F45 
 5562      56545F53 
 5562      45545F44 
ARM GAS  C:\Users\codyg\AppData\Local\Temp\cc52IIus.s 			page 135


 5562      4154415F 
 5563              	.LASF215:
 5564 0b9f 43595F42 		.ascii	"CY_BLE_EVT_GATTC_WRITE_RSP\000"
 5564      4C455F45 
 5564      56545F47 
 5564      41545443 
 5564      5F575249 
 5565              	.LASF339:
 5566 0bba 78517565 		.ascii	"xQueueGenericSend\000"
 5566      75654765 
 5566      6E657269 
 5566      6353656E 
 5566      6400
 5567              	.LASF127:
 5568 0bcc 43595F42 		.ascii	"CY_BLE_EVT_STACK_BUSY_STATUS\000"
 5568      4C455F45 
 5568      56545F53 
 5568      5441434B 
 5568      5F425553 
 5569              	.LASF19:
 5570 0be9 494E5452 		.ascii	"INTR\000"
 5570      00
 5571              	.LASF30:
 5572 0bee 4750494F 		.ascii	"GPIO_PRT_Type\000"
 5572      5F505254 
 5572      5F547970 
 5572      6500
 5573              	.LASF134:
 5574 0bfc 43595F42 		.ascii	"CY_BLE_EVT_GET_CHANNEL_MAP_COMPLETE\000"
 5574      4C455F45 
 5574      56545F47 
 5574      45545F43 
 5574      48414E4E 
 5575              	.LASF51:
 5576 0c20 686F7572 		.ascii	"hour\000"
 5576      00
 5577              	.LASF270:
 5578 0c25 43595F42 		.ascii	"CY_BLE_HTS_CHAR_COUNT\000"
 5578      4C455F48 
 5578      54535F43 
 5578      4841525F 
 5578      434F554E 
 5579              	.LASF20:
 5580 0c3b 494E5452 		.ascii	"INTR_MASK\000"
 5580      5F4D4153 
 5580      4B00
 5581              	.LASF128:
 5582 0c45 43595F42 		.ascii	"CY_BLE_EVT_MEMORY_REQUEST\000"
 5582      4C455F45 
 5582      56545F4D 
 5582      454D4F52 
 5582      595F5245 
 5583              	.LASF122:
 5584 0c5f 76726566 		.ascii	"vrefMvValue\000"
 5584      4D765661 
 5584      6C756500 
 5585              	.LASF175:
ARM GAS  C:\Users\codyg\AppData\Local\Temp\cc52IIus.s 			page 136


 5586 0c6b 43595F42 		.ascii	"CY_BLE_EVT_SET_CONN_PRIORITY_COMPLETE\000"
 5586      4C455F45 
 5586      56545F53 
 5586      45545F43 
 5586      4F4E4E5F 
 5587              	.LASF245:
 5588 0c91 43595F42 		.ascii	"CY_BLE_ADV_STATE_STOP_INITIATED\000"
 5588      4C455F41 
 5588      44565F53 
 5588      54415445 
 5588      5F53544F 
 5589              	.LASF274:
 5590 0cb1 43595F42 		.ascii	"CY_BLE_SRVI_GAP\000"
 5590      4C455F53 
 5590      5256495F 
 5590      47415000 
 5591              	.LASF252:
 5592 0cc1 43595F42 		.ascii	"CY_BLE_CONN_STATE_CLIENT_CHAR_DISCOVERING\000"
 5592      4C455F43 
 5592      4F4E4E5F 
 5592      53544154 
 5592      455F434C 
 5593              	.LASF70:
 5594 0ceb 63617074 		.ascii	"captureInput\000"
 5594      75726549 
 5594      6E707574 
 5594      00
 5595              	.LASF105:
 5596 0cf8 43595F53 		.ascii	"CY_SAR_RANGE_COND_ABOVE\000"
 5596      41525F52 
 5596      414E4745 
 5596      5F434F4E 
 5596      445F4142 
 5597              	.LASF43:
 5598 0d10 63686172 		.ascii	"char\000"
 5598      00
 5599              	.LASF166:
 5600 0d15 43595F42 		.ascii	"CY_BLE_EVT_AES_CCM_ENCRYPT_COMPLETE\000"
 5600      4C455F45 
 5600      56545F41 
 5600      45535F43 
 5600      434D5F45 
 5601              	.LASF187:
 5602 0d39 43595F42 		.ascii	"CY_BLE_EVT_GAPC_SCAN_START_STOP\000"
 5602      4C455F45 
 5602      56545F47 
 5602      4150435F 
 5602      5343414E 
 5603              	.LASF114:
 5604 0d59 6368616E 		.ascii	"chanEn\000"
 5604      456E00
 5605              	.LASF100:
 5606 0d60 72785269 		.ascii	"rxRingBufTail\000"
 5606      6E674275 
 5606      66546169 
 5606      6C00
 5607              	.LASF57:
ARM GAS  C:\Users\codyg\AppData\Local\Temp\cc52IIus.s 			page 137


 5608 0d6e 73746172 		.ascii	"startDst\000"
 5608      74447374 
 5608      00
 5609              	.LASF257:
 5610 0d77 43595F42 		.ascii	"CY_BLE_DIS_MODEL_NUMBER\000"
 5610      4C455F44 
 5610      49535F4D 
 5610      4F44454C 
 5610      5F4E554D 
 5611              	.LASF301:
 5612 0d8f 65727243 		.ascii	"errCode\000"
 5612      6F646500 
 5613              	.LASF319:
 5614 0d97 7265644C 		.ascii	"redLedState\000"
 5614      65645374 
 5614      61746500 
 5615              	.LASF340:
 5616 0da3 7854696D 		.ascii	"xTimerCreate\000"
 5616      65724372 
 5616      65617465 
 5616      00
 5617              	.LASF208:
 5618 0db0 43595F42 		.ascii	"CY_BLE_EVT_GATTC_READ_BY_TYPE_RSP\000"
 5618      4C455F45 
 5618      56545F47 
 5618      41545443 
 5618      5F524541 
 5619              	.LASF61:
 5620 0dd2 636C6F63 		.ascii	"clockPrescaler\000"
 5620      6B507265 
 5620      7363616C 
 5620      657200
 5621              	.LASF312:
 5622 0de1 53746174 		.ascii	"StatusLedOrangeTimerStart\000"
 5622      75734C65 
 5622      644F7261 
 5622      6E676554 
 5622      696D6572 
 5623              	.LASF145:
 5624 0dfb 43595F42 		.ascii	"CY_BLE_EVT_SET_HOST_CHANNEL_COMPLETE\000"
 5624      4C455F45 
 5624      56545F53 
 5624      45545F48 
 5624      4F53545F 
 5625              	.LASF135:
 5626 0e20 43595F42 		.ascii	"CY_BLE_EVT_LE_SET_EVENT_MASK_COMPLETE\000"
 5626      4C455F45 
 5626      56545F4C 
 5626      455F5345 
 5626      545F4556 
 5627              	.LASF86:
 5628 0e46 72784275 		.ascii	"rxBufIdx\000"
 5628      66496478 
 5628      00
 5629              	.LASF285:
 5630 0e4f 51756575 		.ascii	"QueueHandle_t\000"
 5630      6548616E 
ARM GAS  C:\Users\codyg\AppData\Local\Temp\cc52IIus.s 			page 138


 5630      646C655F 
 5630      7400
 5631              	.LASF189:
 5632 0e5d 43595F42 		.ascii	"CY_BLE_EVT_GAP_NUMERIC_COMPARISON_REQUEST\000"
 5632      4C455F45 
 5632      56545F47 
 5632      41505F4E 
 5632      554D4552 
 5633              	.LASF91:
 5634 0e87 696E6974 		.ascii	"initKey\000"
 5634      4B657900 
 5635              	.LASF12:
 5636 0e8f 75696E74 		.ascii	"uint8_t\000"
 5636      385F7400 
 5637              	.LASF83:
 5638 0e97 73746174 		.ascii	"status\000"
 5638      757300
 5639              	.LASF335:
 5640 0e9e 73746174 		.ascii	"statusLedDataQ\000"
 5640      75734C65 
 5640      64446174 
 5640      615100
 5641              	.LASF47:
 5642 0ead 43595F52 		.ascii	"CY_RTC_DST_RELATIVE\000"
 5642      54435F44 
 5642      53545F52 
 5642      454C4154 
 5642      49564500 
 5643              	.LASF168:
 5644 0ec1 43595F42 		.ascii	"CY_BLE_EVT_SET_SLAVE_LATENCY_MODE_COMPLETE\000"
 5644      4C455F45 
 5644      56545F53 
 5644      45545F53 
 5644      4C415645 
 5645              	.LASF337:
 5646 0eec 7854696D 		.ascii	"xTimer_StatusLedRed\000"
 5646      65725F53 
 5646      74617475 
 5646      734C6564 
 5646      52656400 
 5647              	.LASF33:
 5648 0f00 494E5452 		.ascii	"INTR_CAUSE2\000"
 5648      5F434155 
 5648      53453200 
 5649              	.LASF34:
 5650 0f0c 494E5452 		.ascii	"INTR_CAUSE3\000"
 5650      5F434155 
 5650      53453300 
 5651              	.LASF180:
 5652 0f18 43595F42 		.ascii	"CY_BLE_EVT_GAP_AUTH_COMPLETE\000"
 5652      4C455F45 
 5652      56545F47 
 5652      41505F41 
 5652      5554485F 
 5653              	.LASF295:
 5654 0f35 73746174 		.ascii	"status_led_data_t\000"
 5654      75735F6C 
ARM GAS  C:\Users\codyg\AppData\Local\Temp\cc52IIus.s 			page 139


 5654      65645F64 
 5654      6174615F 
 5654      7400
 5655              	.LASF151:
 5656 0f47 43595F42 		.ascii	"CY_BLE_EVT_SET_DEFAULT_PHY_COMPLETE\000"
 5656      4C455F45 
 5656      56545F53 
 5656      45545F44 
 5656      45464155 
 5657              	.LASF120:
 5658 0f6b 6D757853 		.ascii	"muxSwitchSqCtrl\000"
 5658      77697463 
 5658      68537143 
 5658      74726C00 
 5659              	.LASF323:
 5660 0f7b 63795F62 		.ascii	"cy_ble_advState\000"
 5660      6C655F61 
 5660      64765374 
 5660      61746500 
 5661              	.LASF341:
 5662 0f8b 78546173 		.ascii	"xTaskGetTickCount\000"
 5662      6B476574 
 5662      5469636B 
 5662      436F756E 
 5662      7400
 5663              	.LASF93:
 5664 0f9d 63795F63 		.ascii	"cy_cb_scb_uart_handle_events_t\000"
 5664      625F7363 
 5664      625F7561 
 5664      72745F68 
 5664      616E646C 
 5665              	.LASF113:
 5666 0fbc 72616E67 		.ascii	"rangeCond\000"
 5666      65436F6E 
 5666      6400
 5667              	.LASF174:
 5668 0fc6 43595F42 		.ascii	"CY_BLE_EVT_SET_CE_LENGTH_COMPLETE\000"
 5668      4C455F45 
 5668      56545F53 
 5668      45545F43 
 5668      455F4C45 
 5669              	.LASF173:
 5670 0fe8 43595F42 		.ascii	"CY_BLE_EVT_SET_EVENT_MASK_COMPLETE\000"
 5670      4C455F45 
 5670      56545F53 
 5670      45545F45 
 5670      56454E54 
 5671              	.LASF9:
 5672 100b 6C6F6E67 		.ascii	"long long int\000"
 5672      206C6F6E 
 5672      6720696E 
 5672      7400
 5673              	.LASF266:
 5674 1019 43595F42 		.ascii	"CY_BLE_HTS_TEMP_MEASURE\000"
 5674      4C455F48 
 5674      54535F54 
 5674      454D505F 
ARM GAS  C:\Users\codyg\AppData\Local\Temp\cc52IIus.s 			page 140


 5674      4D454153 
 5675              	.LASF200:
 5676 1031 43595F42 		.ascii	"CY_BLE_EVT_GAP_CONN_ESTB\000"
 5676      4C455F45 
 5676      56545F47 
 5676      41505F43 
 5676      4F4E4E5F 
 5677              	.LASF147:
 5678 104a 43595F42 		.ascii	"CY_BLE_EVT_REMOVE_DEVICE_FROM_RPA_LIST_COMPLETE\000"
 5678      4C455F45 
 5678      56545F52 
 5678      454D4F56 
 5678      455F4445 
 5679              	.LASF136:
 5680 107a 43595F42 		.ascii	"CY_BLE_EVT_LE_PING_AUTH_TIMEOUT\000"
 5680      4C455F45 
 5680      56545F4C 
 5680      455F5049 
 5680      4E475F41 
 5681              	.LASF346:
 5682 109a 433A5C55 		.ascii	"C:\\Users\\codyg\\git\\psoc6-realtime-processing\\B"
 5682      73657273 
 5682      5C636F64 
 5682      79675C67 
 5682      69745C70 
 5683 10c8 4C455F52 		.ascii	"LE_RTC_IMU.cydsn\\RestEaze_BLE.cydsn\000"
 5683      54435F49 
 5683      4D552E63 
 5683      7964736E 
 5683      5C526573 
 5684              	.LASF283:
 5685 10ec 42617365 		.ascii	"BaseType_t\000"
 5685      54797065 
 5685      5F7400
 5686              	.LASF163:
 5687 10f7 43595F42 		.ascii	"CY_BLE_EVT_SET_CLK_CONFIG_COMPLETE\000"
 5687      4C455F45 
 5687      56545F53 
 5687      45545F43 
 5687      4C4B5F43 
 5688              	.LASF38:
 5689 111a 5644445F 		.ascii	"VDD_INTR_MASKED\000"
 5689      494E5452 
 5689      5F4D4153 
 5689      4B454400 
 5690              	.LASF226:
 5691 112a 43595F42 		.ascii	"CY_BLE_EVT_GATTC_LONG_PROCEDURE_END\000"
 5691      4C455F45 
 5691      56545F47 
 5691      41545443 
 5691      5F4C4F4E 
 5692              	.LASF288:
 5693 114e 4C45445F 		.ascii	"LED_TURN_OFF\000"
 5693      5455524E 
 5693      5F4F4646 
 5693      00
 5694              	.LASF92:
ARM GAS  C:\Users\codyg\AppData\Local\Temp\cc52IIus.s 			page 141


 5695 115b 63795F73 		.ascii	"cy_stc_scb_spi_context_t\000"
 5695      74635F73 
 5695      63625F73 
 5695      70695F63 
 5695      6F6E7465 
 5696              	.LASF99:
 5697 1174 72785269 		.ascii	"rxRingBufHead\000"
 5697      6E674275 
 5697      66486561 
 5697      6400
 5698              	.LASF71:
 5699 1182 72656C6F 		.ascii	"reloadInputMode\000"
 5699      6164496E 
 5699      7075744D 
 5699      6F646500 
 5700              	.LASF140:
 5701 1192 43595F42 		.ascii	"CY_BLE_EVT_DATA_LENGTH_CHANGE\000"
 5701      4C455F45 
 5701      56545F44 
 5701      4154415F 
 5701      4C454E47 
 5702              	.LASF115:
 5703 11b0 6368616E 		.ascii	"chanConfig\000"
 5703      436F6E66 
 5703      696700
 5704              	.LASF188:
 5705 11bb 43595F42 		.ascii	"CY_BLE_EVT_GAP_KEYINFO_EXCHNGE_CMPLT\000"
 5705      4C455F45 
 5705      56545F47 
 5705      41505F4B 
 5705      4559494E 
 5706              	.LASF148:
 5707 11e0 43595F42 		.ascii	"CY_BLE_EVT_ADD_DEVICE_TO_WHITE_LIST_COMPLETE\000"
 5707      4C455F45 
 5707      56545F41 
 5707      44445F44 
 5707      45564943 
 5708              	.LASF88:
 5709 120d 74784275 		.ascii	"txBufSize\000"
 5709      6653697A 
 5709      6500
 5710              	.LASF289:
 5711 1217 4C45445F 		.ascii	"LED_TOGGLE_EN\000"
 5711      544F4747 
 5711      4C455F45 
 5711      4E00
 5712              	.LASF237:
 5713 1225 43595F42 		.ascii	"CY_BLE_EVT_L2CAP_CBFC_DATA_WRITE_IND\000"
 5713      4C455F45 
 5713      56545F4C 
 5713      32434150 
 5713      5F434246 
 5714              	.LASF282:
 5715 124a 4144435F 		.ascii	"ADC_CONFIG_STRUCT\000"
 5715      434F4E46 
 5715      49475F53 
 5715      54525543 
ARM GAS  C:\Users\codyg\AppData\Local\Temp\cc52IIus.s 			page 142


 5715      5400
 5716              	.LASF176:
 5717 125c 43595F42 		.ascii	"CY_BLE_EVT_GAPC_SCAN_PROGRESS_RESULT\000"
 5717      4C455F45 
 5717      56545F47 
 5717      4150435F 
 5717      5343414E 
 5718              	.LASF230:
 5719 1281 43595F42 		.ascii	"CY_BLE_EVT_L2CAP_CBFC_CONN_IND\000"
 5719      4C455F45 
 5719      56545F4C 
 5719      32434150 
 5719      5F434246 
 5720              	.LASF196:
 5721 12a0 43595F42 		.ascii	"CY_BLE_EVT_GAP_KEYS_GEN_COMPLETE\000"
 5721      4C455F45 
 5721      56545F47 
 5721      41505F4B 
 5721      4559535F 
 5722              	.LASF190:
 5723 12c1 43595F42 		.ascii	"CY_BLE_EVT_GAP_KEYPRESS_NOTIFICATION\000"
 5723      4C455F45 
 5723      56545F47 
 5723      41505F4B 
 5723      45595052 
 5724              	.LASF253:
 5725 12e6 43595F42 		.ascii	"CY_BLE_CONN_STATE_CLIENT_DESCR_DISCOVERING\000"
 5725      4C455F43 
 5725      4F4E4E5F 
 5725      53544154 
 5725      455F434C 
 5726              	.LASF249:
 5727 1311 43595F42 		.ascii	"CY_BLE_CONN_STATE_CONNECTED\000"
 5727      4C455F43 
 5727      4F4E4E5F 
 5727      53544154 
 5727      455F434F 
 5728              	.LASF269:
 5729 132d 43595F42 		.ascii	"CY_BLE_HTS_MEASURE_INTERVAL\000"
 5729      4C455F48 
 5729      54535F4D 
 5729      45415355 
 5729      52455F49 
 5730              	.LASF87:
 5731 1349 74784275 		.ascii	"txBuf\000"
 5731      6600
 5732              	.LASF284:
 5733 134f 5469636B 		.ascii	"TickType_t\000"
 5733      54797065 
 5733      5F7400
 5734              	.LASF251:
 5735 135a 43595F42 		.ascii	"CY_BLE_CONN_STATE_CLIENT_INCL_DISCOVERING\000"
 5735      4C455F43 
 5735      4F4E4E5F 
 5735      53544154 
 5735      455F434C 
 5736              	.LASF329:
ARM GAS  C:\Users\codyg\AppData\Local\Temp\cc52IIus.s 			page 143


 5737 1384 44454255 		.ascii	"DEBUG_UART_context\000"
 5737      475F5541 
 5737      52545F63 
 5737      6F6E7465 
 5737      787400
 5738              	.LASF309:
 5739 1397 53746174 		.ascii	"StatusLedRedTimerCallback\000"
 5739      75734C65 
 5739      64526564 
 5739      54696D65 
 5739      7243616C 
 5740              	.LASF260:
 5741 13b1 43595F42 		.ascii	"CY_BLE_DIS_FIRMWARE_REV\000"
 5741      4C455F44 
 5741      49535F46 
 5741      49524D57 
 5741      4152455F 
 5742              	.LASF291:
 5743 13c9 4C45445F 		.ascii	"LED_TIMER_EXPIRED\000"
 5743      54494D45 
 5743      525F4558 
 5743      50495245 
 5743      4400
 5744              	.LASF97:
 5745 13db 72785269 		.ascii	"rxRingBuf\000"
 5745      6E674275 
 5745      6600
 5746              	.LASF41:
 5747 13e5 6C6F6E67 		.ascii	"long double\000"
 5747      20646F75 
 5747      626C6500 
 5748              	.LASF133:
 5749 13f1 43595F42 		.ascii	"CY_BLE_EVT_READ_AUTH_PAYLOAD_TO_COMPLETE\000"
 5749      4C455F45 
 5749      56545F52 
 5749      4541445F 
 5749      41555448 
 5750              	.LASF39:
 5751 141a 5644445F 		.ascii	"VDD_INTR_SET\000"
 5751      494E5452 
 5751      5F534554 
 5751      00
 5752              	.LASF62:
 5753 1427 72756E4D 		.ascii	"runMode\000"
 5753      6F646500 
 5754              	.LASF143:
 5755 142f 43595F42 		.ascii	"CY_BLE_EVT_SET_RPA_TO_COMPLETE\000"
 5755      4C455F45 
 5755      56545F53 
 5755      45545F52 
 5755      50415F54 
 5756              	.LASF110:
 5757 144e 73616D70 		.ascii	"sampleTime01\000"
 5757      6C655469 
 5757      6D653031 
 5757      00
 5758              	.LASF131:
ARM GAS  C:\Users\codyg\AppData\Local\Temp\cc52IIus.s 			page 144


 5759 145b 43595F42 		.ascii	"CY_BLE_EVT_HARDWARE_ERROR\000"
 5759      4C455F45 
 5759      56545F48 
 5759      41524457 
 5759      4152455F 
 5760              	.LASF79:
 5761 1475 63795F73 		.ascii	"cy_stc_tcpwm_counter_config_t\000"
 5761      74635F74 
 5761      6370776D 
 5761      5F636F75 
 5761      6E746572 
 5762              	.LASF199:
 5763 1493 43595F42 		.ascii	"CY_BLE_EVT_GAP_CREATE_CONN_CANCEL_COMPLETE\000"
 5763      4C455F45 
 5763      56545F47 
 5763      41505F43 
 5763      52454154 
 5764              	.LASF119:
 5765 14be 6D757853 		.ascii	"muxSwitch\000"
 5765      77697463 
 5765      6800
 5766              	.LASF221:
 5767 14c8 43595F42 		.ascii	"CY_BLE_EVT_GATTC_HANDLE_VALUE_IND\000"
 5767      4C455F45 
 5767      56545F47 
 5767      41545443 
 5767      5F48414E 
 5768              	.LASF202:
 5769 14ea 43595F42 		.ascii	"CY_BLE_EVT_GATTC_ERROR_RSP\000"
 5769      4C455F45 
 5769      56545F47 
 5769      41545443 
 5769      5F455252 
 5770              	.LASF207:
 5771 1505 43595F42 		.ascii	"CY_BLE_EVT_GATTC_READ_BY_GROUP_TYPE_RSP\000"
 5771      4C455F45 
 5771      56545F47 
 5771      41545443 
 5771      5F524541 
 5772              	.LASF146:
 5773 152d 43595F42 		.ascii	"CY_BLE_EVT_ADD_DEVICE_TO_RPA_LIST_COMPLETE\000"
 5773      4C455F45 
 5773      56545F41 
 5773      44445F44 
 5773      45564943 
 5774              	.LASF214:
 5775 1558 43595F42 		.ascii	"CY_BLE_EVT_GATTS_WRITE_REQ\000"
 5775      4C455F45 
 5775      56545F47 
 5775      41545453 
 5775      5F575249 
 5776              	.LASF169:
 5777 1573 43595F42 		.ascii	"CY_BLE_EVT_STACK_SHUTDOWN_COMPLETE\000"
 5777      4C455F45 
 5777      56545F53 
 5777      5441434B 
 5777      5F534855 
ARM GAS  C:\Users\codyg\AppData\Local\Temp\cc52IIus.s 			page 145


 5778              	.LASF310:
 5779 1596 72746F73 		.ascii	"rtosApiResult\000"
 5779      41706952 
 5779      6573756C 
 5779      7400
 5780              	.LASF241:
 5781 15a4 63795F73 		.ascii	"cy_stc_ble_conn_handle_t\000"
 5781      74635F62 
 5781      6C655F63 
 5781      6F6E6E5F 
 5781      68616E64 
 5782              	.LASF64:
 5783 15bd 636F6D70 		.ascii	"compareOrCapture\000"
 5783      6172654F 
 5783      72436170 
 5783      74757265 
 5783      00
 5784              	.LASF29:
 5785 15ce 52455345 		.ascii	"RESERVED1\000"
 5785      52564544 
 5785      3100
 5786              	.LASF256:
 5787 15d8 43595F42 		.ascii	"CY_BLE_DIS_MANUFACTURER_NAME\000"
 5787      4C455F44 
 5787      49535F4D 
 5787      414E5546 
 5787      41435455 
 5788              	.LASF0:
 5789 15f5 73686F72 		.ascii	"short int\000"
 5789      7420696E 
 5789      7400
 5790              	.LASF328:
 5791 15ff 4144435F 		.ascii	"ADC_allConfigs\000"
 5791      616C6C43 
 5791      6F6E6669 
 5791      677300
 5792              	.LASF259:
 5793 160e 43595F42 		.ascii	"CY_BLE_DIS_HARDWARE_REV\000"
 5793      4C455F44 
 5793      49535F48 
 5793      41524457 
 5793      4152455F 
 5794              	.LASF67:
 5795 1626 656E6162 		.ascii	"enableCompareSwap\000"
 5795      6C65436F 
 5795      6D706172 
 5795      65537761 
 5795      7000
 5796              	.LASF317:
 5797 1638 70765061 		.ascii	"pvParameters\000"
 5797      72616D65 
 5797      74657273 
 5797      00
 5798              	.LASF6:
 5799 1645 6C6F6E67 		.ascii	"long int\000"
 5799      20696E74 
 5799      00
ARM GAS  C:\Users\codyg\AppData\Local\Temp\cc52IIus.s 			page 146


 5800              	.LASF321:
 5801 164e 49544D5F 		.ascii	"ITM_RxBuffer\000"
 5801      52784275 
 5801      66666572 
 5801      00
 5802              	.LASF77:
 5803 165b 636F756E 		.ascii	"countInputMode\000"
 5803      74496E70 
 5803      75744D6F 
 5803      646500
 5804              	.LASF172:
 5805 166a 43595F42 		.ascii	"CY_BLE_EVT_AES_CMAC_GEN_COMPLETE\000"
 5805      4C455F45 
 5805      56545F41 
 5805      45535F43 
 5805      4D41435F 
 5806              	.LASF315:
 5807 168b 53746174 		.ascii	"StatusLedOrangeTimerUpdate\000"
 5807      75734C65 
 5807      644F7261 
 5807      6E676554 
 5807      696D6572 
 5808              	.LASF201:
 5809 16a6 43595F42 		.ascii	"CY_BLE_EVT_GAPP_UPDATE_ADV_SCAN_DATA_COMPLETE\000"
 5809      4C455F45 
 5809      56545F47 
 5809      4150505F 
 5809      55504441 
 5810              	.LASF347:
 5811 16d4 7072696E 		.ascii	"printData\000"
 5811      74446174 
 5811      6100
 5812              	.LASF63:
 5813 16de 636F756E 		.ascii	"countDirection\000"
 5813      74446972 
 5813      65637469 
 5813      6F6E00
 5814              	.LASF296:
 5815 16ed 73747269 		.ascii	"stringPointer\000"
 5815      6E67506F 
 5815      696E7465 
 5815      7200
 5816              	.LASF302:
 5817 16fb 53656E64 		.ascii	"SendToDebugPrintTask\000"
 5817      546F4465 
 5817      62756750 
 5817      72696E74 
 5817      5461736B 
 5818              	.LASF306:
 5819 1710 43795F47 		.ascii	"Cy_GPIO_Set\000"
 5819      50494F5F 
 5819      53657400 
 5820              	.LASF42:
 5821 171c 63686172 		.ascii	"char_t\000"
 5821      5F7400
 5822              	.LASF195:
 5823 1723 43595F42 		.ascii	"CY_BLE_EVT_GAP_DEVICE_ADDR_GEN_COMPLETE\000"
ARM GAS  C:\Users\codyg\AppData\Local\Temp\cc52IIus.s 			page 147


 5823      4C455F45 
 5823      56545F47 
 5823      41505F44 
 5823      45564943 
 5824              	.LASF298:
 5825 174b 64656275 		.ascii	"debug_print_data_t\000"
 5825      675F7072 
 5825      696E745F 
 5825      64617461 
 5825      5F7400
 5826              	.LASF28:
 5827 175e 4346475F 		.ascii	"CFG_IN_GPIO5V\000"
 5827      494E5F47 
 5827      50494F35 
 5827      5600
 5828              	.LASF54:
 5829 176c 6461794F 		.ascii	"dayOfWeek\000"
 5829      66576565 
 5829      6B00
 5830              	.LASF232:
 5831 1776 43595F42 		.ascii	"CY_BLE_EVT_L2CAP_CBFC_DISCONN_IND\000"
 5831      4C455F45 
 5831      56545F4C 
 5831      32434150 
 5831      5F434246 
 5832              	.LASF204:
 5833 1798 43595F42 		.ascii	"CY_BLE_EVT_GATT_DISCONNECT_IND\000"
 5833      4C455F45 
 5833      56545F47 
 5833      4154545F 
 5833      44495343 
 5834              	.LASF101:
 5835 17b7 74784C65 		.ascii	"txLeftToTransmit\000"
 5835      6674546F 
 5835      5472616E 
 5835      736D6974 
 5835      00
 5836              	.LASF218:
 5837 17c8 43595F42 		.ascii	"CY_BLE_EVT_GATTS_EXEC_WRITE_REQ\000"
 5837      4C455F45 
 5837      56545F47 
 5837      41545453 
 5837      5F455845 
 5838              	.LASF132:
 5839 17e8 43595F42 		.ascii	"CY_BLE_EVT_WRITE_AUTH_PAYLOAD_TO_COMPLETE\000"
 5839      4C455F45 
 5839      56545F57 
 5839      52495445 
 5839      5F415554 
 5840              	.LASF171:
 5841 1812 43595F42 		.ascii	"CY_BLE_EVT_RADIO_VOLTAGE_LEVEL\000"
 5841      4C455F45 
 5841      56545F52 
 5841      4144494F 
 5841      5F564F4C 
 5842              	.LASF314:
 5843 1831 7854696D 		.ascii	"xTimer\000"
ARM GAS  C:\Users\codyg\AppData\Local\Temp\cc52IIus.s 			page 148


 5843      657200
 5844              	.LASF18:
 5845 1838 4F55545F 		.ascii	"OUT_INV\000"
 5845      494E5600 
 5846              	.LASF4:
 5847 1840 5F5F7569 		.ascii	"__uint8_t\000"
 5847      6E74385F 
 5847      7400
 5848              	.LASF322:
 5849 184a 63795F52 		.ascii	"cy_RTC_daysInMonthTbl\000"
 5849      54435F64 
 5849      61797349 
 5849      6E4D6F6E 
 5849      74685462 
 5850              	.LASF332:
 5851 1860 54696D65 		.ascii	"Timer_IMU_config\000"
 5851      725F494D 
 5851      555F636F 
 5851      6E666967 
 5851      00
 5852              	.LASF138:
 5853 1871 43595F42 		.ascii	"CY_BLE_EVT_SET_SUGGESTED_DATA_LENGTH_COMPLETE\000"
 5853      4C455F45 
 5853      56545F53 
 5853      45545F53 
 5853      55474745 
 5854              	.LASF271:
 5855 189f 43595F42 		.ascii	"CY_BLE_HTS_CCCD\000"
 5855      4C455F48 
 5855      54535F43 
 5855      43434400 
 5856              	.LASF158:
 5857 18af 43595F42 		.ascii	"CY_BLE_EVT_GET_DEVICE_ADDR_COMPLETE\000"
 5857      4C455F45 
 5857      56545F47 
 5857      45545F44 
 5857      45564943 
 5858              	.LASF165:
 5859 18d3 43595F42 		.ascii	"CY_BLE_EVT_AES_ENCRYPT_COMPLETE\000"
 5859      4C455F45 
 5859      56545F41 
 5859      45535F45 
 5859      4E435259 
 5860              	.LASF160:
 5861 18f3 43595F42 		.ascii	"CY_BLE_EVT_GET_TX_PWR_COMPLETE\000"
 5861      4C455F45 
 5861      56545F47 
 5861      45545F54 
 5861      585F5057 
 5862              	.LASF21:
 5863 1912 494E5452 		.ascii	"INTR_MASKED\000"
 5863      5F4D4153 
 5863      4B454400 
 5864              	.LASF272:
 5865 191e 43595F42 		.ascii	"CY_BLE_HTS_VRD\000"
 5865      4C455F48 
 5865      54535F56 
ARM GAS  C:\Users\codyg\AppData\Local\Temp\cc52IIus.s 			page 149


 5865      524400
 5866              	.LASF313:
 5867 192d 53746174 		.ascii	"StatusLedOrangeTimerCallback\000"
 5867      75734C65 
 5867      644F7261 
 5867      6E676554 
 5867      696D6572 
 5868              	.LASF292:
 5869 194a 73746174 		.ascii	"status_led_command_t\000"
 5869      75735F6C 
 5869      65645F63 
 5869      6F6D6D61 
 5869      6E645F74 
 5870              	.LASF126:
 5871 195f 43595F42 		.ascii	"CY_BLE_EVT_TIMEOUT\000"
 5871      4C455F45 
 5871      56545F54 
 5871      494D454F 
 5871      555400
 5872              	.LASF275:
 5873 1972 43595F42 		.ascii	"CY_BLE_SRVI_GATT\000"
 5873      4C455F53 
 5873      5256495F 
 5873      47415454 
 5873      00
 5874              	.LASF297:
 5875 1983 6572726F 		.ascii	"errorCode\000"
 5875      72436F64 
 5875      6500
 5876              	.LASF15:
 5877 198d 73697A65 		.ascii	"sizetype\000"
 5877      74797065 
 5877      00
 5878              	.LASF8:
 5879 1996 6C6F6E67 		.ascii	"long unsigned int\000"
 5879      20756E73 
 5879      69676E65 
 5879      6420696E 
 5879      7400
 5880              	.LASF44:
 5881 19a8 666C6F61 		.ascii	"float\000"
 5881      7400
 5882              	.LASF13:
 5883 19ae 696E7433 		.ascii	"int32_t\000"
 5883      325F7400 
 5884              	.LASF170:
 5885 19b6 43595F42 		.ascii	"CY_BLE_EVT_RADIO_TEMPERATURE\000"
 5885      4C455F45 
 5885      56545F52 
 5885      4144494F 
 5885      5F54454D 
 5886              	.LASF305:
 5887 19d3 70696E4E 		.ascii	"pinNum\000"
 5887      756D00
 5888              	.LASF229:
 5889 19da 43595F42 		.ascii	"CY_BLE_EVT_L2CAP_COMMAND_REJ\000"
 5889      4C455F45 
ARM GAS  C:\Users\codyg\AppData\Local\Temp\cc52IIus.s 			page 150


 5889      56545F4C 
 5889      32434150 
 5889      5F434F4D 
 5890              	.LASF348:
 5891 19f7 5461736B 		.ascii	"Task_StatusLed\000"
 5891      5F537461 
 5891      7475734C 
 5891      656400
 5892              	.LASF179:
 5893 1a06 43595F42 		.ascii	"CY_BLE_EVT_GAP_PASSKEY_DISPLAY_REQUEST\000"
 5893      4C455F45 
 5893      56545F47 
 5893      41505F50 
 5893      4153534B 
 5894              	.LASF308:
 5895 1a2d 53746174 		.ascii	"StatusLedRedTimerStart\000"
 5895      75734C65 
 5895      64526564 
 5895      54696D65 
 5895      72537461 
 5896              	.LASF109:
 5897 1a44 73616D70 		.ascii	"sampleCtrl\000"
 5897      6C654374 
 5897      726C00
 5898              	.LASF303:
 5899 1a4f 43795F47 		.ascii	"Cy_GPIO_Clr\000"
 5899      50494F5F 
 5899      436C7200 
 5900              	.LASF2:
 5901 1a5b 756E7369 		.ascii	"unsigned char\000"
 5901      676E6564 
 5901      20636861 
 5901      7200
 5902              	.LASF223:
 5903 1a69 43595F42 		.ascii	"CY_BLE_EVT_GATTS_DATA_SIGNED_CMD_REQ\000"
 5903      4C455F45 
 5903      56545F47 
 5903      41545453 
 5903      5F444154 
 5904              	.LASF7:
 5905 1a8e 5F5F7569 		.ascii	"__uint32_t\000"
 5905      6E743332 
 5905      5F7400
 5906              	.LASF40:
 5907 1a99 4750494F 		.ascii	"GPIO_Type\000"
 5907      5F547970 
 5907      6500
 5908              	.LASF273:
 5909 1aa3 43595F42 		.ascii	"CY_BLE_HTS_DESCR_COUNT\000"
 5909      4C455F48 
 5909      54535F44 
 5909      45534352 
 5909      5F434F55 
 5910              	.LASF78:
 5911 1aba 636F756E 		.ascii	"countInput\000"
 5911      74496E70 
 5911      757400
ARM GAS  C:\Users\codyg\AppData\Local\Temp\cc52IIus.s 			page 151


 5912              	.LASF23:
 5913 1ac5 494E5452 		.ascii	"INTR_CFG\000"
 5913      5F434647 
 5913      00
 5914              	.LASF293:
 5915 1ace 7265644C 		.ascii	"redLed\000"
 5915      656400
 5916              	.LASF149:
 5917 1ad5 43595F42 		.ascii	"CY_BLE_EVT_REMOVE_DEVICE_FROM_WHITE_LIST_COMPLETE\000"
 5917      4C455F45 
 5917      56545F52 
 5917      454D4F56 
 5917      455F4445 
 5918              	.LASF139:
 5919 1b07 43595F42 		.ascii	"CY_BLE_EVT_GET_DATA_LENGTH_COMPLETE\000"
 5919      4C455F45 
 5919      56545F47 
 5919      45545F44 
 5919      4154415F 
 5920              	.LASF268:
 5921 1b2b 43595F42 		.ascii	"CY_BLE_HTS_INTERM_TEMP\000"
 5921      4C455F48 
 5921      54535F49 
 5921      4E544552 
 5921      4D5F5445 
 5922              	.LASF193:
 5923 1b42 43595F42 		.ascii	"CY_BLE_EVT_GAPC_DIRECT_ADV_REPORT\000"
 5923      4C455F45 
 5923      56545F47 
 5923      4150435F 
 5923      44495245 
 5924              	.LASF82:
 5925 1b64 63795F73 		.ascii	"cy_stc_scb_spi_context\000"
 5925      74635F73 
 5925      63625F73 
 5925      70695F63 
 5925      6F6E7465 
 5926              	.LASF228:
 5927 1b7b 43595F42 		.ascii	"CY_BLE_EVT_L2CAP_CONN_PARAM_UPDATE_RSP\000"
 5927      4C455F45 
 5927      56545F4C 
 5927      32434150 
 5927      5F434F4E 
 5928              	.LASF281:
 5929 1ba2 636C6B44 		.ascii	"clkDivider\000"
 5929      69766964 
 5929      657200
 5930              	.LASF330:
 5931 1bad 436F756E 		.ascii	"Counter_ms_config\000"
 5931      7465725F 
 5931      6D735F63 
 5931      6F6E6669 
 5931      6700
 5932              	.LASF336:
 5933 1bbf 64656275 		.ascii	"debugMessageQ\000"
 5933      674D6573 
 5933      73616765 
ARM GAS  C:\Users\codyg\AppData\Local\Temp\cc52IIus.s 			page 152


 5933      5100
 5934              	.LASF327:
 5935 1bcd 4144435F 		.ascii	"ADC_currentConfig\000"
 5935      63757272 
 5935      656E7443 
 5935      6F6E6669 
 5935      6700
 5936              	.LASF262:
 5937 1bdf 43595F42 		.ascii	"CY_BLE_DIS_SYSTEM_ID\000"
 5937      4C455F44 
 5937      49535F53 
 5937      59535445 
 5937      4D5F4944 
 5938              	.LASF205:
 5939 1bf4 43595F42 		.ascii	"CY_BLE_EVT_GATTS_XCNHG_MTU_REQ\000"
 5939      4C455F45 
 5939      56545F47 
 5939      41545453 
 5939      5F58434E 
 5940              	.LASF224:
 5941 1c13 43595F42 		.ascii	"CY_BLE_EVT_GATTC_STOP_CMD_COMPLETE\000"
 5941      4C455F45 
 5941      56545F47 
 5941      41545443 
 5941      5F53544F 
 5942              	.LASF178:
 5943 1c36 43595F42 		.ascii	"CY_BLE_EVT_GAP_PASSKEY_ENTRY_REQUEST\000"
 5943      4C455F45 
 5943      56545F47 
 5943      41505F50 
 5943      4153534B 
 5944              	.LASF239:
 5945 1c5b 62644861 		.ascii	"bdHandle\000"
 5945      6E646C65 
 5945      00
 5946              	.LASF37:
 5947 1c64 5644445F 		.ascii	"VDD_INTR_MASK\000"
 5947      494E5452 
 5947      5F4D4153 
 5947      4B00
 5948              	.LASF1:
 5949 1c72 7369676E 		.ascii	"signed char\000"
 5949      65642063 
 5949      68617200 
 5950              	.LASF60:
 5951 1c7e 70657269 		.ascii	"period\000"
 5951      6F6400
 5952              	.LASF3:
 5953 1c85 73686F72 		.ascii	"short unsigned int\000"
 5953      7420756E 
 5953      7369676E 
 5953      65642069 
 5953      6E7400
 5954              	.LASF318:
 5955 1c98 73746174 		.ascii	"statusLedData\000"
 5955      75734C65 
 5955      64446174 
ARM GAS  C:\Users\codyg\AppData\Local\Temp\cc52IIus.s 			page 153


 5955      6100
 5956              	.LASF81:
 5957 1ca6 63795F73 		.ascii	"cy_stc_tcpwm_counter_config\000"
 5957      74635F74 
 5957      6370776D 
 5957      5F636F75 
 5957      6E746572 
 5958              	.LASF177:
 5959 1cc2 43595F42 		.ascii	"CY_BLE_EVT_GAP_AUTH_REQ\000"
 5959      4C455F45 
 5959      56545F47 
 5959      41505F41 
 5959      5554485F 
 5960              	.LASF216:
 5961 1cda 43595F42 		.ascii	"CY_BLE_EVT_GATTS_WRITE_CMD_REQ\000"
 5961      4C455F45 
 5961      56545F47 
 5961      41545453 
 5961      5F575249 
 5962              	.LASF162:
 5963 1cf9 43595F42 		.ascii	"CY_BLE_EVT_GET_CLK_CONFIG_COMPLETE\000"
 5963      4C455F45 
 5963      56545F47 
 5963      45545F43 
 5963      4C4B5F43 
 5964              	.LASF280:
 5965 1d1c 6D697363 		.ascii	"miscConfig\000"
 5965      436F6E66 
 5965      696700
 5966              	.LASF286:
 5967 1d27 4C45445F 		.ascii	"LED_NO_CHANGE\000"
 5967      4E4F5F43 
 5967      48414E47 
 5967      4500
 5968              	.LASF307:
 5969 1d35 43795F47 		.ascii	"Cy_GPIO_Inv\000"
 5969      50494F5F 
 5969      496E7600 
 5970              	.LASF227:
 5971 1d41 43595F42 		.ascii	"CY_BLE_EVT_L2CAP_CONN_PARAM_UPDATE_REQ\000"
 5971      4C455F45 
 5971      56545F4C 
 5971      32434150 
 5971      5F434F4E 
 5972              	.LASF121:
 5973 1d68 636F6E66 		.ascii	"configRouting\000"
 5973      6967526F 
 5973      7574696E 
 5973      6700
 5974              	.LASF338:
 5975 1d76 7854696D 		.ascii	"xTimer_StatusLedOrange\000"
 5975      65725F53 
 5975      74617475 
 5975      734C6564 
 5975      4F72616E 
 5976              	.LASF26:
 5977 1d8d 4346475F 		.ascii	"CFG_SIO\000"
ARM GAS  C:\Users\codyg\AppData\Local\Temp\cc52IIus.s 			page 154


 5977      53494F00 
 5978              	.LASF118:
 5979 1d95 72616E67 		.ascii	"rangeIntrMask\000"
 5979      65496E74 
 5979      724D6173 
 5979      6B00
 5980              	.LASF107:
 5981 1da3 63795F65 		.ascii	"cy_en_sar_range_detect_condition_t\000"
 5981      6E5F7361 
 5981      725F7261 
 5981      6E67655F 
 5981      64657465 
 5982              	.LASF130:
 5983 1dc6 43595F42 		.ascii	"CY_BLE_EVT_FLASH_CORRUPT\000"
 5983      4C455F45 
 5983      56545F46 
 5983      4C415348 
 5983      5F434F52 
 5984              	.LASF198:
 5985 1ddf 43595F42 		.ascii	"CY_BLE_EVT_GAP_GEN_SET_LOCAL_P256_KEYS_COMPLETE\000"
 5985      4C455F45 
 5985      56545F47 
 5985      41505F47 
 5985      454E5F53 
 5986              	.LASF181:
 5987 1e0f 43595F42 		.ascii	"CY_BLE_EVT_GAP_AUTH_FAILED\000"
 5987      4C455F45 
 5987      56545F47 
 5987      41505F41 
 5987      5554485F 
 5988              	.LASF247:
 5989 1e2a 43595F42 		.ascii	"CY_BLE_CONN_STATE_DISCONNECTED\000"
 5989      4C455F43 
 5989      4F4E4E5F 
 5989      53544154 
 5989      455F4449 
 5990              	.LASF250:
 5991 1e49 43595F42 		.ascii	"CY_BLE_CONN_STATE_CLIENT_SRVC_DISCOVERING\000"
 5991      4C455F43 
 5991      4F4E4E5F 
 5991      53544154 
 5991      455F434C 
 5992              	.LASF116:
 5993 1e73 696E7472 		.ascii	"intrMask\000"
 5993      4D61736B 
 5993      00
 5994              	.LASF311:
 5995 1e7c 6C656452 		.ascii	"ledRefreshData\000"
 5995      65667265 
 5995      73684461 
 5995      746100
 5996              	.LASF85:
 5997 1e8b 72784275 		.ascii	"rxBufSize\000"
 5997      6653697A 
 5997      6500
 5998              	.LASF186:
 5999 1e95 43595F42 		.ascii	"CY_BLE_EVT_GAP_CONNECTION_UPDATE_COMPLETE\000"
ARM GAS  C:\Users\codyg\AppData\Local\Temp\cc52IIus.s 			page 155


 5999      4C455F45 
 5999      56545F47 
 5999      41505F43 
 5999      4F4E4E45 
 6000              		.ident	"GCC: (GNU Tools for ARM Embedded Processors) 5.4.1 20160609 (release) [ARM/embedded-5-bran
