ARM GAS  C:\Users\codyg\AppData\Local\Temp\cc52IIus.s 			page 1


   1              		.syntax unified
   2              		.cpu cortex-m4
   3              		.eabi_attribute 27, 1
   4              		.fpu fpv4-sp-d16
   5              		.eabi_attribute 20, 1
   6              		.eabi_attribute 21, 1
   7              		.eabi_attribute 23, 3
   8              		.eabi_attribute 24, 1
   9              		.eabi_attribute 25, 1
  10              		.eabi_attribute 26, 1
  11              		.eabi_attribute 30, 1
  12              		.eabi_attribute 34, 1
  13              		.eabi_attribute 18, 4
  14              		.thumb
  15              		.syntax unified
  16              		.file	"status_led_task.c"
  17              		.text
  18              	.Ltext0:
  19              		.cfi_sections	.debug_frame
  20              		.section	.text.StatusLedRedTimerStart,"ax",%progbits
  21              		.align	2
  22              		.thumb
  23              		.thumb_func
  24              		.type	StatusLedRedTimerStart, %function
  25              	StatusLedRedTimerStart:
  26              	.LFB719:
  27              		.file 1 "status_led_task.c"
   1:status_led_task.c **** /******************************************************************************
   2:status_led_task.c **** * File Name: status_led_task.c
   3:status_led_task.c **** *
   4:status_led_task.c **** * Version: 1.00
   5:status_led_task.c **** *
   6:status_led_task.c **** * Description: This file contains the task that that controls the status LEDs
   7:status_led_task.c **** *
   8:status_led_task.c **** * Related Document: CE218138_BLE_Thermometer_RTOS.pdf
   9:status_led_task.c **** *
  10:status_led_task.c **** * Hardware Dependency: CY8CKIT-062-BLE PSoC 6 BLE Pioneer Kit
  11:status_led_task.c **** *
  12:status_led_task.c **** *******************************************************************************
  13:status_led_task.c **** * Copyright (2018), Cypress Semiconductor Corporation. All rights reserved.
  14:status_led_task.c **** *******************************************************************************
  15:status_led_task.c **** * This software, including source code, documentation and related materials
  16:status_led_task.c **** * (“Software”), is owned by Cypress Semiconductor Corporation or one of its
  17:status_led_task.c **** * subsidiaries (“Cypress”) and is protected by and subject to worldwide patent
  18:status_led_task.c **** * protection (United States and foreign), United States copyright laws and
  19:status_led_task.c **** * international treaty provisions. Therefore, you may use this Software only
  20:status_led_task.c **** * as provided in the license agreement accompanying the software package from
  21:status_led_task.c **** * which you obtained this Software (“EULA”).
  22:status_led_task.c **** *
  23:status_led_task.c **** * If no EULA applies, Cypress hereby grants you a personal, nonexclusive,
  24:status_led_task.c **** * non-transferable license to copy, modify, and compile the Software source
  25:status_led_task.c **** * code solely for use in connection with Cypress’s integrated circuit products.
  26:status_led_task.c **** * Any reproduction, modification, translation, compilation, or representation
  27:status_led_task.c **** * of this Software except as specified above is prohibited without the express
  28:status_led_task.c **** * written permission of Cypress.
  29:status_led_task.c **** *
  30:status_led_task.c **** * Disclaimer: THIS SOFTWARE IS PROVIDED AS-IS, WITH NO WARRANTY OF ANY KIND, 
ARM GAS  C:\Users\codyg\AppData\Local\Temp\cc52IIus.s 			page 2


  31:status_led_task.c **** * EXPRESS OR IMPLIED, INCLUDING, BUT NOT LIMITED TO, NONINFRINGEMENT, IMPLIED 
  32:status_led_task.c **** * WARRANTIES OF MERCHANTABILITY AND FITNESS FOR A PARTICULAR PURPOSE. Cypress 
  33:status_led_task.c **** * reserves the right to make changes to the Software without notice. Cypress 
  34:status_led_task.c **** * does not assume any liability arising out of the application or use of the 
  35:status_led_task.c **** * Software or any product or circuit described in the Software. Cypress does 
  36:status_led_task.c **** * not authorize its products for use in any products where a malfunction or 
  37:status_led_task.c **** * failure of the Cypress product may reasonably be expected to result in 
  38:status_led_task.c **** * significant property damage, injury or death (“High Risk Product”). By 
  39:status_led_task.c **** * including Cypress’s product in a High Risk Product, the manufacturer of such 
  40:status_led_task.c **** * system or application assumes all risk of such use and in doing so agrees to 
  41:status_led_task.c **** * indemnify Cypress against all liability.
  42:status_led_task.c **** *******************************************************************************/
  43:status_led_task.c **** /******************************************************************************
  44:status_led_task.c **** * This file contains the tasks that that control the status LEDs
  45:status_led_task.c **** *******************************************************************************/
  46:status_led_task.c **** 
  47:status_led_task.c **** /* Header file includes */
  48:status_led_task.c **** #include "status_led_task.h"
  49:status_led_task.c **** #include "uart_debug.h"
  50:status_led_task.c **** #include "uart_debug.h"
  51:status_led_task.c **** #include "task.h"  
  52:status_led_task.c **** #include "timers.h" 
  53:status_led_task.c **** 
  54:status_led_task.c **** /* LED refresh interval of 500ms is used when continuously toggling a 
  55:status_led_task.c ****    status LED */
  56:status_led_task.c **** #define STATUS_LED_TOGGLE_INTERVAL (pdMS_TO_TICKS(500u))
  57:status_led_task.c **** /* LED refresh interval of 4s is used for blinking a status LED once */
  58:status_led_task.c **** #define STATUS_LED_BLINK_INTERVAL  (pdMS_TO_TICKS(4000u))
  59:status_led_task.c **** /* Idle interval is used for static LED states or when no LEDs are ON */
  60:status_led_task.c **** #define STATUS_LED_IDLE_INTERVAL   (portMAX_DELAY)
  61:status_led_task.c **** 
  62:status_led_task.c **** /* Queue handle used for commands to Task_StatusLed */
  63:status_led_task.c **** QueueHandle_t statusLedDataQ;
  64:status_led_task.c **** 
  65:status_led_task.c **** /* Timer handles used to control LED blink / toggle intervals */
  66:status_led_task.c **** TimerHandle_t xTimer_StatusLedRed;
  67:status_led_task.c **** TimerHandle_t xTimer_StatusLedOrange;
  68:status_led_task.c **** 
  69:status_led_task.c **** /* Functions that start and control the timers used for LED blink / toggle
  70:status_led_task.c ****    intervals */
  71:status_led_task.c **** void static StatusLedRedTimerStart(void);
  72:status_led_task.c **** void static StatusLedOrangeTimerStart(void);
  73:status_led_task.c **** void static StatusLedRedTimerUpdate(TickType_t period);
  74:status_led_task.c **** void static StatusLedOrangeTimerUpdate(TickType_t period);
  75:status_led_task.c **** 
  76:status_led_task.c **** /*******************************************************************************
  77:status_led_task.c **** * Function Name: void Task_StatusLed(void *pvParameters)
  78:status_led_task.c **** ********************************************************************************
  79:status_led_task.c **** * Summary:
  80:status_led_task.c **** *  Task that controls the Orange and Red status LEDs  
  81:status_led_task.c **** *
  82:status_led_task.c **** * Parameters:
  83:status_led_task.c **** *  void *pvParameters : Task parameter defined during task creation (unused)                       
  84:status_led_task.c **** *
  85:status_led_task.c **** * Return:
  86:status_led_task.c **** *  void
  87:status_led_task.c **** *
ARM GAS  C:\Users\codyg\AppData\Local\Temp\cc52IIus.s 			page 3


  88:status_led_task.c **** *******************************************************************************/
  89:status_led_task.c **** void Task_StatusLed(void *pvParameters)
  90:status_led_task.c **** { 
  91:status_led_task.c ****     /* Variable that stores the data recieved received over queue */
  92:status_led_task.c ****     status_led_data_t statusLedData;
  93:status_led_task.c **** 
  94:status_led_task.c ****     /* Variables used to detect changes to the LED states */
  95:status_led_task.c ****     status_led_command_t static redLedState    = LED_TURN_OFF;
  96:status_led_task.c ****     status_led_command_t static orangeLedState = LED_TURN_OFF;
  97:status_led_task.c ****     
  98:status_led_task.c ****     /* Variable used to store the return values of RTOS APIs */
  99:status_led_task.c ****     BaseType_t rtosApiResult;
 100:status_led_task.c ****     
 101:status_led_task.c ****     /* Remove warning for unused parameter */
 102:status_led_task.c ****     (void)pvParameters ;
 103:status_led_task.c ****     
 104:status_led_task.c ****     /* Start the timers that control LED blink / toggle intervals */
 105:status_led_task.c ****     StatusLedRedTimerStart();
 106:status_led_task.c ****     StatusLedOrangeTimerStart();
 107:status_led_task.c ****     
 108:status_led_task.c ****     /* Repeatedly running part of the task */
 109:status_led_task.c ****     for(;;)
 110:status_led_task.c ****     {
 111:status_led_task.c ****         /* Block until a command has been received over statusLedDataQ */
 112:status_led_task.c ****         rtosApiResult = xQueueReceive(statusLedDataQ, &statusLedData,
 113:status_led_task.c ****                          portMAX_DELAY);
 114:status_led_task.c ****         /* Command has been received from statusLedDataQ */
 115:status_led_task.c ****         if(rtosApiResult == pdTRUE)
 116:status_led_task.c ****         {
 117:status_led_task.c ****             /* Take an action based on the command received for Orange LED */
 118:status_led_task.c ****             switch(statusLedData.orangeLed)
 119:status_led_task.c ****             {
 120:status_led_task.c ****                 /* No change to the LED state */
 121:status_led_task.c ****                 case LED_NO_CHANGE:
 122:status_led_task.c ****                     break;
 123:status_led_task.c ****                 /* Turn ON the LED */
 124:status_led_task.c ****                 case LED_TURN_ON:
 125:status_led_task.c ****                     Cy_GPIO_Clr(Pin_LED_Orange_0_PORT, Pin_LED_Orange_0_NUM);
 126:status_led_task.c ****                     /* Set the timer to idle mode */
 127:status_led_task.c ****                     StatusLedOrangeTimerUpdate(STATUS_LED_IDLE_INTERVAL);
 128:status_led_task.c ****                     orangeLedState = LED_TURN_ON;
 129:status_led_task.c ****                     break;
 130:status_led_task.c ****                 /* Turn OFF the LED */    
 131:status_led_task.c ****                 case LED_TURN_OFF:
 132:status_led_task.c ****                     Cy_GPIO_Set(Pin_LED_Orange_0_PORT, Pin_LED_Orange_0_NUM);
 133:status_led_task.c ****                     /* Set the timer to idle mode */
 134:status_led_task.c ****                     StatusLedOrangeTimerUpdate(STATUS_LED_IDLE_INTERVAL);
 135:status_led_task.c ****                     orangeLedState = LED_TURN_OFF;
 136:status_led_task.c ****                     break;
 137:status_led_task.c ****                 /* Continuously toggle the LED */
 138:status_led_task.c ****                 case LED_TOGGLE_EN:
 139:status_led_task.c ****                     /* Update the timer period to toggle interval */
 140:status_led_task.c ****                     StatusLedOrangeTimerUpdate(STATUS_LED_TOGGLE_INTERVAL);
 141:status_led_task.c ****                     orangeLedState = LED_TOGGLE_EN;
 142:status_led_task.c ****                     break;
 143:status_led_task.c ****                 /* Blink the LED once */    
 144:status_led_task.c ****                 case LED_BLINK_ONCE:
ARM GAS  C:\Users\codyg\AppData\Local\Temp\cc52IIus.s 			page 4


 145:status_led_task.c ****                     Cy_GPIO_Clr(Pin_LED_Orange_0_PORT, Pin_LED_Orange_0_NUM);
 146:status_led_task.c ****                     /* Update the timer period to blink interval */
 147:status_led_task.c ****                     StatusLedOrangeTimerUpdate(STATUS_LED_BLINK_INTERVAL);
 148:status_led_task.c ****                     orangeLedState = LED_BLINK_ONCE;
 149:status_led_task.c ****                     break;
 150:status_led_task.c ****                 /* Refresh the LED based on the current state */     
 151:status_led_task.c ****                 case LED_TIMER_EXPIRED:
 152:status_led_task.c ****                     if(orangeLedState == LED_TOGGLE_EN)
 153:status_led_task.c ****                     {
 154:status_led_task.c ****                         /* Toggle the LED */
 155:status_led_task.c ****                         Cy_GPIO_Inv(Pin_LED_Orange_0_PORT,
 156:status_led_task.c ****                                     Pin_LED_Orange_0_NUM);
 157:status_led_task.c ****                     }
 158:status_led_task.c ****                     else if (orangeLedState == LED_BLINK_ONCE)
 159:status_led_task.c ****                     {
 160:status_led_task.c ****                         /* Turn off the LED */
 161:status_led_task.c ****                         Cy_GPIO_Set(Pin_LED_Orange_0_PORT,
 162:status_led_task.c ****                                     Pin_LED_Orange_0_NUM);
 163:status_led_task.c ****                         /* Set the timer to idle mode */
 164:status_led_task.c ****                         StatusLedOrangeTimerUpdate(STATUS_LED_IDLE_INTERVAL);
 165:status_led_task.c ****                         orangeLedState = LED_TURN_OFF;
 166:status_led_task.c ****                     }
 167:status_led_task.c ****                     else
 168:status_led_task.c ****                     {
 169:status_led_task.c ****                         Task_DebugPrintf("Error!   : Status LED - refresh "\
 170:status_led_task.c ****                                          "command for Red LED during invalid"\
 171:status_led_task.c ****                                          "state", 0u);   
 172:status_led_task.c ****                     }
 173:status_led_task.c ****                     break;
 174:status_led_task.c ****                 /* Invalid command received */    
 175:status_led_task.c ****                 default:
 176:status_led_task.c ****                     Task_DebugPrintf("Error!   : Status LED - Invalid  command"\
 177:status_led_task.c ****                                      " for Red LED received. Error Code:",
 178:status_led_task.c ****                                       statusLedData.orangeLed);
 179:status_led_task.c ****                     break;
 180:status_led_task.c ****             }
 181:status_led_task.c ****             
 182:status_led_task.c ****             /* Take an action based on the command received for Red LED */
 183:status_led_task.c ****             switch(statusLedData.redLed)
 184:status_led_task.c ****             {
 185:status_led_task.c ****                 /* No change to the LED state */
 186:status_led_task.c ****                 case LED_NO_CHANGE:
 187:status_led_task.c ****                     break;
 188:status_led_task.c ****                 /* Turn ON the LED */
 189:status_led_task.c ****                 case LED_TURN_ON:
 190:status_led_task.c ****                     Cy_GPIO_Clr(Pin_LED_Red_0_PORT,Pin_LED_Red_0_NUM);
 191:status_led_task.c ****                     /* Set the timer to idle mode */
 192:status_led_task.c ****                     StatusLedRedTimerUpdate(STATUS_LED_IDLE_INTERVAL);
 193:status_led_task.c ****                     redLedState = LED_TURN_ON;
 194:status_led_task.c ****                     break;
 195:status_led_task.c ****                 /* Turn OFF the LED */        
 196:status_led_task.c ****                 case LED_TURN_OFF:
 197:status_led_task.c ****                     Cy_GPIO_Set(Pin_LED_Red_0_PORT,Pin_LED_Red_0_NUM);
 198:status_led_task.c ****                     /* Set the timer to idle mode */
 199:status_led_task.c ****                     StatusLedRedTimerUpdate(STATUS_LED_IDLE_INTERVAL);
 200:status_led_task.c ****                     redLedState = LED_TURN_OFF;
 201:status_led_task.c ****                     break;
ARM GAS  C:\Users\codyg\AppData\Local\Temp\cc52IIus.s 			page 5


 202:status_led_task.c ****                 /* Continuously toggle the LED */
 203:status_led_task.c ****                 case LED_TOGGLE_EN:
 204:status_led_task.c ****                     /* Update the timer period to toggle interval */
 205:status_led_task.c ****                     StatusLedRedTimerUpdate(STATUS_LED_TOGGLE_INTERVAL);
 206:status_led_task.c ****                     redLedState = LED_TOGGLE_EN;
 207:status_led_task.c ****                     break;
 208:status_led_task.c ****                 /* Blink the LED once */        
 209:status_led_task.c ****                 case LED_BLINK_ONCE:
 210:status_led_task.c ****                     Cy_GPIO_Clr(Pin_LED_Red_0_PORT,Pin_LED_Red_0_NUM);
 211:status_led_task.c ****                     /* Update the timer period to blink interval */
 212:status_led_task.c ****                     StatusLedRedTimerUpdate(STATUS_LED_BLINK_INTERVAL);
 213:status_led_task.c ****                     redLedState = LED_BLINK_ONCE;
 214:status_led_task.c ****                     break;
 215:status_led_task.c ****                 /* Refresh the LED based on the current state */         
 216:status_led_task.c ****                 case LED_TIMER_EXPIRED:
 217:status_led_task.c ****                     if(redLedState == LED_TOGGLE_EN)
 218:status_led_task.c ****                     {
 219:status_led_task.c ****                         /* Toggle the LED */
 220:status_led_task.c ****                         Cy_GPIO_Inv(Pin_LED_Red_0_PORT,
 221:status_led_task.c ****                                     Pin_LED_Red_0_NUM);
 222:status_led_task.c ****                     }
 223:status_led_task.c ****                     else if (redLedState == LED_BLINK_ONCE)
 224:status_led_task.c ****                     {
 225:status_led_task.c ****                         /* Turn off the LED */
 226:status_led_task.c ****                         Cy_GPIO_Set(Pin_LED_Red_0_PORT,
 227:status_led_task.c ****                                     Pin_LED_Red_0_NUM);
 228:status_led_task.c ****                         /* Set the timer to idle mode */
 229:status_led_task.c ****                         StatusLedRedTimerUpdate(STATUS_LED_IDLE_INTERVAL);                        
 230:status_led_task.c ****                         redLedState = LED_TURN_OFF;
 231:status_led_task.c ****                     }
 232:status_led_task.c ****                     else
 233:status_led_task.c ****                     {
 234:status_led_task.c ****                          Task_DebugPrintf("Error!   : Status LED - refresh "\
 235:status_led_task.c ****                                           "command for Orange LED during"\
 236:status_led_task.c ****                                           "invalid state",0u);   
 237:status_led_task.c ****                     }
 238:status_led_task.c ****                     break;
 239:status_led_task.c ****                 /* Invalid command received */      
 240:status_led_task.c ****                 default:
 241:status_led_task.c ****                     Task_DebugPrintf("Error!   : Status LED - Invalid command"
 242:status_led_task.c ****                                      "for Red LED received. Error Code:",
 243:status_led_task.c ****                                       statusLedData.orangeLed);
 244:status_led_task.c ****                     break;
 245:status_led_task.c ****             }            
 246:status_led_task.c ****         }
 247:status_led_task.c ****         /* Task has timed out and received no commands during an interval of 
 248:status_led_task.c ****            portMAXDELAY ticks */
 249:status_led_task.c ****         else
 250:status_led_task.c ****         {
 251:status_led_task.c ****             Task_DebugPrintf("Warning! : Status LED - Task Timed out ", 0u);   
 252:status_led_task.c ****         }
 253:status_led_task.c ****     }
 254:status_led_task.c **** }
 255:status_led_task.c **** 
 256:status_led_task.c **** /*******************************************************************************
 257:status_led_task.c **** * Function Name: void static StatusLedOrangeTimerCallback(TimerHandle_t xTimer)                    
 258:status_led_task.c **** ********************************************************************************
ARM GAS  C:\Users\codyg\AppData\Local\Temp\cc52IIus.s 			page 6


 259:status_led_task.c **** * Summary:
 260:status_led_task.c **** *  This function is called when the Orange LED Timer expires
 261:status_led_task.c **** *
 262:status_led_task.c **** * Parameters:
 263:status_led_task.c **** *  TimerHandle_t xTimer :  Current timer value (unused)
 264:status_led_task.c **** *
 265:status_led_task.c **** * Return:
 266:status_led_task.c **** *  void
 267:status_led_task.c **** *
 268:status_led_task.c **** *******************************************************************************/
 269:status_led_task.c **** void static StatusLedOrangeTimerCallback(TimerHandle_t xTimer)
 270:status_led_task.c **** {
 271:status_led_task.c ****     /* Variable used to store the return values of RTOS APIs */
 272:status_led_task.c ****     BaseType_t rtosApiResult;
 273:status_led_task.c ****     
 274:status_led_task.c ****     /* Remove warning for unused parameter */
 275:status_led_task.c ****     (void)xTimer;
 276:status_led_task.c ****     
 277:status_led_task.c ****     /* Send command to refresh the LED state */
 278:status_led_task.c ****     
 279:status_led_task.c ****     status_led_data_t ledRefreshData = 
 280:status_led_task.c ****     {   .redLed     = LED_NO_CHANGE,
 281:status_led_task.c ****         .orangeLed  = LED_TIMER_EXPIRED 
 282:status_led_task.c ****     };
 283:status_led_task.c ****     rtosApiResult = xQueueSend(statusLedDataQ, &ledRefreshData,0u);
 284:status_led_task.c ****     
 285:status_led_task.c ****     /* Check if the operation has been successful */
 286:status_led_task.c ****     if(rtosApiResult != pdTRUE)
 287:status_led_task.c ****     {
 288:status_led_task.c ****         Task_DebugPrintf("Failure! : Status LED - Sending data to Status LED "\
 289:status_led_task.c ****                          "queue",0u);      
 290:status_led_task.c ****     }
 291:status_led_task.c **** }
 292:status_led_task.c **** 
 293:status_led_task.c **** /*******************************************************************************
 294:status_led_task.c **** * Function Name: void static StatusLedOrangeTimerStart(void)                 
 295:status_led_task.c **** ********************************************************************************
 296:status_led_task.c **** * Summary:
 297:status_led_task.c **** *  This function starts the timer that provides timing to Orange LED 
 298:status_led_task.c **** *  toggle / blink
 299:status_led_task.c **** *
 300:status_led_task.c **** * Parameters:
 301:status_led_task.c **** *  void
 302:status_led_task.c **** *
 303:status_led_task.c **** * Return:
 304:status_led_task.c **** *  void
 305:status_led_task.c **** *
 306:status_led_task.c **** *******************************************************************************/
 307:status_led_task.c **** void static StatusLedOrangeTimerStart(void)
 308:status_led_task.c **** {
 309:status_led_task.c ****     /* Variable used to store the return values of RTOS APIs */
 310:status_led_task.c ****     BaseType_t rtosApiResult;
 311:status_led_task.c ****     
 312:status_led_task.c ****     /* Create an RTOS timer */
 313:status_led_task.c ****     xTimer_StatusLedOrange =  xTimerCreate ("Orange Status LED Timer",
 314:status_led_task.c ****                                             STATUS_LED_IDLE_INTERVAL, pdTRUE, 
 315:status_led_task.c ****                                             NULL, StatusLedOrangeTimerCallback); 
ARM GAS  C:\Users\codyg\AppData\Local\Temp\cc52IIus.s 			page 7


 316:status_led_task.c ****     
 317:status_led_task.c ****     /* Make sure that timer handle is valid */
 318:status_led_task.c ****     if (xTimer_StatusLedOrange != NULL)
 319:status_led_task.c ****     {
 320:status_led_task.c ****         /* Start the timer */
 321:status_led_task.c ****         rtosApiResult = xTimerStart(xTimer_StatusLedOrange,0u);
 322:status_led_task.c ****         
 323:status_led_task.c ****         /* Check if the operation has been successful */
 324:status_led_task.c ****         if(rtosApiResult  != pdPASS)
 325:status_led_task.c ****         {
 326:status_led_task.c ****             Task_DebugPrintf("Failure! : Status LED  - Orange LED Timer "\
 327:status_led_task.c ****                              "initialization", 0u);    
 328:status_led_task.c ****         }
 329:status_led_task.c ****     }
 330:status_led_task.c ****     else
 331:status_led_task.c ****     {
 332:status_led_task.c ****         Task_DebugPrintf("Failure! : Status LED  - Orange LED Timer creation",
 333:status_led_task.c ****                           0u); 
 334:status_led_task.c ****     }  
 335:status_led_task.c **** }
 336:status_led_task.c **** 
 337:status_led_task.c **** /*******************************************************************************
 338:status_led_task.c **** * Function Name: void static StatusLedOrangeTimerUpdate(TickType_t period)                
 339:status_led_task.c **** ********************************************************************************
 340:status_led_task.c **** * Summary:
 341:status_led_task.c **** *  This function updates the timer period per the parameter
 342:status_led_task.c **** *
 343:status_led_task.c **** * Parameters:
 344:status_led_task.c **** *  TickType_t period :  Period of the timer in ticks
 345:status_led_task.c **** *
 346:status_led_task.c **** * Return:
 347:status_led_task.c **** *  void
 348:status_led_task.c **** *
 349:status_led_task.c **** *******************************************************************************/
 350:status_led_task.c **** void static StatusLedOrangeTimerUpdate(TickType_t period)
 351:status_led_task.c **** {
 352:status_led_task.c ****     /* Variable used to store the return values of RTOS APIs */
 353:status_led_task.c ****     BaseType_t rtosApiResult;
 354:status_led_task.c ****     
 355:status_led_task.c ****     /* Change the timer period */
 356:status_led_task.c ****     rtosApiResult = xTimerChangePeriod(xTimer_StatusLedOrange, period, 0u);
 357:status_led_task.c ****     
 358:status_led_task.c ****     /* Check if the operation has been successful */
 359:status_led_task.c ****     if(rtosApiResult != pdPASS)
 360:status_led_task.c ****     {
 361:status_led_task.c ****         Task_DebugPrintf("Failure! : Status LED - Orange LED Timer update ",
 362:status_led_task.c ****                           0u);   
 363:status_led_task.c ****     }
 364:status_led_task.c **** }
 365:status_led_task.c **** 
 366:status_led_task.c **** /*******************************************************************************
 367:status_led_task.c **** * Function Name: void static StatusLedRedTimerCallback(TimerHandle_t xTimer)                       
 368:status_led_task.c **** ********************************************************************************
 369:status_led_task.c **** * Summary:
 370:status_led_task.c **** *  This function is called when the Red LED Timer expires
 371:status_led_task.c **** *
 372:status_led_task.c **** * Parameters:
ARM GAS  C:\Users\codyg\AppData\Local\Temp\cc52IIus.s 			page 8


 373:status_led_task.c **** *  TimerHandle_t xTimer :  Current timer value (unused)
 374:status_led_task.c **** *
 375:status_led_task.c **** * Return:
 376:status_led_task.c **** *  void
 377:status_led_task.c **** *
 378:status_led_task.c **** *******************************************************************************/
 379:status_led_task.c **** void static StatusLedRedTimerCallback(TimerHandle_t xTimer)
 380:status_led_task.c **** {
 381:status_led_task.c ****     /* Variable used to store the return values of RTOS APIs */
 382:status_led_task.c ****     BaseType_t rtosApiResult;
 383:status_led_task.c ****     
 384:status_led_task.c ****     /* Remove warning for unused parameter */
 385:status_led_task.c ****     (void)xTimer;
 386:status_led_task.c ****     
 387:status_led_task.c ****     /* Send command to refresh the LED state */
 388:status_led_task.c ****     status_led_data_t ledRefreshData = 
 389:status_led_task.c ****     {   .redLed     = LED_TIMER_EXPIRED,
 390:status_led_task.c ****         .orangeLed  = LED_NO_CHANGE 
 391:status_led_task.c ****     };
 392:status_led_task.c ****     rtosApiResult = xQueueSend(statusLedDataQ, &ledRefreshData,0u);
 393:status_led_task.c ****     
 394:status_led_task.c ****     /* Check if the operation has been successful */
 395:status_led_task.c ****     if(rtosApiResult != pdTRUE)
 396:status_led_task.c ****     {
 397:status_led_task.c ****         Task_DebugPrintf("Failure! : Status LED - Sending data to Status LED "\
 398:status_led_task.c ****                          "queue",0u);    
 399:status_led_task.c ****     }
 400:status_led_task.c **** }
 401:status_led_task.c **** 
 402:status_led_task.c **** /*******************************************************************************
 403:status_led_task.c **** * Function Name: void static StatusLedRedTimerStart(void)                   
 404:status_led_task.c **** ********************************************************************************
 405:status_led_task.c **** * Summary:
 406:status_led_task.c **** *  This function starts the timer that provides timing to Red LED toggle / blink
 407:status_led_task.c **** *
 408:status_led_task.c **** * Parameters:
 409:status_led_task.c **** *  void
 410:status_led_task.c **** *
 411:status_led_task.c **** * Return:
 412:status_led_task.c **** *  void
 413:status_led_task.c **** *
 414:status_led_task.c **** *******************************************************************************/
 415:status_led_task.c **** void static StatusLedRedTimerStart(void)
 416:status_led_task.c **** {   
  28              		.loc 1 416 0
  29              		.cfi_startproc
  30              		@ args = 0, pretend = 0, frame = 8
  31              		@ frame_needed = 0, uses_anonymous_args = 0
  32 0000 10B5     		push	{r4, lr}
  33              		.cfi_def_cfa_offset 8
  34              		.cfi_offset 4, -8
  35              		.cfi_offset 14, -4
  36 0002 84B0     		sub	sp, sp, #16
  37              		.cfi_def_cfa_offset 24
 417:status_led_task.c ****     /* Variable used to store the return values of RTOS APIs */
 418:status_led_task.c ****     BaseType_t rtosApiResult;
 419:status_led_task.c ****     
ARM GAS  C:\Users\codyg\AppData\Local\Temp\cc52IIus.s 			page 9


 420:status_led_task.c ****     /* Create an RTOS timer */
 421:status_led_task.c ****     xTimer_StatusLedRed    =  xTimerCreate ("Red Status LED Timer",
  38              		.loc 1 421 0
  39 0004 174B     		ldr	r3, .L5
  40 0006 0093     		str	r3, [sp]
  41 0008 0023     		movs	r3, #0
  42 000a 0122     		movs	r2, #1
  43 000c 4FF0FF31 		mov	r1, #-1
  44 0010 1548     		ldr	r0, .L5+4
  45 0012 FFF7FEFF 		bl	xTimerCreate
  46              	.LVL0:
  47 0016 154B     		ldr	r3, .L5+8
  48 0018 1860     		str	r0, [r3]
 422:status_led_task.c ****                                             STATUS_LED_IDLE_INTERVAL, pdTRUE,
 423:status_led_task.c ****                                             NULL, StatusLedRedTimerCallback);
 424:status_led_task.c ****     
 425:status_led_task.c ****     /* Make sure that timer handle is valid */
 426:status_led_task.c ****     if (xTimer_StatusLedRed != NULL)
  49              		.loc 1 426 0
  50 001a B0B1     		cbz	r0, .L2
  51 001c 0446     		mov	r4, r0
 427:status_led_task.c ****     {
 428:status_led_task.c ****         /* Start the timer */
 429:status_led_task.c ****         rtosApiResult = xTimerStart(xTimer_StatusLedRed,0u);
  52              		.loc 1 429 0
  53 001e FFF7FEFF 		bl	xTaskGetTickCount
  54              	.LVL1:
  55 0022 0023     		movs	r3, #0
  56 0024 0093     		str	r3, [sp]
  57 0026 0246     		mov	r2, r0
  58 0028 0121     		movs	r1, #1
  59 002a 2046     		mov	r0, r4
  60 002c FFF7FEFF 		bl	xTimerGenericCommand
  61              	.LVL2:
 430:status_led_task.c ****         
 431:status_led_task.c ****         /* Check if the operation has been successful */
 432:status_led_task.c ****         if(rtosApiResult != pdPASS)
  62              		.loc 1 432 0
  63 0030 0128     		cmp	r0, #1
  64 0032 14D0     		beq	.L1
  65              	.LVL3:
  66              	.LBB48:
  67              	.LBB49:
  68              		.file 2 "uart_debug.h"
   1:uart_debug.h  **** /******************************************************************************
   2:uart_debug.h  **** * File Name: uart_debug.h
   3:uart_debug.h  **** *
   4:uart_debug.h  **** * Version: 1.00
   5:uart_debug.h  **** *
   6:uart_debug.h  **** * Description: This file contains the macros that are used for UART based 
   7:uart_debug.h  **** *              debug
   8:uart_debug.h  **** *
   9:uart_debug.h  **** * Related Document: CE218138_BLE_Thermometer_RTOS.pdf
  10:uart_debug.h  **** *
  11:uart_debug.h  **** * Hardware Dependency: CY8CKIT-062-BLE PSoC 6 BLE Pioneer Kit
  12:uart_debug.h  **** *                      CY8CKIT-028-EPD E-INK Display Shield
  13:uart_debug.h  **** *
ARM GAS  C:\Users\codyg\AppData\Local\Temp\cc52IIus.s 			page 10


  14:uart_debug.h  **** *******************************************************************************
  15:uart_debug.h  **** * Copyright (2018), Cypress Semiconductor Corporation. All rights reserved.
  16:uart_debug.h  **** *******************************************************************************
  17:uart_debug.h  **** * This software, including source code, documentation and related materials
  18:uart_debug.h  **** * (“Software”), is owned by Cypress Semiconductor Corporation or one of its
  19:uart_debug.h  **** * subsidiaries (“Cypress”) and is protected by and subject to worldwide patent
  20:uart_debug.h  **** * protection (United States and foreign), United States copyright laws and
  21:uart_debug.h  **** * international treaty provisions. Therefore, you may use this Software only
  22:uart_debug.h  **** * as provided in the license agreement accompanying the software package from
  23:uart_debug.h  **** * which you obtained this Software (“EULA”).
  24:uart_debug.h  **** *
  25:uart_debug.h  **** * If no EULA applies, Cypress hereby grants you a personal, nonexclusive,
  26:uart_debug.h  **** * non-transferable license to copy, modify, and compile the Software source
  27:uart_debug.h  **** * code solely for use in connection with Cypress’s integrated circuit products.
  28:uart_debug.h  **** * Any reproduction, modification, translation, compilation, or representation
  29:uart_debug.h  **** * of this Software except as specified above is prohibited without the express
  30:uart_debug.h  **** * written permission of Cypress.
  31:uart_debug.h  **** *
  32:uart_debug.h  **** * Disclaimer: THIS SOFTWARE IS PROVIDED AS-IS, WITH NO WARRANTY OF ANY KIND, 
  33:uart_debug.h  **** * EXPRESS OR IMPLIED, INCLUDING, BUT NOT LIMITED TO, NONINFRINGEMENT, IMPLIED 
  34:uart_debug.h  **** * WARRANTIES OF MERCHANTABILITY AND FITNESS FOR A PARTICULAR PURPOSE. Cypress 
  35:uart_debug.h  **** * reserves the right to make changes to the Software without notice. Cypress 
  36:uart_debug.h  **** * does not assume any liability arising out of the application or use of the 
  37:uart_debug.h  **** * Software or any product or circuit described in the Software. Cypress does 
  38:uart_debug.h  **** * not authorize its products for use in any products where a malfunction or 
  39:uart_debug.h  **** * failure of the Cypress product may reasonably be expected to result in 
  40:uart_debug.h  **** * significant property damage, injury or death (“High Risk Product”). By 
  41:uart_debug.h  **** * including Cypress’s product in a High Risk Product, the manufacturer of such 
  42:uart_debug.h  **** * system or application assumes all risk of such use and in doing so agrees to 
  43:uart_debug.h  **** * indemnify Cypress against all liability.
  44:uart_debug.h  **** *******************************************************************************/
  45:uart_debug.h  **** /******************************************************************************
  46:uart_debug.h  **** * This file contains the macros that are used for UART based debug. Note that 
  47:uart_debug.h  **** * enabling debug reduces performance and power efficiency. It also increases 
  48:uart_debug.h  **** * the code size.
  49:uart_debug.h  **** *
  50:uart_debug.h  **** * If the debug is enabled, you should set up a serial port terminal emulator 
  51:uart_debug.h  **** * such as Tera Term, or Hyperterminal with these settings to view the debug
  52:uart_debug.h  **** * information :
  53:uart_debug.h  **** *
  54:uart_debug.h  **** *   Baud rate     :  115200
  55:uart_debug.h  **** *   Data size     :  8-bit
  56:uart_debug.h  **** *   Parity        :  None
  57:uart_debug.h  **** *   Stop          :  1-bit
  58:uart_debug.h  **** *   Flow Control  :  None  
  59:uart_debug.h  **** *******************************************************************************/
  60:uart_debug.h  **** 
  61:uart_debug.h  **** /* Include guard */
  62:uart_debug.h  **** #ifndef UART_DEBUG_H
  63:uart_debug.h  **** #define UART_DEBUG_H
  64:uart_debug.h  **** 
  65:uart_debug.h  **** /* Header file includes */     
  66:uart_debug.h  **** #include "project.h"    
  67:uart_debug.h  **** #include <stdio.h>
  68:uart_debug.h  **** #include <stdlib.h>
  69:uart_debug.h  **** #include <string.h>
  70:uart_debug.h  **** #include <inttypes.h> 
ARM GAS  C:\Users\codyg\AppData\Local\Temp\cc52IIus.s 			page 11


  71:uart_debug.h  ****     
  72:uart_debug.h  **** #if CY_CPU_CORTEX_M4
  73:uart_debug.h  ****     #include "FreeRTOS.h"
  74:uart_debug.h  ****     #include "task.h"
  75:uart_debug.h  ****     #include "queue.h"   
  76:uart_debug.h  **** #endif /* CY_CPU_CORTEX_M4 */
  77:uart_debug.h  ****   
  78:uart_debug.h  **** /* (true) enables UART based debug and (false) disables it. Note that 
  79:uart_debug.h  ****    enabling debug reduces performance, power efficiency and increases 
  80:uart_debug.h  ****    code size. Make sure to enable the UART_DEBUG component in TopDesign 
  81:uart_debug.h  ****    schematic if debug is enabled */    
  82:uart_debug.h  **** #define UART_DEBUG_ENABLE    (true)
  83:uart_debug.h  ****     
  84:uart_debug.h  **** /* Declare the macros used for UART based debug. Make sure to enable the
  85:uart_debug.h  ****     UART_DEBUG component in TopDesign schematic if debug is enabled */    
  86:uart_debug.h  **** #if (UART_DEBUG_ENABLE)
  87:uart_debug.h  ****     /* UART component used for STDIO functions */
  88:uart_debug.h  ****     #define UART_STDIO          (DEBUG_UART_HW)
  89:uart_debug.h  ****     
  90:uart_debug.h  ****     /* Following macros are not RTOS thread-safe, therefore, should not be
  91:uart_debug.h  ****        called from RTOS Tasks */
  92:uart_debug.h  ****     
  93:uart_debug.h  ****     /* Initializes the UART component used for STDIO functions */
  94:uart_debug.h  ****     #define DebugPrintfInit()  (DEBUG_UART_Start())
  95:uart_debug.h  ****     /* Function macro that sends formatted output to STDOUT */
  96:uart_debug.h  ****     #define DebugPrintf(...)     (printf(__VA_ARGS__))
  97:uart_debug.h  ****     
  98:uart_debug.h  **** #if CY_CPU_CORTEX_M4    
  99:uart_debug.h  **** 	/* RTOS thread-safe macros for initializing and printing debug 
 100:uart_debug.h  **** 	   information from RTOS Tasks */
 101:uart_debug.h  **** 	
 102:uart_debug.h  **** 	/* Initializes the underlying Task and Queue used for printing debug 
 103:uart_debug.h  **** 	   messages */
 104:uart_debug.h  **** 	#define Task_DebugInit()   (InitDebugPrintf())
 105:uart_debug.h  **** 
 106:uart_debug.h  **** 	/* Prints a constant string and an optional error code from a separate 
 107:uart_debug.h  **** 	   Task */
 108:uart_debug.h  **** 	#define Task_DebugPrintf(constString, errorCode) (SendToDebugPrintTask(         \
 109:uart_debug.h  **** 													(char*)constString,        \
 110:uart_debug.h  **** 													(uint32_t)errorCode))
 111:uart_debug.h  **** 	
 112:uart_debug.h  **** 	/* Definition of internal macros, datatypes and the inline functions 
 113:uart_debug.h  **** 	   used by the RTOS thread-safe macros for initializing and printing debug 
 114:uart_debug.h  **** 	   information from RTOS Tasks */
 115:uart_debug.h  **** 			
 116:uart_debug.h  **** 	/* Maximum number of debug messages that can be queued */
 117:uart_debug.h  **** 	#define DEBUG_QUEUE_SIZE    16u
 118:uart_debug.h  **** 	
 119:uart_debug.h  **** 	/* Datatype used for debug queue */
 120:uart_debug.h  **** 	typedef struct
 121:uart_debug.h  **** 	{
 122:uart_debug.h  **** 		char* stringPointer;
 123:uart_debug.h  **** 		uint32_t errorCode;
 124:uart_debug.h  **** 	}   debug_print_data_t;
 125:uart_debug.h  **** 	
 126:uart_debug.h  **** 	/* Queue handle for debug message Queue */
 127:uart_debug.h  **** 	extern QueueHandle_t debugMessageQ;
ARM GAS  C:\Users\codyg\AppData\Local\Temp\cc52IIus.s 			page 12


 128:uart_debug.h  **** 	
 129:uart_debug.h  **** 	/* Task that performs thread safe debug message printing */
 130:uart_debug.h  **** 	void Task_Debug(void *pvParameters);
 131:uart_debug.h  **** 	
 132:uart_debug.h  **** 	/* Inline function that creates the underlying Task and Queue  */
 133:uart_debug.h  **** 	void inline static InitDebugPrintf()
 134:uart_debug.h  **** 	{
 135:uart_debug.h  **** 		debugMessageQ = xQueueCreate(DEBUG_QUEUE_SIZE,
 136:uart_debug.h  **** 										sizeof(debug_print_data_t));
 137:uart_debug.h  **** 		xTaskCreate(Task_Debug, "Debug Task", configMINIMAL_STACK_SIZE, NULL,
 138:uart_debug.h  **** 					(tskIDLE_PRIORITY+1u), NULL);
 139:uart_debug.h  **** 	}        
 140:uart_debug.h  **** 	
 141:uart_debug.h  **** 	/* Inline function that sends messages to the debug Queue */
 142:uart_debug.h  **** 	void inline static SendToDebugPrintTask(char* stringPtr, uint32_t errCode)
 143:uart_debug.h  **** 	{
 144:uart_debug.h  **** 		debug_print_data_t printData = {.stringPointer = stringPtr, 
  69              		.loc 2 144 0
  70 0034 0E4B     		ldr	r3, .L5+12
  71 0036 0293     		str	r3, [sp, #8]
  72 0038 0022     		movs	r2, #0
  73 003a 0392     		str	r2, [sp, #12]
 145:uart_debug.h  **** 										.errorCode     = errCode};
 146:uart_debug.h  **** 		xQueueSend(debugMessageQ, &printData,0u);
  74              		.loc 2 146 0
  75 003c 1346     		mov	r3, r2
  76 003e 02A9     		add	r1, sp, #8
  77 0040 0C48     		ldr	r0, .L5+16
  78              	.LVL4:
  79 0042 0068     		ldr	r0, [r0]
  80 0044 FFF7FEFF 		bl	xQueueGenericSend
  81              	.LVL5:
  82 0048 09E0     		b	.L1
  83              	.LVL6:
  84              	.L2:
  85              	.LBE49:
  86              	.LBE48:
  87              	.LBB50:
  88              	.LBB51:
 144:uart_debug.h  **** 										.errorCode     = errCode};
  89              		.loc 2 144 0
  90 004a 0B4B     		ldr	r3, .L5+20
  91 004c 0293     		str	r3, [sp, #8]
  92 004e 0022     		movs	r2, #0
  93 0050 0392     		str	r2, [sp, #12]
  94              		.loc 2 146 0
  95 0052 1346     		mov	r3, r2
  96 0054 02A9     		add	r1, sp, #8
  97 0056 0748     		ldr	r0, .L5+16
  98 0058 0068     		ldr	r0, [r0]
  99 005a FFF7FEFF 		bl	xQueueGenericSend
 100              	.LVL7:
 101              	.L1:
 102              	.LBE51:
 103              	.LBE50:
 433:status_led_task.c ****         {
 434:status_led_task.c ****             Task_DebugPrintf("Failure! : Status LED  - Red LED Timer "\
ARM GAS  C:\Users\codyg\AppData\Local\Temp\cc52IIus.s 			page 13


 435:status_led_task.c ****                              "initialization", 0u);    
 436:status_led_task.c ****         }
 437:status_led_task.c ****     }
 438:status_led_task.c ****     else
 439:status_led_task.c ****     {
 440:status_led_task.c ****         Task_DebugPrintf("Failure! : Status LED  - Red LED Timer creation", 0u); 
 441:status_led_task.c ****     }
 442:status_led_task.c **** }
 104              		.loc 1 442 0
 105 005e 04B0     		add	sp, sp, #16
 106              		.cfi_def_cfa_offset 8
 107              		@ sp needed
 108 0060 10BD     		pop	{r4, pc}
 109              	.L6:
 110 0062 00BF     		.align	2
 111              	.L5:
 112 0064 00000000 		.word	StatusLedRedTimerCallback
 113 0068 00000000 		.word	.LC0
 114 006c 00000000 		.word	xTimer_StatusLedRed
 115 0070 18000000 		.word	.LC1
 116 0074 00000000 		.word	debugMessageQ
 117 0078 50000000 		.word	.LC2
 118              		.cfi_endproc
 119              	.LFE719:
 120              		.size	StatusLedRedTimerStart, .-StatusLedRedTimerStart
 121              		.section	.text.StatusLedRedTimerCallback,"ax",%progbits
 122              		.align	2
 123              		.thumb
 124              		.thumb_func
 125              		.type	StatusLedRedTimerCallback, %function
 126              	StatusLedRedTimerCallback:
 127              	.LFB718:
 380:status_led_task.c ****     /* Variable used to store the return values of RTOS APIs */
 128              		.loc 1 380 0
 129              		.cfi_startproc
 130              		@ args = 0, pretend = 0, frame = 16
 131              		@ frame_needed = 0, uses_anonymous_args = 0
 132              	.LVL8:
 133 0000 00B5     		push	{lr}
 134              		.cfi_def_cfa_offset 4
 135              		.cfi_offset 14, -4
 136 0002 85B0     		sub	sp, sp, #20
 137              		.cfi_def_cfa_offset 24
 388:status_led_task.c ****     {   .redLed     = LED_TIMER_EXPIRED,
 138              		.loc 1 388 0
 139 0004 0523     		movs	r3, #5
 140 0006 8DF80C30 		strb	r3, [sp, #12]
 141 000a 0022     		movs	r2, #0
 142 000c 8DF80D20 		strb	r2, [sp, #13]
 392:status_led_task.c ****     
 143              		.loc 1 392 0
 144 0010 1346     		mov	r3, r2
 145 0012 03A9     		add	r1, sp, #12
 146 0014 0948     		ldr	r0, .L10
 147              	.LVL9:
 148 0016 0068     		ldr	r0, [r0]
 149 0018 FFF7FEFF 		bl	xQueueGenericSend
ARM GAS  C:\Users\codyg\AppData\Local\Temp\cc52IIus.s 			page 14


 150              	.LVL10:
 395:status_led_task.c ****     {
 151              		.loc 1 395 0
 152 001c 0128     		cmp	r0, #1
 153 001e 09D0     		beq	.L7
 154              	.LVL11:
 155              	.LBB52:
 156              	.LBB53:
 144:uart_debug.h  **** 										.errorCode     = errCode};
 157              		.loc 2 144 0
 158 0020 074B     		ldr	r3, .L10+4
 159 0022 0193     		str	r3, [sp, #4]
 160 0024 0022     		movs	r2, #0
 161 0026 0292     		str	r2, [sp, #8]
 162              		.loc 2 146 0
 163 0028 1346     		mov	r3, r2
 164 002a 01A9     		add	r1, sp, #4
 165 002c 0548     		ldr	r0, .L10+8
 166              	.LVL12:
 167 002e 0068     		ldr	r0, [r0]
 168 0030 FFF7FEFF 		bl	xQueueGenericSend
 169              	.LVL13:
 170              	.L7:
 171              	.LBE53:
 172              	.LBE52:
 400:status_led_task.c **** 
 173              		.loc 1 400 0
 174 0034 05B0     		add	sp, sp, #20
 175              		.cfi_def_cfa_offset 4
 176              		@ sp needed
 177 0036 5DF804FB 		ldr	pc, [sp], #4
 178              	.L11:
 179 003a 00BF     		.align	2
 180              	.L10:
 181 003c 00000000 		.word	statusLedDataQ
 182 0040 80000000 		.word	.LC3
 183 0044 00000000 		.word	debugMessageQ
 184              		.cfi_endproc
 185              	.LFE718:
 186              		.size	StatusLedRedTimerCallback, .-StatusLedRedTimerCallback
 187              		.section	.text.StatusLedOrangeTimerStart,"ax",%progbits
 188              		.align	2
 189              		.thumb
 190              		.thumb_func
 191              		.type	StatusLedOrangeTimerStart, %function
 192              	StatusLedOrangeTimerStart:
 193              	.LFB716:
 308:status_led_task.c ****     /* Variable used to store the return values of RTOS APIs */
 194              		.loc 1 308 0
 195              		.cfi_startproc
 196              		@ args = 0, pretend = 0, frame = 8
 197              		@ frame_needed = 0, uses_anonymous_args = 0
 198 0000 10B5     		push	{r4, lr}
 199              		.cfi_def_cfa_offset 8
 200              		.cfi_offset 4, -8
 201              		.cfi_offset 14, -4
 202 0002 84B0     		sub	sp, sp, #16
ARM GAS  C:\Users\codyg\AppData\Local\Temp\cc52IIus.s 			page 15


 203              		.cfi_def_cfa_offset 24
 313:status_led_task.c ****                                             STATUS_LED_IDLE_INTERVAL, pdTRUE, 
 204              		.loc 1 313 0
 205 0004 174B     		ldr	r3, .L16
 206 0006 0093     		str	r3, [sp]
 207 0008 0023     		movs	r3, #0
 208 000a 0122     		movs	r2, #1
 209 000c 4FF0FF31 		mov	r1, #-1
 210 0010 1548     		ldr	r0, .L16+4
 211 0012 FFF7FEFF 		bl	xTimerCreate
 212              	.LVL14:
 213 0016 154B     		ldr	r3, .L16+8
 214 0018 1860     		str	r0, [r3]
 318:status_led_task.c ****     {
 215              		.loc 1 318 0
 216 001a B0B1     		cbz	r0, .L13
 217 001c 0446     		mov	r4, r0
 321:status_led_task.c ****         
 218              		.loc 1 321 0
 219 001e FFF7FEFF 		bl	xTaskGetTickCount
 220              	.LVL15:
 221 0022 0023     		movs	r3, #0
 222 0024 0093     		str	r3, [sp]
 223 0026 0246     		mov	r2, r0
 224 0028 0121     		movs	r1, #1
 225 002a 2046     		mov	r0, r4
 226 002c FFF7FEFF 		bl	xTimerGenericCommand
 227              	.LVL16:
 324:status_led_task.c ****         {
 228              		.loc 1 324 0
 229 0030 0128     		cmp	r0, #1
 230 0032 14D0     		beq	.L12
 231              	.LVL17:
 232              	.LBB54:
 233              	.LBB55:
 144:uart_debug.h  **** 										.errorCode     = errCode};
 234              		.loc 2 144 0
 235 0034 0E4B     		ldr	r3, .L16+12
 236 0036 0293     		str	r3, [sp, #8]
 237 0038 0022     		movs	r2, #0
 238 003a 0392     		str	r2, [sp, #12]
 239              		.loc 2 146 0
 240 003c 1346     		mov	r3, r2
 241 003e 02A9     		add	r1, sp, #8
 242 0040 0C48     		ldr	r0, .L16+16
 243              	.LVL18:
 244 0042 0068     		ldr	r0, [r0]
 245 0044 FFF7FEFF 		bl	xQueueGenericSend
 246              	.LVL19:
 247 0048 09E0     		b	.L12
 248              	.LVL20:
 249              	.L13:
 250              	.LBE55:
 251              	.LBE54:
 252              	.LBB56:
 253              	.LBB57:
 144:uart_debug.h  **** 										.errorCode     = errCode};
ARM GAS  C:\Users\codyg\AppData\Local\Temp\cc52IIus.s 			page 16


 254              		.loc 2 144 0
 255 004a 0B4B     		ldr	r3, .L16+20
 256 004c 0293     		str	r3, [sp, #8]
 257 004e 0022     		movs	r2, #0
 258 0050 0392     		str	r2, [sp, #12]
 259              		.loc 2 146 0
 260 0052 1346     		mov	r3, r2
 261 0054 02A9     		add	r1, sp, #8
 262 0056 0748     		ldr	r0, .L16+16
 263 0058 0068     		ldr	r0, [r0]
 264 005a FFF7FEFF 		bl	xQueueGenericSend
 265              	.LVL21:
 266              	.L12:
 267              	.LBE57:
 268              	.LBE56:
 335:status_led_task.c **** 
 269              		.loc 1 335 0
 270 005e 04B0     		add	sp, sp, #16
 271              		.cfi_def_cfa_offset 8
 272              		@ sp needed
 273 0060 10BD     		pop	{r4, pc}
 274              	.L17:
 275 0062 00BF     		.align	2
 276              	.L16:
 277 0064 00000000 		.word	StatusLedOrangeTimerCallback
 278 0068 BC000000 		.word	.LC4
 279 006c 00000000 		.word	xTimer_StatusLedOrange
 280 0070 D4000000 		.word	.LC5
 281 0074 00000000 		.word	debugMessageQ
 282 0078 10010000 		.word	.LC6
 283              		.cfi_endproc
 284              	.LFE716:
 285              		.size	StatusLedOrangeTimerStart, .-StatusLedOrangeTimerStart
 286              		.section	.text.StatusLedOrangeTimerCallback,"ax",%progbits
 287              		.align	2
 288              		.thumb
 289              		.thumb_func
 290              		.type	StatusLedOrangeTimerCallback, %function
 291              	StatusLedOrangeTimerCallback:
 292              	.LFB715:
 270:status_led_task.c ****     /* Variable used to store the return values of RTOS APIs */
 293              		.loc 1 270 0
 294              		.cfi_startproc
 295              		@ args = 0, pretend = 0, frame = 16
 296              		@ frame_needed = 0, uses_anonymous_args = 0
 297              	.LVL22:
 298 0000 00B5     		push	{lr}
 299              		.cfi_def_cfa_offset 4
 300              		.cfi_offset 14, -4
 301 0002 85B0     		sub	sp, sp, #20
 302              		.cfi_def_cfa_offset 24
 279:status_led_task.c ****     {   .redLed     = LED_NO_CHANGE,
 303              		.loc 1 279 0
 304 0004 0022     		movs	r2, #0
 305 0006 8DF80C20 		strb	r2, [sp, #12]
 306 000a 0523     		movs	r3, #5
 307 000c 8DF80D30 		strb	r3, [sp, #13]
ARM GAS  C:\Users\codyg\AppData\Local\Temp\cc52IIus.s 			page 17


 283:status_led_task.c ****     
 308              		.loc 1 283 0
 309 0010 1346     		mov	r3, r2
 310 0012 03A9     		add	r1, sp, #12
 311 0014 0948     		ldr	r0, .L21
 312              	.LVL23:
 313 0016 0068     		ldr	r0, [r0]
 314 0018 FFF7FEFF 		bl	xQueueGenericSend
 315              	.LVL24:
 286:status_led_task.c ****     {
 316              		.loc 1 286 0
 317 001c 0128     		cmp	r0, #1
 318 001e 09D0     		beq	.L18
 319              	.LVL25:
 320              	.LBB58:
 321              	.LBB59:
 144:uart_debug.h  **** 										.errorCode     = errCode};
 322              		.loc 2 144 0
 323 0020 074B     		ldr	r3, .L21+4
 324 0022 0193     		str	r3, [sp, #4]
 325 0024 0022     		movs	r2, #0
 326 0026 0292     		str	r2, [sp, #8]
 327              		.loc 2 146 0
 328 0028 1346     		mov	r3, r2
 329 002a 01A9     		add	r1, sp, #4
 330 002c 0548     		ldr	r0, .L21+8
 331              	.LVL26:
 332 002e 0068     		ldr	r0, [r0]
 333 0030 FFF7FEFF 		bl	xQueueGenericSend
 334              	.LVL27:
 335              	.L18:
 336              	.LBE59:
 337              	.LBE58:
 291:status_led_task.c **** 
 338              		.loc 1 291 0
 339 0034 05B0     		add	sp, sp, #20
 340              		.cfi_def_cfa_offset 4
 341              		@ sp needed
 342 0036 5DF804FB 		ldr	pc, [sp], #4
 343              	.L22:
 344 003a 00BF     		.align	2
 345              	.L21:
 346 003c 00000000 		.word	statusLedDataQ
 347 0040 80000000 		.word	.LC3
 348 0044 00000000 		.word	debugMessageQ
 349              		.cfi_endproc
 350              	.LFE715:
 351              		.size	StatusLedOrangeTimerCallback, .-StatusLedOrangeTimerCallback
 352              		.section	.text.StatusLedOrangeTimerUpdate,"ax",%progbits
 353              		.align	2
 354              		.thumb
 355              		.thumb_func
 356              		.type	StatusLedOrangeTimerUpdate, %function
 357              	StatusLedOrangeTimerUpdate:
 358              	.LFB717:
 351:status_led_task.c ****     /* Variable used to store the return values of RTOS APIs */
 359              		.loc 1 351 0
ARM GAS  C:\Users\codyg\AppData\Local\Temp\cc52IIus.s 			page 18


 360              		.cfi_startproc
 361              		@ args = 0, pretend = 0, frame = 8
 362              		@ frame_needed = 0, uses_anonymous_args = 0
 363              	.LVL28:
 364 0000 10B5     		push	{r4, lr}
 365              		.cfi_def_cfa_offset 8
 366              		.cfi_offset 4, -8
 367              		.cfi_offset 14, -4
 368 0002 84B0     		sub	sp, sp, #16
 369              		.cfi_def_cfa_offset 24
 356:status_led_task.c ****     
 370              		.loc 1 356 0
 371 0004 0B4B     		ldr	r3, .L26
 372 0006 1C68     		ldr	r4, [r3]
 373 0008 0023     		movs	r3, #0
 374 000a 0093     		str	r3, [sp]
 375 000c 0246     		mov	r2, r0
 376 000e 0421     		movs	r1, #4
 377 0010 2046     		mov	r0, r4
 378              	.LVL29:
 379 0012 FFF7FEFF 		bl	xTimerGenericCommand
 380              	.LVL30:
 359:status_led_task.c ****     {
 381              		.loc 1 359 0
 382 0016 0128     		cmp	r0, #1
 383 0018 09D0     		beq	.L23
 384              	.LVL31:
 385              	.LBB60:
 386              	.LBB61:
 144:uart_debug.h  **** 										.errorCode     = errCode};
 387              		.loc 2 144 0
 388 001a 074B     		ldr	r3, .L26+4
 389 001c 0293     		str	r3, [sp, #8]
 390 001e 0022     		movs	r2, #0
 391 0020 0392     		str	r2, [sp, #12]
 392              		.loc 2 146 0
 393 0022 1346     		mov	r3, r2
 394 0024 02A9     		add	r1, sp, #8
 395 0026 0548     		ldr	r0, .L26+8
 396              	.LVL32:
 397 0028 0068     		ldr	r0, [r0]
 398 002a FFF7FEFF 		bl	xQueueGenericSend
 399              	.LVL33:
 400              	.L23:
 401              	.LBE61:
 402              	.LBE60:
 364:status_led_task.c **** 
 403              		.loc 1 364 0
 404 002e 04B0     		add	sp, sp, #16
 405              		.cfi_def_cfa_offset 8
 406              		@ sp needed
 407 0030 10BD     		pop	{r4, pc}
 408              	.L27:
 409 0032 00BF     		.align	2
 410              	.L26:
 411 0034 00000000 		.word	xTimer_StatusLedOrange
 412 0038 44010000 		.word	.LC7
ARM GAS  C:\Users\codyg\AppData\Local\Temp\cc52IIus.s 			page 19


 413 003c 00000000 		.word	debugMessageQ
 414              		.cfi_endproc
 415              	.LFE717:
 416              		.size	StatusLedOrangeTimerUpdate, .-StatusLedOrangeTimerUpdate
 417              		.section	.text.StatusLedRedTimerUpdate,"ax",%progbits
 418              		.align	2
 419              		.thumb
 420              		.thumb_func
 421              		.type	StatusLedRedTimerUpdate, %function
 422              	StatusLedRedTimerUpdate:
 423              	.LFB720:
 443:status_led_task.c **** 
 444:status_led_task.c **** /*******************************************************************************
 445:status_led_task.c **** * Function Name: void static StatusLedRedTimerUpdate(TickType_t period)                 
 446:status_led_task.c **** ********************************************************************************
 447:status_led_task.c **** * Summary:
 448:status_led_task.c **** *  This function updates the timer period per the parameter
 449:status_led_task.c **** *
 450:status_led_task.c **** * Parameters:
 451:status_led_task.c **** *  TickType_t period :  Period of the timer in ticks
 452:status_led_task.c **** *
 453:status_led_task.c **** * Return:
 454:status_led_task.c **** *  void
 455:status_led_task.c **** *
 456:status_led_task.c **** *******************************************************************************/
 457:status_led_task.c **** void static StatusLedRedTimerUpdate(TickType_t period)
 458:status_led_task.c **** {
 424              		.loc 1 458 0
 425              		.cfi_startproc
 426              		@ args = 0, pretend = 0, frame = 8
 427              		@ frame_needed = 0, uses_anonymous_args = 0
 428              	.LVL34:
 429 0000 10B5     		push	{r4, lr}
 430              		.cfi_def_cfa_offset 8
 431              		.cfi_offset 4, -8
 432              		.cfi_offset 14, -4
 433 0002 84B0     		sub	sp, sp, #16
 434              		.cfi_def_cfa_offset 24
 459:status_led_task.c ****     /* Variable used to store the return values of RTOS APIs */
 460:status_led_task.c ****     BaseType_t rtosApiResult;
 461:status_led_task.c ****     
 462:status_led_task.c ****     /* Change the timer period */
 463:status_led_task.c ****     rtosApiResult = xTimerChangePeriod(xTimer_StatusLedRed, period, 0u);
 435              		.loc 1 463 0
 436 0004 0B4B     		ldr	r3, .L31
 437 0006 1C68     		ldr	r4, [r3]
 438 0008 0023     		movs	r3, #0
 439 000a 0093     		str	r3, [sp]
 440 000c 0246     		mov	r2, r0
 441 000e 0421     		movs	r1, #4
 442 0010 2046     		mov	r0, r4
 443              	.LVL35:
 444 0012 FFF7FEFF 		bl	xTimerGenericCommand
 445              	.LVL36:
 464:status_led_task.c ****     
 465:status_led_task.c ****     /* Check if the operation has been successful */
 466:status_led_task.c ****     if(rtosApiResult != pdPASS)
ARM GAS  C:\Users\codyg\AppData\Local\Temp\cc52IIus.s 			page 20


 446              		.loc 1 466 0
 447 0016 0128     		cmp	r0, #1
 448 0018 09D0     		beq	.L28
 449              	.LVL37:
 450              	.LBB62:
 451              	.LBB63:
 144:uart_debug.h  **** 										.errorCode     = errCode};
 452              		.loc 2 144 0
 453 001a 074B     		ldr	r3, .L31+4
 454 001c 0293     		str	r3, [sp, #8]
 455 001e 0022     		movs	r2, #0
 456 0020 0392     		str	r2, [sp, #12]
 457              		.loc 2 146 0
 458 0022 1346     		mov	r3, r2
 459 0024 02A9     		add	r1, sp, #8
 460 0026 0548     		ldr	r0, .L31+8
 461              	.LVL38:
 462 0028 0068     		ldr	r0, [r0]
 463 002a FFF7FEFF 		bl	xQueueGenericSend
 464              	.LVL39:
 465              	.L28:
 466              	.LBE63:
 467              	.LBE62:
 467:status_led_task.c ****     {
 468:status_led_task.c ****         Task_DebugPrintf("Failure! : Status LED - Red LED Timer update ", 0u);   
 469:status_led_task.c ****     }
 470:status_led_task.c **** }
 468              		.loc 1 470 0
 469 002e 04B0     		add	sp, sp, #16
 470              		.cfi_def_cfa_offset 8
 471              		@ sp needed
 472 0030 10BD     		pop	{r4, pc}
 473              	.L32:
 474 0032 00BF     		.align	2
 475              	.L31:
 476 0034 00000000 		.word	xTimer_StatusLedRed
 477 0038 78010000 		.word	.LC8
 478 003c 00000000 		.word	debugMessageQ
 479              		.cfi_endproc
 480              	.LFE720:
 481              		.size	StatusLedRedTimerUpdate, .-StatusLedRedTimerUpdate
 482              		.section	.text.Task_StatusLed,"ax",%progbits
 483              		.align	2
 484              		.global	Task_StatusLed
 485              		.thumb
 486              		.thumb_func
 487              		.type	Task_StatusLed, %function
 488              	Task_StatusLed:
 489              	.LFB714:
  90:status_led_task.c ****     /* Variable that stores the data recieved received over queue */
 490              		.loc 1 90 0
 491              		.cfi_startproc
 492              		@ args = 0, pretend = 0, frame = 16
 493              		@ frame_needed = 0, uses_anonymous_args = 0
 494              	.LVL40:
 495 0000 00B5     		push	{lr}
 496              		.cfi_def_cfa_offset 4
ARM GAS  C:\Users\codyg\AppData\Local\Temp\cc52IIus.s 			page 21


 497              		.cfi_offset 14, -4
 498 0002 85B0     		sub	sp, sp, #20
 499              		.cfi_def_cfa_offset 24
 105:status_led_task.c ****     StatusLedOrangeTimerStart();
 500              		.loc 1 105 0
 501 0004 FFF7FEFF 		bl	StatusLedRedTimerStart
 502              	.LVL41:
 106:status_led_task.c ****     
 503              		.loc 1 106 0
 504 0008 FFF7FEFF 		bl	StatusLedOrangeTimerStart
 505              	.LVL42:
 506              	.L34:
 112:status_led_task.c ****                          portMAX_DELAY);
 507              		.loc 1 112 0
 508 000c 0023     		movs	r3, #0
 509 000e 4FF0FF32 		mov	r2, #-1
 510 0012 03A9     		add	r1, sp, #12
 511 0014 6B48     		ldr	r0, .L57
 512 0016 0068     		ldr	r0, [r0]
 513 0018 FFF7FEFF 		bl	xQueueGenericReceive
 514              	.LVL43:
 115:status_led_task.c ****         {
 515              		.loc 1 115 0
 516 001c 0128     		cmp	r0, #1
 517 001e 40F0C580 		bne	.L36
 118:status_led_task.c ****             {
 518              		.loc 1 118 0
 519 0022 9DF80D30 		ldrb	r3, [sp, #13]	@ zero_extendqisi2
 520 0026 052B     		cmp	r3, #5
 521 0028 4DD8     		bhi	.L37
 522 002a DFE803F0 		tbb	[pc, r3]
 523              	.L39:
 524 002e 56       		.byte	(.L38-.L39)/2
 525 002f 03       		.byte	(.L40-.L39)/2
 526 0030 0E       		.byte	(.L41-.L39)/2
 527 0031 19       		.byte	(.L42-.L39)/2
 528 0032 21       		.byte	(.L43-.L39)/2
 529 0033 2C       		.byte	(.L44-.L39)/2
 530              		.p2align 1
 531              	.L40:
 532              	.LVL44:
 533              	.LBB64:
 534              	.LBB65:
 535              		.file 3 "Generated_Source\\PSoC6\\pdl\\drivers/peripheral/gpio/cy_gpio.h"
   1:Generated_Source\PSoC6\pdl\drivers/peripheral/gpio/cy_gpio.h **** /***************************************************************************//**
   2:Generated_Source\PSoC6\pdl\drivers/peripheral/gpio/cy_gpio.h **** * \file cy_gpio.h
   3:Generated_Source\PSoC6\pdl\drivers/peripheral/gpio/cy_gpio.h **** * \version 1.10.1
   4:Generated_Source\PSoC6\pdl\drivers/peripheral/gpio/cy_gpio.h **** *
   5:Generated_Source\PSoC6\pdl\drivers/peripheral/gpio/cy_gpio.h **** * \brief
   6:Generated_Source\PSoC6\pdl\drivers/peripheral/gpio/cy_gpio.h **** * Provides an API declaration of the GPIO driver
   7:Generated_Source\PSoC6\pdl\drivers/peripheral/gpio/cy_gpio.h **** *
   8:Generated_Source\PSoC6\pdl\drivers/peripheral/gpio/cy_gpio.h **** ********************************************************************************
   9:Generated_Source\PSoC6\pdl\drivers/peripheral/gpio/cy_gpio.h **** * \copyright
  10:Generated_Source\PSoC6\pdl\drivers/peripheral/gpio/cy_gpio.h **** * Copyright 2016-2018, Cypress Semiconductor Corporation. All rights reserved.
  11:Generated_Source\PSoC6\pdl\drivers/peripheral/gpio/cy_gpio.h **** * You may use this file only in accordance with the license, terms, conditions,
  12:Generated_Source\PSoC6\pdl\drivers/peripheral/gpio/cy_gpio.h **** * disclaimers, and limitations in the end user license agreement accompanying
  13:Generated_Source\PSoC6\pdl\drivers/peripheral/gpio/cy_gpio.h **** * the software package with which this file was provided.
ARM GAS  C:\Users\codyg\AppData\Local\Temp\cc52IIus.s 			page 22


  14:Generated_Source\PSoC6\pdl\drivers/peripheral/gpio/cy_gpio.h **** *******************************************************************************/
  15:Generated_Source\PSoC6\pdl\drivers/peripheral/gpio/cy_gpio.h **** 
  16:Generated_Source\PSoC6\pdl\drivers/peripheral/gpio/cy_gpio.h **** /**
  17:Generated_Source\PSoC6\pdl\drivers/peripheral/gpio/cy_gpio.h **** * \defgroup group_gpio General Purpose Input Output (GPIO)
  18:Generated_Source\PSoC6\pdl\drivers/peripheral/gpio/cy_gpio.h **** * \{
  19:Generated_Source\PSoC6\pdl\drivers/peripheral/gpio/cy_gpio.h **** * The GPIO driver provides an API to configure and access device Input/Output pins.
  20:Generated_Source\PSoC6\pdl\drivers/peripheral/gpio/cy_gpio.h **** * IO pins include all general purpose types such as GPIO, SIO, HSIO, AUXIO, and
  21:Generated_Source\PSoC6\pdl\drivers/peripheral/gpio/cy_gpio.h **** * their variants.
  22:Generated_Source\PSoC6\pdl\drivers/peripheral/gpio/cy_gpio.h **** *
  23:Generated_Source\PSoC6\pdl\drivers/peripheral/gpio/cy_gpio.h **** * Initialization can be performed either at the port level or by configuring the
  24:Generated_Source\PSoC6\pdl\drivers/peripheral/gpio/cy_gpio.h **** * individual pins. For efficient use of code space, port
  25:Generated_Source\PSoC6\pdl\drivers/peripheral/gpio/cy_gpio.h **** * configuration should be used in the field. Refer to the product device header files 
  26:Generated_Source\PSoC6\pdl\drivers/peripheral/gpio/cy_gpio.h **** * for the list of supported ports and pins.
  27:Generated_Source\PSoC6\pdl\drivers/peripheral/gpio/cy_gpio.h **** * 
  28:Generated_Source\PSoC6\pdl\drivers/peripheral/gpio/cy_gpio.h **** * - Single pin configuration is performed by using \ref Cy_GPIO_Pin_FastInit 
  29:Generated_Source\PSoC6\pdl\drivers/peripheral/gpio/cy_gpio.h **** *   (provide specific values) or \ref Cy_GPIO_Pin_Init (provide a filled
  30:Generated_Source\PSoC6\pdl\drivers/peripheral/gpio/cy_gpio.h **** *   cy_stc_gpio_pin_config_t structure).
  31:Generated_Source\PSoC6\pdl\drivers/peripheral/gpio/cy_gpio.h **** * - An entire port can be configured using \ref Cy_GPIO_Port_Init. Provide a filled 
  32:Generated_Source\PSoC6\pdl\drivers/peripheral/gpio/cy_gpio.h **** *   cy_stc_gpio_prt_config_t structure. The values in the structure are 
  33:Generated_Source\PSoC6\pdl\drivers/peripheral/gpio/cy_gpio.h **** *   bitfields representing the desired value for each pin in the port.
  34:Generated_Source\PSoC6\pdl\drivers/peripheral/gpio/cy_gpio.h **** * - Pin configuration and management is based on the port address and pin number.
  35:Generated_Source\PSoC6\pdl\drivers/peripheral/gpio/cy_gpio.h **** *   \ref Cy_GPIO_PortToAddr function can optionally be used to calculate the port
  36:Generated_Source\PSoC6\pdl\drivers/peripheral/gpio/cy_gpio.h **** *   address from the port number at run-time.
  37:Generated_Source\PSoC6\pdl\drivers/peripheral/gpio/cy_gpio.h **** *
  38:Generated_Source\PSoC6\pdl\drivers/peripheral/gpio/cy_gpio.h **** * Once the pin/port initialization is complete, each pin can be accessed by 
  39:Generated_Source\PSoC6\pdl\drivers/peripheral/gpio/cy_gpio.h **** * specifying the port (GPIO_PRT_Type) and the pin (0-7) in the provided API 
  40:Generated_Source\PSoC6\pdl\drivers/peripheral/gpio/cy_gpio.h **** * functions.
  41:Generated_Source\PSoC6\pdl\drivers/peripheral/gpio/cy_gpio.h **** *
  42:Generated_Source\PSoC6\pdl\drivers/peripheral/gpio/cy_gpio.h **** * \section group_gpio_configuration Configuration Considerations
  43:Generated_Source\PSoC6\pdl\drivers/peripheral/gpio/cy_gpio.h **** *
  44:Generated_Source\PSoC6\pdl\drivers/peripheral/gpio/cy_gpio.h **** * 1. Pin multiplexing is controlled through the High-Speed IO Matrix (HSIOM) selection.
  45:Generated_Source\PSoC6\pdl\drivers/peripheral/gpio/cy_gpio.h **** *    This allows the pin to connect to signal sources/sinks throughout the device,
  46:Generated_Source\PSoC6\pdl\drivers/peripheral/gpio/cy_gpio.h **** *    as defined by the pin HSIOM selection options (en_hsiom_sel_t).
  47:Generated_Source\PSoC6\pdl\drivers/peripheral/gpio/cy_gpio.h **** * 2. All pins are initialized to High-Z drive mode with HSIOM connected to CPU (SW
  48:Generated_Source\PSoC6\pdl\drivers/peripheral/gpio/cy_gpio.h **** *    control digital pin only) at Power-On-Reset(POR).
  49:Generated_Source\PSoC6\pdl\drivers/peripheral/gpio/cy_gpio.h **** * 3. Some API functions perform read-modify-write operations on shared port
  50:Generated_Source\PSoC6\pdl\drivers/peripheral/gpio/cy_gpio.h **** *    registers. These functions are not thread safe and care must be taken when
  51:Generated_Source\PSoC6\pdl\drivers/peripheral/gpio/cy_gpio.h **** *    called by the application.
  52:Generated_Source\PSoC6\pdl\drivers/peripheral/gpio/cy_gpio.h **** *
  53:Generated_Source\PSoC6\pdl\drivers/peripheral/gpio/cy_gpio.h **** * Multiple pins on a port can be updated using direct port register writes with an
  54:Generated_Source\PSoC6\pdl\drivers/peripheral/gpio/cy_gpio.h **** * appropriate port mask. An example is shown below, highlighting the different ways of 
  55:Generated_Source\PSoC6\pdl\drivers/peripheral/gpio/cy_gpio.h **** * configuring Port 1 pins using,
  56:Generated_Source\PSoC6\pdl\drivers/peripheral/gpio/cy_gpio.h **** * 
  57:Generated_Source\PSoC6\pdl\drivers/peripheral/gpio/cy_gpio.h **** * - Port output data register
  58:Generated_Source\PSoC6\pdl\drivers/peripheral/gpio/cy_gpio.h **** * - Port output data set register
  59:Generated_Source\PSoC6\pdl\drivers/peripheral/gpio/cy_gpio.h **** * - Port output data clear register
  60:Generated_Source\PSoC6\pdl\drivers/peripheral/gpio/cy_gpio.h **** *
  61:Generated_Source\PSoC6\pdl\drivers/peripheral/gpio/cy_gpio.h **** * \snippet gpio/gpio_v1_10_sut_01.cydsn/main_cm4.c Cy_GPIO_Snippet
  62:Generated_Source\PSoC6\pdl\drivers/peripheral/gpio/cy_gpio.h **** *
  63:Generated_Source\PSoC6\pdl\drivers/peripheral/gpio/cy_gpio.h **** * \section group_gpio_more_information More Information
  64:Generated_Source\PSoC6\pdl\drivers/peripheral/gpio/cy_gpio.h **** *
  65:Generated_Source\PSoC6\pdl\drivers/peripheral/gpio/cy_gpio.h **** * Refer to the technical reference manual (TRM) and the device datasheet.
  66:Generated_Source\PSoC6\pdl\drivers/peripheral/gpio/cy_gpio.h **** *
  67:Generated_Source\PSoC6\pdl\drivers/peripheral/gpio/cy_gpio.h **** * \section group_gpio_MISRA MISRA-C Compliance]
  68:Generated_Source\PSoC6\pdl\drivers/peripheral/gpio/cy_gpio.h **** * <table class="doxtable">
  69:Generated_Source\PSoC6\pdl\drivers/peripheral/gpio/cy_gpio.h **** *   <tr>
  70:Generated_Source\PSoC6\pdl\drivers/peripheral/gpio/cy_gpio.h **** *     <th>MISRA Rule</th>
ARM GAS  C:\Users\codyg\AppData\Local\Temp\cc52IIus.s 			page 23


  71:Generated_Source\PSoC6\pdl\drivers/peripheral/gpio/cy_gpio.h **** *     <th>Rule Class (Required/Advisory)</th>
  72:Generated_Source\PSoC6\pdl\drivers/peripheral/gpio/cy_gpio.h **** *     <th>Rule Description</th>
  73:Generated_Source\PSoC6\pdl\drivers/peripheral/gpio/cy_gpio.h **** *     <th>Description of Deviation(s)</th>
  74:Generated_Source\PSoC6\pdl\drivers/peripheral/gpio/cy_gpio.h **** *   </tr>
  75:Generated_Source\PSoC6\pdl\drivers/peripheral/gpio/cy_gpio.h **** *   <tr>
  76:Generated_Source\PSoC6\pdl\drivers/peripheral/gpio/cy_gpio.h **** *     <td>16.7</td>
  77:Generated_Source\PSoC6\pdl\drivers/peripheral/gpio/cy_gpio.h **** *     <td>A</td>
  78:Generated_Source\PSoC6\pdl\drivers/peripheral/gpio/cy_gpio.h **** *     <td>A pointer parameter in a function prototype should be declared as pointer 
  79:Generated_Source\PSoC6\pdl\drivers/peripheral/gpio/cy_gpio.h **** *         to const if the pointer is not used to modify the addressed object.</td>
  80:Generated_Source\PSoC6\pdl\drivers/peripheral/gpio/cy_gpio.h **** *     <td>The objects pointed to by the base addresses of the GPIO port are not always modified.
  81:Generated_Source\PSoC6\pdl\drivers/peripheral/gpio/cy_gpio.h **** *         While a const qualifier can be used in select scenarios, it brings little benefit
  82:Generated_Source\PSoC6\pdl\drivers/peripheral/gpio/cy_gpio.h **** *         in adding this to the affected functions. </td>
  83:Generated_Source\PSoC6\pdl\drivers/peripheral/gpio/cy_gpio.h **** *   </tr>
  84:Generated_Source\PSoC6\pdl\drivers/peripheral/gpio/cy_gpio.h **** * </table>
  85:Generated_Source\PSoC6\pdl\drivers/peripheral/gpio/cy_gpio.h **** *
  86:Generated_Source\PSoC6\pdl\drivers/peripheral/gpio/cy_gpio.h **** * \section group_gpio_changelog Changelog
  87:Generated_Source\PSoC6\pdl\drivers/peripheral/gpio/cy_gpio.h **** * <table class="doxtable">
  88:Generated_Source\PSoC6\pdl\drivers/peripheral/gpio/cy_gpio.h **** *   <tr><th>Version</th><th>Changes</th><th>Reason for Change</th></tr>
  89:Generated_Source\PSoC6\pdl\drivers/peripheral/gpio/cy_gpio.h **** *   <tr>
  90:Generated_Source\PSoC6\pdl\drivers/peripheral/gpio/cy_gpio.h **** *     <td>1.10.1</td>
  91:Generated_Source\PSoC6\pdl\drivers/peripheral/gpio/cy_gpio.h **** *     <td>Updated description for the functions: \ref Cy_GPIO_GetInterruptStatus, 
  92:Generated_Source\PSoC6\pdl\drivers/peripheral/gpio/cy_gpio.h **** *         \ref Cy_GPIO_GetInterruptMask, \ref Cy_GPIO_GetInterruptStatusMasked.
  93:Generated_Source\PSoC6\pdl\drivers/peripheral/gpio/cy_gpio.h **** *         Minor documentation edits.
  94:Generated_Source\PSoC6\pdl\drivers/peripheral/gpio/cy_gpio.h **** *     </td>
  95:Generated_Source\PSoC6\pdl\drivers/peripheral/gpio/cy_gpio.h **** *     <td>Documentation update and clarification</td>
  96:Generated_Source\PSoC6\pdl\drivers/peripheral/gpio/cy_gpio.h **** *   </tr>
  97:Generated_Source\PSoC6\pdl\drivers/peripheral/gpio/cy_gpio.h **** *   <tr>
  98:Generated_Source\PSoC6\pdl\drivers/peripheral/gpio/cy_gpio.h **** *     <td>1.10</td>
  99:Generated_Source\PSoC6\pdl\drivers/peripheral/gpio/cy_gpio.h **** *     <td>Added input parameter validation to the API functions</td>
 100:Generated_Source\PSoC6\pdl\drivers/peripheral/gpio/cy_gpio.h **** *     <td></td>
 101:Generated_Source\PSoC6\pdl\drivers/peripheral/gpio/cy_gpio.h **** *   </tr>
 102:Generated_Source\PSoC6\pdl\drivers/peripheral/gpio/cy_gpio.h **** *   <tr>
 103:Generated_Source\PSoC6\pdl\drivers/peripheral/gpio/cy_gpio.h **** *     <td>1.0</td>
 104:Generated_Source\PSoC6\pdl\drivers/peripheral/gpio/cy_gpio.h **** *     <td>Initial version</td>
 105:Generated_Source\PSoC6\pdl\drivers/peripheral/gpio/cy_gpio.h **** *     <td></td>
 106:Generated_Source\PSoC6\pdl\drivers/peripheral/gpio/cy_gpio.h **** *   </tr>
 107:Generated_Source\PSoC6\pdl\drivers/peripheral/gpio/cy_gpio.h **** * </table>
 108:Generated_Source\PSoC6\pdl\drivers/peripheral/gpio/cy_gpio.h **** *
 109:Generated_Source\PSoC6\pdl\drivers/peripheral/gpio/cy_gpio.h **** * \defgroup group_gpio_macros Macros
 110:Generated_Source\PSoC6\pdl\drivers/peripheral/gpio/cy_gpio.h **** * \defgroup group_gpio_functions Functions
 111:Generated_Source\PSoC6\pdl\drivers/peripheral/gpio/cy_gpio.h **** * \{
 112:Generated_Source\PSoC6\pdl\drivers/peripheral/gpio/cy_gpio.h **** *   \defgroup group_gpio_functions_init       Initialization Functions
 113:Generated_Source\PSoC6\pdl\drivers/peripheral/gpio/cy_gpio.h **** *   \defgroup group_gpio_functions_gpio       GPIO Functions
 114:Generated_Source\PSoC6\pdl\drivers/peripheral/gpio/cy_gpio.h **** *   \defgroup group_gpio_functions_sio        SIO Functions
 115:Generated_Source\PSoC6\pdl\drivers/peripheral/gpio/cy_gpio.h **** *   \defgroup group_gpio_functions_interrupt  Port Interrupt Functions
 116:Generated_Source\PSoC6\pdl\drivers/peripheral/gpio/cy_gpio.h **** * \}
 117:Generated_Source\PSoC6\pdl\drivers/peripheral/gpio/cy_gpio.h **** * \defgroup group_gpio_data_structures Data Structures
 118:Generated_Source\PSoC6\pdl\drivers/peripheral/gpio/cy_gpio.h **** * \defgroup group_gpio_enums Enumerated Types
 119:Generated_Source\PSoC6\pdl\drivers/peripheral/gpio/cy_gpio.h **** */
 120:Generated_Source\PSoC6\pdl\drivers/peripheral/gpio/cy_gpio.h **** 
 121:Generated_Source\PSoC6\pdl\drivers/peripheral/gpio/cy_gpio.h **** #if !defined(CY_GPIO_H)
 122:Generated_Source\PSoC6\pdl\drivers/peripheral/gpio/cy_gpio.h **** #define CY_GPIO_H
 123:Generated_Source\PSoC6\pdl\drivers/peripheral/gpio/cy_gpio.h **** 
 124:Generated_Source\PSoC6\pdl\drivers/peripheral/gpio/cy_gpio.h **** #include <stddef.h>
 125:Generated_Source\PSoC6\pdl\drivers/peripheral/gpio/cy_gpio.h **** #include "syslib/cy_syslib.h"
 126:Generated_Source\PSoC6\pdl\drivers/peripheral/gpio/cy_gpio.h **** #include "cy_device_headers.h"
 127:Generated_Source\PSoC6\pdl\drivers/peripheral/gpio/cy_gpio.h **** 
ARM GAS  C:\Users\codyg\AppData\Local\Temp\cc52IIus.s 			page 24


 128:Generated_Source\PSoC6\pdl\drivers/peripheral/gpio/cy_gpio.h **** #if defined(__cplusplus)
 129:Generated_Source\PSoC6\pdl\drivers/peripheral/gpio/cy_gpio.h **** extern "C" {
 130:Generated_Source\PSoC6\pdl\drivers/peripheral/gpio/cy_gpio.h **** #endif
 131:Generated_Source\PSoC6\pdl\drivers/peripheral/gpio/cy_gpio.h **** 
 132:Generated_Source\PSoC6\pdl\drivers/peripheral/gpio/cy_gpio.h **** /** \addtogroup group_gpio_macros
 133:Generated_Source\PSoC6\pdl\drivers/peripheral/gpio/cy_gpio.h **** * \{
 134:Generated_Source\PSoC6\pdl\drivers/peripheral/gpio/cy_gpio.h **** */
 135:Generated_Source\PSoC6\pdl\drivers/peripheral/gpio/cy_gpio.h **** 
 136:Generated_Source\PSoC6\pdl\drivers/peripheral/gpio/cy_gpio.h **** /** Driver major version */
 137:Generated_Source\PSoC6\pdl\drivers/peripheral/gpio/cy_gpio.h **** #define CY_GPIO_DRV_VERSION_MAJOR       1
 138:Generated_Source\PSoC6\pdl\drivers/peripheral/gpio/cy_gpio.h **** 
 139:Generated_Source\PSoC6\pdl\drivers/peripheral/gpio/cy_gpio.h **** /** Driver minor version */
 140:Generated_Source\PSoC6\pdl\drivers/peripheral/gpio/cy_gpio.h **** #define CY_GPIO_DRV_VERSION_MINOR       10
 141:Generated_Source\PSoC6\pdl\drivers/peripheral/gpio/cy_gpio.h **** 
 142:Generated_Source\PSoC6\pdl\drivers/peripheral/gpio/cy_gpio.h **** /** GPIO driver ID */
 143:Generated_Source\PSoC6\pdl\drivers/peripheral/gpio/cy_gpio.h **** #define CY_GPIO_ID CY_PDL_DRV_ID(0x16u)
 144:Generated_Source\PSoC6\pdl\drivers/peripheral/gpio/cy_gpio.h **** 
 145:Generated_Source\PSoC6\pdl\drivers/peripheral/gpio/cy_gpio.h **** /** \} group_gpio_macros */
 146:Generated_Source\PSoC6\pdl\drivers/peripheral/gpio/cy_gpio.h **** 
 147:Generated_Source\PSoC6\pdl\drivers/peripheral/gpio/cy_gpio.h **** 
 148:Generated_Source\PSoC6\pdl\drivers/peripheral/gpio/cy_gpio.h **** /***************************************
 149:Generated_Source\PSoC6\pdl\drivers/peripheral/gpio/cy_gpio.h **** *       Enumerations
 150:Generated_Source\PSoC6\pdl\drivers/peripheral/gpio/cy_gpio.h **** ***************************************/
 151:Generated_Source\PSoC6\pdl\drivers/peripheral/gpio/cy_gpio.h **** /**
 152:Generated_Source\PSoC6\pdl\drivers/peripheral/gpio/cy_gpio.h **** * \addtogroup group_gpio_enums
 153:Generated_Source\PSoC6\pdl\drivers/peripheral/gpio/cy_gpio.h **** * \{
 154:Generated_Source\PSoC6\pdl\drivers/peripheral/gpio/cy_gpio.h **** */
 155:Generated_Source\PSoC6\pdl\drivers/peripheral/gpio/cy_gpio.h **** 
 156:Generated_Source\PSoC6\pdl\drivers/peripheral/gpio/cy_gpio.h **** /**
 157:Generated_Source\PSoC6\pdl\drivers/peripheral/gpio/cy_gpio.h **** * GPIO Driver error codes
 158:Generated_Source\PSoC6\pdl\drivers/peripheral/gpio/cy_gpio.h **** */
 159:Generated_Source\PSoC6\pdl\drivers/peripheral/gpio/cy_gpio.h **** typedef enum 
 160:Generated_Source\PSoC6\pdl\drivers/peripheral/gpio/cy_gpio.h **** {
 161:Generated_Source\PSoC6\pdl\drivers/peripheral/gpio/cy_gpio.h ****     CY_GPIO_SUCCESS   = 0x00u,                                    /**< Returned successful */
 162:Generated_Source\PSoC6\pdl\drivers/peripheral/gpio/cy_gpio.h ****     CY_GPIO_BAD_PARAM = CY_GPIO_ID | CY_PDL_STATUS_ERROR | 0x01u, /**< Bad parameter was passed */
 163:Generated_Source\PSoC6\pdl\drivers/peripheral/gpio/cy_gpio.h **** } cy_en_gpio_status_t;
 164:Generated_Source\PSoC6\pdl\drivers/peripheral/gpio/cy_gpio.h **** 
 165:Generated_Source\PSoC6\pdl\drivers/peripheral/gpio/cy_gpio.h **** /** \} group_gpio_enums */
 166:Generated_Source\PSoC6\pdl\drivers/peripheral/gpio/cy_gpio.h **** 
 167:Generated_Source\PSoC6\pdl\drivers/peripheral/gpio/cy_gpio.h **** 
 168:Generated_Source\PSoC6\pdl\drivers/peripheral/gpio/cy_gpio.h **** /***************************************
 169:Generated_Source\PSoC6\pdl\drivers/peripheral/gpio/cy_gpio.h **** *       Configuration Structures
 170:Generated_Source\PSoC6\pdl\drivers/peripheral/gpio/cy_gpio.h **** ***************************************/
 171:Generated_Source\PSoC6\pdl\drivers/peripheral/gpio/cy_gpio.h **** 
 172:Generated_Source\PSoC6\pdl\drivers/peripheral/gpio/cy_gpio.h **** /**
 173:Generated_Source\PSoC6\pdl\drivers/peripheral/gpio/cy_gpio.h **** * \addtogroup group_gpio_data_structures
 174:Generated_Source\PSoC6\pdl\drivers/peripheral/gpio/cy_gpio.h **** * \{
 175:Generated_Source\PSoC6\pdl\drivers/peripheral/gpio/cy_gpio.h **** */
 176:Generated_Source\PSoC6\pdl\drivers/peripheral/gpio/cy_gpio.h **** 
 177:Generated_Source\PSoC6\pdl\drivers/peripheral/gpio/cy_gpio.h **** /** This structure is used to initialize a port of GPIO pins */
 178:Generated_Source\PSoC6\pdl\drivers/peripheral/gpio/cy_gpio.h **** typedef struct {
 179:Generated_Source\PSoC6\pdl\drivers/peripheral/gpio/cy_gpio.h ****     uint32_t out;           /**< Initial output data for the IO pins in the port */
 180:Generated_Source\PSoC6\pdl\drivers/peripheral/gpio/cy_gpio.h ****     uint32_t intrMask;      /**< Interrupt enable mask for the port interrupt */
 181:Generated_Source\PSoC6\pdl\drivers/peripheral/gpio/cy_gpio.h ****     uint32_t intrCfg;       /**< Port pin interrupt edge detection configuration */
 182:Generated_Source\PSoC6\pdl\drivers/peripheral/gpio/cy_gpio.h ****     uint32_t cfg;           /**< Port pin drive modes and input buffer enable configuration */
 183:Generated_Source\PSoC6\pdl\drivers/peripheral/gpio/cy_gpio.h ****     uint32_t cfgIn;         /**< Port pin input buffer configuration */
 184:Generated_Source\PSoC6\pdl\drivers/peripheral/gpio/cy_gpio.h ****     uint32_t cfgOut;        /**< Port pin output buffer configuration */
ARM GAS  C:\Users\codyg\AppData\Local\Temp\cc52IIus.s 			page 25


 185:Generated_Source\PSoC6\pdl\drivers/peripheral/gpio/cy_gpio.h ****     uint32_t cfgSIO;        /**< Port SIO pins configuration */
 186:Generated_Source\PSoC6\pdl\drivers/peripheral/gpio/cy_gpio.h ****     uint32_t sel0Active;    /**< HSIOM selection for port pins 0,1,2,3 */
 187:Generated_Source\PSoC6\pdl\drivers/peripheral/gpio/cy_gpio.h ****     uint32_t sel1Active;    /**< HSIOM selection for port pins 4,5,6,7 */
 188:Generated_Source\PSoC6\pdl\drivers/peripheral/gpio/cy_gpio.h **** } cy_stc_gpio_prt_config_t;
 189:Generated_Source\PSoC6\pdl\drivers/peripheral/gpio/cy_gpio.h **** 
 190:Generated_Source\PSoC6\pdl\drivers/peripheral/gpio/cy_gpio.h **** /** This structure is used to initialize a single GPIO pin */
 191:Generated_Source\PSoC6\pdl\drivers/peripheral/gpio/cy_gpio.h **** typedef struct {
 192:Generated_Source\PSoC6\pdl\drivers/peripheral/gpio/cy_gpio.h ****     uint32_t outVal;         /**< Pin output state */
 193:Generated_Source\PSoC6\pdl\drivers/peripheral/gpio/cy_gpio.h ****     uint32_t driveMode;      /**< Drive mode */
 194:Generated_Source\PSoC6\pdl\drivers/peripheral/gpio/cy_gpio.h ****     en_hsiom_sel_t hsiom;   /**< HSIOM selection */
 195:Generated_Source\PSoC6\pdl\drivers/peripheral/gpio/cy_gpio.h ****     uint32_t intEdge;        /**< Interrupt Edge type */
 196:Generated_Source\PSoC6\pdl\drivers/peripheral/gpio/cy_gpio.h ****     uint32_t intMask;        /**< Interrupt enable mask */
 197:Generated_Source\PSoC6\pdl\drivers/peripheral/gpio/cy_gpio.h ****     uint32_t vtrip;          /**< Input buffer voltage trip type */
 198:Generated_Source\PSoC6\pdl\drivers/peripheral/gpio/cy_gpio.h ****     uint32_t slewRate;       /**< Output buffer slew rate */
 199:Generated_Source\PSoC6\pdl\drivers/peripheral/gpio/cy_gpio.h ****     uint32_t driveSel;       /**< Drive strength */
 200:Generated_Source\PSoC6\pdl\drivers/peripheral/gpio/cy_gpio.h ****     uint32_t vregEn;         /**< SIO pair output buffer mode */
 201:Generated_Source\PSoC6\pdl\drivers/peripheral/gpio/cy_gpio.h ****     uint32_t ibufMode;       /**< SIO pair input buffer mode */
 202:Generated_Source\PSoC6\pdl\drivers/peripheral/gpio/cy_gpio.h ****     uint32_t vtripSel;       /**< SIO pair input buffer trip point */
 203:Generated_Source\PSoC6\pdl\drivers/peripheral/gpio/cy_gpio.h ****     uint32_t vrefSel;        /**< SIO pair reference voltage for input buffer trip point */
 204:Generated_Source\PSoC6\pdl\drivers/peripheral/gpio/cy_gpio.h ****     uint32_t vohSel;         /**< SIO pair regulated voltage output level */
 205:Generated_Source\PSoC6\pdl\drivers/peripheral/gpio/cy_gpio.h **** } cy_stc_gpio_pin_config_t;
 206:Generated_Source\PSoC6\pdl\drivers/peripheral/gpio/cy_gpio.h **** 
 207:Generated_Source\PSoC6\pdl\drivers/peripheral/gpio/cy_gpio.h **** /** \} group_gpio_data_structures */
 208:Generated_Source\PSoC6\pdl\drivers/peripheral/gpio/cy_gpio.h **** 
 209:Generated_Source\PSoC6\pdl\drivers/peripheral/gpio/cy_gpio.h **** /***************************************
 210:Generated_Source\PSoC6\pdl\drivers/peripheral/gpio/cy_gpio.h **** *        Constants
 211:Generated_Source\PSoC6\pdl\drivers/peripheral/gpio/cy_gpio.h **** ***************************************/
 212:Generated_Source\PSoC6\pdl\drivers/peripheral/gpio/cy_gpio.h **** 
 213:Generated_Source\PSoC6\pdl\drivers/peripheral/gpio/cy_gpio.h **** /** \cond INTERNAL */
 214:Generated_Source\PSoC6\pdl\drivers/peripheral/gpio/cy_gpio.h **** 
 215:Generated_Source\PSoC6\pdl\drivers/peripheral/gpio/cy_gpio.h **** /* General Constants */
 216:Generated_Source\PSoC6\pdl\drivers/peripheral/gpio/cy_gpio.h **** #define CY_GPIO_PRT_HALF                       (4UL)      /**< Half-way point of a GPIO port */
 217:Generated_Source\PSoC6\pdl\drivers/peripheral/gpio/cy_gpio.h **** #define CY_GPIO_PRT_DEINIT                     (0UL)      /**< De-init value for port registers */
 218:Generated_Source\PSoC6\pdl\drivers/peripheral/gpio/cy_gpio.h **** 
 219:Generated_Source\PSoC6\pdl\drivers/peripheral/gpio/cy_gpio.h **** /* GPIO Masks */
 220:Generated_Source\PSoC6\pdl\drivers/peripheral/gpio/cy_gpio.h **** #define CY_GPIO_HSIOM_MASK                     (0x1FUL)   /**< HSIOM selection mask */
 221:Generated_Source\PSoC6\pdl\drivers/peripheral/gpio/cy_gpio.h **** #define CY_GPIO_OUT_MASK                       (0x01UL)   /**< Single pin mask for OUT register */
 222:Generated_Source\PSoC6\pdl\drivers/peripheral/gpio/cy_gpio.h **** #define CY_GPIO_IN_MASK                        (0x01UL)   /**< Single pin mask for IN register */
 223:Generated_Source\PSoC6\pdl\drivers/peripheral/gpio/cy_gpio.h **** #define CY_GPIO_CFG_DM_MASK                    (0x0FUL)   /**< Single pin mask for drive mode in CF
 224:Generated_Source\PSoC6\pdl\drivers/peripheral/gpio/cy_gpio.h **** #define CY_GPIO_CFG_IN_VTRIP_SEL_MASK          (0x01UL)   /**< Single pin mask for VTRIP selection 
 225:Generated_Source\PSoC6\pdl\drivers/peripheral/gpio/cy_gpio.h **** #define CY_GPIO_CFG_OUT_SLOW_MASK              (0x01UL)   /**< Single pin mask for slew rate in CFG
 226:Generated_Source\PSoC6\pdl\drivers/peripheral/gpio/cy_gpio.h **** #define CY_GPIO_CFG_OUT_DRIVE_SEL_MASK         (0x03UL)   /**< Single pin mask for drive strength i
 227:Generated_Source\PSoC6\pdl\drivers/peripheral/gpio/cy_gpio.h **** #define CY_GPIO_INTR_STATUS_MASK               (0x01UL)   /**< Single pin mask for interrupt status
 228:Generated_Source\PSoC6\pdl\drivers/peripheral/gpio/cy_gpio.h **** #define CY_GPIO_INTR_EN_MASK                   (0x01UL)   /**< Single pin mask for interrupt status
 229:Generated_Source\PSoC6\pdl\drivers/peripheral/gpio/cy_gpio.h **** #define CY_GPIO_INTR_MASKED_MASK               (0x01UL)   /**< Single pin mask for masked interrupt
 230:Generated_Source\PSoC6\pdl\drivers/peripheral/gpio/cy_gpio.h **** #define CY_GPIO_INTR_SET_MASK                  (0x01UL)   /**< Single pin mask for setting the inte
 231:Generated_Source\PSoC6\pdl\drivers/peripheral/gpio/cy_gpio.h **** #define CY_GPIO_INTR_EDGE_MASK                 (0x03UL)   /**< Single pin mask for interrupt edge t
 232:Generated_Source\PSoC6\pdl\drivers/peripheral/gpio/cy_gpio.h **** #define CY_GPIO_INTR_FLT_EDGE_MASK             (0x07UL)   /**< Single pin mask for setting filtered
 233:Generated_Source\PSoC6\pdl\drivers/peripheral/gpio/cy_gpio.h **** 
 234:Generated_Source\PSoC6\pdl\drivers/peripheral/gpio/cy_gpio.h **** /* SIO Masks */
 235:Generated_Source\PSoC6\pdl\drivers/peripheral/gpio/cy_gpio.h **** #define CY_GPIO_VREG_EN_MASK                   (0x01UL)   /**< Single SIO pin mask for voltage regu
 236:Generated_Source\PSoC6\pdl\drivers/peripheral/gpio/cy_gpio.h **** #define CY_GPIO_IBUF_MASK                      (0x01UL)   /**< Single SIO pin mask for input buffer
 237:Generated_Source\PSoC6\pdl\drivers/peripheral/gpio/cy_gpio.h **** #define CY_GPIO_IBUF_SHIFT                     (0x01UL)   /**< Single SIO pin shift for input buffe
 238:Generated_Source\PSoC6\pdl\drivers/peripheral/gpio/cy_gpio.h **** #define CY_GPIO_VTRIP_SEL_MASK                 (0x01UL)   /**< Single SIO pin mask for the input bu
 239:Generated_Source\PSoC6\pdl\drivers/peripheral/gpio/cy_gpio.h **** #define CY_GPIO_VTRIP_SEL_SHIFT                (0x02UL)   /**< Single SIO pin shift for the input b
 240:Generated_Source\PSoC6\pdl\drivers/peripheral/gpio/cy_gpio.h **** #define CY_GPIO_VREF_SEL_MASK                  (0x03UL)   /**< Single SIO pin mask for voltage refe
 241:Generated_Source\PSoC6\pdl\drivers/peripheral/gpio/cy_gpio.h **** #define CY_GPIO_VREF_SEL_SHIFT                 (0x03UL)   /**< Single SIO pin shift for voltage ref
ARM GAS  C:\Users\codyg\AppData\Local\Temp\cc52IIus.s 			page 26


 242:Generated_Source\PSoC6\pdl\drivers/peripheral/gpio/cy_gpio.h **** #define CY_GPIO_VOH_SEL_MASK                   (0x07UL)   /**< Single SIO pin mask for VOH */
 243:Generated_Source\PSoC6\pdl\drivers/peripheral/gpio/cy_gpio.h **** #define CY_GPIO_VOH_SEL_SHIFT                  (0x05UL)   /**< Single SIO pin shift for VOH */
 244:Generated_Source\PSoC6\pdl\drivers/peripheral/gpio/cy_gpio.h **** 
 245:Generated_Source\PSoC6\pdl\drivers/peripheral/gpio/cy_gpio.h **** /* Special mask for SIO pin pair setting */
 246:Generated_Source\PSoC6\pdl\drivers/peripheral/gpio/cy_gpio.h **** #define CY_GPIO_SIO_ODD_PIN_MASK               (0x00FEUL) /**< SIO pin pair selection mask */
 247:Generated_Source\PSoC6\pdl\drivers/peripheral/gpio/cy_gpio.h **** #define CY_GPIO_SIO_PIN_MASK                   (0x00FFUL) /**< SIO pin pair mask */
 248:Generated_Source\PSoC6\pdl\drivers/peripheral/gpio/cy_gpio.h **** 
 249:Generated_Source\PSoC6\pdl\drivers/peripheral/gpio/cy_gpio.h **** /* Offsets */
 250:Generated_Source\PSoC6\pdl\drivers/peripheral/gpio/cy_gpio.h **** #define CY_GPIO_HSIOM_OFFSET                   (3UL)      /**< Offset for HSIOM */
 251:Generated_Source\PSoC6\pdl\drivers/peripheral/gpio/cy_gpio.h **** #define CY_GPIO_DRIVE_MODE_OFFSET              (2UL)      /**< Offset for Drive mode */
 252:Generated_Source\PSoC6\pdl\drivers/peripheral/gpio/cy_gpio.h **** #define CY_GPIO_INBUF_OFFSET                   (3UL)      /**< Offset for input buffer */
 253:Generated_Source\PSoC6\pdl\drivers/peripheral/gpio/cy_gpio.h **** #define CY_GPIO_CFG_OUT_DRIVE_OFFSET           (16UL)     /**< Offset for drive strength */
 254:Generated_Source\PSoC6\pdl\drivers/peripheral/gpio/cy_gpio.h **** #define CY_GPIO_INTR_CFG_OFFSET                (1UL)      /**< Offset for interrupt config */
 255:Generated_Source\PSoC6\pdl\drivers/peripheral/gpio/cy_gpio.h **** #define CY_GPIO_INTR_FILT_OFFSET               (18UL)     /**< Offset for filtered interrupt config
 256:Generated_Source\PSoC6\pdl\drivers/peripheral/gpio/cy_gpio.h **** #define CY_GPIO_CFG_SIO_OFFSET                 (2UL)      /**< Offset for SIO config */
 257:Generated_Source\PSoC6\pdl\drivers/peripheral/gpio/cy_gpio.h **** 
 258:Generated_Source\PSoC6\pdl\drivers/peripheral/gpio/cy_gpio.h **** /* Parameter validation constants */
 259:Generated_Source\PSoC6\pdl\drivers/peripheral/gpio/cy_gpio.h **** #define CY_GPIO_PINS_MAX                       (8UL)      /**< Number of pins in the port */
 260:Generated_Source\PSoC6\pdl\drivers/peripheral/gpio/cy_gpio.h **** #define CY_GPIO_PRT_PINS_MASK                  (0x0000000FFUL)
 261:Generated_Source\PSoC6\pdl\drivers/peripheral/gpio/cy_gpio.h **** #define CY_GPIO_PRT_INTR_CFG_EDGE_SEL_MASK     (GPIO_PRT_INTR_CFG_EDGE0_SEL_Msk | \
 262:Generated_Source\PSoC6\pdl\drivers/peripheral/gpio/cy_gpio.h ****                                                 GPIO_PRT_INTR_CFG_EDGE1_SEL_Msk | \
 263:Generated_Source\PSoC6\pdl\drivers/peripheral/gpio/cy_gpio.h ****                                                 GPIO_PRT_INTR_CFG_EDGE2_SEL_Msk | \
 264:Generated_Source\PSoC6\pdl\drivers/peripheral/gpio/cy_gpio.h ****                                                 GPIO_PRT_INTR_CFG_EDGE3_SEL_Msk | \
 265:Generated_Source\PSoC6\pdl\drivers/peripheral/gpio/cy_gpio.h ****                                                 GPIO_PRT_INTR_CFG_EDGE4_SEL_Msk | \
 266:Generated_Source\PSoC6\pdl\drivers/peripheral/gpio/cy_gpio.h ****                                                 GPIO_PRT_INTR_CFG_EDGE5_SEL_Msk | \
 267:Generated_Source\PSoC6\pdl\drivers/peripheral/gpio/cy_gpio.h ****                                                 GPIO_PRT_INTR_CFG_EDGE6_SEL_Msk | \
 268:Generated_Source\PSoC6\pdl\drivers/peripheral/gpio/cy_gpio.h ****                                                 GPIO_PRT_INTR_CFG_EDGE7_SEL_Msk)            
 269:Generated_Source\PSoC6\pdl\drivers/peripheral/gpio/cy_gpio.h **** #define CY_GPIO_PRT_INTR_CFG_RANGE_MASK        (CY_GPIO_PRT_INTR_CFG_EDGE_SEL_MASK | \
 270:Generated_Source\PSoC6\pdl\drivers/peripheral/gpio/cy_gpio.h ****                                                 GPIO_PRT_INTR_CFG_FLT_EDGE_SEL_Msk | \
 271:Generated_Source\PSoC6\pdl\drivers/peripheral/gpio/cy_gpio.h ****                                                 GPIO_PRT_INTR_CFG_FLT_SEL_Msk)
 272:Generated_Source\PSoC6\pdl\drivers/peripheral/gpio/cy_gpio.h **** #define CY_GPIO_PRT_INT_MASK_MASK              (0x0000001FFUL)
 273:Generated_Source\PSoC6\pdl\drivers/peripheral/gpio/cy_gpio.h **** #define CY_GPIO_PRT_SEL_ACTIVE_MASK            (0x1FFFFFFFUL)
 274:Generated_Source\PSoC6\pdl\drivers/peripheral/gpio/cy_gpio.h **** 
 275:Generated_Source\PSoC6\pdl\drivers/peripheral/gpio/cy_gpio.h **** /* Parameter validation macros */
 276:Generated_Source\PSoC6\pdl\drivers/peripheral/gpio/cy_gpio.h **** #define CY_GPIO_IS_PIN_VALID(pinNum)           (CY_GPIO_PINS_MAX > (pinNum))
 277:Generated_Source\PSoC6\pdl\drivers/peripheral/gpio/cy_gpio.h **** #define CY_GPIO_IS_FILTER_PIN_VALID(pinNum)    (CY_GPIO_PINS_MAX >= (pinNum))
 278:Generated_Source\PSoC6\pdl\drivers/peripheral/gpio/cy_gpio.h **** #define CY_GPIO_IS_VALUE_VALID(outVal)         (1UL >= (outVal))
 279:Generated_Source\PSoC6\pdl\drivers/peripheral/gpio/cy_gpio.h **** #define CY_GPIO_IS_DM_VALID(driveMode)         (0U == ((driveMode) & (uint32_t)~CY_GPIO_CFG_DM_MASK
 280:Generated_Source\PSoC6\pdl\drivers/peripheral/gpio/cy_gpio.h **** 
 281:Generated_Source\PSoC6\pdl\drivers/peripheral/gpio/cy_gpio.h **** #define CY_GPIO_IS_HSIOM_VALID(hsiom)          (0U == ((hsiom) & (uint32_t)~CY_GPIO_HSIOM_MASK))
 282:Generated_Source\PSoC6\pdl\drivers/peripheral/gpio/cy_gpio.h **** 
 283:Generated_Source\PSoC6\pdl\drivers/peripheral/gpio/cy_gpio.h **** #define CY_GPIO_IS_INT_EDGE_VALID(intEdge)     ((CY_GPIO_INTR_DISABLE  == (intEdge)) || \
 284:Generated_Source\PSoC6\pdl\drivers/peripheral/gpio/cy_gpio.h ****                                                 (CY_GPIO_INTR_RISING   == (intEdge)) || \
 285:Generated_Source\PSoC6\pdl\drivers/peripheral/gpio/cy_gpio.h ****                                                 (CY_GPIO_INTR_FALLING  == (intEdge)) || \
 286:Generated_Source\PSoC6\pdl\drivers/peripheral/gpio/cy_gpio.h ****                                                 (CY_GPIO_INTR_BOTH     == (intEdge)))
 287:Generated_Source\PSoC6\pdl\drivers/peripheral/gpio/cy_gpio.h **** 
 288:Generated_Source\PSoC6\pdl\drivers/peripheral/gpio/cy_gpio.h **** #define CY_GPIO_IS_DRIVE_SEL_VALID(driveSel)   ((CY_GPIO_DRIVE_FULL    == (driveSel)) || \
 289:Generated_Source\PSoC6\pdl\drivers/peripheral/gpio/cy_gpio.h ****                                                 (CY_GPIO_DRIVE_1_2     == (driveSel)) || \
 290:Generated_Source\PSoC6\pdl\drivers/peripheral/gpio/cy_gpio.h ****                                                 (CY_GPIO_DRIVE_1_4     == (driveSel)) || \
 291:Generated_Source\PSoC6\pdl\drivers/peripheral/gpio/cy_gpio.h ****                                                 (CY_GPIO_DRIVE_1_8     == (driveSel)))
 292:Generated_Source\PSoC6\pdl\drivers/peripheral/gpio/cy_gpio.h **** 
 293:Generated_Source\PSoC6\pdl\drivers/peripheral/gpio/cy_gpio.h **** #define CY_GPIO_IS_VREF_SEL_VALID(vrefSel)     ((CY_SIO_VREF_PINREF    == (vrefSel)) || \
 294:Generated_Source\PSoC6\pdl\drivers/peripheral/gpio/cy_gpio.h ****                                                 (CY_SIO_VREF_1_2V      == (vrefSel)) || \
 295:Generated_Source\PSoC6\pdl\drivers/peripheral/gpio/cy_gpio.h ****                                                 (CY_SIO_VREF_AMUX_A    == (vrefSel)) || \
 296:Generated_Source\PSoC6\pdl\drivers/peripheral/gpio/cy_gpio.h ****                                                 (CY_SIO_VREF_AMUX_B    == (vrefSel)))
 297:Generated_Source\PSoC6\pdl\drivers/peripheral/gpio/cy_gpio.h **** 
 298:Generated_Source\PSoC6\pdl\drivers/peripheral/gpio/cy_gpio.h **** #define CY_GPIO_IS_VOH_SEL_VALID(vrefSel)      ((CY_SIO_VOH_1_00       == (vrefSel)) || \
ARM GAS  C:\Users\codyg\AppData\Local\Temp\cc52IIus.s 			page 27


 299:Generated_Source\PSoC6\pdl\drivers/peripheral/gpio/cy_gpio.h ****                                                 (CY_SIO_VOH_1_25       == (vrefSel)) || \
 300:Generated_Source\PSoC6\pdl\drivers/peripheral/gpio/cy_gpio.h ****                                                 (CY_SIO_VOH_1_49       == (vrefSel)) || \
 301:Generated_Source\PSoC6\pdl\drivers/peripheral/gpio/cy_gpio.h ****                                                 (CY_SIO_VOH_1_67       == (vrefSel)) || \
 302:Generated_Source\PSoC6\pdl\drivers/peripheral/gpio/cy_gpio.h ****                                                 (CY_SIO_VOH_2_08       == (vrefSel)) || \
 303:Generated_Source\PSoC6\pdl\drivers/peripheral/gpio/cy_gpio.h ****                                                 (CY_SIO_VOH_2_50       == (vrefSel)) || \
 304:Generated_Source\PSoC6\pdl\drivers/peripheral/gpio/cy_gpio.h ****                                                 (CY_SIO_VOH_2_78       == (vrefSel)) || \
 305:Generated_Source\PSoC6\pdl\drivers/peripheral/gpio/cy_gpio.h ****                                                 (CY_SIO_VOH_4_16       == (vrefSel)))
 306:Generated_Source\PSoC6\pdl\drivers/peripheral/gpio/cy_gpio.h ****                    
 307:Generated_Source\PSoC6\pdl\drivers/peripheral/gpio/cy_gpio.h **** #define CY_GPIO_IS_PIN_BIT_VALID(pinBit)       (0U == ((pinBit) & (uint32_t)~CY_GPIO_PRT_PINS_MASK)
 308:Generated_Source\PSoC6\pdl\drivers/peripheral/gpio/cy_gpio.h **** #define CY_GPIO_IS_INTR_CFG_VALID(intrCfg)     (0U == ((intrCfg) & (uint32_t)~CY_GPIO_PRT_INTR_CFG_
 309:Generated_Source\PSoC6\pdl\drivers/peripheral/gpio/cy_gpio.h **** #define CY_GPIO_IS_INTR_MASK_VALID(intrMask)   (0U == ((intrMask) & (uint32_t)~CY_GPIO_PRT_INT_MASK
 310:Generated_Source\PSoC6\pdl\drivers/peripheral/gpio/cy_gpio.h **** #define CY_GPIO_IS_SEL_ACT_VALID(selActive)    (0U == ((selActive) & (uint32_t)~CY_GPIO_PRT_SEL_ACT
 311:Generated_Source\PSoC6\pdl\drivers/peripheral/gpio/cy_gpio.h **** 
 312:Generated_Source\PSoC6\pdl\drivers/peripheral/gpio/cy_gpio.h **** /** \endcond */
 313:Generated_Source\PSoC6\pdl\drivers/peripheral/gpio/cy_gpio.h **** 
 314:Generated_Source\PSoC6\pdl\drivers/peripheral/gpio/cy_gpio.h **** 
 315:Generated_Source\PSoC6\pdl\drivers/peripheral/gpio/cy_gpio.h **** /***************************************
 316:Generated_Source\PSoC6\pdl\drivers/peripheral/gpio/cy_gpio.h **** *        Function Constants
 317:Generated_Source\PSoC6\pdl\drivers/peripheral/gpio/cy_gpio.h **** ***************************************/
 318:Generated_Source\PSoC6\pdl\drivers/peripheral/gpio/cy_gpio.h **** 
 319:Generated_Source\PSoC6\pdl\drivers/peripheral/gpio/cy_gpio.h **** /**
 320:Generated_Source\PSoC6\pdl\drivers/peripheral/gpio/cy_gpio.h **** * \addtogroup group_gpio_macros
 321:Generated_Source\PSoC6\pdl\drivers/peripheral/gpio/cy_gpio.h **** * \{
 322:Generated_Source\PSoC6\pdl\drivers/peripheral/gpio/cy_gpio.h **** */
 323:Generated_Source\PSoC6\pdl\drivers/peripheral/gpio/cy_gpio.h **** 
 324:Generated_Source\PSoC6\pdl\drivers/peripheral/gpio/cy_gpio.h **** /**
 325:Generated_Source\PSoC6\pdl\drivers/peripheral/gpio/cy_gpio.h **** * \defgroup group_gpio_driveModes Pin drive mode
 326:Generated_Source\PSoC6\pdl\drivers/peripheral/gpio/cy_gpio.h **** * \{
 327:Generated_Source\PSoC6\pdl\drivers/peripheral/gpio/cy_gpio.h **** * Constants to be used for setting the drive mode of the pin.
 328:Generated_Source\PSoC6\pdl\drivers/peripheral/gpio/cy_gpio.h **** */
 329:Generated_Source\PSoC6\pdl\drivers/peripheral/gpio/cy_gpio.h **** #define CY_GPIO_DM_ANALOG                      (0x00UL) /**< \brief Analog High-Z. Input buffer off
 330:Generated_Source\PSoC6\pdl\drivers/peripheral/gpio/cy_gpio.h **** #define CY_GPIO_DM_PULLUP_IN_OFF               (0x02UL) /**< \brief Resistive Pull-Up. Input buffer
 331:Generated_Source\PSoC6\pdl\drivers/peripheral/gpio/cy_gpio.h **** #define CY_GPIO_DM_PULLDOWN_IN_OFF             (0x03UL) /**< \brief Resistive Pull-Down. Input buff
 332:Generated_Source\PSoC6\pdl\drivers/peripheral/gpio/cy_gpio.h **** #define CY_GPIO_DM_OD_DRIVESLOW_IN_OFF         (0x04UL) /**< \brief Open Drain, Drives Low. Input b
 333:Generated_Source\PSoC6\pdl\drivers/peripheral/gpio/cy_gpio.h **** #define CY_GPIO_DM_OD_DRIVESHIGH_IN_OFF        (0x05UL) /**< \brief Open Drain, Drives High. Input 
 334:Generated_Source\PSoC6\pdl\drivers/peripheral/gpio/cy_gpio.h **** #define CY_GPIO_DM_STRONG_IN_OFF               (0x06UL) /**< \brief Strong Drive. Input buffer off 
 335:Generated_Source\PSoC6\pdl\drivers/peripheral/gpio/cy_gpio.h **** #define CY_GPIO_DM_PULLUP_DOWN_IN_OFF          (0x07UL) /**< \brief Resistive Pull-Up/Down. Input b
 336:Generated_Source\PSoC6\pdl\drivers/peripheral/gpio/cy_gpio.h **** #define CY_GPIO_DM_HIGHZ                       (0x08UL) /**< \brief Digital High-Z. Input buffer on
 337:Generated_Source\PSoC6\pdl\drivers/peripheral/gpio/cy_gpio.h **** #define CY_GPIO_DM_PULLUP                      (0x0AUL) /**< \brief Resistive Pull-Up. Input buffer
 338:Generated_Source\PSoC6\pdl\drivers/peripheral/gpio/cy_gpio.h **** #define CY_GPIO_DM_PULLDOWN                    (0x0BUL) /**< \brief Resistive Pull-Down. Input buff
 339:Generated_Source\PSoC6\pdl\drivers/peripheral/gpio/cy_gpio.h **** #define CY_GPIO_DM_OD_DRIVESLOW                (0x0CUL) /**< \brief Open Drain, Drives Low. Input b
 340:Generated_Source\PSoC6\pdl\drivers/peripheral/gpio/cy_gpio.h **** #define CY_GPIO_DM_OD_DRIVESHIGH               (0x0DUL) /**< \brief Open Drain, Drives High. Input 
 341:Generated_Source\PSoC6\pdl\drivers/peripheral/gpio/cy_gpio.h **** #define CY_GPIO_DM_STRONG                      (0x0EUL) /**< \brief Strong Drive. Input buffer on *
 342:Generated_Source\PSoC6\pdl\drivers/peripheral/gpio/cy_gpio.h **** #define CY_GPIO_DM_PULLUP_DOWN                 (0x0FUL) /**< \brief Resistive Pull-Up/Down. Input b
 343:Generated_Source\PSoC6\pdl\drivers/peripheral/gpio/cy_gpio.h **** /** \} */
 344:Generated_Source\PSoC6\pdl\drivers/peripheral/gpio/cy_gpio.h **** 
 345:Generated_Source\PSoC6\pdl\drivers/peripheral/gpio/cy_gpio.h **** /**
 346:Generated_Source\PSoC6\pdl\drivers/peripheral/gpio/cy_gpio.h **** * \defgroup group_gpio_vtrip Voltage trip mode
 347:Generated_Source\PSoC6\pdl\drivers/peripheral/gpio/cy_gpio.h **** * \{
 348:Generated_Source\PSoC6\pdl\drivers/peripheral/gpio/cy_gpio.h **** * Constants to be used for setting the voltage trip type on the pin.
 349:Generated_Source\PSoC6\pdl\drivers/peripheral/gpio/cy_gpio.h **** */
 350:Generated_Source\PSoC6\pdl\drivers/peripheral/gpio/cy_gpio.h **** #define CY_GPIO_VTRIP_CMOS                     (0x00UL) /**< \brief Input buffer compatible with CM
 351:Generated_Source\PSoC6\pdl\drivers/peripheral/gpio/cy_gpio.h **** #define CY_GPIO_VTRIP_TTL                      (0x01UL) /**< \brief Input buffer compatible with TT
 352:Generated_Source\PSoC6\pdl\drivers/peripheral/gpio/cy_gpio.h **** /** \} */
 353:Generated_Source\PSoC6\pdl\drivers/peripheral/gpio/cy_gpio.h **** 
 354:Generated_Source\PSoC6\pdl\drivers/peripheral/gpio/cy_gpio.h **** /**
 355:Generated_Source\PSoC6\pdl\drivers/peripheral/gpio/cy_gpio.h **** * \defgroup group_gpio_slewRate Slew Rate Mode
ARM GAS  C:\Users\codyg\AppData\Local\Temp\cc52IIus.s 			page 28


 356:Generated_Source\PSoC6\pdl\drivers/peripheral/gpio/cy_gpio.h **** * \{
 357:Generated_Source\PSoC6\pdl\drivers/peripheral/gpio/cy_gpio.h **** * Constants to be used for setting the slew rate of the pin.
 358:Generated_Source\PSoC6\pdl\drivers/peripheral/gpio/cy_gpio.h **** */
 359:Generated_Source\PSoC6\pdl\drivers/peripheral/gpio/cy_gpio.h **** #define CY_GPIO_SLEW_FAST                      (0x00UL) /**< \brief Fast slew rate */
 360:Generated_Source\PSoC6\pdl\drivers/peripheral/gpio/cy_gpio.h **** #define CY_GPIO_SLEW_SLOW                      (0x01UL) /**< \brief Slow slew rate */
 361:Generated_Source\PSoC6\pdl\drivers/peripheral/gpio/cy_gpio.h **** /** \} */
 362:Generated_Source\PSoC6\pdl\drivers/peripheral/gpio/cy_gpio.h **** 
 363:Generated_Source\PSoC6\pdl\drivers/peripheral/gpio/cy_gpio.h **** /**
 364:Generated_Source\PSoC6\pdl\drivers/peripheral/gpio/cy_gpio.h **** * \defgroup group_gpio_driveStrength Pin drive strength
 365:Generated_Source\PSoC6\pdl\drivers/peripheral/gpio/cy_gpio.h **** * \{
 366:Generated_Source\PSoC6\pdl\drivers/peripheral/gpio/cy_gpio.h **** * Constants to be used for setting the drive strength of the pin.
 367:Generated_Source\PSoC6\pdl\drivers/peripheral/gpio/cy_gpio.h **** */
 368:Generated_Source\PSoC6\pdl\drivers/peripheral/gpio/cy_gpio.h **** #define CY_GPIO_DRIVE_FULL                     (0x00UL) /**< \brief Full drive strength: Max drive 
 369:Generated_Source\PSoC6\pdl\drivers/peripheral/gpio/cy_gpio.h **** #define CY_GPIO_DRIVE_1_2                      (0x01UL) /**< \brief 1/2 drive strength: 1/2 drive c
 370:Generated_Source\PSoC6\pdl\drivers/peripheral/gpio/cy_gpio.h **** #define CY_GPIO_DRIVE_1_4                      (0x02UL) /**< \brief 1/4 drive strength: 1/4 drive c
 371:Generated_Source\PSoC6\pdl\drivers/peripheral/gpio/cy_gpio.h **** #define CY_GPIO_DRIVE_1_8                      (0x03UL) /**< \brief 1/8 drive strength: 1/8 drive c
 372:Generated_Source\PSoC6\pdl\drivers/peripheral/gpio/cy_gpio.h **** /** \} */
 373:Generated_Source\PSoC6\pdl\drivers/peripheral/gpio/cy_gpio.h **** 
 374:Generated_Source\PSoC6\pdl\drivers/peripheral/gpio/cy_gpio.h **** /**
 375:Generated_Source\PSoC6\pdl\drivers/peripheral/gpio/cy_gpio.h **** * \defgroup group_gpio_interruptTrigger Interrupt trigger type
 376:Generated_Source\PSoC6\pdl\drivers/peripheral/gpio/cy_gpio.h **** * \{
 377:Generated_Source\PSoC6\pdl\drivers/peripheral/gpio/cy_gpio.h **** * Constants to be used for setting the interrupt trigger type on the pin.
 378:Generated_Source\PSoC6\pdl\drivers/peripheral/gpio/cy_gpio.h **** */
 379:Generated_Source\PSoC6\pdl\drivers/peripheral/gpio/cy_gpio.h **** #define CY_GPIO_INTR_DISABLE                   (0x00UL) /**< \brief Disable the pin interrupt gener
 380:Generated_Source\PSoC6\pdl\drivers/peripheral/gpio/cy_gpio.h **** #define CY_GPIO_INTR_RISING                    (0x01UL) /**< \brief Rising-Edge interrupt */
 381:Generated_Source\PSoC6\pdl\drivers/peripheral/gpio/cy_gpio.h **** #define CY_GPIO_INTR_FALLING                   (0x02UL) /**< \brief Falling-Edge interrupt */
 382:Generated_Source\PSoC6\pdl\drivers/peripheral/gpio/cy_gpio.h **** #define CY_GPIO_INTR_BOTH                      (0x03UL) /**< \brief Both-Edge interrupt */
 383:Generated_Source\PSoC6\pdl\drivers/peripheral/gpio/cy_gpio.h **** /** \} */
 384:Generated_Source\PSoC6\pdl\drivers/peripheral/gpio/cy_gpio.h **** 
 385:Generated_Source\PSoC6\pdl\drivers/peripheral/gpio/cy_gpio.h **** /**
 386:Generated_Source\PSoC6\pdl\drivers/peripheral/gpio/cy_gpio.h **** * \defgroup group_gpio_sioVreg SIO output buffer mode
 387:Generated_Source\PSoC6\pdl\drivers/peripheral/gpio/cy_gpio.h **** * \{
 388:Generated_Source\PSoC6\pdl\drivers/peripheral/gpio/cy_gpio.h **** * Constants to be used for setting the SIO output buffer mode on the pin.
 389:Generated_Source\PSoC6\pdl\drivers/peripheral/gpio/cy_gpio.h **** */
 390:Generated_Source\PSoC6\pdl\drivers/peripheral/gpio/cy_gpio.h **** #define CY_SIO_VREG_UNREGULATED                (0x00UL) /**< \brief Unregulated output buffer */
 391:Generated_Source\PSoC6\pdl\drivers/peripheral/gpio/cy_gpio.h **** #define CY_SIO_VREG_REGULATED                  (0x01UL) /**< \brief Regulated output buffer */
 392:Generated_Source\PSoC6\pdl\drivers/peripheral/gpio/cy_gpio.h **** /** \} */
 393:Generated_Source\PSoC6\pdl\drivers/peripheral/gpio/cy_gpio.h **** 
 394:Generated_Source\PSoC6\pdl\drivers/peripheral/gpio/cy_gpio.h **** /**
 395:Generated_Source\PSoC6\pdl\drivers/peripheral/gpio/cy_gpio.h **** * \defgroup group_gpio_sioIbuf SIO input buffer mode
 396:Generated_Source\PSoC6\pdl\drivers/peripheral/gpio/cy_gpio.h **** * \{
 397:Generated_Source\PSoC6\pdl\drivers/peripheral/gpio/cy_gpio.h **** * Constants to be used for setting the SIO input buffer mode on the pin.
 398:Generated_Source\PSoC6\pdl\drivers/peripheral/gpio/cy_gpio.h **** */
 399:Generated_Source\PSoC6\pdl\drivers/peripheral/gpio/cy_gpio.h **** #define CY_SIO_IBUF_SINGLEENDED                (0x00UL) /**< \brief Single ended input buffer */
 400:Generated_Source\PSoC6\pdl\drivers/peripheral/gpio/cy_gpio.h **** #define CY_SIO_IBUF_DIFFERENTIAL               (0x01UL) /**< \brief Differential input buffer */
 401:Generated_Source\PSoC6\pdl\drivers/peripheral/gpio/cy_gpio.h **** /** \} */
 402:Generated_Source\PSoC6\pdl\drivers/peripheral/gpio/cy_gpio.h **** 
 403:Generated_Source\PSoC6\pdl\drivers/peripheral/gpio/cy_gpio.h **** /**
 404:Generated_Source\PSoC6\pdl\drivers/peripheral/gpio/cy_gpio.h **** * \defgroup group_gpio_sioVtrip SIO input buffer trip-point
 405:Generated_Source\PSoC6\pdl\drivers/peripheral/gpio/cy_gpio.h **** * \{
 406:Generated_Source\PSoC6\pdl\drivers/peripheral/gpio/cy_gpio.h **** * Constants to be used for setting the SIO input buffer trip-point of the pin.
 407:Generated_Source\PSoC6\pdl\drivers/peripheral/gpio/cy_gpio.h **** */
 408:Generated_Source\PSoC6\pdl\drivers/peripheral/gpio/cy_gpio.h **** #define CY_SIO_VTRIP_CMOS                      (0x00UL) /**< \brief CMOS input buffer (single-ended
 409:Generated_Source\PSoC6\pdl\drivers/peripheral/gpio/cy_gpio.h **** #define CY_SIO_VTRIP_TTL                       (0x01UL) /**< \brief TTL input buffer (single-ended)
 410:Generated_Source\PSoC6\pdl\drivers/peripheral/gpio/cy_gpio.h **** #define CY_SIO_VTRIP_0_5VDDIO_0_5VOH           (0x00UL) /**< \brief 0.5xVddio or 0.5xVoh (different
 411:Generated_Source\PSoC6\pdl\drivers/peripheral/gpio/cy_gpio.h **** #define CY_SIO_VTRIP_0_4VDDIO_1_0VREF          (0x01UL) /**< \brief 0.4xVddio or 0.4xVoh (different
 412:Generated_Source\PSoC6\pdl\drivers/peripheral/gpio/cy_gpio.h **** /** \} */
ARM GAS  C:\Users\codyg\AppData\Local\Temp\cc52IIus.s 			page 29


 413:Generated_Source\PSoC6\pdl\drivers/peripheral/gpio/cy_gpio.h **** 
 414:Generated_Source\PSoC6\pdl\drivers/peripheral/gpio/cy_gpio.h **** /**
 415:Generated_Source\PSoC6\pdl\drivers/peripheral/gpio/cy_gpio.h **** * \defgroup group_gpio_sioVref SIO reference voltage for input buffer trip-point
 416:Generated_Source\PSoC6\pdl\drivers/peripheral/gpio/cy_gpio.h **** * \{
 417:Generated_Source\PSoC6\pdl\drivers/peripheral/gpio/cy_gpio.h **** * Constants to be used for setting the reference voltage of SIO input buffer trip-point.
 418:Generated_Source\PSoC6\pdl\drivers/peripheral/gpio/cy_gpio.h **** */
 419:Generated_Source\PSoC6\pdl\drivers/peripheral/gpio/cy_gpio.h **** #define CY_SIO_VREF_PINREF                     (0x00UL) /**< \brief Vref from analog pin */
 420:Generated_Source\PSoC6\pdl\drivers/peripheral/gpio/cy_gpio.h **** #define CY_SIO_VREF_1_2V                       (0x01UL) /**< \brief Vref from internal 1.2V referen
 421:Generated_Source\PSoC6\pdl\drivers/peripheral/gpio/cy_gpio.h **** #define CY_SIO_VREF_AMUX_A                     (0x02UL) /**< \brief Vref from AMUXBUS_A */
 422:Generated_Source\PSoC6\pdl\drivers/peripheral/gpio/cy_gpio.h **** #define CY_SIO_VREF_AMUX_B                     (0x03UL) /**< \brief Vref from AMUXBUS_B */
 423:Generated_Source\PSoC6\pdl\drivers/peripheral/gpio/cy_gpio.h **** /** \} */
 424:Generated_Source\PSoC6\pdl\drivers/peripheral/gpio/cy_gpio.h **** 
 425:Generated_Source\PSoC6\pdl\drivers/peripheral/gpio/cy_gpio.h **** /**
 426:Generated_Source\PSoC6\pdl\drivers/peripheral/gpio/cy_gpio.h **** * \defgroup group_gpio_sioVoh Regulated output voltage level (Voh) and input buffer trip-point of a
 427:Generated_Source\PSoC6\pdl\drivers/peripheral/gpio/cy_gpio.h **** * \{
 428:Generated_Source\PSoC6\pdl\drivers/peripheral/gpio/cy_gpio.h **** * Constants to be used for setting the Voh and input buffer trip-point of an SIO pair
 429:Generated_Source\PSoC6\pdl\drivers/peripheral/gpio/cy_gpio.h **** */
 430:Generated_Source\PSoC6\pdl\drivers/peripheral/gpio/cy_gpio.h **** #define CY_SIO_VOH_1_00                        (0x00UL) /**< \brief Voh = 1 x Reference */
 431:Generated_Source\PSoC6\pdl\drivers/peripheral/gpio/cy_gpio.h **** #define CY_SIO_VOH_1_25                        (0x01UL) /**< \brief Voh = 1.25 x Reference */
 432:Generated_Source\PSoC6\pdl\drivers/peripheral/gpio/cy_gpio.h **** #define CY_SIO_VOH_1_49                        (0x02UL) /**< \brief Voh = 1.49 x Reference */
 433:Generated_Source\PSoC6\pdl\drivers/peripheral/gpio/cy_gpio.h **** #define CY_SIO_VOH_1_67                        (0x03UL) /**< \brief Voh = 1.67 x Reference */
 434:Generated_Source\PSoC6\pdl\drivers/peripheral/gpio/cy_gpio.h **** #define CY_SIO_VOH_2_08                        (0x04UL) /**< \brief Voh = 2.08 x Reference */
 435:Generated_Source\PSoC6\pdl\drivers/peripheral/gpio/cy_gpio.h **** #define CY_SIO_VOH_2_50                        (0x05UL) /**< \brief Voh = 2.50 x Reference */
 436:Generated_Source\PSoC6\pdl\drivers/peripheral/gpio/cy_gpio.h **** #define CY_SIO_VOH_2_78                        (0x06UL) /**< \brief Voh = 2.78 x Reference */
 437:Generated_Source\PSoC6\pdl\drivers/peripheral/gpio/cy_gpio.h **** #define CY_SIO_VOH_4_16                        (0x07UL) /**< \brief Voh = 4.16 x Reference */
 438:Generated_Source\PSoC6\pdl\drivers/peripheral/gpio/cy_gpio.h **** /** \} */
 439:Generated_Source\PSoC6\pdl\drivers/peripheral/gpio/cy_gpio.h **** 
 440:Generated_Source\PSoC6\pdl\drivers/peripheral/gpio/cy_gpio.h **** /** \} group_gpio_macros */
 441:Generated_Source\PSoC6\pdl\drivers/peripheral/gpio/cy_gpio.h **** 
 442:Generated_Source\PSoC6\pdl\drivers/peripheral/gpio/cy_gpio.h **** /***************************************
 443:Generated_Source\PSoC6\pdl\drivers/peripheral/gpio/cy_gpio.h **** *        Function Prototypes
 444:Generated_Source\PSoC6\pdl\drivers/peripheral/gpio/cy_gpio.h **** ***************************************/
 445:Generated_Source\PSoC6\pdl\drivers/peripheral/gpio/cy_gpio.h **** 
 446:Generated_Source\PSoC6\pdl\drivers/peripheral/gpio/cy_gpio.h **** /**
 447:Generated_Source\PSoC6\pdl\drivers/peripheral/gpio/cy_gpio.h **** * \addtogroup group_gpio_functions
 448:Generated_Source\PSoC6\pdl\drivers/peripheral/gpio/cy_gpio.h **** * \{
 449:Generated_Source\PSoC6\pdl\drivers/peripheral/gpio/cy_gpio.h **** */
 450:Generated_Source\PSoC6\pdl\drivers/peripheral/gpio/cy_gpio.h **** 
 451:Generated_Source\PSoC6\pdl\drivers/peripheral/gpio/cy_gpio.h **** /**
 452:Generated_Source\PSoC6\pdl\drivers/peripheral/gpio/cy_gpio.h **** * \addtogroup group_gpio_functions_init
 453:Generated_Source\PSoC6\pdl\drivers/peripheral/gpio/cy_gpio.h **** * \{
 454:Generated_Source\PSoC6\pdl\drivers/peripheral/gpio/cy_gpio.h **** */
 455:Generated_Source\PSoC6\pdl\drivers/peripheral/gpio/cy_gpio.h **** 
 456:Generated_Source\PSoC6\pdl\drivers/peripheral/gpio/cy_gpio.h **** cy_en_gpio_status_t Cy_GPIO_Pin_Init(GPIO_PRT_Type* base, uint32_t pinNum, const cy_stc_gpio_pin_co
 457:Generated_Source\PSoC6\pdl\drivers/peripheral/gpio/cy_gpio.h **** cy_en_gpio_status_t Cy_GPIO_Port_Init(GPIO_PRT_Type* base, const cy_stc_gpio_prt_config_t *config);
 458:Generated_Source\PSoC6\pdl\drivers/peripheral/gpio/cy_gpio.h **** void Cy_GPIO_Pin_FastInit(GPIO_PRT_Type* base, uint32_t pinNum, uint32_t driveMode, uint32_t outVal
 459:Generated_Source\PSoC6\pdl\drivers/peripheral/gpio/cy_gpio.h **** void Cy_GPIO_Port_Deinit(GPIO_PRT_Type* base);
 460:Generated_Source\PSoC6\pdl\drivers/peripheral/gpio/cy_gpio.h **** __STATIC_INLINE void Cy_GPIO_SetHSIOM(GPIO_PRT_Type* base, uint32_t pinNum, en_hsiom_sel_t value);
 461:Generated_Source\PSoC6\pdl\drivers/peripheral/gpio/cy_gpio.h **** __STATIC_INLINE en_hsiom_sel_t Cy_GPIO_GetHSIOM(GPIO_PRT_Type* base, uint32_t pinNum);
 462:Generated_Source\PSoC6\pdl\drivers/peripheral/gpio/cy_gpio.h **** __STATIC_INLINE GPIO_PRT_Type* Cy_GPIO_PortToAddr(uint32_t portNum);
 463:Generated_Source\PSoC6\pdl\drivers/peripheral/gpio/cy_gpio.h **** 
 464:Generated_Source\PSoC6\pdl\drivers/peripheral/gpio/cy_gpio.h **** /** \} group_gpio_functions_init */
 465:Generated_Source\PSoC6\pdl\drivers/peripheral/gpio/cy_gpio.h **** 
 466:Generated_Source\PSoC6\pdl\drivers/peripheral/gpio/cy_gpio.h **** /**
 467:Generated_Source\PSoC6\pdl\drivers/peripheral/gpio/cy_gpio.h **** * \addtogroup group_gpio_functions_gpio
 468:Generated_Source\PSoC6\pdl\drivers/peripheral/gpio/cy_gpio.h **** * \{
 469:Generated_Source\PSoC6\pdl\drivers/peripheral/gpio/cy_gpio.h **** */
ARM GAS  C:\Users\codyg\AppData\Local\Temp\cc52IIus.s 			page 30


 470:Generated_Source\PSoC6\pdl\drivers/peripheral/gpio/cy_gpio.h **** 
 471:Generated_Source\PSoC6\pdl\drivers/peripheral/gpio/cy_gpio.h **** __STATIC_INLINE uint32_t Cy_GPIO_Read(GPIO_PRT_Type* base, uint32_t pinNum);
 472:Generated_Source\PSoC6\pdl\drivers/peripheral/gpio/cy_gpio.h **** __STATIC_INLINE void Cy_GPIO_Write(GPIO_PRT_Type* base, uint32_t pinNum, uint32_t value);
 473:Generated_Source\PSoC6\pdl\drivers/peripheral/gpio/cy_gpio.h **** __STATIC_INLINE uint32_t Cy_GPIO_ReadOut(GPIO_PRT_Type* base, uint32_t pinNum);
 474:Generated_Source\PSoC6\pdl\drivers/peripheral/gpio/cy_gpio.h **** __STATIC_INLINE void Cy_GPIO_Set(GPIO_PRT_Type* base, uint32_t pinNum);
 475:Generated_Source\PSoC6\pdl\drivers/peripheral/gpio/cy_gpio.h **** __STATIC_INLINE void Cy_GPIO_Clr(GPIO_PRT_Type* base, uint32_t pinNum);
 476:Generated_Source\PSoC6\pdl\drivers/peripheral/gpio/cy_gpio.h **** __STATIC_INLINE void Cy_GPIO_Inv(GPIO_PRT_Type* base, uint32_t pinNum);
 477:Generated_Source\PSoC6\pdl\drivers/peripheral/gpio/cy_gpio.h **** __STATIC_INLINE void Cy_GPIO_SetDrivemode(GPIO_PRT_Type* base, uint32_t pinNum, uint32_t value);
 478:Generated_Source\PSoC6\pdl\drivers/peripheral/gpio/cy_gpio.h **** __STATIC_INLINE uint32_t Cy_GPIO_GetDrivemode(GPIO_PRT_Type* base, uint32_t pinNum);
 479:Generated_Source\PSoC6\pdl\drivers/peripheral/gpio/cy_gpio.h **** __STATIC_INLINE void Cy_GPIO_SetVtrip(GPIO_PRT_Type* base, uint32_t pinNum, uint32_t value);
 480:Generated_Source\PSoC6\pdl\drivers/peripheral/gpio/cy_gpio.h **** __STATIC_INLINE uint32_t Cy_GPIO_GetVtrip(GPIO_PRT_Type* base, uint32_t pinNum);
 481:Generated_Source\PSoC6\pdl\drivers/peripheral/gpio/cy_gpio.h **** __STATIC_INLINE void Cy_GPIO_SetSlewRate(GPIO_PRT_Type* base, uint32_t pinNum, uint32_t value);
 482:Generated_Source\PSoC6\pdl\drivers/peripheral/gpio/cy_gpio.h **** __STATIC_INLINE uint32_t Cy_GPIO_GetSlewRate(GPIO_PRT_Type* base, uint32_t pinNum);
 483:Generated_Source\PSoC6\pdl\drivers/peripheral/gpio/cy_gpio.h **** __STATIC_INLINE void Cy_GPIO_SetDriveSel(GPIO_PRT_Type* base, uint32_t pinNum, uint32_t value);
 484:Generated_Source\PSoC6\pdl\drivers/peripheral/gpio/cy_gpio.h **** __STATIC_INLINE uint32_t Cy_GPIO_GetDriveSel(GPIO_PRT_Type* base, uint32_t pinNum);
 485:Generated_Source\PSoC6\pdl\drivers/peripheral/gpio/cy_gpio.h **** 
 486:Generated_Source\PSoC6\pdl\drivers/peripheral/gpio/cy_gpio.h **** /** \} group_gpio_functions_gpio */
 487:Generated_Source\PSoC6\pdl\drivers/peripheral/gpio/cy_gpio.h **** 
 488:Generated_Source\PSoC6\pdl\drivers/peripheral/gpio/cy_gpio.h **** /**
 489:Generated_Source\PSoC6\pdl\drivers/peripheral/gpio/cy_gpio.h **** * \addtogroup group_gpio_functions_sio
 490:Generated_Source\PSoC6\pdl\drivers/peripheral/gpio/cy_gpio.h **** * \{
 491:Generated_Source\PSoC6\pdl\drivers/peripheral/gpio/cy_gpio.h **** */
 492:Generated_Source\PSoC6\pdl\drivers/peripheral/gpio/cy_gpio.h **** 
 493:Generated_Source\PSoC6\pdl\drivers/peripheral/gpio/cy_gpio.h **** __STATIC_INLINE void Cy_GPIO_SetVregEn(GPIO_PRT_Type* base, uint32_t pinNum, uint32_t value);
 494:Generated_Source\PSoC6\pdl\drivers/peripheral/gpio/cy_gpio.h **** __STATIC_INLINE uint32_t Cy_GPIO_GetVregEn(GPIO_PRT_Type* base, uint32_t pinNum);
 495:Generated_Source\PSoC6\pdl\drivers/peripheral/gpio/cy_gpio.h **** __STATIC_INLINE void Cy_GPIO_SetIbufMode(GPIO_PRT_Type* base, uint32_t pinNum, uint32_t value);
 496:Generated_Source\PSoC6\pdl\drivers/peripheral/gpio/cy_gpio.h **** __STATIC_INLINE uint32_t Cy_GPIO_GetIbufMode(GPIO_PRT_Type* base, uint32_t pinNum);
 497:Generated_Source\PSoC6\pdl\drivers/peripheral/gpio/cy_gpio.h **** __STATIC_INLINE void Cy_GPIO_SetVtripSel(GPIO_PRT_Type* base, uint32_t pinNum, uint32_t value);
 498:Generated_Source\PSoC6\pdl\drivers/peripheral/gpio/cy_gpio.h **** __STATIC_INLINE uint32_t Cy_GPIO_GetVtripSel(GPIO_PRT_Type* base, uint32_t pinNum);
 499:Generated_Source\PSoC6\pdl\drivers/peripheral/gpio/cy_gpio.h **** __STATIC_INLINE void Cy_GPIO_SetVrefSel(GPIO_PRT_Type* base, uint32_t pinNum, uint32_t value);
 500:Generated_Source\PSoC6\pdl\drivers/peripheral/gpio/cy_gpio.h **** __STATIC_INLINE uint32_t Cy_GPIO_GetVrefSel(GPIO_PRT_Type* base, uint32_t pinNum);
 501:Generated_Source\PSoC6\pdl\drivers/peripheral/gpio/cy_gpio.h **** __STATIC_INLINE void Cy_GPIO_SetVohSel(GPIO_PRT_Type* base, uint32_t pinNum, uint32_t value);
 502:Generated_Source\PSoC6\pdl\drivers/peripheral/gpio/cy_gpio.h **** __STATIC_INLINE uint32_t Cy_GPIO_GetVohSel(GPIO_PRT_Type* base, uint32_t pinNum);
 503:Generated_Source\PSoC6\pdl\drivers/peripheral/gpio/cy_gpio.h **** 
 504:Generated_Source\PSoC6\pdl\drivers/peripheral/gpio/cy_gpio.h **** /** \} group_gpio_functions_sio */
 505:Generated_Source\PSoC6\pdl\drivers/peripheral/gpio/cy_gpio.h **** 
 506:Generated_Source\PSoC6\pdl\drivers/peripheral/gpio/cy_gpio.h **** /**
 507:Generated_Source\PSoC6\pdl\drivers/peripheral/gpio/cy_gpio.h **** * \addtogroup group_gpio_functions_interrupt
 508:Generated_Source\PSoC6\pdl\drivers/peripheral/gpio/cy_gpio.h **** * \{
 509:Generated_Source\PSoC6\pdl\drivers/peripheral/gpio/cy_gpio.h **** */
 510:Generated_Source\PSoC6\pdl\drivers/peripheral/gpio/cy_gpio.h **** 
 511:Generated_Source\PSoC6\pdl\drivers/peripheral/gpio/cy_gpio.h **** __STATIC_INLINE uint32_t Cy_GPIO_GetInterruptStatus(GPIO_PRT_Type* base, uint32_t pinNum);
 512:Generated_Source\PSoC6\pdl\drivers/peripheral/gpio/cy_gpio.h **** __STATIC_INLINE void Cy_GPIO_ClearInterrupt(GPIO_PRT_Type* base, uint32_t pinNum);
 513:Generated_Source\PSoC6\pdl\drivers/peripheral/gpio/cy_gpio.h **** __STATIC_INLINE void Cy_GPIO_SetInterruptMask(GPIO_PRT_Type* base, uint32_t pinNum, uint32_t value)
 514:Generated_Source\PSoC6\pdl\drivers/peripheral/gpio/cy_gpio.h **** __STATIC_INLINE uint32_t Cy_GPIO_GetInterruptMask(GPIO_PRT_Type* base, uint32_t pinNum);
 515:Generated_Source\PSoC6\pdl\drivers/peripheral/gpio/cy_gpio.h **** __STATIC_INLINE uint32_t Cy_GPIO_GetInterruptStatusMasked(GPIO_PRT_Type* base, uint32_t pinNum);
 516:Generated_Source\PSoC6\pdl\drivers/peripheral/gpio/cy_gpio.h **** __STATIC_INLINE void Cy_GPIO_SetSwInterrupt(GPIO_PRT_Type* base, uint32_t pinNum);
 517:Generated_Source\PSoC6\pdl\drivers/peripheral/gpio/cy_gpio.h **** __STATIC_INLINE void Cy_GPIO_SetInterruptEdge(GPIO_PRT_Type* base, uint32_t pinNum, uint32_t value)
 518:Generated_Source\PSoC6\pdl\drivers/peripheral/gpio/cy_gpio.h **** __STATIC_INLINE uint32_t Cy_GPIO_GetInterruptEdge(GPIO_PRT_Type* base, uint32_t pinNum);
 519:Generated_Source\PSoC6\pdl\drivers/peripheral/gpio/cy_gpio.h **** __STATIC_INLINE void Cy_GPIO_SetFilter(GPIO_PRT_Type* base, uint32_t value);
 520:Generated_Source\PSoC6\pdl\drivers/peripheral/gpio/cy_gpio.h **** __STATIC_INLINE uint32_t Cy_GPIO_GetFilter(GPIO_PRT_Type* base);
 521:Generated_Source\PSoC6\pdl\drivers/peripheral/gpio/cy_gpio.h **** 
 522:Generated_Source\PSoC6\pdl\drivers/peripheral/gpio/cy_gpio.h **** #if (IOSS_GPIO_GPIO_PORT_NR_0_31 != 0) || defined (CY_DOXYGEN)
 523:Generated_Source\PSoC6\pdl\drivers/peripheral/gpio/cy_gpio.h **** __STATIC_INLINE uint32_t Cy_GPIO_GetInterruptCause0(void);
 524:Generated_Source\PSoC6\pdl\drivers/peripheral/gpio/cy_gpio.h **** #endif /* (IOSS_GPIO_GPIO_PORT_NR_0_31 != 0) */
 525:Generated_Source\PSoC6\pdl\drivers/peripheral/gpio/cy_gpio.h **** 
 526:Generated_Source\PSoC6\pdl\drivers/peripheral/gpio/cy_gpio.h **** #if (IOSS_GPIO_GPIO_PORT_NR_32_63 != 0) || defined (CY_DOXYGEN)
ARM GAS  C:\Users\codyg\AppData\Local\Temp\cc52IIus.s 			page 31


 527:Generated_Source\PSoC6\pdl\drivers/peripheral/gpio/cy_gpio.h **** __STATIC_INLINE uint32_t Cy_GPIO_GetInterruptCause1(void);
 528:Generated_Source\PSoC6\pdl\drivers/peripheral/gpio/cy_gpio.h **** #endif /* (IOSS_GPIO_GPIO_PORT_NR_32_63 != 0) */
 529:Generated_Source\PSoC6\pdl\drivers/peripheral/gpio/cy_gpio.h **** 
 530:Generated_Source\PSoC6\pdl\drivers/peripheral/gpio/cy_gpio.h **** #if (IOSS_GPIO_GPIO_PORT_NR_64_95 != 0) || defined (CY_DOXYGEN)
 531:Generated_Source\PSoC6\pdl\drivers/peripheral/gpio/cy_gpio.h **** __STATIC_INLINE uint32_t Cy_GPIO_GetInterruptCause2(void);
 532:Generated_Source\PSoC6\pdl\drivers/peripheral/gpio/cy_gpio.h **** #endif /* (IOSS_GPIO_GPIO_PORT_NR_64_95 != 0) */
 533:Generated_Source\PSoC6\pdl\drivers/peripheral/gpio/cy_gpio.h **** 
 534:Generated_Source\PSoC6\pdl\drivers/peripheral/gpio/cy_gpio.h **** #if (IOSS_GPIO_GPIO_PORT_NR_96_127 != 0) || defined (CY_DOXYGEN)
 535:Generated_Source\PSoC6\pdl\drivers/peripheral/gpio/cy_gpio.h **** __STATIC_INLINE uint32_t Cy_GPIO_GetInterruptCause3(void);
 536:Generated_Source\PSoC6\pdl\drivers/peripheral/gpio/cy_gpio.h **** #endif /* (IOSS_GPIO_GPIO_PORT_NR_96_127 != 0) */
 537:Generated_Source\PSoC6\pdl\drivers/peripheral/gpio/cy_gpio.h **** 
 538:Generated_Source\PSoC6\pdl\drivers/peripheral/gpio/cy_gpio.h **** /** \} group_gpio_functions_interrupt */
 539:Generated_Source\PSoC6\pdl\drivers/peripheral/gpio/cy_gpio.h **** 
 540:Generated_Source\PSoC6\pdl\drivers/peripheral/gpio/cy_gpio.h **** 
 541:Generated_Source\PSoC6\pdl\drivers/peripheral/gpio/cy_gpio.h **** /**
 542:Generated_Source\PSoC6\pdl\drivers/peripheral/gpio/cy_gpio.h **** * \addtogroup group_gpio_functions_init
 543:Generated_Source\PSoC6\pdl\drivers/peripheral/gpio/cy_gpio.h **** * \{
 544:Generated_Source\PSoC6\pdl\drivers/peripheral/gpio/cy_gpio.h **** */
 545:Generated_Source\PSoC6\pdl\drivers/peripheral/gpio/cy_gpio.h **** 
 546:Generated_Source\PSoC6\pdl\drivers/peripheral/gpio/cy_gpio.h **** /*******************************************************************************
 547:Generated_Source\PSoC6\pdl\drivers/peripheral/gpio/cy_gpio.h **** * Function Name: Cy_GPIO_SetHSIOM
 548:Generated_Source\PSoC6\pdl\drivers/peripheral/gpio/cy_gpio.h **** ****************************************************************************//**
 549:Generated_Source\PSoC6\pdl\drivers/peripheral/gpio/cy_gpio.h **** *
 550:Generated_Source\PSoC6\pdl\drivers/peripheral/gpio/cy_gpio.h **** * \brief Configures the HSIOM connection to the pin.
 551:Generated_Source\PSoC6\pdl\drivers/peripheral/gpio/cy_gpio.h **** *
 552:Generated_Source\PSoC6\pdl\drivers/peripheral/gpio/cy_gpio.h **** * Connects the specified High-Speed Input Output Multiplexer (HSIOM) selection
 553:Generated_Source\PSoC6\pdl\drivers/peripheral/gpio/cy_gpio.h **** * to the pin.
 554:Generated_Source\PSoC6\pdl\drivers/peripheral/gpio/cy_gpio.h **** *
 555:Generated_Source\PSoC6\pdl\drivers/peripheral/gpio/cy_gpio.h **** * \param base
 556:Generated_Source\PSoC6\pdl\drivers/peripheral/gpio/cy_gpio.h **** * Pointer to the pin's port register base address
 557:Generated_Source\PSoC6\pdl\drivers/peripheral/gpio/cy_gpio.h **** *
 558:Generated_Source\PSoC6\pdl\drivers/peripheral/gpio/cy_gpio.h **** * \param pinNum
 559:Generated_Source\PSoC6\pdl\drivers/peripheral/gpio/cy_gpio.h **** * Position of the pin bit-field within the port register
 560:Generated_Source\PSoC6\pdl\drivers/peripheral/gpio/cy_gpio.h **** *
 561:Generated_Source\PSoC6\pdl\drivers/peripheral/gpio/cy_gpio.h **** * \param value
 562:Generated_Source\PSoC6\pdl\drivers/peripheral/gpio/cy_gpio.h **** * HSIOM input selection
 563:Generated_Source\PSoC6\pdl\drivers/peripheral/gpio/cy_gpio.h **** *
 564:Generated_Source\PSoC6\pdl\drivers/peripheral/gpio/cy_gpio.h **** * \return
 565:Generated_Source\PSoC6\pdl\drivers/peripheral/gpio/cy_gpio.h **** * void
 566:Generated_Source\PSoC6\pdl\drivers/peripheral/gpio/cy_gpio.h **** *
 567:Generated_Source\PSoC6\pdl\drivers/peripheral/gpio/cy_gpio.h **** * \note 
 568:Generated_Source\PSoC6\pdl\drivers/peripheral/gpio/cy_gpio.h **** * This function modifies a port register in a read-modify-write operation. It is
 569:Generated_Source\PSoC6\pdl\drivers/peripheral/gpio/cy_gpio.h **** * not thread safe as the resource is shared among multiple pins on a port.
 570:Generated_Source\PSoC6\pdl\drivers/peripheral/gpio/cy_gpio.h **** *
 571:Generated_Source\PSoC6\pdl\drivers/peripheral/gpio/cy_gpio.h **** * \funcusage
 572:Generated_Source\PSoC6\pdl\drivers/peripheral/gpio/cy_gpio.h **** * \snippet gpio/gpio_v1_10_sut_01.cydsn/main_cm4.c snippet_Cy_GPIO_SetHSIOM
 573:Generated_Source\PSoC6\pdl\drivers/peripheral/gpio/cy_gpio.h **** *
 574:Generated_Source\PSoC6\pdl\drivers/peripheral/gpio/cy_gpio.h **** *******************************************************************************/
 575:Generated_Source\PSoC6\pdl\drivers/peripheral/gpio/cy_gpio.h **** __STATIC_INLINE void Cy_GPIO_SetHSIOM(GPIO_PRT_Type* base, uint32_t pinNum, en_hsiom_sel_t value)
 576:Generated_Source\PSoC6\pdl\drivers/peripheral/gpio/cy_gpio.h **** {
 577:Generated_Source\PSoC6\pdl\drivers/peripheral/gpio/cy_gpio.h ****     uint32_t portNum;
 578:Generated_Source\PSoC6\pdl\drivers/peripheral/gpio/cy_gpio.h ****     uint32_t tempReg;
 579:Generated_Source\PSoC6\pdl\drivers/peripheral/gpio/cy_gpio.h ****     HSIOM_PRT_Type* portAddrHSIOM;
 580:Generated_Source\PSoC6\pdl\drivers/peripheral/gpio/cy_gpio.h **** 
 581:Generated_Source\PSoC6\pdl\drivers/peripheral/gpio/cy_gpio.h ****     CY_ASSERT_L2(CY_GPIO_IS_PIN_VALID(pinNum));
 582:Generated_Source\PSoC6\pdl\drivers/peripheral/gpio/cy_gpio.h ****     CY_ASSERT_L2(CY_GPIO_IS_HSIOM_VALID(value));
 583:Generated_Source\PSoC6\pdl\drivers/peripheral/gpio/cy_gpio.h **** 
ARM GAS  C:\Users\codyg\AppData\Local\Temp\cc52IIus.s 			page 32


 584:Generated_Source\PSoC6\pdl\drivers/peripheral/gpio/cy_gpio.h ****     portNum = ((uint32_t)(base) - GPIO_BASE) / GPIO_PRT_SECTION_SIZE;
 585:Generated_Source\PSoC6\pdl\drivers/peripheral/gpio/cy_gpio.h ****     portAddrHSIOM = (HSIOM_PRT_Type*)(HSIOM_BASE + (HSIOM_PRT_SECTION_SIZE * portNum));
 586:Generated_Source\PSoC6\pdl\drivers/peripheral/gpio/cy_gpio.h **** 
 587:Generated_Source\PSoC6\pdl\drivers/peripheral/gpio/cy_gpio.h ****     if(pinNum < CY_GPIO_PRT_HALF)
 588:Generated_Source\PSoC6\pdl\drivers/peripheral/gpio/cy_gpio.h ****     {
 589:Generated_Source\PSoC6\pdl\drivers/peripheral/gpio/cy_gpio.h ****         tempReg = portAddrHSIOM->PORT_SEL0 & ~(CY_GPIO_HSIOM_MASK << (pinNum << CY_GPIO_HSIOM_OFFSE
 590:Generated_Source\PSoC6\pdl\drivers/peripheral/gpio/cy_gpio.h ****         portAddrHSIOM->PORT_SEL0 = tempReg | ((value & CY_GPIO_HSIOM_MASK) << (pinNum << CY_GPIO_HS
 591:Generated_Source\PSoC6\pdl\drivers/peripheral/gpio/cy_gpio.h ****     }
 592:Generated_Source\PSoC6\pdl\drivers/peripheral/gpio/cy_gpio.h ****     else
 593:Generated_Source\PSoC6\pdl\drivers/peripheral/gpio/cy_gpio.h ****     {
 594:Generated_Source\PSoC6\pdl\drivers/peripheral/gpio/cy_gpio.h ****         pinNum -= CY_GPIO_PRT_HALF;
 595:Generated_Source\PSoC6\pdl\drivers/peripheral/gpio/cy_gpio.h ****         tempReg = portAddrHSIOM->PORT_SEL1 & ~(CY_GPIO_HSIOM_MASK << (pinNum << CY_GPIO_HSIOM_OFFSE
 596:Generated_Source\PSoC6\pdl\drivers/peripheral/gpio/cy_gpio.h ****         portAddrHSIOM->PORT_SEL1 = tempReg | ((value & CY_GPIO_HSIOM_MASK) << (pinNum << CY_GPIO_HS
 597:Generated_Source\PSoC6\pdl\drivers/peripheral/gpio/cy_gpio.h ****     }
 598:Generated_Source\PSoC6\pdl\drivers/peripheral/gpio/cy_gpio.h **** }
 599:Generated_Source\PSoC6\pdl\drivers/peripheral/gpio/cy_gpio.h **** 
 600:Generated_Source\PSoC6\pdl\drivers/peripheral/gpio/cy_gpio.h **** 
 601:Generated_Source\PSoC6\pdl\drivers/peripheral/gpio/cy_gpio.h **** /*******************************************************************************
 602:Generated_Source\PSoC6\pdl\drivers/peripheral/gpio/cy_gpio.h **** * Function Name: Cy_GPIO_GetHSIOM
 603:Generated_Source\PSoC6\pdl\drivers/peripheral/gpio/cy_gpio.h **** ****************************************************************************//**
 604:Generated_Source\PSoC6\pdl\drivers/peripheral/gpio/cy_gpio.h **** *
 605:Generated_Source\PSoC6\pdl\drivers/peripheral/gpio/cy_gpio.h **** * \brief Returns the current HSIOM multiplexer connection to the pin.
 606:Generated_Source\PSoC6\pdl\drivers/peripheral/gpio/cy_gpio.h **** *
 607:Generated_Source\PSoC6\pdl\drivers/peripheral/gpio/cy_gpio.h **** * \param base
 608:Generated_Source\PSoC6\pdl\drivers/peripheral/gpio/cy_gpio.h **** * Pointer to the pin's port register base address
 609:Generated_Source\PSoC6\pdl\drivers/peripheral/gpio/cy_gpio.h **** *
 610:Generated_Source\PSoC6\pdl\drivers/peripheral/gpio/cy_gpio.h **** * \param pinNum
 611:Generated_Source\PSoC6\pdl\drivers/peripheral/gpio/cy_gpio.h **** * Position of the pin bit-field within the port register
 612:Generated_Source\PSoC6\pdl\drivers/peripheral/gpio/cy_gpio.h **** *
 613:Generated_Source\PSoC6\pdl\drivers/peripheral/gpio/cy_gpio.h **** * \return
 614:Generated_Source\PSoC6\pdl\drivers/peripheral/gpio/cy_gpio.h **** * HSIOM input selection
 615:Generated_Source\PSoC6\pdl\drivers/peripheral/gpio/cy_gpio.h **** *
 616:Generated_Source\PSoC6\pdl\drivers/peripheral/gpio/cy_gpio.h **** * \funcusage
 617:Generated_Source\PSoC6\pdl\drivers/peripheral/gpio/cy_gpio.h **** * \snippet gpio/gpio_v1_10_sut_01.cydsn/main_cm4.c snippet_Cy_GPIO_SetHSIOM
 618:Generated_Source\PSoC6\pdl\drivers/peripheral/gpio/cy_gpio.h **** *
 619:Generated_Source\PSoC6\pdl\drivers/peripheral/gpio/cy_gpio.h **** *******************************************************************************/
 620:Generated_Source\PSoC6\pdl\drivers/peripheral/gpio/cy_gpio.h **** __STATIC_INLINE en_hsiom_sel_t Cy_GPIO_GetHSIOM(GPIO_PRT_Type* base, uint32_t pinNum)
 621:Generated_Source\PSoC6\pdl\drivers/peripheral/gpio/cy_gpio.h **** {
 622:Generated_Source\PSoC6\pdl\drivers/peripheral/gpio/cy_gpio.h ****     uint32_t returnValue;
 623:Generated_Source\PSoC6\pdl\drivers/peripheral/gpio/cy_gpio.h ****     uint32_t portNum;
 624:Generated_Source\PSoC6\pdl\drivers/peripheral/gpio/cy_gpio.h ****     HSIOM_PRT_Type* portAddrHSIOM;
 625:Generated_Source\PSoC6\pdl\drivers/peripheral/gpio/cy_gpio.h ****     
 626:Generated_Source\PSoC6\pdl\drivers/peripheral/gpio/cy_gpio.h ****     CY_ASSERT_L2(CY_GPIO_IS_PIN_VALID(pinNum));
 627:Generated_Source\PSoC6\pdl\drivers/peripheral/gpio/cy_gpio.h **** 
 628:Generated_Source\PSoC6\pdl\drivers/peripheral/gpio/cy_gpio.h ****     portNum = ((uint32_t)(base) - GPIO_BASE) / GPIO_PRT_SECTION_SIZE;
 629:Generated_Source\PSoC6\pdl\drivers/peripheral/gpio/cy_gpio.h ****     portAddrHSIOM = (HSIOM_PRT_Type*)(HSIOM_BASE + (HSIOM_PRT_SECTION_SIZE * portNum));
 630:Generated_Source\PSoC6\pdl\drivers/peripheral/gpio/cy_gpio.h **** 
 631:Generated_Source\PSoC6\pdl\drivers/peripheral/gpio/cy_gpio.h ****     if(pinNum < CY_GPIO_PRT_HALF)
 632:Generated_Source\PSoC6\pdl\drivers/peripheral/gpio/cy_gpio.h ****     {
 633:Generated_Source\PSoC6\pdl\drivers/peripheral/gpio/cy_gpio.h ****         returnValue = (portAddrHSIOM->PORT_SEL0 >> (pinNum << CY_GPIO_HSIOM_OFFSET)) & CY_GPIO_HSIO
 634:Generated_Source\PSoC6\pdl\drivers/peripheral/gpio/cy_gpio.h ****     }
 635:Generated_Source\PSoC6\pdl\drivers/peripheral/gpio/cy_gpio.h ****     else
 636:Generated_Source\PSoC6\pdl\drivers/peripheral/gpio/cy_gpio.h ****     {
 637:Generated_Source\PSoC6\pdl\drivers/peripheral/gpio/cy_gpio.h ****         pinNum -= CY_GPIO_PRT_HALF;
 638:Generated_Source\PSoC6\pdl\drivers/peripheral/gpio/cy_gpio.h ****         returnValue = (portAddrHSIOM->PORT_SEL1 >> (pinNum << CY_GPIO_HSIOM_OFFSET)) & CY_GPIO_HSIO
 639:Generated_Source\PSoC6\pdl\drivers/peripheral/gpio/cy_gpio.h ****     }
 640:Generated_Source\PSoC6\pdl\drivers/peripheral/gpio/cy_gpio.h **** 
ARM GAS  C:\Users\codyg\AppData\Local\Temp\cc52IIus.s 			page 33


 641:Generated_Source\PSoC6\pdl\drivers/peripheral/gpio/cy_gpio.h ****     return (en_hsiom_sel_t)returnValue;
 642:Generated_Source\PSoC6\pdl\drivers/peripheral/gpio/cy_gpio.h **** }
 643:Generated_Source\PSoC6\pdl\drivers/peripheral/gpio/cy_gpio.h **** 
 644:Generated_Source\PSoC6\pdl\drivers/peripheral/gpio/cy_gpio.h **** 
 645:Generated_Source\PSoC6\pdl\drivers/peripheral/gpio/cy_gpio.h **** /*******************************************************************************
 646:Generated_Source\PSoC6\pdl\drivers/peripheral/gpio/cy_gpio.h **** * Function Name: Cy_GPIO_PortToAddr
 647:Generated_Source\PSoC6\pdl\drivers/peripheral/gpio/cy_gpio.h **** ****************************************************************************//**
 648:Generated_Source\PSoC6\pdl\drivers/peripheral/gpio/cy_gpio.h **** *
 649:Generated_Source\PSoC6\pdl\drivers/peripheral/gpio/cy_gpio.h **** * \brief Retrieves the port address based on the given port number.
 650:Generated_Source\PSoC6\pdl\drivers/peripheral/gpio/cy_gpio.h **** *
 651:Generated_Source\PSoC6\pdl\drivers/peripheral/gpio/cy_gpio.h **** * This is a helper function to calculate the port base address when given a port
 652:Generated_Source\PSoC6\pdl\drivers/peripheral/gpio/cy_gpio.h **** * number. It is to be used when pin access needs to be calculated at runtime.
 653:Generated_Source\PSoC6\pdl\drivers/peripheral/gpio/cy_gpio.h **** *
 654:Generated_Source\PSoC6\pdl\drivers/peripheral/gpio/cy_gpio.h **** * \param portNum
 655:Generated_Source\PSoC6\pdl\drivers/peripheral/gpio/cy_gpio.h **** * Port number
 656:Generated_Source\PSoC6\pdl\drivers/peripheral/gpio/cy_gpio.h **** *
 657:Generated_Source\PSoC6\pdl\drivers/peripheral/gpio/cy_gpio.h **** * \return
 658:Generated_Source\PSoC6\pdl\drivers/peripheral/gpio/cy_gpio.h **** * Base address of the port register structure
 659:Generated_Source\PSoC6\pdl\drivers/peripheral/gpio/cy_gpio.h **** *
 660:Generated_Source\PSoC6\pdl\drivers/peripheral/gpio/cy_gpio.h **** * \funcusage
 661:Generated_Source\PSoC6\pdl\drivers/peripheral/gpio/cy_gpio.h **** * \snippet gpio/gpio_v1_10_sut_01.cydsn/main_cm4.c snippet_Cy_GPIO_PortToAddr
 662:Generated_Source\PSoC6\pdl\drivers/peripheral/gpio/cy_gpio.h **** *
 663:Generated_Source\PSoC6\pdl\drivers/peripheral/gpio/cy_gpio.h **** *******************************************************************************/
 664:Generated_Source\PSoC6\pdl\drivers/peripheral/gpio/cy_gpio.h **** __STATIC_INLINE GPIO_PRT_Type* Cy_GPIO_PortToAddr(uint32_t portNum)
 665:Generated_Source\PSoC6\pdl\drivers/peripheral/gpio/cy_gpio.h **** {
 666:Generated_Source\PSoC6\pdl\drivers/peripheral/gpio/cy_gpio.h ****     GPIO_PRT_Type* base;
 667:Generated_Source\PSoC6\pdl\drivers/peripheral/gpio/cy_gpio.h ****     
 668:Generated_Source\PSoC6\pdl\drivers/peripheral/gpio/cy_gpio.h ****     if(portNum < (uint32_t)IOSS_GPIO_GPIO_PORT_NR)
 669:Generated_Source\PSoC6\pdl\drivers/peripheral/gpio/cy_gpio.h ****     {
 670:Generated_Source\PSoC6\pdl\drivers/peripheral/gpio/cy_gpio.h ****          base = (GPIO_PRT_Type *)(GPIO_BASE + (GPIO_PRT_SECTION_SIZE * portNum));
 671:Generated_Source\PSoC6\pdl\drivers/peripheral/gpio/cy_gpio.h ****     }
 672:Generated_Source\PSoC6\pdl\drivers/peripheral/gpio/cy_gpio.h ****     else
 673:Generated_Source\PSoC6\pdl\drivers/peripheral/gpio/cy_gpio.h ****     {
 674:Generated_Source\PSoC6\pdl\drivers/peripheral/gpio/cy_gpio.h ****         /* Error: Return default base address */
 675:Generated_Source\PSoC6\pdl\drivers/peripheral/gpio/cy_gpio.h ****         base = (GPIO_PRT_Type *)(GPIO_BASE);
 676:Generated_Source\PSoC6\pdl\drivers/peripheral/gpio/cy_gpio.h ****     }
 677:Generated_Source\PSoC6\pdl\drivers/peripheral/gpio/cy_gpio.h **** 
 678:Generated_Source\PSoC6\pdl\drivers/peripheral/gpio/cy_gpio.h ****     return (base);
 679:Generated_Source\PSoC6\pdl\drivers/peripheral/gpio/cy_gpio.h **** }
 680:Generated_Source\PSoC6\pdl\drivers/peripheral/gpio/cy_gpio.h **** 
 681:Generated_Source\PSoC6\pdl\drivers/peripheral/gpio/cy_gpio.h **** /** \} group_gpio_functions_init */
 682:Generated_Source\PSoC6\pdl\drivers/peripheral/gpio/cy_gpio.h **** 
 683:Generated_Source\PSoC6\pdl\drivers/peripheral/gpio/cy_gpio.h **** /**
 684:Generated_Source\PSoC6\pdl\drivers/peripheral/gpio/cy_gpio.h **** * \addtogroup group_gpio_functions_gpio
 685:Generated_Source\PSoC6\pdl\drivers/peripheral/gpio/cy_gpio.h **** * \{
 686:Generated_Source\PSoC6\pdl\drivers/peripheral/gpio/cy_gpio.h **** */
 687:Generated_Source\PSoC6\pdl\drivers/peripheral/gpio/cy_gpio.h **** 
 688:Generated_Source\PSoC6\pdl\drivers/peripheral/gpio/cy_gpio.h **** /*******************************************************************************
 689:Generated_Source\PSoC6\pdl\drivers/peripheral/gpio/cy_gpio.h **** * Function Name: Cy_GPIO_Read
 690:Generated_Source\PSoC6\pdl\drivers/peripheral/gpio/cy_gpio.h **** ****************************************************************************//**
 691:Generated_Source\PSoC6\pdl\drivers/peripheral/gpio/cy_gpio.h **** *
 692:Generated_Source\PSoC6\pdl\drivers/peripheral/gpio/cy_gpio.h **** * \brief Reads the current logic level on the input buffer of the pin.
 693:Generated_Source\PSoC6\pdl\drivers/peripheral/gpio/cy_gpio.h **** *
 694:Generated_Source\PSoC6\pdl\drivers/peripheral/gpio/cy_gpio.h **** * \param base
 695:Generated_Source\PSoC6\pdl\drivers/peripheral/gpio/cy_gpio.h **** * Pointer to the pin's port register base address
 696:Generated_Source\PSoC6\pdl\drivers/peripheral/gpio/cy_gpio.h **** *
 697:Generated_Source\PSoC6\pdl\drivers/peripheral/gpio/cy_gpio.h **** * \param pinNum
ARM GAS  C:\Users\codyg\AppData\Local\Temp\cc52IIus.s 			page 34


 698:Generated_Source\PSoC6\pdl\drivers/peripheral/gpio/cy_gpio.h **** * Position of the pin bit-field within the port register.
 699:Generated_Source\PSoC6\pdl\drivers/peripheral/gpio/cy_gpio.h **** * Bit position 8 is the routed pin through the port glitch filter.
 700:Generated_Source\PSoC6\pdl\drivers/peripheral/gpio/cy_gpio.h **** *
 701:Generated_Source\PSoC6\pdl\drivers/peripheral/gpio/cy_gpio.h **** * \return
 702:Generated_Source\PSoC6\pdl\drivers/peripheral/gpio/cy_gpio.h **** * Logic level present on the pin
 703:Generated_Source\PSoC6\pdl\drivers/peripheral/gpio/cy_gpio.h **** *
 704:Generated_Source\PSoC6\pdl\drivers/peripheral/gpio/cy_gpio.h **** * \funcusage
 705:Generated_Source\PSoC6\pdl\drivers/peripheral/gpio/cy_gpio.h **** * \snippet gpio/gpio_v1_10_sut_01.cydsn/main_cm4.c snippet_Cy_GPIO_Read
 706:Generated_Source\PSoC6\pdl\drivers/peripheral/gpio/cy_gpio.h **** *
 707:Generated_Source\PSoC6\pdl\drivers/peripheral/gpio/cy_gpio.h **** *******************************************************************************/
 708:Generated_Source\PSoC6\pdl\drivers/peripheral/gpio/cy_gpio.h **** __STATIC_INLINE uint32_t Cy_GPIO_Read(GPIO_PRT_Type* base, uint32_t pinNum)
 709:Generated_Source\PSoC6\pdl\drivers/peripheral/gpio/cy_gpio.h **** {
 710:Generated_Source\PSoC6\pdl\drivers/peripheral/gpio/cy_gpio.h ****     CY_ASSERT_L2(CY_GPIO_IS_FILTER_PIN_VALID(pinNum));
 711:Generated_Source\PSoC6\pdl\drivers/peripheral/gpio/cy_gpio.h ****     
 712:Generated_Source\PSoC6\pdl\drivers/peripheral/gpio/cy_gpio.h ****     return (base->IN >> (pinNum)) & CY_GPIO_IN_MASK;
 713:Generated_Source\PSoC6\pdl\drivers/peripheral/gpio/cy_gpio.h **** }
 714:Generated_Source\PSoC6\pdl\drivers/peripheral/gpio/cy_gpio.h **** 
 715:Generated_Source\PSoC6\pdl\drivers/peripheral/gpio/cy_gpio.h **** 
 716:Generated_Source\PSoC6\pdl\drivers/peripheral/gpio/cy_gpio.h **** /*******************************************************************************
 717:Generated_Source\PSoC6\pdl\drivers/peripheral/gpio/cy_gpio.h **** * Function Name: Cy_GPIO_Write
 718:Generated_Source\PSoC6\pdl\drivers/peripheral/gpio/cy_gpio.h **** ****************************************************************************//**
 719:Generated_Source\PSoC6\pdl\drivers/peripheral/gpio/cy_gpio.h **** *
 720:Generated_Source\PSoC6\pdl\drivers/peripheral/gpio/cy_gpio.h **** * \brief Write a logic 0 or logic 1 state to the output driver.
 721:Generated_Source\PSoC6\pdl\drivers/peripheral/gpio/cy_gpio.h **** *
 722:Generated_Source\PSoC6\pdl\drivers/peripheral/gpio/cy_gpio.h **** * This function should be used only for software driven pins. It does not have
 723:Generated_Source\PSoC6\pdl\drivers/peripheral/gpio/cy_gpio.h **** * any effect on peripheral driven pins.
 724:Generated_Source\PSoC6\pdl\drivers/peripheral/gpio/cy_gpio.h **** *
 725:Generated_Source\PSoC6\pdl\drivers/peripheral/gpio/cy_gpio.h **** * \param base
 726:Generated_Source\PSoC6\pdl\drivers/peripheral/gpio/cy_gpio.h **** * Pointer to the pin's port register base address
 727:Generated_Source\PSoC6\pdl\drivers/peripheral/gpio/cy_gpio.h **** *
 728:Generated_Source\PSoC6\pdl\drivers/peripheral/gpio/cy_gpio.h **** * \param pinNum
 729:Generated_Source\PSoC6\pdl\drivers/peripheral/gpio/cy_gpio.h **** * Position of the pin bit-field within the port register
 730:Generated_Source\PSoC6\pdl\drivers/peripheral/gpio/cy_gpio.h **** *
 731:Generated_Source\PSoC6\pdl\drivers/peripheral/gpio/cy_gpio.h **** * \param value
 732:Generated_Source\PSoC6\pdl\drivers/peripheral/gpio/cy_gpio.h **** * Logic level to drive out on the pin
 733:Generated_Source\PSoC6\pdl\drivers/peripheral/gpio/cy_gpio.h **** *
 734:Generated_Source\PSoC6\pdl\drivers/peripheral/gpio/cy_gpio.h **** * \return
 735:Generated_Source\PSoC6\pdl\drivers/peripheral/gpio/cy_gpio.h **** * void
 736:Generated_Source\PSoC6\pdl\drivers/peripheral/gpio/cy_gpio.h **** *
 737:Generated_Source\PSoC6\pdl\drivers/peripheral/gpio/cy_gpio.h **** * \funcusage
 738:Generated_Source\PSoC6\pdl\drivers/peripheral/gpio/cy_gpio.h **** * \snippet gpio/gpio_v1_10_sut_01.cydsn/main_cm4.c snippet_Cy_GPIO_Write
 739:Generated_Source\PSoC6\pdl\drivers/peripheral/gpio/cy_gpio.h **** *
 740:Generated_Source\PSoC6\pdl\drivers/peripheral/gpio/cy_gpio.h **** *******************************************************************************/
 741:Generated_Source\PSoC6\pdl\drivers/peripheral/gpio/cy_gpio.h **** __STATIC_INLINE void Cy_GPIO_Write(GPIO_PRT_Type* base, uint32_t pinNum, uint32_t value)
 742:Generated_Source\PSoC6\pdl\drivers/peripheral/gpio/cy_gpio.h **** {
 743:Generated_Source\PSoC6\pdl\drivers/peripheral/gpio/cy_gpio.h ****     CY_ASSERT_L2(CY_GPIO_IS_PIN_VALID(pinNum));
 744:Generated_Source\PSoC6\pdl\drivers/peripheral/gpio/cy_gpio.h ****     CY_ASSERT_L2(CY_GPIO_IS_VALUE_VALID(value));
 745:Generated_Source\PSoC6\pdl\drivers/peripheral/gpio/cy_gpio.h **** 
 746:Generated_Source\PSoC6\pdl\drivers/peripheral/gpio/cy_gpio.h ****     /* Thread-safe: Directly access the pin registers instead of base->OUT */
 747:Generated_Source\PSoC6\pdl\drivers/peripheral/gpio/cy_gpio.h ****     if(0UL == value)
 748:Generated_Source\PSoC6\pdl\drivers/peripheral/gpio/cy_gpio.h ****     {
 749:Generated_Source\PSoC6\pdl\drivers/peripheral/gpio/cy_gpio.h ****         base->OUT_CLR = CY_GPIO_OUT_MASK << pinNum;
 750:Generated_Source\PSoC6\pdl\drivers/peripheral/gpio/cy_gpio.h ****     }
 751:Generated_Source\PSoC6\pdl\drivers/peripheral/gpio/cy_gpio.h ****     else
 752:Generated_Source\PSoC6\pdl\drivers/peripheral/gpio/cy_gpio.h ****     {
 753:Generated_Source\PSoC6\pdl\drivers/peripheral/gpio/cy_gpio.h ****         base->OUT_SET = CY_GPIO_OUT_MASK << pinNum;
 754:Generated_Source\PSoC6\pdl\drivers/peripheral/gpio/cy_gpio.h ****     }
ARM GAS  C:\Users\codyg\AppData\Local\Temp\cc52IIus.s 			page 35


 755:Generated_Source\PSoC6\pdl\drivers/peripheral/gpio/cy_gpio.h **** }
 756:Generated_Source\PSoC6\pdl\drivers/peripheral/gpio/cy_gpio.h **** 
 757:Generated_Source\PSoC6\pdl\drivers/peripheral/gpio/cy_gpio.h **** 
 758:Generated_Source\PSoC6\pdl\drivers/peripheral/gpio/cy_gpio.h **** /*******************************************************************************
 759:Generated_Source\PSoC6\pdl\drivers/peripheral/gpio/cy_gpio.h **** * Function Name: Cy_GPIO_ReadOut
 760:Generated_Source\PSoC6\pdl\drivers/peripheral/gpio/cy_gpio.h **** ****************************************************************************//**
 761:Generated_Source\PSoC6\pdl\drivers/peripheral/gpio/cy_gpio.h **** *
 762:Generated_Source\PSoC6\pdl\drivers/peripheral/gpio/cy_gpio.h **** * \brief Reads the current logic level on the pin output driver.
 763:Generated_Source\PSoC6\pdl\drivers/peripheral/gpio/cy_gpio.h **** *
 764:Generated_Source\PSoC6\pdl\drivers/peripheral/gpio/cy_gpio.h **** * \param base
 765:Generated_Source\PSoC6\pdl\drivers/peripheral/gpio/cy_gpio.h **** * Pointer to the pin's port register base address
 766:Generated_Source\PSoC6\pdl\drivers/peripheral/gpio/cy_gpio.h **** *
 767:Generated_Source\PSoC6\pdl\drivers/peripheral/gpio/cy_gpio.h **** * \param pinNum
 768:Generated_Source\PSoC6\pdl\drivers/peripheral/gpio/cy_gpio.h **** * Position of the pin bit-field within the port register
 769:Generated_Source\PSoC6\pdl\drivers/peripheral/gpio/cy_gpio.h **** *
 770:Generated_Source\PSoC6\pdl\drivers/peripheral/gpio/cy_gpio.h **** * \return
 771:Generated_Source\PSoC6\pdl\drivers/peripheral/gpio/cy_gpio.h **** * Logic level on the pin output driver
 772:Generated_Source\PSoC6\pdl\drivers/peripheral/gpio/cy_gpio.h **** *
 773:Generated_Source\PSoC6\pdl\drivers/peripheral/gpio/cy_gpio.h **** * \funcusage
 774:Generated_Source\PSoC6\pdl\drivers/peripheral/gpio/cy_gpio.h **** * \snippet gpio/gpio_v1_10_sut_01.cydsn/main_cm4.c snippet_Cy_GPIO_ReadOut
 775:Generated_Source\PSoC6\pdl\drivers/peripheral/gpio/cy_gpio.h **** *
 776:Generated_Source\PSoC6\pdl\drivers/peripheral/gpio/cy_gpio.h **** *******************************************************************************/
 777:Generated_Source\PSoC6\pdl\drivers/peripheral/gpio/cy_gpio.h **** __STATIC_INLINE uint32_t Cy_GPIO_ReadOut(GPIO_PRT_Type* base, uint32_t pinNum)
 778:Generated_Source\PSoC6\pdl\drivers/peripheral/gpio/cy_gpio.h **** {
 779:Generated_Source\PSoC6\pdl\drivers/peripheral/gpio/cy_gpio.h ****     CY_ASSERT_L2(CY_GPIO_IS_PIN_VALID(pinNum));
 780:Generated_Source\PSoC6\pdl\drivers/peripheral/gpio/cy_gpio.h **** 
 781:Generated_Source\PSoC6\pdl\drivers/peripheral/gpio/cy_gpio.h ****     return (base->OUT >> pinNum) & CY_GPIO_OUT_MASK;
 782:Generated_Source\PSoC6\pdl\drivers/peripheral/gpio/cy_gpio.h **** }
 783:Generated_Source\PSoC6\pdl\drivers/peripheral/gpio/cy_gpio.h **** 
 784:Generated_Source\PSoC6\pdl\drivers/peripheral/gpio/cy_gpio.h **** 
 785:Generated_Source\PSoC6\pdl\drivers/peripheral/gpio/cy_gpio.h **** /*******************************************************************************
 786:Generated_Source\PSoC6\pdl\drivers/peripheral/gpio/cy_gpio.h **** * Function Name: Cy_GPIO_Set
 787:Generated_Source\PSoC6\pdl\drivers/peripheral/gpio/cy_gpio.h **** ****************************************************************************//**
 788:Generated_Source\PSoC6\pdl\drivers/peripheral/gpio/cy_gpio.h **** *
 789:Generated_Source\PSoC6\pdl\drivers/peripheral/gpio/cy_gpio.h **** * \brief Set a pin output to logic state high.
 790:Generated_Source\PSoC6\pdl\drivers/peripheral/gpio/cy_gpio.h **** *
 791:Generated_Source\PSoC6\pdl\drivers/peripheral/gpio/cy_gpio.h **** * This function should be used only for software driven pins. It does not have
 792:Generated_Source\PSoC6\pdl\drivers/peripheral/gpio/cy_gpio.h **** * any effect on peripheral driven pins.
 793:Generated_Source\PSoC6\pdl\drivers/peripheral/gpio/cy_gpio.h **** *
 794:Generated_Source\PSoC6\pdl\drivers/peripheral/gpio/cy_gpio.h **** * \param base
 795:Generated_Source\PSoC6\pdl\drivers/peripheral/gpio/cy_gpio.h **** * Pointer to the pin's port register base address
 796:Generated_Source\PSoC6\pdl\drivers/peripheral/gpio/cy_gpio.h **** *
 797:Generated_Source\PSoC6\pdl\drivers/peripheral/gpio/cy_gpio.h **** * \param pinNum
 798:Generated_Source\PSoC6\pdl\drivers/peripheral/gpio/cy_gpio.h **** * Position of the pin bit-field within the port register
 799:Generated_Source\PSoC6\pdl\drivers/peripheral/gpio/cy_gpio.h **** *
 800:Generated_Source\PSoC6\pdl\drivers/peripheral/gpio/cy_gpio.h **** * \return
 801:Generated_Source\PSoC6\pdl\drivers/peripheral/gpio/cy_gpio.h **** * void
 802:Generated_Source\PSoC6\pdl\drivers/peripheral/gpio/cy_gpio.h **** *
 803:Generated_Source\PSoC6\pdl\drivers/peripheral/gpio/cy_gpio.h **** * \funcusage
 804:Generated_Source\PSoC6\pdl\drivers/peripheral/gpio/cy_gpio.h **** * \snippet gpio/gpio_v1_10_sut_01.cydsn/main_cm4.c snippet_Cy_GPIO_Set
 805:Generated_Source\PSoC6\pdl\drivers/peripheral/gpio/cy_gpio.h **** *
 806:Generated_Source\PSoC6\pdl\drivers/peripheral/gpio/cy_gpio.h **** *******************************************************************************/
 807:Generated_Source\PSoC6\pdl\drivers/peripheral/gpio/cy_gpio.h **** __STATIC_INLINE void Cy_GPIO_Set(GPIO_PRT_Type* base, uint32_t pinNum)
 808:Generated_Source\PSoC6\pdl\drivers/peripheral/gpio/cy_gpio.h **** {
 809:Generated_Source\PSoC6\pdl\drivers/peripheral/gpio/cy_gpio.h ****     CY_ASSERT_L2(CY_GPIO_IS_PIN_VALID(pinNum));
 810:Generated_Source\PSoC6\pdl\drivers/peripheral/gpio/cy_gpio.h ****     
 811:Generated_Source\PSoC6\pdl\drivers/peripheral/gpio/cy_gpio.h ****     base->OUT_SET = CY_GPIO_OUT_MASK << pinNum;
ARM GAS  C:\Users\codyg\AppData\Local\Temp\cc52IIus.s 			page 36


 812:Generated_Source\PSoC6\pdl\drivers/peripheral/gpio/cy_gpio.h **** }
 813:Generated_Source\PSoC6\pdl\drivers/peripheral/gpio/cy_gpio.h **** 
 814:Generated_Source\PSoC6\pdl\drivers/peripheral/gpio/cy_gpio.h **** 
 815:Generated_Source\PSoC6\pdl\drivers/peripheral/gpio/cy_gpio.h **** /*******************************************************************************
 816:Generated_Source\PSoC6\pdl\drivers/peripheral/gpio/cy_gpio.h **** * Function Name: Cy_GPIO_Clr
 817:Generated_Source\PSoC6\pdl\drivers/peripheral/gpio/cy_gpio.h **** ****************************************************************************//**
 818:Generated_Source\PSoC6\pdl\drivers/peripheral/gpio/cy_gpio.h **** *
 819:Generated_Source\PSoC6\pdl\drivers/peripheral/gpio/cy_gpio.h **** * \brief Set a pin output to logic state Low.
 820:Generated_Source\PSoC6\pdl\drivers/peripheral/gpio/cy_gpio.h **** *
 821:Generated_Source\PSoC6\pdl\drivers/peripheral/gpio/cy_gpio.h **** * This function should be used only for software driven pins. It does not have
 822:Generated_Source\PSoC6\pdl\drivers/peripheral/gpio/cy_gpio.h **** * any effect on peripheral driven pins.
 823:Generated_Source\PSoC6\pdl\drivers/peripheral/gpio/cy_gpio.h **** *
 824:Generated_Source\PSoC6\pdl\drivers/peripheral/gpio/cy_gpio.h **** * \param base
 825:Generated_Source\PSoC6\pdl\drivers/peripheral/gpio/cy_gpio.h **** * Pointer to the pin's port register base address
 826:Generated_Source\PSoC6\pdl\drivers/peripheral/gpio/cy_gpio.h **** *
 827:Generated_Source\PSoC6\pdl\drivers/peripheral/gpio/cy_gpio.h **** * \param pinNum
 828:Generated_Source\PSoC6\pdl\drivers/peripheral/gpio/cy_gpio.h **** * Position of the pin bit-field within the port register
 829:Generated_Source\PSoC6\pdl\drivers/peripheral/gpio/cy_gpio.h **** *
 830:Generated_Source\PSoC6\pdl\drivers/peripheral/gpio/cy_gpio.h **** * \return
 831:Generated_Source\PSoC6\pdl\drivers/peripheral/gpio/cy_gpio.h **** * void
 832:Generated_Source\PSoC6\pdl\drivers/peripheral/gpio/cy_gpio.h **** *
 833:Generated_Source\PSoC6\pdl\drivers/peripheral/gpio/cy_gpio.h **** * \funcusage
 834:Generated_Source\PSoC6\pdl\drivers/peripheral/gpio/cy_gpio.h **** * \snippet gpio/gpio_v1_10_sut_01.cydsn/main_cm4.c snippet_Cy_GPIO_Clr
 835:Generated_Source\PSoC6\pdl\drivers/peripheral/gpio/cy_gpio.h **** *
 836:Generated_Source\PSoC6\pdl\drivers/peripheral/gpio/cy_gpio.h **** *******************************************************************************/
 837:Generated_Source\PSoC6\pdl\drivers/peripheral/gpio/cy_gpio.h **** __STATIC_INLINE void Cy_GPIO_Clr(GPIO_PRT_Type* base, uint32_t pinNum)
 838:Generated_Source\PSoC6\pdl\drivers/peripheral/gpio/cy_gpio.h **** {
 839:Generated_Source\PSoC6\pdl\drivers/peripheral/gpio/cy_gpio.h ****     CY_ASSERT_L2(CY_GPIO_IS_PIN_VALID(pinNum));
 840:Generated_Source\PSoC6\pdl\drivers/peripheral/gpio/cy_gpio.h ****     
 841:Generated_Source\PSoC6\pdl\drivers/peripheral/gpio/cy_gpio.h ****     base->OUT_CLR = CY_GPIO_OUT_MASK << pinNum;
 536              		.loc 3 841 0
 537 0034 2022     		movs	r2, #32
 538 0036 644B     		ldr	r3, .L57+4
 539 0038 5A60     		str	r2, [r3, #4]
 540              	.LVL45:
 541              	.LBE65:
 542              	.LBE64:
 127:status_led_task.c ****                     orangeLedState = LED_TURN_ON;
 543              		.loc 1 127 0
 544 003a 4FF0FF30 		mov	r0, #-1
 545              	.LVL46:
 546 003e FFF7FEFF 		bl	StatusLedOrangeTimerUpdate
 547              	.LVL47:
 128:status_led_task.c ****                     break;
 548              		.loc 1 128 0
 549 0042 0122     		movs	r2, #1
 550 0044 614B     		ldr	r3, .L57+8
 551 0046 1A70     		strb	r2, [r3]
 129:status_led_task.c ****                 /* Turn OFF the LED */    
 552              		.loc 1 129 0
 553 0048 47E0     		b	.L38
 554              	.LVL48:
 555              	.L41:
 556              	.LBB66:
 557              	.LBB67:
 811:Generated_Source\PSoC6\pdl\drivers/peripheral/gpio/cy_gpio.h **** }
 558              		.loc 3 811 0
ARM GAS  C:\Users\codyg\AppData\Local\Temp\cc52IIus.s 			page 37


 559 004a 2022     		movs	r2, #32
 560 004c 5E4B     		ldr	r3, .L57+4
 561 004e 9A60     		str	r2, [r3, #8]
 562              	.LVL49:
 563              	.LBE67:
 564              	.LBE66:
 134:status_led_task.c ****                     orangeLedState = LED_TURN_OFF;
 565              		.loc 1 134 0
 566 0050 4FF0FF30 		mov	r0, #-1
 567              	.LVL50:
 568 0054 FFF7FEFF 		bl	StatusLedOrangeTimerUpdate
 569              	.LVL51:
 135:status_led_task.c ****                     break;
 570              		.loc 1 135 0
 571 0058 0222     		movs	r2, #2
 572 005a 5C4B     		ldr	r3, .L57+8
 573 005c 1A70     		strb	r2, [r3]
 136:status_led_task.c ****                 /* Continuously toggle the LED */
 574              		.loc 1 136 0
 575 005e 3CE0     		b	.L38
 576              	.LVL52:
 577              	.L42:
 140:status_led_task.c ****                     orangeLedState = LED_TOGGLE_EN;
 578              		.loc 1 140 0
 579 0060 4FF4FA70 		mov	r0, #500
 580              	.LVL53:
 581 0064 FFF7FEFF 		bl	StatusLedOrangeTimerUpdate
 582              	.LVL54:
 141:status_led_task.c ****                     break;
 583              		.loc 1 141 0
 584 0068 0322     		movs	r2, #3
 585 006a 584B     		ldr	r3, .L57+8
 586 006c 1A70     		strb	r2, [r3]
 142:status_led_task.c ****                 /* Blink the LED once */    
 587              		.loc 1 142 0
 588 006e 34E0     		b	.L38
 589              	.LVL55:
 590              	.L43:
 591              	.LBB68:
 592              	.LBB69:
 593              		.loc 3 841 0
 594 0070 2022     		movs	r2, #32
 595 0072 554B     		ldr	r3, .L57+4
 596 0074 5A60     		str	r2, [r3, #4]
 597              	.LVL56:
 598              	.LBE69:
 599              	.LBE68:
 147:status_led_task.c ****                     orangeLedState = LED_BLINK_ONCE;
 600              		.loc 1 147 0
 601 0076 4FF47A60 		mov	r0, #4000
 602              	.LVL57:
 603 007a FFF7FEFF 		bl	StatusLedOrangeTimerUpdate
 604              	.LVL58:
 148:status_led_task.c ****                     break;
 605              		.loc 1 148 0
 606 007e 0422     		movs	r2, #4
 607 0080 524B     		ldr	r3, .L57+8
ARM GAS  C:\Users\codyg\AppData\Local\Temp\cc52IIus.s 			page 38


 608 0082 1A70     		strb	r2, [r3]
 149:status_led_task.c ****                 /* Refresh the LED based on the current state */     
 609              		.loc 1 149 0
 610 0084 29E0     		b	.L38
 611              	.LVL59:
 612              	.L44:
 152:status_led_task.c ****                     {
 613              		.loc 1 152 0
 614 0086 514B     		ldr	r3, .L57+8
 615 0088 1B78     		ldrb	r3, [r3]	@ zero_extendqisi2
 616 008a 032B     		cmp	r3, #3
 617 008c 03D1     		bne	.L45
 618              	.LVL60:
 619              	.LBB70:
 620              	.LBB71:
 842:Generated_Source\PSoC6\pdl\drivers/peripheral/gpio/cy_gpio.h **** }
 843:Generated_Source\PSoC6\pdl\drivers/peripheral/gpio/cy_gpio.h **** 
 844:Generated_Source\PSoC6\pdl\drivers/peripheral/gpio/cy_gpio.h **** 
 845:Generated_Source\PSoC6\pdl\drivers/peripheral/gpio/cy_gpio.h **** /*******************************************************************************
 846:Generated_Source\PSoC6\pdl\drivers/peripheral/gpio/cy_gpio.h **** * Function Name: Cy_GPIO_Inv
 847:Generated_Source\PSoC6\pdl\drivers/peripheral/gpio/cy_gpio.h **** ****************************************************************************//**
 848:Generated_Source\PSoC6\pdl\drivers/peripheral/gpio/cy_gpio.h **** *
 849:Generated_Source\PSoC6\pdl\drivers/peripheral/gpio/cy_gpio.h **** * \brief Set a pin output logic state to the inverse of the current output
 850:Generated_Source\PSoC6\pdl\drivers/peripheral/gpio/cy_gpio.h **** * logic state.
 851:Generated_Source\PSoC6\pdl\drivers/peripheral/gpio/cy_gpio.h **** *
 852:Generated_Source\PSoC6\pdl\drivers/peripheral/gpio/cy_gpio.h **** * This function should be used only for software driven pins. It does not have
 853:Generated_Source\PSoC6\pdl\drivers/peripheral/gpio/cy_gpio.h **** * any effect on peripheral driven pins.
 854:Generated_Source\PSoC6\pdl\drivers/peripheral/gpio/cy_gpio.h **** *
 855:Generated_Source\PSoC6\pdl\drivers/peripheral/gpio/cy_gpio.h **** * \param base
 856:Generated_Source\PSoC6\pdl\drivers/peripheral/gpio/cy_gpio.h **** * Pointer to the pin's port register base address
 857:Generated_Source\PSoC6\pdl\drivers/peripheral/gpio/cy_gpio.h **** *
 858:Generated_Source\PSoC6\pdl\drivers/peripheral/gpio/cy_gpio.h **** * \param pinNum
 859:Generated_Source\PSoC6\pdl\drivers/peripheral/gpio/cy_gpio.h **** * Position of the pin bit-field within the port register
 860:Generated_Source\PSoC6\pdl\drivers/peripheral/gpio/cy_gpio.h **** *
 861:Generated_Source\PSoC6\pdl\drivers/peripheral/gpio/cy_gpio.h **** * \return
 862:Generated_Source\PSoC6\pdl\drivers/peripheral/gpio/cy_gpio.h **** * void
 863:Generated_Source\PSoC6\pdl\drivers/peripheral/gpio/cy_gpio.h **** *
 864:Generated_Source\PSoC6\pdl\drivers/peripheral/gpio/cy_gpio.h **** * \funcusage
 865:Generated_Source\PSoC6\pdl\drivers/peripheral/gpio/cy_gpio.h **** * \snippet gpio/gpio_v1_10_sut_01.cydsn/main_cm4.c snippet_Cy_GPIO_Inv
 866:Generated_Source\PSoC6\pdl\drivers/peripheral/gpio/cy_gpio.h **** *
 867:Generated_Source\PSoC6\pdl\drivers/peripheral/gpio/cy_gpio.h **** *******************************************************************************/
 868:Generated_Source\PSoC6\pdl\drivers/peripheral/gpio/cy_gpio.h **** __STATIC_INLINE void Cy_GPIO_Inv(GPIO_PRT_Type* base, uint32_t pinNum)
 869:Generated_Source\PSoC6\pdl\drivers/peripheral/gpio/cy_gpio.h **** {
 870:Generated_Source\PSoC6\pdl\drivers/peripheral/gpio/cy_gpio.h ****     CY_ASSERT_L2(CY_GPIO_IS_PIN_VALID(pinNum));
 871:Generated_Source\PSoC6\pdl\drivers/peripheral/gpio/cy_gpio.h ****     
 872:Generated_Source\PSoC6\pdl\drivers/peripheral/gpio/cy_gpio.h ****     base->OUT_INV = CY_GPIO_OUT_MASK << pinNum;
 621              		.loc 3 872 0
 622 008e 2022     		movs	r2, #32
 623 0090 4D4B     		ldr	r3, .L57+4
 624 0092 DA60     		str	r2, [r3, #12]
 625 0094 21E0     		b	.L38
 626              	.LVL61:
 627              	.L45:
 628              	.LBE71:
 629              	.LBE70:
 158:status_led_task.c ****                     {
 630              		.loc 1 158 0
ARM GAS  C:\Users\codyg\AppData\Local\Temp\cc52IIus.s 			page 39


 631 0096 042B     		cmp	r3, #4
 632 0098 0AD1     		bne	.L46
 633              	.LVL62:
 634              	.LBB72:
 635              	.LBB73:
 811:Generated_Source\PSoC6\pdl\drivers/peripheral/gpio/cy_gpio.h **** }
 636              		.loc 3 811 0
 637 009a 2022     		movs	r2, #32
 638 009c 4A4B     		ldr	r3, .L57+4
 639 009e 9A60     		str	r2, [r3, #8]
 640              	.LVL63:
 641              	.LBE73:
 642              	.LBE72:
 164:status_led_task.c ****                         orangeLedState = LED_TURN_OFF;
 643              		.loc 1 164 0
 644 00a0 4FF0FF30 		mov	r0, #-1
 645              	.LVL64:
 646 00a4 FFF7FEFF 		bl	StatusLedOrangeTimerUpdate
 647              	.LVL65:
 165:status_led_task.c ****                     }
 648              		.loc 1 165 0
 649 00a8 0222     		movs	r2, #2
 650 00aa 484B     		ldr	r3, .L57+8
 651 00ac 1A70     		strb	r2, [r3]
 652 00ae 14E0     		b	.L38
 653              	.LVL66:
 654              	.L46:
 655              	.LBB74:
 656              	.LBB75:
 144:uart_debug.h  **** 										.errorCode     = errCode};
 657              		.loc 2 144 0
 658 00b0 474B     		ldr	r3, .L57+12
 659 00b2 0193     		str	r3, [sp, #4]
 660 00b4 0022     		movs	r2, #0
 661 00b6 0292     		str	r2, [sp, #8]
 662              		.loc 2 146 0
 663 00b8 1346     		mov	r3, r2
 664 00ba 01A9     		add	r1, sp, #4
 665 00bc 4548     		ldr	r0, .L57+16
 666              	.LVL67:
 667 00be 0068     		ldr	r0, [r0]
 668 00c0 FFF7FEFF 		bl	xQueueGenericSend
 669              	.LVL68:
 670 00c4 09E0     		b	.L38
 671              	.LVL69:
 672              	.L37:
 673              	.LBE75:
 674              	.LBE74:
 675              	.LBB76:
 676              	.LBB77:
 144:uart_debug.h  **** 										.errorCode     = errCode};
 677              		.loc 2 144 0
 678 00c6 444A     		ldr	r2, .L57+20
 679 00c8 0192     		str	r2, [sp, #4]
 680 00ca 0293     		str	r3, [sp, #8]
 681              		.loc 2 146 0
 682 00cc 0023     		movs	r3, #0
ARM GAS  C:\Users\codyg\AppData\Local\Temp\cc52IIus.s 			page 40


 683              	.LVL70:
 684 00ce 1A46     		mov	r2, r3
 685 00d0 01A9     		add	r1, sp, #4
 686 00d2 4048     		ldr	r0, .L57+16
 687              	.LVL71:
 688 00d4 0068     		ldr	r0, [r0]
 689 00d6 FFF7FEFF 		bl	xQueueGenericSend
 690              	.LVL72:
 691              	.L38:
 692              	.LBE77:
 693              	.LBE76:
 183:status_led_task.c ****             {
 694              		.loc 1 183 0
 695 00da 9DF80C30 		ldrb	r3, [sp, #12]	@ zero_extendqisi2
 696 00de 052B     		cmp	r3, #5
 697 00e0 57D8     		bhi	.L47
 698 00e2 01A2     		adr	r2, .L48
 699 00e4 52F823F0 		ldr	pc, [r2, r3, lsl #2]
 700              		.p2align 2
 701              	.L48:
 702 00e8 0D000000 		.word	.L34+1
 703 00ec 01010000 		.word	.L49+1
 704 00f0 17010000 		.word	.L50+1
 705 00f4 2D010000 		.word	.L51+1
 706 00f8 3D010000 		.word	.L52+1
 707 00fc 53010000 		.word	.L53+1
 708              		.p2align 1
 709              	.L49:
 710              	.LVL73:
 711              	.LBB78:
 712              	.LBB79:
 841:Generated_Source\PSoC6\pdl\drivers/peripheral/gpio/cy_gpio.h **** }
 713              		.loc 3 841 0
 714 0100 8022     		movs	r2, #128
 715 0102 364B     		ldr	r3, .L57+24
 716 0104 5A60     		str	r2, [r3, #4]
 717              	.LVL74:
 718              	.LBE79:
 719              	.LBE78:
 192:status_led_task.c ****                     redLedState = LED_TURN_ON;
 720              		.loc 1 192 0
 721 0106 4FF0FF30 		mov	r0, #-1
 722 010a FFF7FEFF 		bl	StatusLedRedTimerUpdate
 723              	.LVL75:
 193:status_led_task.c ****                     break;
 724              		.loc 1 193 0
 725 010e 0122     		movs	r2, #1
 726 0110 2E4B     		ldr	r3, .L57+8
 727 0112 5A70     		strb	r2, [r3, #1]
 194:status_led_task.c ****                 /* Turn OFF the LED */        
 728              		.loc 1 194 0
 729 0114 7AE7     		b	.L34
 730              	.L50:
 731              	.LVL76:
 732              	.LBB80:
 733              	.LBB81:
 811:Generated_Source\PSoC6\pdl\drivers/peripheral/gpio/cy_gpio.h **** }
ARM GAS  C:\Users\codyg\AppData\Local\Temp\cc52IIus.s 			page 41


 734              		.loc 3 811 0
 735 0116 8022     		movs	r2, #128
 736 0118 304B     		ldr	r3, .L57+24
 737 011a 9A60     		str	r2, [r3, #8]
 738              	.LVL77:
 739              	.LBE81:
 740              	.LBE80:
 199:status_led_task.c ****                     redLedState = LED_TURN_OFF;
 741              		.loc 1 199 0
 742 011c 4FF0FF30 		mov	r0, #-1
 743 0120 FFF7FEFF 		bl	StatusLedRedTimerUpdate
 744              	.LVL78:
 200:status_led_task.c ****                     break;
 745              		.loc 1 200 0
 746 0124 0222     		movs	r2, #2
 747 0126 294B     		ldr	r3, .L57+8
 748 0128 5A70     		strb	r2, [r3, #1]
 201:status_led_task.c ****                 /* Continuously toggle the LED */
 749              		.loc 1 201 0
 750 012a 6FE7     		b	.L34
 751              	.L51:
 205:status_led_task.c ****                     redLedState = LED_TOGGLE_EN;
 752              		.loc 1 205 0
 753 012c 4FF4FA70 		mov	r0, #500
 754 0130 FFF7FEFF 		bl	StatusLedRedTimerUpdate
 755              	.LVL79:
 206:status_led_task.c ****                     break;
 756              		.loc 1 206 0
 757 0134 0322     		movs	r2, #3
 758 0136 254B     		ldr	r3, .L57+8
 759 0138 5A70     		strb	r2, [r3, #1]
 207:status_led_task.c ****                 /* Blink the LED once */        
 760              		.loc 1 207 0
 761 013a 67E7     		b	.L34
 762              	.L52:
 763              	.LVL80:
 764              	.LBB82:
 765              	.LBB83:
 841:Generated_Source\PSoC6\pdl\drivers/peripheral/gpio/cy_gpio.h **** }
 766              		.loc 3 841 0
 767 013c 8022     		movs	r2, #128
 768 013e 274B     		ldr	r3, .L57+24
 769 0140 5A60     		str	r2, [r3, #4]
 770              	.LVL81:
 771              	.LBE83:
 772              	.LBE82:
 212:status_led_task.c ****                     redLedState = LED_BLINK_ONCE;
 773              		.loc 1 212 0
 774 0142 4FF47A60 		mov	r0, #4000
 775 0146 FFF7FEFF 		bl	StatusLedRedTimerUpdate
 776              	.LVL82:
 213:status_led_task.c ****                     break;
 777              		.loc 1 213 0
 778 014a 0422     		movs	r2, #4
 779 014c 1F4B     		ldr	r3, .L57+8
 780 014e 5A70     		strb	r2, [r3, #1]
 214:status_led_task.c ****                 /* Refresh the LED based on the current state */         
ARM GAS  C:\Users\codyg\AppData\Local\Temp\cc52IIus.s 			page 42


 781              		.loc 1 214 0
 782 0150 5CE7     		b	.L34
 783              	.L53:
 217:status_led_task.c ****                     {
 784              		.loc 1 217 0
 785 0152 1E4B     		ldr	r3, .L57+8
 786 0154 5B78     		ldrb	r3, [r3, #1]	@ zero_extendqisi2
 787 0156 032B     		cmp	r3, #3
 788 0158 03D1     		bne	.L54
 789              	.LVL83:
 790              	.LBB84:
 791              	.LBB85:
 792              		.loc 3 872 0
 793 015a 8022     		movs	r2, #128
 794 015c 1F4B     		ldr	r3, .L57+24
 795 015e DA60     		str	r2, [r3, #12]
 796 0160 54E7     		b	.L34
 797              	.LVL84:
 798              	.L54:
 799              	.LBE85:
 800              	.LBE84:
 223:status_led_task.c ****                     {
 801              		.loc 1 223 0
 802 0162 042B     		cmp	r3, #4
 803 0164 0AD1     		bne	.L55
 804              	.LVL85:
 805              	.LBB86:
 806              	.LBB87:
 811:Generated_Source\PSoC6\pdl\drivers/peripheral/gpio/cy_gpio.h **** }
 807              		.loc 3 811 0
 808 0166 8022     		movs	r2, #128
 809 0168 1C4B     		ldr	r3, .L57+24
 810 016a 9A60     		str	r2, [r3, #8]
 811              	.LVL86:
 812              	.LBE87:
 813              	.LBE86:
 229:status_led_task.c ****                         redLedState = LED_TURN_OFF;
 814              		.loc 1 229 0
 815 016c 4FF0FF30 		mov	r0, #-1
 816 0170 FFF7FEFF 		bl	StatusLedRedTimerUpdate
 817              	.LVL87:
 230:status_led_task.c ****                     }
 818              		.loc 1 230 0
 819 0174 0222     		movs	r2, #2
 820 0176 154B     		ldr	r3, .L57+8
 821 0178 5A70     		strb	r2, [r3, #1]
 822 017a 47E7     		b	.L34
 823              	.L55:
 824              	.LVL88:
 825              	.LBB88:
 826              	.LBB89:
 144:uart_debug.h  **** 										.errorCode     = errCode};
 827              		.loc 2 144 0
 828 017c 184B     		ldr	r3, .L57+28
 829 017e 0193     		str	r3, [sp, #4]
 830 0180 0022     		movs	r2, #0
 831 0182 0292     		str	r2, [sp, #8]
ARM GAS  C:\Users\codyg\AppData\Local\Temp\cc52IIus.s 			page 43


 832              		.loc 2 146 0
 833 0184 1346     		mov	r3, r2
 834 0186 01A9     		add	r1, sp, #4
 835 0188 1248     		ldr	r0, .L57+16
 836 018a 0068     		ldr	r0, [r0]
 837 018c FFF7FEFF 		bl	xQueueGenericSend
 838              	.LVL89:
 839 0190 3CE7     		b	.L34
 840              	.LVL90:
 841              	.L47:
 842              	.LBE89:
 843              	.LBE88:
 241:status_led_task.c ****                                      "for Red LED received. Error Code:",
 844              		.loc 1 241 0
 845 0192 9DF80D30 		ldrb	r3, [sp, #13]	@ zero_extendqisi2
 846              	.LVL91:
 847              	.LBB90:
 848              	.LBB91:
 144:uart_debug.h  **** 										.errorCode     = errCode};
 849              		.loc 2 144 0
 850 0196 134A     		ldr	r2, .L57+32
 851 0198 0192     		str	r2, [sp, #4]
 852 019a 0293     		str	r3, [sp, #8]
 853              		.loc 2 146 0
 854 019c 0023     		movs	r3, #0
 855              	.LVL92:
 856 019e 1A46     		mov	r2, r3
 857 01a0 01A9     		add	r1, sp, #4
 858 01a2 0C48     		ldr	r0, .L57+16
 859 01a4 0068     		ldr	r0, [r0]
 860 01a6 FFF7FEFF 		bl	xQueueGenericSend
 861              	.LVL93:
 862 01aa 2FE7     		b	.L34
 863              	.LVL94:
 864              	.L36:
 865              	.LBE91:
 866              	.LBE90:
 867              	.LBB92:
 868              	.LBB93:
 144:uart_debug.h  **** 										.errorCode     = errCode};
 869              		.loc 2 144 0
 870 01ac 0E4B     		ldr	r3, .L57+36
 871 01ae 0193     		str	r3, [sp, #4]
 872 01b0 0022     		movs	r2, #0
 873 01b2 0292     		str	r2, [sp, #8]
 874              		.loc 2 146 0
 875 01b4 1346     		mov	r3, r2
 876 01b6 01A9     		add	r1, sp, #4
 877 01b8 0648     		ldr	r0, .L57+16
 878              	.LVL95:
 879 01ba 0068     		ldr	r0, [r0]
 880 01bc FFF7FEFF 		bl	xQueueGenericSend
 881              	.LVL96:
 882 01c0 24E7     		b	.L34
 883              	.L58:
 884 01c2 00BF     		.align	2
 885              	.L57:
ARM GAS  C:\Users\codyg\AppData\Local\Temp\cc52IIus.s 			page 44


 886 01c4 00000000 		.word	statusLedDataQ
 887 01c8 80003240 		.word	1077018752
 888 01cc 00000000 		.word	.LANCHOR0
 889 01d0 A8010000 		.word	.LC9
 890 01d4 00000000 		.word	debugMessageQ
 891 01d8 F0010000 		.word	.LC10
 892 01dc 80063240 		.word	1077020288
 893 01e0 3C020000 		.word	.LC11
 894 01e4 88020000 		.word	.LC12
 895 01e8 D4020000 		.word	.LC13
 896              	.LBE93:
 897              	.LBE92:
 898              		.cfi_endproc
 899              	.LFE714:
 900              		.size	Task_StatusLed, .-Task_StatusLed
 901              		.comm	xTimer_StatusLedOrange,4,4
 902              		.comm	xTimer_StatusLedRed,4,4
 903              		.comm	statusLedDataQ,4,4
 904              		.data
 905              		.set	.LANCHOR0,. + 0
 906              		.type	orangeLedState.20235, %object
 907              		.size	orangeLedState.20235, 1
 908              	orangeLedState.20235:
 909 0000 02       		.byte	2
 910              		.type	redLedState.20234, %object
 911              		.size	redLedState.20234, 1
 912              	redLedState.20234:
 913 0001 02       		.byte	2
 914              		.section	.rodata.str1.4,"aMS",%progbits,1
 915              		.align	2
 916              	.LC0:
 917 0000 52656420 		.ascii	"Red Status LED Timer\000"
 917      53746174 
 917      7573204C 
 917      45442054 
 917      696D6572 
 918 0015 000000   		.space	3
 919              	.LC1:
 920 0018 4661696C 		.ascii	"Failure! : Status LED  - Red LED Timer initializati"
 920      75726521 
 920      203A2053 
 920      74617475 
 920      73204C45 
 921 004b 6F6E00   		.ascii	"on\000"
 922 004e 0000     		.space	2
 923              	.LC2:
 924 0050 4661696C 		.ascii	"Failure! : Status LED  - Red LED Timer creation\000"
 924      75726521 
 924      203A2053 
 924      74617475 
 924      73204C45 
 925              	.LC3:
 926 0080 4661696C 		.ascii	"Failure! : Status LED - Sending data to Status LED "
 926      75726521 
 926      203A2053 
 926      74617475 
 926      73204C45 
ARM GAS  C:\Users\codyg\AppData\Local\Temp\cc52IIus.s 			page 45


 927 00b3 71756575 		.ascii	"queue\000"
 927      6500
 928 00b9 000000   		.space	3
 929              	.LC4:
 930 00bc 4F72616E 		.ascii	"Orange Status LED Timer\000"
 930      67652053 
 930      74617475 
 930      73204C45 
 930      44205469 
 931              	.LC5:
 932 00d4 4661696C 		.ascii	"Failure! : Status LED  - Orange LED Timer initializ"
 932      75726521 
 932      203A2053 
 932      74617475 
 932      73204C45 
 933 0107 6174696F 		.ascii	"ation\000"
 933      6E00
 934 010d 000000   		.space	3
 935              	.LC6:
 936 0110 4661696C 		.ascii	"Failure! : Status LED  - Orange LED Timer creation\000"
 936      75726521 
 936      203A2053 
 936      74617475 
 936      73204C45 
 937 0143 00       		.space	1
 938              	.LC7:
 939 0144 4661696C 		.ascii	"Failure! : Status LED - Orange LED Timer update \000"
 939      75726521 
 939      203A2053 
 939      74617475 
 939      73204C45 
 940 0175 000000   		.space	3
 941              	.LC8:
 942 0178 4661696C 		.ascii	"Failure! : Status LED - Red LED Timer update \000"
 942      75726521 
 942      203A2053 
 942      74617475 
 942      73204C45 
 943 01a6 0000     		.space	2
 944              	.LC9:
 945 01a8 4572726F 		.ascii	"Error!   : Status LED - refresh command for Red LED"
 945      72212020 
 945      203A2053 
 945      74617475 
 945      73204C45 
 946 01db 20647572 		.ascii	" during invalidstate\000"
 946      696E6720 
 946      696E7661 
 946      6C696473 
 946      74617465 
 947              	.LC10:
 948 01f0 4572726F 		.ascii	"Error!   : Status LED - Invalid  command for Red LE"
 948      72212020 
 948      203A2053 
 948      74617475 
 948      73204C45 
 949 0223 44207265 		.ascii	"D received. Error Code:\000"
ARM GAS  C:\Users\codyg\AppData\Local\Temp\cc52IIus.s 			page 46


 949      63656976 
 949      65642E20 
 949      4572726F 
 949      7220436F 
 950 023b 00       		.space	1
 951              	.LC11:
 952 023c 4572726F 		.ascii	"Error!   : Status LED - refresh command for Orange "
 952      72212020 
 952      203A2053 
 952      74617475 
 952      73204C45 
 953 026f 4C454420 		.ascii	"LED duringinvalid state\000"
 953      64757269 
 953      6E67696E 
 953      76616C69 
 953      64207374 
 954 0287 00       		.space	1
 955              	.LC12:
 956 0288 4572726F 		.ascii	"Error!   : Status LED - Invalid commandfor Red LED "
 956      72212020 
 956      203A2053 
 956      74617475 
 956      73204C45 
 957 02bb 72656365 		.ascii	"received. Error Code:\000"
 957      69766564 
 957      2E204572 
 957      726F7220 
 957      436F6465 
 958 02d1 000000   		.space	3
 959              	.LC13:
 960 02d4 5761726E 		.ascii	"Warning! : Status LED - Task Timed out \000"
 960      696E6721 
 960      203A2053 
 960      74617475 
 960      73204C45 
 961              		.text
 962              	.Letext0:
 963              		.file 4 "c:\\program files (x86)\\cypress\\psoc creator\\4.2\\psoc creator\\import\\gnu\\arm\\5.4.
 964              		.file 5 "c:\\program files (x86)\\cypress\\psoc creator\\4.2\\psoc creator\\import\\gnu\\arm\\5.4.
 965              		.file 6 "Generated_Source\\PSoC6\\pdl\\devices/psoc6/ip/cyip_gpio.h"
 966              		.file 7 "Generated_Source\\PSoC6\\pdl\\drivers/peripheral/syslib/cy_syslib.h"
 967              		.file 8 "Generated_Source\\PSoC6\\pdl\\drivers/peripheral/rtc/cy_rtc.h"
 968              		.file 9 "Generated_Source\\PSoC6\\pdl\\drivers/peripheral/tcpwm/cy_tcpwm_counter.h"
 969              		.file 10 "Generated_Source\\PSoC6\\pdl\\drivers/peripheral/scb/cy_scb_spi.h"
 970              		.file 11 "Generated_Source\\PSoC6\\pdl\\drivers/peripheral/scb/cy_scb_uart.h"
 971              		.file 12 "Generated_Source\\PSoC6\\pdl\\drivers/peripheral/sar/cy_sar.h"
 972              		.file 13 "Generated_Source\\PSoC6\\pdl\\middleware/ble/cy_ble_stack.h"
 973              		.file 14 "Generated_Source\\PSoC6\\pdl\\middleware/ble/cy_ble_stack_host_main.h"
 974              		.file 15 "Generated_Source\\PSoC6\\pdl\\middleware/ble/cy_ble_gap.h"
 975              		.file 16 "Generated_Source\\PSoC6\\pdl\\middleware/ble/cy_ble_dis.h"
 976              		.file 17 "Generated_Source\\PSoC6\\pdl\\middleware/ble/cy_ble_hts.h"
 977              		.file 18 "Generated_Source\\PSoC6\\pdl\\middleware/ble/cy_ble_event_handler.h"
 978              		.file 19 "Generated_Source\\PSoC6/ADC.h"
 979              		.file 20 "Generated_Source\\PSoC6\\pdl\\rtos/FreeRTOS/9.0.0/Source/portable/GCC/CM4F/portmacro.h"
 980              		.file 21 "Generated_Source\\PSoC6\\pdl\\rtos/FreeRTOS/9.0.0/Source/include/queue.h"
 981              		.file 22 "status_led_task.h"
 982              		.file 23 "Generated_Source\\PSoC6\\pdl\\rtos/FreeRTOS/9.0.0/Source/include/timers.h"
ARM GAS  C:\Users\codyg\AppData\Local\Temp\cc52IIus.s 			page 47


 983              		.file 24 "Generated_Source\\PSoC6\\pdl\\cmsis/include/core_cm4.h"
 984              		.file 25 "Generated_Source\\PSoC6/CY_EINK_SPIM.h"
 985              		.file 26 "Generated_Source\\PSoC6/DEBUG_UART.h"
 986              		.file 27 "Generated_Source\\PSoC6/Counter_ms.h"
 987              		.file 28 "Generated_Source\\PSoC6/Timer_PPG.h"
 988              		.file 29 "Generated_Source\\PSoC6/Timer_IMU.h"
 989              		.file 30 "Generated_Source\\PSoC6/RTC.h"
 990              		.file 31 "Generated_Source\\PSoC6\\pdl\\rtos/FreeRTOS/9.0.0/Source/include/task.h"